ARM GAS  1.s 			page 1


   1              		@cw32f030c8t6
   2              		@编译器ARM-NONE-EABI
   3              		@电池内租测试仪
   4              		@yjmwxwx-2023-11-06
   5              		.thumb
   6              		.syntax unified
   7              		.section .text
   8              	vectors:
   9 0000 FC000020 		.word zhanding
  10 0004 C1000000 		.word kaishi + 1
  11 0008 7DB60000 		.word _nmi	+1
  12 000c 7DB60000 		.word _Hard_Fault +1
  13 0010 00000000 		.word 0
  14 0014 00000000 		.word 0
  15 0018 00000000 		.word 0
  16 001c 00000000 		.word 0
  17 0020 00000000 		.word 0
  18 0024 00000000 		.word 0
  19 0028 00000000 		.word 0
  20 002c 7DB60000 		.word _svc_handler +1
  21 0030 00000000 		.word 0
  22 0034 00000000 		.word 0
  23 0038 7DB60000 		.word _pendsv_handler +1
  24 003c 7DB60000 		.word _systickzhongduan +1  @ 15
  25 0040 E5B60000 		.word aaa +1                @ 0		WDT
  26 0044 E5B60000 		.word aaa +1                @ 1		LVD
  27 0048 E5B60000 		.word aaa +1                @ 2		RTC
  28 004c E5B60000 		.word aaa +1                @ 3		FLASHRAM
  29 0050 E5B60000 		.word aaa +1                @ 4		RCC
  30 0054 E5B60000 		.word aaa +1         	    @ 5		GPIOA
  31 0058 E5B60000 		.word aaa +1                @ 6		GPIOB
  32 005c E5B60000 		.word aaa +1                @ 7		GPIOC
  33 0060 E5B60000 		.word aaa +1                @ 8		GPIOF
  34 0064 E5B60000 		.word aaa +1		    @ 9		DMA1
  35 0068 E5B60000 		.word aaa +1                @ 10	DMA23
  36 006c E5B60000 		.word aaa +1                @ 11	DMA45
  37 0070 E5B60000 		.word aaa +1                @ 12	ADC
  38 0074 E5B60000 		.word aaa +1                @ 13	ATIM
  39 0078 E5B60000 		.word aaa +1                @ 14	VC1
  40 007c E5B60000 		.word aaa +1                @ 15	VC2
  41 0080 E5B60000 		.word aaa +1                @ 16	GTIM1
  42 0084 E5B60000 		.word aaa +1                @ 17	GITM2
  43 0088 E5B60000 		.word aaa +1                @ 18	GTIM3
  44 008c E5B60000 		.word aaa +1                @ 19	GTIM4
  45 0090 E5B60000 		.word aaa +1                @ 20	BTIM1
  46 0094 E5B60000 		.word aaa +1                @ 21	BTIM2
  47 0098 E5B60000 		.word aaa +1                @ 22	BTIM3
  48 009c E5B60000 		.word aaa +1                @ 23	I2C1
  49 00a0 E5B60000 		.word aaa +1                @ 24	I2C2
  50 00a4 E5B60000 		.word aaa +1                @ 25	SPI1
  51 00a8 E5B60000 		.word aaa +1                @ 26	SPI2
  52 00ac E5B60000 		.word aaa +1                @ 27	UART1
  53 00b0 E5B60000 		.word aaa +1		    @ 28	UART2
  54 00b4 E5B60000 		.word aaa +1		    @ 29	UART3
  55 00b8 E5B60000 		.word aaa +1		    @ 30	AWT
  56 00bc E5B60000 	 	.word aaa +1		    @ 31	FAULT
  57              	kaishi:
ARM GAS  1.s 			page 2


  58              	@	bkpt # 1
  59              	shizhong:
  60              	@	ldr r0, = 0x40022000   @FLASH访问控制
  61              	@	ldr r1, = 0x5a51001a
  62              	@	str r1, [r0, # 0x04]           @FLASH缓冲 缓冲开启
  63              		
  64 00c0 4748     		ldr r0, = 0x40010000 @ rcc
  65 00c2 4849     		ldr r1, = 0x5a5a0183
  66 00c4 4160     		str r1, [r0, # 0x04]
  67              	deng_hse:
  68 00c6 C169     		ldr r1, [r0, # 0x1c]
  69 00c8 0903     		lsls r1, r1, # 12
  70 00ca FCD5     		bpl deng_hse
  71 00cc 4649     		ldr r1, = 0x53864	@48MHZ (64MHZ=0x53884)
  72 00ce 8162     		str r1, [r0, # 0x28]
  73 00d0 4649     		ldr r1, = 0x5a5a0187
  74 00d2 4160     		str r1, [r0, # 0x04]
  75              	deng_pll:	
  76 00d4 816A     		ldr r1, [r0, # 0x28]
  77 00d6 0904     		lsls r1, r1, # 16
  78 00d8 FCD5     		bpl deng_pll
  79 00da 4549     		ldr r1, = 0x5a5a0022	@0x5a5a002a
  80 00dc 0160     		str r1, [r0]	@pll作为系统时钟	
  81 00de 4549     		ldr r1, = 0x5a5a0186
  82 00e0 4160     		str r1, [r0, # 0x04]	@关HSI
  83              		
  84              	__wai_she_shi_zhong:
  85 00e2 3F48     		ldr r0, = 0x40010000
  86              		@+0x30 0=DMA,1=FLASH,2=CRC,4=PA,5=PB,6=PC,9=PF
  87 00e4 4449     		ldr r1, = 0x273
  88 00e6 0163     		str r1, [r0, # 0x30]
  89              	
  90              		@+0X34 2=ADC,4=VC,7=ATIM,8=SPI1,9=UART1,10=GTIM3
  91              		@11=GTIM4,12=BTIM,13=AWT
  92              	
  93 00e8 4449     		ldr r1, = 0x504
  94 00ea 4163     		str r1, [r0, # 0x34]
  95              		
  96              		@+0X38 1=GTIM1,2=GTIM2,3=RTC,4=WWDT,5=IWDT,6=SPI2
  97              		@7=UART2,8=UART3,11=I2C1,12=I2C2
  98              	
  99              	_neicunqingling:
 100 00ec 4448     		ldr r0, = 0x20002000
 101 00ee 454A     		ldr r2, = 0x20000000
 102 00f0 0021     		movs r1, # 0
 103              	_neicunqinglingxunhuan:
 104 00f2 0438     		subs r0, r0, # 4
 105 00f4 0160     		str r1, [r0]
 106 00f6 9042     		cmp r0, r2
 107 00f8 FBD1     		bne _neicunqinglingxunhuan
 108              	__pa_chu_shi_hua:
 109 00fa 4348     		ldr r0, = 0x48000000 @pa
 110 00fc 4349     		ldr r1, = 0x7Dff
 111 00fe 0160     		str r1, [r0]		@0=输出，1=输入
 112 0100 4349     		ldr r1, = 0x1Dff
 113 0102 C161     		str r1, [r0, # 0x1c]	@0=数字，1=模拟
 114              	
ARM GAS  1.s 			page 3


 115              	
 116              	
 117              	
 118              		
 119 0104 4349     		ldr r1, = 0x50000060
 120 0106 4161     		str r1, [r0, # 0x14]	@复用8-15
 121              		@str r1, [r0, # 0x18]	@复用0-7
 122              		
 123              	__pb_chu_shi_hua:
 124              	
 125 0108 4348     		ldr r0, = 0x48000400 @pb
 126 010a 4449     		ldr r1, = 0xffd7
 127 010c 0160     		str r1, [r0]            @0=输出，1=输入
 128 010e 4449     		ldr r1, = 0xff17
 129 0110 C161     		str r1, [r0, # 0x1c]    @0=数字，1=模拟
 130              	
 131 0112 C021     		movs r1, # 0xc0
 132 0114 0161     		str r1, [r0, # 0x10]	@上拉
 133              		
 134              		@str r1, [r0, # 0x14]    @复用8-15
 135 0116 4349     		ldr r1, = 0x505000
 136 0118 8161     		str r1, [r0, # 0x18]	@复用0-7
 137              	
 138              		
 139              	__pc_chu_shi_hua:	
 140 011a 434B     		ldr r3, = 0xc000	
 141 011c 4348     		ldr r0, = 0x48000800 @pc
 142 011e C361     		str r3, [r0, # 0x1c]
 143 0120 0360     		str r3, [r0]
 144              	
 145              	
 146              	__spi1_chu_shi_hua:
 147 0122 4348     		ldr r0, = 0x40013000
 148 0124 4349     		ldr r1, = 0x7e74
 149 0126 0160     		str r1, [r0]
 150              	
 151              	@__zhong_duan:
 152              	@	ldr r0, = 0xe000e100
 153              	@	movs r1, # 1
 154              	@	lsls r1, r1, # 9
 155              	@	str r1, [r0]
 156              		
 157              	__GTIM3_chu_shi_hua:
 158 0128 4348     		ldr r0, = 0x40014000
 159 012a 4449     		ldr r1, = 23999		@31999
 160 012c 444A     		ldr r2, = 0x300
 161 012e 8150     		str r1, [r0, r2]	@ARR
 162 0130 444A     		ldr r2, = 0x320
 163 0132 4549     		ldr r1, = 12000		@15999
 164 0134 8150     		str r1, [r0, r2]	@CCR1
 165 0136 4549     		ldr r1, = 0x0e
 166 0138 454A     		ldr r2, = 0x308
 167 013a 8150     		str r1, [r0, r2]	@CCMR
 168 013c 0121     		movs r1, # 0x01
 169 013e 454A     		ldr r2, = 0x310
 170 0140 8150     		str r1, [r0, r2]		@CR0
 171              		
ARM GAS  1.s 			page 4


 172              	@__ATIM_chu_shi_hua:
 173              	@	ldr r0, = 0x40012C00
 174              	@	movs r1, # 0x81
 175              	@	str r1, [r0, # 0x20]	@触发ADC
 176              	@	ldr r1, = 239        
 177              	@	str r1, [r0]        @ARR
 178              	@	ldr r1, = 0x2001
 179              	@	str r1, [r0, # 0x0c]
 180              	
 181              	__adc_chu_shi_hua:
 182 0142 4548     		ldr r0, = 0x40012400
 183 0144 C521     		movs r1, # 0xc5 	@0xc1	@0xc5
 184 0146 0160     		str r1, [r0]			@开ADC
 185              	@	movs r1, # 0x01
 186              	@	str r1, [r0, # 0x1c]		@ATIM触发ADC
 187              	__deng_chu_shi_hua:
 188 0148 C16B     		ldr r1, [r0, # 0x3c]
 189 014a 0906     		lsls r1, r1, # 24
 190 014c FCD5     		bpl __deng_chu_shi_hua		@等ADC初始化完成
 191 014e 8021     		movs r1, # 0x80
 192 0150 4160     		str r1, [r0, # 0x04]		@开DMA和通道选择
 193 0152 0121     		movs r1, # 0x01
 194 0154 8160     		str r1, [r0, # 0x08]		@开ADC转换
 195              	
 196 0156 414C     		ldr r4, = 0xe000e010
 197 0158 414B     		ldr r3, = 47999		@239999
 198 015a 6360     		str r3, [r4, # 4]
 199 015c A360     		str r3, [r4, # 8]
 200 015e 0723     		movs r3, # 0x07
 201 0160 2360     		str r3, [r4]    @systick 开
 202              		
 203              	__DMA_chu_shi_hua:
 204 0162 4048     		ldr r0, = 0x40020000
 205 0164 4049     		ldr r1, = 0x107d0	@0x103e8
 206 0166 4162     		str r1, [r0, # 0x24]    @传输数量
 207 0168 4049     		ldr r1, = 0x40012420
 208 016a 8162     		str r1, [r0, # 0x28]    @传输源
 209 016c 4049     		ldr r1, = dianyabiao
 210 016e C162     		str r1, [r0, # 0x2c]    @目的地
 211 0170 2921     		movs r1, # 0x29
 212 0172 0163     		str r1, [r0, # 0x30]    @触发源
 213 0174 6921     		movs r1, # 0x69
 214 0176 0162     		str r1, [r0, # 0x20]    @模式设置和开DMA
 215              		
 216 0178 3E48     		ldr r0, = lvbo_changdu
 217 017a 3F49     		ldr r1, = lvbo_youyi
 218 017c 3F4A     		ldr r2, =  400
 219 017e 0260     		str r2, [r0]
 220 0180 0E22     		movs r2, # 14
 221 0182 0A60     		str r2, [r1]
 222              	
 223 0184 3E48     		ldr r0, = cossin
 224 0186 3F49     		ldr r1, = cos_sin_biao_1k
 225 0188 0160     		str r1, [r0]
 226              	
 227              	__huifu_chuchang:
 228 018a 3F48     		ldr r0, = f_chuchang_r
ARM GAS  1.s 			page 5


 229 018c 0168     		ldr r1, [r0]
 230 018e 3F4A     		ldr r2, = 0xffffffff
 231 0190 8A42     		cmp r2, r1
 232 0192 0AD1     		bne __tiaoguo_chuchang_chushihua
 233 0194 3E48     		ldr r0, = chuchang_jiaozhun_r
 234 0196 3F49     		ldr r1, = chuchang_r
 235 0198 0A22     		movs r2, # 10
 236              	__du_chuchang_xunhuan:
 237 019a 0368     		ldr r3, [r0]
 238 019c 0B60     		str r3, [r1]
 239 019e 0430     		adds r0, r0, # 0x04
 240 01a0 0431     		adds r1, r1, # 0x04
 241 01a2 013A     		subs r2, r2, # 1
 242 01a4 F9D1     		bne __du_chuchang_xunhuan
 243              		
 244              	
 245              	
 246              	
 247              		
 248 01a6 00F0F6F9 		bl __xie_flash
 249              	__tiaoguo_chuchang_chushihua:	
 250              	
 251              		
 252              	__anjian0:
 253 01aa 21E2     		b ting
 254              	__anjian1:
 255              	__dangwei_jia_deng_songshou:
 256 01ac 00F01AFA 		bl __jiaozhun_yanshi
 257 01b0 00F066FB 		bl __an_jian
 258 01b4 0328     		cmp r0, # 3
 259 01b6 75D0     		beq __anjian_3
 260 01b8 0028     		cmp r0, # 0
 261 01ba 08D0     		beq __dangwei_jia_le
 262 01bc 00F004FB 		bl __xiangwei_xuanzhuan
 263 01c0 3548     		ldr r0, = z_r
 264 01c2 0068     		ldr r0, [r0]
 265 01c4 3549     		ldr r1, = f_r
 266 01c6 304A     		ldr r2, = f_chuchang_r
 267 01c8 00F034FB 		bl __xianshi_neizu
 268 01cc EEE7     		b __dangwei_jia_deng_songshou
 269              	__dangwei_jia_le:
 270 01ce 3448     		ldr r0, = liangcheng
 271 01d0 0168     		ldr r1, [r0]
 272 01d2 0131     		adds r1, r1, # 1
 273 01d4 0160     		str r1, [r0]
 274 01d6 0229     		cmp r1, # 2
 275 01d8 01D1     		bne __anjian1_fanhui
 276 01da 0021     		movs r1, # 0
 277 01dc 0160     		str r1, [r0]
 278              	
 279              	__anjian1_fanhui:
 280 01de D4E1     		b __ren_wu_diao_du
 281 01e0 00000140 		.ltorg
 281      83015A5A 
 281      64380500 
 281      87015A5A 
 281      22005A5A 
ARM GAS  1.s 			page 6


 282              	
 283              	__anjian_3:
 284 02a4 25E0     		b __anjian3
 285              	__anjian2:
 286              	__xianshi_jiaodu:
 287 02a6 D74A     		ldr r2, = jiaodu
 288 02a8 D748     		ldr r0, = shangbi_r
 289 02aa D849     		ldr r1, = shangbi_i
 290 02ac 0068     		ldr r0, [r0]
 291 02ae 0968     		ldr r1, [r1]
 292 02b0 8010     		asrs r0, r0, # 2
 293 02b2 8910     		asrs r1, r1, # 2
 294 02b4 00F043FA 		bl __atan2_ji_suan
 295 02b8 C013     		asrs r0, r0, # 15
 296 02ba 1060     		str r0, [r2]
 297 02bc 00F001F8 		bl __xianshi_j_d
 298 02c0 63E1     		b __ren_wu_diao_du
 299              	__xianshi_j_d:
 300 02c2 1EB5     		push {r1-r4,lr}
 301 02c4 0446     		mov r4, r0
 302 02c6 0000     		movs r0, r0
 303 02c8 08D5     		bpl __xian_shi_j_d
 304 02ca C043     		mvns r0, r0
 305 02cc 0130     		adds r0, r0, # 1
 306 02ce 0446     		mov r4, r0
 307              	__j_d_shi_fu:
 308 02d0 CF49     		ldr r1, = danwei
 309 02d2 0A68     		ldr r2, [r1]
 310 02d4 0120     		movs r0, # 0x01
 311 02d6 0243     		orrs r2, r2, r0
 312 02d8 0A60     		str r2, [r1]
 313 02da 04E0     		b __xianshi_j_d1
 314              	__xian_shi_j_d:
 315 02dc CC49     		ldr r1, = danwei
 316 02de 0A68     		ldr r2, [r1]
 317 02e0 5208     		lsrs r2, r2, # 1
 318 02e2 5200     		lsls r2, r2, # 1
 319 02e4 0A60     		str r2, [r1]
 320              	__xianshi_j_d1:
 321 02e6 2046     		mov r0, r4
 322 02e8 0321     		movs r1, # 0x03
 323 02ea 0BF04DF9 		bl _zhuanshumaguanma
 324 02ee 1EBD     		pop {r1-r4,pc}
 325              		
 326 02f0 7EE1     		b ting
 327              	__anjian3:
 328 02f2 00F02DF8 		bl __xianshi_jiaozhun_caidan
 329 02f6 00F0C3FA 		bl __an_jian
 330 02fa 0328     		cmp r0, # 3
 331 02fc F9D0     		beq __anjian3
 332 02fe 0028     		cmp r0, # 0
 333 0300 F7D1     		bne __anjian3
 334              	__anjian3_xunhuan:
 335 0302 00F025F8 		bl __xianshi_jiaozhun_caidan
 336 0306 00F0BBFA 		bl __an_jian
 337 030a 0128     		cmp r0, # 1
 338 030c 02D0     		beq __jiaozhun_caidan_jia_deng_songshou
ARM GAS  1.s 			page 7


 339 030e 0228     		cmp r0, # 2
 340 0310 29D0     		beq __jinru_jiaozhun_caidan_deng_songshou
 341 0312 F6E7     		b __anjian3_xunhuan
 342              	__jiaozhun_caidan_jia_deng_songshou:
 343 0314 00F066F9 		bl __jiaozhun_yanshi
 344 0318 00F0B2FA 		bl __an_jian
 345 031c 0328     		cmp r0, # 3
 346 031e 0DD0     		beq __tiaochu_anjian3
 347 0320 0028     		cmp r0, # 0
 348 0322 02D0     		beq __jiaozhun_caidan_jia_le
 349 0324 00F014F8 		bl __xianshi_jiaozhun_caidan
 350 0328 F4E7     		b __jiaozhun_caidan_jia_deng_songshou
 351              	__jiaozhun_caidan_jia_le:
 352 032a BA48     		ldr r0, = jiaozhun_bianhao
 353 032c 0168     		ldr r1, [r0]
 354 032e 0131     		adds r1, r1, # 1
 355 0330 0160     		str r1, [r0]
 356 0332 0329     		cmp r1, # 3
 357 0334 01D1     		bne __anjian3_fanhui
 358 0336 0021     		movs r1, # 0
 359 0338 0160     		str r1, [r0]
 360              	__anjian3_fanhui:
 361 033a E2E7     		b __anjian3_xunhuan
 362              	__tiaochu_anjian3:
 363 033c B64F     		ldr r7, = 0x8ffff
 364              	__yy1:
 365 033e B748     		ldr r0, = wan
 366 0340 B749     		ldr r1, = shumaguanma
 367 0342 0068     		ldr r0, [r0]
 368 0344 0860     		str r0, [r1]
 369 0346 FF20     		movs r0, # 0xff
 370 0348 4860     		str r0, [r1, # 0x04]
 371              	
 372 034a 013F     		subs r7, r7, # 1
 373 034c F7D1     		bne __yy1
 374 034e 4FE1     		b ting
 375              	__xianshi_jiaozhun_caidan:
 376 0350 07B5     		push {r0-r2,lr}
 377 0352 B348     		ldr r0, = shumaguanma
 378 0354 AF4A     		ldr r2, = jiaozhun_bianhao
 379 0356 B349     		ldr r1, = p0
 380 0358 1278     		ldrb r2, [r2]
 381 035a 9200     		lsls r2, r2, # 2
 382 035c 8958     		ldr r1, [r1, r2]
 383 035e 0160     		str r1, [r0]
 384 0360 FF21     		movs r1, # 0xff
 385 0362 4160     		str r1, [r0, # 0x04]
 386 0364 07BD     		pop {r0-r2,pc}
 387              	
 388              	__jinru_jiaozhun_caidan_deng_songshou:
 389 0366 00F03DF9 		bl __jiaozhun_yanshi
 390 036a 00F089FA 		bl __an_jian
 391 036e 0328     		cmp r0, # 3
 392 0370 BFD0     		beq __anjian3
 393 0372 0028     		cmp r0, # 0
 394 0374 02D0     		beq __jinru_jiaozhun_caidan
 395 0376 FFF7EBFF 		bl __xianshi_jiaozhun_caidan
ARM GAS  1.s 			page 8


 396 037a F4E7     		b __jinru_jiaozhun_caidan_deng_songshou
 397              	
 398              	__jinru_jiaozhun_caidan:
 399 037c A548     		ldr r0, = jiaozhun_bianhao
 400 037e 0068     		ldr r0, [r0]
 401 0380 8000     		lsls r0, r0, # 2
 402 0382 A949     		ldr r1, = jiaozhun_biao
 403 0384 0A58     		ldr r2, [r1, r0]
 404 0386 9746     		mov pc, r2
 405              	
 406              	
 407              	
 408              	__qingling:
 409 0388 00F07AF9 		bl __du_jiaozhunbiao
 410 038c A748     		ldr r0, = liangcheng
 411 038e 0021     		movs r1, # 0
 412 0390 0160     		str r1, [r0]
 413              	__duanlu_qingling:
 414 0392 00F03DF8 		bl __duanlu_qingling_xianshi
 415 0396 00F073FA 		bl __an_jian
 416 039a 0128     		cmp r0, # 1
 417 039c 02D0     		beq __qingling_jia
 418 039e 0228     		cmp r0, # 2
 419 03a0 11D0     		beq __qingling_jian
 420 03a2 F6E7     		b __duanlu_qingling
 421              	__qingling_jia:
 422 03a4 00F06CFA 		bl __an_jian
 423 03a8 0328     		cmp r0, # 3
 424 03aa 1DD0     		beq __qingling_baocun
 425 03ac 0028     		cmp r0, # 0
 426 03ae 02D0     		beq __qingling_jiale
 427 03b0 00F02EF8 		bl __duanlu_qingling_xianshi
 428 03b4 F6E7     		b __qingling_jia
 429              	__qingling_jiale:
 430 03b6 9D48     		ldr r0, = liangcheng
 431 03b8 0068     		ldr r0, [r0]
 432 03ba 8000     		lsls r0, r0, # 2
 433 03bc 9C49     		ldr r1, = r
 434 03be 0A58     		ldr r2, [r1, r0]
 435 03c0 0132     		adds r2, r2, # 1
 436 03c2 0A50     		str r2, [r1, r0]
 437 03c4 E5E7     		b __duanlu_qingling
 438              	__qingling_jian:
 439 03c6 00F05BFA 		bl __an_jian
 440 03ca 0328     		cmp r0, # 3
 441 03cc 0CD0     		beq __qingling_baocun
 442 03ce 0028     		cmp r0, # 0
 443 03d0 02D0     		beq __qingling_jianle
 444 03d2 00F01DF8 		bl __duanlu_qingling_xianshi
 445 03d6 F6E7     		b __qingling_jian
 446              	__qingling_jianle:
 447 03d8 9448     		ldr r0, = liangcheng
 448 03da 0068     		ldr r0, [r0]
 449 03dc 8000     		lsls r0, r0, # 2
 450 03de 9449     		ldr r1, = r
 451 03e0 0A58     		ldr r2, [r1, r0]
 452 03e2 013A     		subs r2, r2, # 1
ARM GAS  1.s 			page 9


 453 03e4 0A50     		str r2, [r1, r0]
 454 03e6 D4E7     		b __duanlu_qingling
 455              	
 456              	__qingling_baocun:
 457 03e8 9048     		ldr r0, = liangcheng
 458 03ea 0168     		ldr r1, [r0]
 459 03ec 0131     		adds r1, r1, # 1
 460 03ee 0160     		str r1, [r0]
 461 03f0 0229     		cmp r1, # 2
 462 03f2 CED1     		bne __duanlu_qingling
 463              	__duanlu_qingling_wan:
 464 03f4 0021     		movs r1, # 0
 465 03f6 0160     		str r1, [r0]
 466              	
 467 03f8 874F     		ldr r7, = 0x8ffff
 468              	__yy:
 469 03fa 8848     		ldr r0, = wan
 470 03fc 8849     		ldr r1, = shumaguanma
 471 03fe 0068     		ldr r0, [r0]
 472 0400 0860     		str r0, [r1]
 473 0402 FF20     		movs r0, # 0xff
 474 0404 4860     		str r0, [r1, # 0x04]
 475              	
 476 0406 013F     		subs r7, r7, # 1
 477 0408 F7D1     		bne __yy
 478 040a 00F0C4F8 		bl __xie_flash
 479 040e 01BE     		bkpt # 1
 480              	
 481              	__duanlu_qingling_xianshi:
 482 0410 03B5     		push {r0-r1,lr}
 483 0412 00F0D9F9 		bl __xiangwei_xuanzhuan
 484 0416 8748     		ldr r0, = z_r
 485 0418 0068     		ldr r0, [r0]
 486 041a 8549     		ldr r1, = r
 487 041c 864A     		ldr r2, = chuchang_r
 488 041e 00F009FA 		bl __xianshi_neizu
 489 0422 03BD     		pop {r0-r1,pc}
 490              	
 491              	
 492              	
 493              		
 494              	__xiangwei:
 495              	
 496 0424 00F02CF9 		bl __du_jiaozhunbiao
 497 0428 8048     		ldr r0, = liangcheng
 498 042a 0021     		movs r1, # 0
 499 042c 0160     		str r1, [r0]
 500              	
 501              	__shezhi_jiaodu:
 502              	__shezhi_jiaodu1:
 503 042e 00F03BF8 		bl __shezhi_jiaodu_xianshi
 504 0432 00F025FA 		bl __an_jian
 505 0436 0128     		cmp r0, # 1
 506 0438 02D0     		beq __jiaodu_jia
 507 043a 0228     		cmp r0, # 2
 508 043c 11D0     		beq __jiaodu_jian
 509 043e F6E7     		b __shezhi_jiaodu1
ARM GAS  1.s 			page 10


 510              	__jiaodu_jia:
 511 0440 00F01EFA 		bl __an_jian
 512 0444 0328     		cmp r0, # 3
 513 0446 1DD0     		beq __jiaodu_shezhi_baocun
 514 0448 0028     		cmp r0, # 0
 515 044a 02D0     		beq __jiaodu_jiale
 516 044c 00F02CF8 		bl __shezhi_jiaodu_xianshi
 517 0450 F6E7     		b __jiaodu_jia
 518              	__jiaodu_jiale:
 519 0452 7648     	        ldr r0, = liangcheng
 520 0454 0068     		ldr r0, [r0]
 521 0456 8000     		lsls r0, r0, # 2
 522 0458 7849     		ldr r1, = qiwang_jiaodu_r
 523 045a 0A58     		ldr r2, [r1, r0]
 524 045c 0132     		adds r2, r2, # 1
 525 045e 0A50     		str r2, [r1, r0]
 526 0460 E5E7     		b __shezhi_jiaodu1
 527              	__jiaodu_jian:
 528 0462 00F00DFA 		bl __an_jian
 529 0466 0328     		cmp r0, # 3
 530 0468 12D0     		beq __jiaodu_shezhi_wan
 531 046a 0028     		cmp r0, # 0
 532 046c 02D0     		beq __jiaodu_jianle
 533 046e 00F01BF8 		bl __shezhi_jiaodu_xianshi
 534 0472 F6E7     		b __jiaodu_jian
 535              	__jiaodu_jianle:
 536 0474 6D48     		ldr r0, = liangcheng
 537 0476 0068     		ldr r0, [r0]
 538 0478 8000     		lsls r0, r0, # 2
 539 047a 7049     		ldr r1, = qiwang_jiaodu_r
 540 047c 0A58     		ldr r2, [r1, r0]
 541 047e 013A     		subs r2, r2, # 1
 542 0480 0A50     		str r2, [r1, r0]
 543 0482 D4E7     		b __shezhi_jiaodu1
 544              	
 545              	__jiaodu_shezhi_baocun:
 546 0484 6948     		ldr r0, = liangcheng
 547 0486 0168     		ldr r1, [r0]
 548 0488 0131     		adds r1, r1, # 1
 549 048a 0160     		str r1, [r0]
 550 048c 0229     		cmp r1, # 2
 551 048e CED1     		bne __shezhi_jiaodu1
 552              	__jiaodu_shezhi_wan:
 553 0490 614F     		ldr r7, = 0x8ffff
 554              	__yy2:
 555 0492 6248     		ldr r0, = wan
 556 0494 6249     		ldr r1, = shumaguanma
 557 0496 0068     		ldr r0, [r0]
 558 0498 0860     		str r0, [r1]
 559 049a FF20     		movs r0, # 0xff
 560 049c 4860     		str r0, [r1, # 0x04]
 561 049e 013F     		subs r7, r7, # 1
 562 04a0 F7D1     		bne __yy2
 563 04a2 00F078F8 		bl __xie_flash
 564 04a6 01BE     		bkpt # 1
 565              		
 566              	
ARM GAS  1.s 			page 11


 567              	__shezhi_jiaodu_xianshi:
 568 04a8 1FB5     		push {r0-r4,lr}
 569 04aa 6048     		ldr r0, = liangcheng
 570 04ac 0068     		ldr r0, [r0]
 571 04ae 6449     	        ldr r1, = danwei_biao
 572 04b0 095C     		ldrb r1, [r1, r0]
 573 04b2 574A     		ldr r2, = danwei
 574 04b4 1160     		str r1, [r2]
 575 04b6 8000     		lsls r0, r0, # 2
 576 04b8 6049     		ldr r1, = qiwang_jiaodu_r
 577 04ba 0858     		ldr r0, [r1, r0]
 578 04bc 00F0EAF8 		bl __jisuan_cos_sin
 579 04c0 0246     		mov r2, r0
 580 04c2 0B46     		mov r3, r1
 581 04c4 594C     		ldr r4, = liangcheng
 582 04c6 2468     		ldr r4, [r4]
 583 04c8 A400     		lsls r4, r4, # 2
 584 04ca 5E48     		ldr r0, = jiaodu_r
 585 04cc 5E49     		ldr r1, = jiaodu_i
 586 04ce 0251     		str r2, [r0, r4]
 587 04d0 0B51     		str r3, [r1, r4]
 588 04d2 00F094F9 		bl __xiangwei_xuanzhuan1
 589 04d6 5748     		ldr r0, = z_r
 590 04d8 5C49     		ldr r1, = z_i
 591 04da 0068     		ldr r0, [r0]
 592 04dc 0968     		ldr r1, [r1]
 593 04de 8010     		asrs r0, r0, # 2
 594 04e0 8910     		asrs r1, r1, # 2
 595 04e2 00F02CF9 		bl __atan2_ji_suan
 596 04e6 C013     		asrs r0, r0, # 15
 597 04e8 FFF7EBFE 		bl __xianshi_j_d
 598 04ec 1FBD     		pop {r0-r4,pc}
 599              		
 600              	
 601              		
 602              	__z_r:
 603 04ee 00F0C7F8 		bl __du_jiaozhunbiao
 604 04f2 4E48     		ldr r0, = liangcheng
 605 04f4 0021     		movs r1, # 0
 606 04f6 0160     		str r1, [r0]
 607              	__shezhi_z_r:
 608 04f8 00F03DF8 		bl __shezhi_z_r_xianshi
 609 04fc 00F0C0F9 		bl __an_jian
 610 0500 0128     		cmp r0, # 1
 611 0502 02D0     		beq __shezhi_z_r_jia
 612 0504 0228     		cmp r0, # 2
 613 0506 11D0     		beq __shezhi_z_r_jian
 614 0508 F6E7     		b __shezhi_z_r
 615              	__shezhi_z_r_jia:
 616 050a 00F0B9F9 		bl __an_jian
 617 050e 0328     		cmp r0, # 3
 618 0510 1DD0     		beq __shezhi_z_r_baocun
 619 0512 0028     		cmp r0, # 0
 620 0514 02D0     		beq __shezhi_z_r_jiale
 621 0516 00F02EF8 		bl __shezhi_z_r_xianshi
 622 051a F6E7     		b __shezhi_z_r_jia
 623              	__shezhi_z_r_jiale:
ARM GAS  1.s 			page 12


 624 051c 4348     		ldr r0, = liangcheng
 625 051e 0068     		ldr r0, [r0]
 626 0520 8000     		lsls r0, r0, # 2
 627 0522 4549     		ldr r1, = chuchang_r
 628 0524 0A58     		ldr r2, [r1, r0]
 629 0526 0132     		adds r2, r2, # 1
 630 0528 0A50     		str r2, [r1, r0]
 631 052a E5E7     		b __shezhi_z_r
 632              	__shezhi_z_r_jian:
 633 052c 00F0A8F9 		bl __an_jian
 634 0530 0328     		cmp r0, # 3
 635 0532 0CD0     		beq __shezhi_z_r_baocun
 636 0534 0028     		cmp r0, # 0
 637 0536 02D0     		beq __shezhi_z_r_jianle
 638 0538 00F01DF8 		bl __shezhi_z_r_xianshi
 639 053c F6E7     		b __shezhi_z_r_jian
 640              	__shezhi_z_r_jianle:
 641 053e 3B48     		ldr r0, = liangcheng
 642 0540 0068     		ldr r0, [r0]
 643 0542 8000     		lsls r0, r0, # 2
 644 0544 3C49     		ldr r1, = chuchang_r
 645 0546 0A58     		ldr r2, [r1, r0]
 646 0548 013A     		subs r2, r2, # 1
 647 054a 0A50     		str r2, [r1, r0]
 648 054c D4E7     		b __shezhi_z_r
 649              	
 650              	__shezhi_z_r_baocun:
 651 054e 3748     		ldr r0, = liangcheng
 652 0550 0168     		ldr r1, [r0]
 653 0552 0131     		adds r1, r1, # 1
 654 0554 0160     		str r1, [r0]
 655 0556 0229     		cmp r1, # 2
 656 0558 CED1     		bne __shezhi_z_r
 657              	__shezhi_z_r_wan:
 658 055a 0021     		movs r1, # 0
 659 055c 0160     		str r1, [r0]
 660              	
 661 055e 2E4F     		ldr r7, = 0x8ffff
 662              	__yy3:
 663 0560 2E48     		ldr r0, = wan
 664 0562 2F49     		ldr r1, = shumaguanma
 665 0564 0068     		ldr r0, [r0]
 666 0566 0860     		str r0, [r1]
 667 0568 FF20     		movs r0, # 0xff
 668 056a 4860     		str r0, [r1, # 0x04]
 669              	
 670 056c 013F     		subs r7, r7, # 1
 671 056e F7D1     		bne __yy3
 672 0570 00F011F8 		bl __xie_flash
 673 0574 01BE     		bkpt # 1
 674              	
 675              	__shezhi_z_r_xianshi:
 676 0576 03B5     		push {r0-r1,lr}
 677 0578 00F026F9 		bl __xiangwei_xuanzhuan
 678 057c 2D48     		ldr r0, = z_r
 679 057e 0068     		ldr r0, [r0]
 680 0580 2B49     		ldr r1, = r
ARM GAS  1.s 			page 13


 681 0582 2D4A     		ldr r2, = chuchang_r
 682 0584 00F056F9 		bl __xianshi_neizu
 683 0588 03BD     		pop {r0-r1,pc}
 684              		
 685              	__ren_wu_diao_du:
 686 058a 00F079F9 		bl __an_jian
 687 058e 8000     		lsls r0, r0, # 2
 688 0590 2F49     		ldr r1, = an_jian_biao
 689 0592 0A58     		ldr r2, [r1, r0]
 690 0594 9746     		mov pc, r2
 691              		
 692              	__xie_flash:
 693              		
 694 0596 2F48     		ldr r0, = 0x40022000
 695 0598 2F49     		ldr r1, = 0x5a5a0000
 696 059a 4160     		str r1, [r0, # 0x04]
 697 059c 2F49     		ldr r1, = 0x5a5a0002
 698 059e 0160     		str r1, [r0]
 699 05a0 2F49     		ldr r1, = 0x5a5a8000	@#15
 700 05a2 8160     		str r1, [r0, # 0x08]	@页解锁
 701 05a4 AA21     		movs r1, # 0xaa
 702 05a6 2F4A     		ldr r2, = 0xf000
 703 05a8 1160     		str r1, [r2]
 704 05aa 00F015F8 		bl __flash_mang
 705              		
 706 05ae 2E49     		ldr r1, = 0x5a5a0001
 707 05b0 0160     		str r1, [r0]
 708 05b2 2C4A     		ldr r2, = 0xf000
 709 05b4 2049     		ldr r1, = chuchang_r
 710 05b6 0A23     		movs r3, # 10
 711              	__xie_flash_xun_huan:
 712 05b8 0C68     		ldr r4, [r1]
 713 05ba 1460     		str r4, [r2]
 714 05bc 0431     		adds r1, r1, # 0x04
 715 05be 0432     		adds r2, r2, # 0x04
 716 05c0 00F00AF8 		bl __flash_mang
 717 05c4 013B     		subs r3, r3, # 1
 718 05c6 F7D1     		bne __xie_flash_xun_huan
 719              	
 720              		
 721 05c8 2349     	        ldr r1, = 0x5a5a0000
 722 05ca 0160     		str r1, [r0]
 723 05cc 2249     		ldr r1, = 0x5a5a0000    @#15
 724 05ce 8160     		str r1, [r0, # 0x08]    @页解锁
 725              	
 726 05d0 2648     		ldr r0, = 0xe000ed0c
 727 05d2 2749     		ldr r1, = 0x05fa0004
 728 05d4 0160     		str r1, [r0]          		@复位
 729 05d6 21BE     		bkpt # 33
 730              		
 731              	__flash_mang:
 732 05d8 02B4     		push {r1}
 733 05da 0168     		ldr r1, [r0]
 734 05dc 8906     		lsls r1, r1, # 26
 735 05de FBD4     		bmi __flash_mang
 736 05e0 02BC     		pop {r1}
 737 05e2 7047     		bx lr
ARM GAS  1.s 			page 14


 738              	
 739              	
 740              	__jiaozhun_yanshi:
 741 05e4 01B4     		push {r0}
 742 05e6 2348     		ldr r0, = 0x1ffff
 743              	__jiaozhun_yanshi_xunhuan:
 744 05e8 0138     		subs r0, r0, # 1
 745 05ea FDD1     		bne __jiaozhun_yanshi_xunhuan
 746 05ec 01BC     		pop {r0}
 747 05ee 7047     		bx lr
 748              	ting:
 749 05f0 00F0EAF8 		bl __xiangwei_xuanzhuan
 750 05f4 0F48     		ldr r0, = z_r
 751 05f6 0068     		ldr r0, [r0]
 752 05f8 1F49     		ldr r1, = f_r
 753 05fa 204A     		ldr r2, = f_chuchang_r
 754 05fc 00F01AF9 		bl __xianshi_neizu
 755              	
 756 0600 C3E7     		b __ren_wu_diao_du
 757 0602 0000BC1F 		.ltorg
 757      0020E01F 
 757      0020E41F 
 757      0020FC1F 
 757      0020C01F 
 758              	
 759              	
 760              	
 761              	
 762              	__du_jiaozhunbiao:
 763 0680 4848     		ldr r0, = f_chuchang_r
 764 0682 4949     		ldr r1, = chuchang_r
 765 0684 0A22     		movs r2, # 10
 766              	__du_jiaozhunbiao_xunhuan:
 767 0686 0368     		ldr r3, [r0]
 768 0688 0B60     		str r3, [r1]
 769 068a 0430     		adds r0, r0, # 0x04
 770 068c 0431     		adds r1, r1, # 0x04
 771 068e 013A     		subs r2, r2, # 1
 772 0690 F9D1     		bne __du_jiaozhunbiao_xunhuan
 773 0692 7047     		bx lr
 774              	
 775              	
 776              	
 777              	
 778              	
 779              	
 780              	
 781              	
 782              	__jisuan_cos_sin:							@jd
 783              		@入口R0=角度 （-18000到+18000）
 784              		@出口R0=COS，R1=SIN
 785 0694 FCB5     		push {r2-r7,lr}
 786 0696 4549     		ldr r1, = 18000
 787 0698 8842     		cmp r0, r1
 788 069a 02D9     		bls __xiaoyu_180
 789 069c 4018     		adds r0, r0, r1
 790 069e 0127     		movs r7, # 1
ARM GAS  1.s 			page 15


 791 06a0 00E0     		b __js_cos_sin
 792              	__xiaoyu_180:
 793 06a2 0027     		movs r7, # 0
 794              	__js_cos_sin:
 795 06a4 4249     		ldr r1, = 9000
 796 06a6 434A     		ldr r2, = 51471
 797 06a8 0000     		movs r0, r0
 798 06aa 03D5     		bpl __jisuan_jiaodu_bushi0
 799 06ac C043     		mvns r0, r0
 800 06ae 0130     		adds r0, r0, # 1
 801 06b0 0124     		movs r4, # 1
 802 06b2 00E0     		b __jiance_chao90
 803              	__jisuan_jiaodu_bushi0:
 804 06b4 0024     		movs r4, # 0
 805              	__jiance_chao90:
 806 06b6 8842     		cmp r0, r1
 807 06b8 03D9     		bls __xiaoyu_90
 808 06ba 3C4E     		ldr r6, = 18000
 809 06bc 301A     		subs r0, r6, r0
 810 06be 0126     		movs r6, # 1
 811 06c0 00E0     		b __suan_cossin
 812              	__xiaoyu_90:
 813 06c2 0026     		movs r6, # 0
 814              	__suan_cossin:
 815 06c4 3C4D     		ldr r5, = 10000
 816 06c6 6843     		muls r0, r0, r5
 817              		@bl _chufa
 818 06c8 0AF0ACFF 		bl _chufa
 819 06cc 5043     		muls r0, r0, r2
 820 06ce 2946     		mov r1, r5
 821              		@bl _chufa
 822 06d0 0AF0A8FF 		bl _chufa
 823 06d4 012C     		cmp r4, # 1
 824 06d6 01D1     		bne __suan_cos_sin1
 825 06d8 C043     		mvns r0, r0
 826 06da 0130     		adds r0, r0, # 1
 827              	__suan_cos_sin1:
 828 06dc 00F00BF8 		bl __cordic_cos_sin
 829 06e0 012E     		cmp r6, # 1
 830 06e2 01D1     		bne __cos_sin_fanhui
 831 06e4 C043     		mvns r0, r0
 832 06e6 0130     		adds r0, r0, # 1
 833              	__cos_sin_fanhui:
 834 06e8 012F     		cmp r7, # 1
 835 06ea 03D1     		bne __cossin_fh
 836 06ec C043     		mvns r0, r0
 837 06ee C943     		mvns r1, r1
 838 06f0 0130     		adds r0, r0, # 1
 839 06f2 0131     		adds r1, r1, # 1
 840              	__cossin_fh:
 841 06f4 FCBD     		pop {r2-r7,pc}
 842              	__cordic_cos_sin:
 843              		@入口R0
 844              		@出口R0=COS，R1=SIN
 845              		@ x= 0x4dba
 846              		@ r1=x,r2=y,r0=z,r4=d,r5=k,r6=cordic_mabiao
 847              	
ARM GAS  1.s 			page 16


 848 06f6 FCB5     		push {r2-r7,lr}
 849 06f8 4246     		mov r2, r8
 850 06fa 4B46     		mov r3, r9
 851 06fc 0CB4     		push {r2-r3}
 852 06fe 0025     		movs r5, # 0
 853 0700 2A46     		mov r2, r5
 854 0702 2C46     		mov r4, r5
 855 0704 2D49     		ldr r1, = 0x4dba
 856              	cordicxunhuan:							 @ 循环
 857 0706 C413     		asrs r4, r0, # 15
 858              		@ x
 859 0708 1746     		mov r7, r2
 860 070a 2A41     		asrs r2, r2, r5
 861 070c 6240     		eors r2, r2, r4
 862 070e 121B     		subs r2, r2, r4
 863 0710 8B1A     		subs r3, r1, r2
 864              		@ y
 865 0712 0E46     		mov r6, r1
 866 0714 2941     		asrs r1, r1, r5
 867 0716 6140     		eors r1, r1, r4
 868 0718 091B     		subs r1, r1, r4
 869 071a 7F18     		adds r7, r7, r1
 870              		@ z
 871 071c 284E     		ldr r6, = cordic_yong_atan_biao
 872 071e AA00     		lsls r2, r5, # 2
 873 0720 B158     		ldr r1, [r6, r2]
 874 0722 6140     		eors r1, r1, r4
 875 0724 091B     		subs r1, r1, r4
 876 0726 401A     		subs r0, r0, r1
 877 0728 1946     		mov r1, r3
 878 072a 3A46     		mov r2, r7
 879 072c 0135     		adds r5, # 1
 880 072e 102D     		cmp r5, # 16
 881 0730 E9D1     		bne cordicxunhuan
 882 0732 1846     		mov r0, r3
 883 0734 3946     		mov r1, r7
 884 0736 0CBC     		pop {r2-r3}
 885 0738 9046     		mov r8, r2
 886 073a 9946     		mov r9, r3
 887 073c FCBD     		pop {r2-r7,pc}
 888              		
 889              	__atan2_ji_suan:						@jt
 890              		@入口R0=实部，R1=虚部，结果=R0
 891 073e FCB5     		push {r2-r7,lr}
 892 0740 4246     		mov r2, r8
 893 0742 04B4     		push {r2}
 894 0744 1F4B     		ldr r3, = cordic_yong_cos_sin
 895 0746 0A22     		movs r2, # 10
 896 0748 5043     		muls r0, r0, r2
 897 074a 5143     		muls r1, r1, r2
 898 074c 0022     		movs r2, # 0
 899 074e 9046     		mov r8, r2
 900 0750 174C     		ldr r4, = 9000
 901 0752 E403     		lsls r4, r4, # 15
 902              	__cordic_atan2_xun_huan:
 903              	__du_cos_sin:
 904 0754 1D68     		ldr r5, [r3]	@cos
ARM GAS  1.s 			page 17


 905 0756 0433     		adds r3, r3, # 4
 906 0758 2F46     		mov r7, r5
 907 075a 1E68     		ldr r6, [r3]	@sin
 908 075c 0433     		adds r3, r3, # 4
 909 075e 3246     		mov r2, r6
 910 0760 4543     		muls r5, r5, r0         @x*cos
 911 0762 4243     		muls r2, r2, r0         @x*sin
 912 0764 4E43     		muls r6, r6, r1         @y*sin
 913 0766 4F43     		muls r7, r7, r1         @y*cos
 914 0768 0900     		movs r1, r1
 915 076a 05D5     		bpl __ni_shi_zhen_zhuan
 916              	__shun_shi_zhen_zhuan:
 917 076c AD1B     		subs r5, r5, r6
 918 076e BF18     		adds r7, r7, r2
 919 0770 4646     		mov r6, r8
 920 0772 3619     		adds r6, r6, r4
 921 0774 B046     		mov r8, r6
 922 0776 04E0     		b __xuan_zhuan_wan
 923              	__ni_shi_zhen_zhuan:
 924 0778 AD19     		adds r5, r5, r6
 925 077a BF1A     		subs r7, r7, r2
 926 077c 4646     		mov r6, r8
 927 077e 361B     		subs r6, r6, r4
 928 0780 B046     		mov r8, r6
 929              	__xuan_zhuan_wan:
 930 0782 104E     		ldr r6, = cordic_yong_cos_sin
 931 0784 2022     		movs r2, # 32
 932 0786 9200     		lsls r2, r2, # 2
 933 0788 B618     		adds r6, r6, r2
 934 078a AD13     		asrs r5, r5, # 14
 935 078c BF13     		asrs r7, r7, # 14
 936 078e 2846     		mov r0, r5
 937 0790 3946     		mov r1, r7
 938 0792 6408     		lsrs r4, r4, # 1	@旋转
 939 0794 B342     		cmp r3,	r6
 940 0796 DDD1     		bne __cordic_atan2_xun_huan
 941 0798 4046     		mov r0, r8
 942 079a C043     		mvns r0, r0
 943 079c 0130     		adds r0, r0, # 1
 944              		@	asrs r0, r0, # 15      @除32768等于角度
 945 079e 04BC     		pop {r2}
 946 07a0 9046     		mov r8, r2
 947 07a2 FCBD     		pop {r2-r7,pc}
 948 07a4 00F00000 		.ltorg
 948      001F0020 
 948      50460000 
 948      28230000 
 948      0FC90000 
 949              	
 950              	
 951              	
 952              	__xiangwei_xuanzhuan:
 953 07c8 FCB5     		push {r2-r7,lr}
 954 07ca 374C     		ldr r4, = liangcheng
 955 07cc 2468     		ldr r4, [r4]
 956 07ce A400     		lsls r4, r4, # 2
 957 07d0 3648     		ldr r0, = f_jiaodu_r  @-3697
ARM GAS  1.s 			page 18


 958 07d2 3749     		ldr r1, = f_jiaodu_i  @32558
 959 07d4 0059     		ldr r0, [r0, r4]
 960 07d6 0959     		ldr r1, [r1, r4]
 961 07d8 364A     		ldr r2, = shangbi_r
 962 07da 374B     		ldr r3, = shangbi_i
 963 07dc 1468     		ldr r4, [r2]
 964 07de 1D68     		ldr r5, [r3]
 965 07e0 0646     		mov r6, r0
 966 07e2 0F46     		mov r7, r1
 967 07e4 6043     		muls r0, r0, r4 @X*COS
 968 07e6 6F43     		muls r7, r7, r5 @Y*SIN
 969 07e8 6143     		muls r1, r1, r4 @X*SIN
 970 07ea 6E43     		muls r6, r6, r5 @Y*COS
 971 07ec C019     		adds r0, r0, r7
 972 07ee 711A     		subs r1, r6, r1
 973 07f0 C013     		asrs r0, r0, # 15
 974 07f2 C913     		asrs r1, r1, # 15
 975 07f4 314A     		ldr r2, = z_r
 976 07f6 324B     		ldr r3, = z_i
 977 07f8 1060     		str r0, [r2]
 978 07fa 1960     		str r1, [r3]
 979 07fc FCBD     		pop {r2-r7,pc}
 980              	
 981              	__xiangwei_xuanzhuan1:
 982 07fe FCB5     		push {r2-r7,lr}
 983 0800 294C     		ldr r4, = liangcheng
 984 0802 2468     		ldr r4, [r4]
 985 0804 A400     		lsls r4, r4, # 2
 986 0806 2F48     		ldr r0, = jiaodu_r
 987 0808 2F49     		ldr r1, = jiaodu_i
 988 080a 0059     		ldr r0, [r0, r4]
 989 080c 0959     		ldr r1, [r1, r4]
 990 080e 294A     		ldr r2, = shangbi_r
 991 0810 294B     		ldr r3, = shangbi_i
 992 0812 1468     		ldr r4, [r2]
 993 0814 1D68     		ldr r5, [r3]
 994 0816 0646     		mov r6, r0
 995 0818 0F46     		mov r7, r1
 996 081a 6043     		muls r0, r0, r4 @X*COS
 997 081c 6F43     		muls r7, r7, r5 @Y*SIN
 998 081e 6143     		muls r1, r1, r4 @X*SIN
 999 0820 6E43     		muls r6, r6, r5 @Y*COS
 1000 0822 C019     		adds r0, r0, r7
 1001 0824 711A     		subs r1, r6, r1
 1002 0826 C013     		asrs r0, r0, # 15
 1003 0828 C913     		asrs r1, r1, # 15
 1004 082a 244A     		ldr r2, = z_r
 1005 082c 244B     		ldr r3, = z_i
 1006 082e 1060     		str r0, [r2]
 1007 0830 1960     		str r1, [r3]
 1008 0832 FCBD     		pop {r2-r7,pc}
 1009              	
 1010              		
 1011              	__xianshi_neizu:
 1012 0834 78B5     		push {r3-r6,lr}
 1013 0836 0446     		mov r4, r0
 1014 0838 0D46     		mov r5, r1
ARM GAS  1.s 			page 19


 1015 083a 1646     		mov r6, r2
 1016 083c 1A48     		ldr r0, = liangcheng
 1017 083e 2349     		ldr r1, = danwei_biao
 1018 0840 0068     		ldr r0, [r0]
 1019 0842 234B     		ldr r3, = xiaoshudian_weizhi
 1020 0844 095C     		ldrb r1, [r1, r0]
 1021 0846 1B5C     		ldrb r3, [r3, r0]
 1022 0848 224A     		ldr r2, = danwei
 1023 084a 1160     		str r1, [r2]
 1024              		@	ldr r5, = f_r
 1025              		@	ldr r1, = f_chuchang_r
 1026 084c 8000     		lsls r0, r0, # 2
 1027 084e 3658     		ldr r6, [r6, r0]
 1028 0850 2D58     		ldr r5, [r5, r0]
 1029 0852 641B     		subs r4, r4, r5
 1030 0854 2046     		mov r0, r4
 1031 0856 7043     		muls r0, r0, r6
 1032 0858 C013     		asrs r0, r0, # 15
 1033 085a 1E49     		ldr r1, = danwei
 1034 085c 0A68     		ldr r2, [r1]
 1035 085e 5208     		lsrs r2, r2, # 1
 1036 0860 5200     		lsls r2, r2, # 1
 1037 0862 0A60     		str r2, [r1]
 1038 0864 0000     		movs r0, r0
 1039 0866 07D5     		bpl __xian_shi_nei_zu
 1040 0868 C043     		mvns r0, r0
 1041 086a 0130     		adds r0, r0, # 1
 1042 086c 1949     		ldr r1, = danwei
 1043 086e 0A68     		ldr r2, [r1]
 1044 0870 5208     		lsrs r2, r2, # 1
 1045 0872 5200     		lsls r2, r2, # 1
 1046 0874 0132     		adds r2, r2, # 1
 1047 0876 0A60     		str r2, [r1]
 1048              	
 1049              	__xian_shi_nei_zu:
 1050 0878 1946     		mov r1, r3
 1051 087a 0AF085FE 		bl _zhuanshumaguanma
 1052 087e 78BD     		pop {r3-r6,pc}
 1053              	
 1054              	
 1055              	
 1056              	
 1057              	
 1058              		
 1059              	__an_jian:
 1060              		@入口PA2=按键1，PA3=按键2
 1061              		@出口R0
 1062 0880 1548     		ldr r0, = 0x48000450
 1063 0882 0068     		ldr r0, [r0]	@pb6 pb7
 1064 0884 C043     		mvns r0, r0
 1065 0886 0006     		lsls r0, r0, # 24
 1066 0888 800F     		lsrs r0, r0, # 30
 1067 088a 7047     		bx lr
 1068              		
 1069              	
 1070              	__dft:
 1071 088c FCB5     		push {r2-r7,lr}
ARM GAS  1.s 			page 20


 1072 088e 5546     		mov r5, r10
 1073 0890 5E46     		mov r6, r11
 1074 0892 6746     		mov r7, r12
 1075 0894 E0B4     		push {r5-r7}
 1076 0896 1148     		ldr r0, = cossin
 1077 0898 1149     		ldr r1, = dianyabiao
 1078 089a 0068     		ldr r0, [r0]
 1079 089c 0026     		movs r6, # 0
 1080 089e 3746     		mov r7, r6
 1081 08a0 EC46     		mov r12, sp
 1082 08a2 8346     		mov r11, r0
 1083 08a4 8A46     		mov r10, r1
 1084 08a6 1DE0     		b __dft_xunhuan
 1085 08a8 CC1F0020 		.ltorg
 1085      08F00000 
 1085      10F00000 
 1085      E01F0020 
 1085      E41F0020 
 1086              	__dft_xunhuan:
 1087              		@0
 1088              	
 1089 08e4 DD46     		mov sp, r11
 1090 08e6 0FBC     		pop {r0-r3}
 1091 08e8 EB46     		mov r11, sp
 1092 08ea D546     		mov sp, r10
 1093 08ec 10BC     		pop {r4}
 1094 08ee EA46     		mov r10, sp
 1095 08f0 2546     		mov r5, r4
 1096 08f2 2404     		lsls r4, r4, # 16
 1097 08f4 240C     		lsrs r4, r4, # 16
 1098 08f6 2D0C     		lsrs r5, r5, # 16
 1099 08f8 6043     		muls r0, r0, r4		@R
 1100 08fa 6143     		muls r1, r1, r4		@I
 1101 08fc 6A43     		muls r2, r2, r5		@R
 1102 08fe 6B43     		muls r3, r3, r5		@I
 1103 0900 8011     		asrs r0, r0, # 6
 1104 0902 8911     		asrs r1, r1, # 6
 1105 0904 9211     		asrs r2, r2, # 6
 1106 0906 9B11     		asrs r3, r3, # 6
 1107 0908 8018     		adds r0, r0, r2	 @r
 1108 090a C918     		adds r1, r1, r3	 @i
 1109 090c 3618     		adds r6, r6, r0
 1110 090e 7F18     		adds r7, r7, r1
 1111              	
 1112 0910 DD46     		mov sp, r11
 1113 0912 0FBC     		pop {r0-r3}
 1114 0914 EB46     		mov r11, sp
 1115 0916 D546     		mov sp, r10
 1116 0918 10BC     		pop {r4}
 1117 091a EA46     		mov r10, sp
 1118 091c 2546     		mov r5, r4
 1119 091e 2404     		lsls r4, r4, # 16
 1120 0920 240C     		lsrs r4, r4, # 16
 1121 0922 2D0C     		lsrs r5, r5, # 16
 1122 0924 6043     		muls r0, r0, r4
 1123 0926 6143     		muls r1, r1, r4
 1124 0928 6A43     		muls r2, r2, r5
ARM GAS  1.s 			page 21


 1125 092a 6B43     		muls r3, r3, r5
 1126 092c 8011     		asrs r0, r0, # 6
 1127 092e 8911     		asrs r1, r1, # 6
 1128 0930 9211     		asrs r2, r2, # 6
 1129 0932 9B11     		asrs r3, r3, # 6
 1130 0934 8018     		adds r0, r0, r2         @r
 1131 0936 C918     		adds r1, r1, r3         @i
 1132 0938 3618     		adds r6, r6, r0
 1133 093a 7F18     		adds r7, r7, r1
 1134              	
 1135 093c DD46     		mov sp, r11
 1136 093e 0FBC     		pop {r0-r3}
 1137 0940 EB46     		mov r11, sp
 1138 0942 D546     		mov sp, r10
 1139 0944 10BC     		pop {r4}
 1140 0946 EA46     		mov r10, sp
 1141 0948 2546     		mov r5, r4
 1142 094a 2404     		lsls r4, r4, # 16
 1143 094c 240C     		lsrs r4, r4, # 16
 1144 094e 2D0C     		lsrs r5, r5, # 16
 1145 0950 6043     		muls r0, r0, r4
 1146 0952 6143     		muls r1, r1, r4
 1147 0954 6A43     		muls r2, r2, r5
 1148 0956 6B43     		muls r3, r3, r5
 1149 0958 8011     		asrs r0, r0, # 6
 1150 095a 8911     		asrs r1, r1, # 6
 1151 095c 9211     		asrs r2, r2, # 6
 1152 095e 9B11     		asrs r3, r3, # 6
 1153 0960 8018     		adds r0, r0, r2  @r
 1154 0962 C918     		adds r1, r1, r3  @i
 1155 0964 3618     		adds r6, r6, r0
 1156 0966 7F18     		adds r7, r7, r1
 1157              	
 1158 0968 DD46     		mov sp, r11
 1159 096a 0FBC     		pop {r0-r3}
 1160 096c EB46     		mov r11, sp
 1161 096e D546     		mov sp, r10
 1162 0970 10BC     		pop {r4}
 1163 0972 EA46     		mov r10, sp
 1164 0974 2546     		mov r5, r4
 1165 0976 2404     		lsls r4, r4, # 16
 1166 0978 240C     		lsrs r4, r4, # 16
 1167 097a 2D0C     		lsrs r5, r5, # 16
 1168 097c 6043     		muls r0, r0, r4
 1169 097e 6143     		muls r1, r1, r4
 1170 0980 6A43     		muls r2, r2, r5
 1171 0982 6B43     		muls r3, r3, r5
 1172 0984 8011     		asrs r0, r0, # 6
 1173 0986 8911     		asrs r1, r1, # 6
 1174 0988 9211     		asrs r2, r2, # 6
 1175 098a 9B11     		asrs r3, r3, # 6
 1176 098c 8018     		adds r0, r0, r2         @r
 1177 098e C918     		adds r1, r1, r3         @i
 1178 0990 3618     		adds r6, r6, r0
 1179 0992 7F18     		adds r7, r7, r1
 1180              	
 1181              		@1
ARM GAS  1.s 			page 22


 1182 0994 DD46     		mov sp, r11
 1183 0996 0FBC     		pop {r0-r3}
 1184 0998 EB46     		mov r11, sp
 1185 099a D546     		mov sp, r10
 1186 099c 10BC     		pop {r4}
 1187 099e EA46     		mov r10, sp
 1188 09a0 2546     		mov r5, r4
 1189 09a2 2404     		lsls r4, r4, # 16
 1190 09a4 240C     		lsrs r4, r4, # 16
 1191 09a6 2D0C     		lsrs r5, r5, # 16
 1192 09a8 6043     		muls r0, r0, r4		@R
 1193 09aa 6143     		muls r1, r1, r4		@I
 1194 09ac 6A43     		muls r2, r2, r5		@R
 1195 09ae 6B43     		muls r3, r3, r5		@I
 1196 09b0 8011     		asrs r0, r0, # 6
 1197 09b2 8911     		asrs r1, r1, # 6
 1198 09b4 9211     		asrs r2, r2, # 6
 1199 09b6 9B11     		asrs r3, r3, # 6
 1200 09b8 8018     		adds r0, r0, r2	 @r
 1201 09ba C918     		adds r1, r1, r3	 @i
 1202 09bc 3618     		adds r6, r6, r0
 1203 09be 7F18     		adds r7, r7, r1
 1204              	
 1205 09c0 DD46     		mov sp, r11
 1206 09c2 0FBC     		pop {r0-r3}
 1207 09c4 EB46     		mov r11, sp
 1208 09c6 D546     		mov sp, r10
 1209 09c8 10BC     		pop {r4}
 1210 09ca EA46     		mov r10, sp
 1211 09cc 2546     		mov r5, r4
 1212 09ce 2404     		lsls r4, r4, # 16
 1213 09d0 240C     		lsrs r4, r4, # 16
 1214 09d2 2D0C     		lsrs r5, r5, # 16
 1215 09d4 6043     		muls r0, r0, r4
 1216 09d6 6143     		muls r1, r1, r4
 1217 09d8 6A43     		muls r2, r2, r5
 1218 09da 6B43     		muls r3, r3, r5
 1219 09dc 8011     		asrs r0, r0, # 6
 1220 09de 8911     		asrs r1, r1, # 6
 1221 09e0 9211     		asrs r2, r2, # 6
 1222 09e2 9B11     		asrs r3, r3, # 6
 1223 09e4 8018     		adds r0, r0, r2         @r
 1224 09e6 C918     		adds r1, r1, r3         @i
 1225 09e8 3618     		adds r6, r6, r0
 1226 09ea 7F18     		adds r7, r7, r1
 1227              	
 1228 09ec DD46     		mov sp, r11
 1229 09ee 0FBC     		pop {r0-r3}
 1230 09f0 EB46     		mov r11, sp
 1231 09f2 D546     		mov sp, r10
 1232 09f4 10BC     		pop {r4}
 1233 09f6 EA46     		mov r10, sp
 1234 09f8 2546     		mov r5, r4
 1235 09fa 2404     		lsls r4, r4, # 16
 1236 09fc 240C     		lsrs r4, r4, # 16
 1237 09fe 2D0C     		lsrs r5, r5, # 16
 1238 0a00 6043     		muls r0, r0, r4
ARM GAS  1.s 			page 23


 1239 0a02 6143     		muls r1, r1, r4
 1240 0a04 6A43     		muls r2, r2, r5
 1241 0a06 6B43     		muls r3, r3, r5
 1242 0a08 8011     		asrs r0, r0, # 6
 1243 0a0a 8911     		asrs r1, r1, # 6
 1244 0a0c 9211     		asrs r2, r2, # 6
 1245 0a0e 9B11     		asrs r3, r3, # 6
 1246 0a10 8018     		adds r0, r0, r2  @r
 1247 0a12 C918     		adds r1, r1, r3  @i
 1248 0a14 3618     		adds r6, r6, r0
 1249 0a16 7F18     		adds r7, r7, r1
 1250              	
 1251 0a18 DD46     		mov sp, r11
 1252 0a1a 0FBC     		pop {r0-r3}
 1253 0a1c EB46     		mov r11, sp
 1254 0a1e D546     		mov sp, r10
 1255 0a20 10BC     		pop {r4}
 1256 0a22 EA46     		mov r10, sp
 1257 0a24 2546     		mov r5, r4
 1258 0a26 2404     		lsls r4, r4, # 16
 1259 0a28 240C     		lsrs r4, r4, # 16
 1260 0a2a 2D0C     		lsrs r5, r5, # 16
 1261 0a2c 6043     		muls r0, r0, r4
 1262 0a2e 6143     		muls r1, r1, r4
 1263 0a30 6A43     		muls r2, r2, r5
 1264 0a32 6B43     		muls r3, r3, r5
 1265 0a34 8011     		asrs r0, r0, # 6
 1266 0a36 8911     		asrs r1, r1, # 6
 1267 0a38 9211     		asrs r2, r2, # 6
 1268 0a3a 9B11     		asrs r3, r3, # 6
 1269 0a3c 8018     		adds r0, r0, r2         @r
 1270 0a3e C918     		adds r1, r1, r3         @i
 1271 0a40 3618     		adds r6, r6, r0
 1272 0a42 7F18     		adds r7, r7, r1
 1273              	
 1274              		@2
 1275 0a44 DD46     		mov sp, r11
 1276 0a46 0FBC     		pop {r0-r3}
 1277 0a48 EB46     		mov r11, sp
 1278 0a4a D546     		mov sp, r10
 1279 0a4c 10BC     		pop {r4}
 1280 0a4e EA46     		mov r10, sp
 1281 0a50 2546     		mov r5, r4
 1282 0a52 2404     		lsls r4, r4, # 16
 1283 0a54 240C     		lsrs r4, r4, # 16
 1284 0a56 2D0C     		lsrs r5, r5, # 16
 1285 0a58 6043     		muls r0, r0, r4		@R
 1286 0a5a 6143     		muls r1, r1, r4		@I
 1287 0a5c 6A43     		muls r2, r2, r5		@R
 1288 0a5e 6B43     		muls r3, r3, r5		@I
 1289 0a60 8011     		asrs r0, r0, # 6
 1290 0a62 8911     		asrs r1, r1, # 6
 1291 0a64 9211     		asrs r2, r2, # 6
 1292 0a66 9B11     		asrs r3, r3, # 6
 1293 0a68 8018     		adds r0, r0, r2	 @r
 1294 0a6a C918     		adds r1, r1, r3	 @i
 1295 0a6c 3618     		adds r6, r6, r0
ARM GAS  1.s 			page 24


 1296 0a6e 7F18     		adds r7, r7, r1
 1297              	
 1298 0a70 DD46     		mov sp, r11
 1299 0a72 0FBC     		pop {r0-r3}
 1300 0a74 EB46     		mov r11, sp
 1301 0a76 D546     		mov sp, r10
 1302 0a78 10BC     		pop {r4}
 1303 0a7a EA46     		mov r10, sp
 1304 0a7c 2546     		mov r5, r4
 1305 0a7e 2404     		lsls r4, r4, # 16
 1306 0a80 240C     		lsrs r4, r4, # 16
 1307 0a82 2D0C     		lsrs r5, r5, # 16
 1308 0a84 6043     		muls r0, r0, r4
 1309 0a86 6143     		muls r1, r1, r4
 1310 0a88 6A43     		muls r2, r2, r5
 1311 0a8a 6B43     		muls r3, r3, r5
 1312 0a8c 8011     		asrs r0, r0, # 6
 1313 0a8e 8911     		asrs r1, r1, # 6
 1314 0a90 9211     		asrs r2, r2, # 6
 1315 0a92 9B11     		asrs r3, r3, # 6
 1316 0a94 8018     		adds r0, r0, r2         @r
 1317 0a96 C918     		adds r1, r1, r3         @i
 1318 0a98 3618     		adds r6, r6, r0
 1319 0a9a 7F18     		adds r7, r7, r1
 1320              	
 1321 0a9c DD46     		mov sp, r11
 1322 0a9e 0FBC     		pop {r0-r3}
 1323 0aa0 EB46     		mov r11, sp
 1324 0aa2 D546     		mov sp, r10
 1325 0aa4 10BC     		pop {r4}
 1326 0aa6 EA46     		mov r10, sp
 1327 0aa8 2546     		mov r5, r4
 1328 0aaa 2404     		lsls r4, r4, # 16
 1329 0aac 240C     		lsrs r4, r4, # 16
 1330 0aae 2D0C     		lsrs r5, r5, # 16
 1331 0ab0 6043     		muls r0, r0, r4
 1332 0ab2 6143     		muls r1, r1, r4
 1333 0ab4 6A43     		muls r2, r2, r5
 1334 0ab6 6B43     		muls r3, r3, r5
 1335 0ab8 8011     		asrs r0, r0, # 6
 1336 0aba 8911     		asrs r1, r1, # 6
 1337 0abc 9211     		asrs r2, r2, # 6
 1338 0abe 9B11     		asrs r3, r3, # 6
 1339 0ac0 8018     		adds r0, r0, r2  @r
 1340 0ac2 C918     		adds r1, r1, r3  @i
 1341 0ac4 3618     		adds r6, r6, r0
 1342 0ac6 7F18     		adds r7, r7, r1
 1343              	
 1344 0ac8 DD46     		mov sp, r11
 1345 0aca 0FBC     		pop {r0-r3}
 1346 0acc EB46     		mov r11, sp
 1347 0ace D546     		mov sp, r10
 1348 0ad0 10BC     		pop {r4}
 1349 0ad2 EA46     		mov r10, sp
 1350 0ad4 2546     		mov r5, r4
 1351 0ad6 2404     		lsls r4, r4, # 16
 1352 0ad8 240C     		lsrs r4, r4, # 16
ARM GAS  1.s 			page 25


 1353 0ada 2D0C     		lsrs r5, r5, # 16
 1354 0adc 6043     		muls r0, r0, r4
 1355 0ade 6143     		muls r1, r1, r4
 1356 0ae0 6A43     		muls r2, r2, r5
 1357 0ae2 6B43     		muls r3, r3, r5
 1358 0ae4 8011     		asrs r0, r0, # 6
 1359 0ae6 8911     		asrs r1, r1, # 6
 1360 0ae8 9211     		asrs r2, r2, # 6
 1361 0aea 9B11     		asrs r3, r3, # 6
 1362 0aec 8018     		adds r0, r0, r2         @r
 1363 0aee C918     		adds r1, r1, r3         @i
 1364 0af0 3618     		adds r6, r6, r0
 1365 0af2 7F18     		adds r7, r7, r1
 1366              	
 1367              		@3
 1368 0af4 DD46     		mov sp, r11
 1369 0af6 0FBC     		pop {r0-r3}
 1370 0af8 EB46     		mov r11, sp
 1371 0afa D546     		mov sp, r10
 1372 0afc 10BC     		pop {r4}
 1373 0afe EA46     		mov r10, sp
 1374 0b00 2546     		mov r5, r4
 1375 0b02 2404     		lsls r4, r4, # 16
 1376 0b04 240C     		lsrs r4, r4, # 16
 1377 0b06 2D0C     		lsrs r5, r5, # 16
 1378 0b08 6043     		muls r0, r0, r4		@R
 1379 0b0a 6143     		muls r1, r1, r4		@I
 1380 0b0c 6A43     		muls r2, r2, r5		@R
 1381 0b0e 6B43     		muls r3, r3, r5		@I
 1382 0b10 8011     		asrs r0, r0, # 6
 1383 0b12 8911     		asrs r1, r1, # 6
 1384 0b14 9211     		asrs r2, r2, # 6
 1385 0b16 9B11     		asrs r3, r3, # 6
 1386 0b18 8018     		adds r0, r0, r2	 @r
 1387 0b1a C918     		adds r1, r1, r3	 @i
 1388 0b1c 3618     		adds r6, r6, r0
 1389 0b1e 7F18     		adds r7, r7, r1
 1390              	
 1391 0b20 DD46     		mov sp, r11
 1392 0b22 0FBC     		pop {r0-r3}
 1393 0b24 EB46     		mov r11, sp
 1394 0b26 D546     		mov sp, r10
 1395 0b28 10BC     		pop {r4}
 1396 0b2a EA46     		mov r10, sp
 1397 0b2c 2546     		mov r5, r4
 1398 0b2e 2404     		lsls r4, r4, # 16
 1399 0b30 240C     		lsrs r4, r4, # 16
 1400 0b32 2D0C     		lsrs r5, r5, # 16
 1401 0b34 6043     		muls r0, r0, r4
 1402 0b36 6143     		muls r1, r1, r4
 1403 0b38 6A43     		muls r2, r2, r5
 1404 0b3a 6B43     		muls r3, r3, r5
 1405 0b3c 8011     		asrs r0, r0, # 6
 1406 0b3e 8911     		asrs r1, r1, # 6
 1407 0b40 9211     		asrs r2, r2, # 6
 1408 0b42 9B11     		asrs r3, r3, # 6
 1409 0b44 8018     		adds r0, r0, r2         @r
ARM GAS  1.s 			page 26


 1410 0b46 C918     		adds r1, r1, r3         @i
 1411 0b48 3618     		adds r6, r6, r0
 1412 0b4a 7F18     		adds r7, r7, r1
 1413              	
 1414 0b4c DD46     		mov sp, r11
 1415 0b4e 0FBC     		pop {r0-r3}
 1416 0b50 EB46     		mov r11, sp
 1417 0b52 D546     		mov sp, r10
 1418 0b54 10BC     		pop {r4}
 1419 0b56 EA46     		mov r10, sp
 1420 0b58 2546     		mov r5, r4
 1421 0b5a 2404     		lsls r4, r4, # 16
 1422 0b5c 240C     		lsrs r4, r4, # 16
 1423 0b5e 2D0C     		lsrs r5, r5, # 16
 1424 0b60 6043     		muls r0, r0, r4
 1425 0b62 6143     		muls r1, r1, r4
 1426 0b64 6A43     		muls r2, r2, r5
 1427 0b66 6B43     		muls r3, r3, r5
 1428 0b68 8011     		asrs r0, r0, # 6
 1429 0b6a 8911     		asrs r1, r1, # 6
 1430 0b6c 9211     		asrs r2, r2, # 6
 1431 0b6e 9B11     		asrs r3, r3, # 6
 1432 0b70 8018     		adds r0, r0, r2  @r
 1433 0b72 C918     		adds r1, r1, r3  @i
 1434 0b74 3618     		adds r6, r6, r0
 1435 0b76 7F18     		adds r7, r7, r1
 1436              	
 1437 0b78 DD46     		mov sp, r11
 1438 0b7a 0FBC     		pop {r0-r3}
 1439 0b7c EB46     		mov r11, sp
 1440 0b7e D546     		mov sp, r10
 1441 0b80 10BC     		pop {r4}
 1442 0b82 EA46     		mov r10, sp
 1443 0b84 2546     		mov r5, r4
 1444 0b86 2404     		lsls r4, r4, # 16
 1445 0b88 240C     		lsrs r4, r4, # 16
 1446 0b8a 2D0C     		lsrs r5, r5, # 16
 1447 0b8c 6043     		muls r0, r0, r4
 1448 0b8e 6143     		muls r1, r1, r4
 1449 0b90 6A43     		muls r2, r2, r5
 1450 0b92 6B43     		muls r3, r3, r5
 1451 0b94 8011     		asrs r0, r0, # 6
 1452 0b96 8911     		asrs r1, r1, # 6
 1453 0b98 9211     		asrs r2, r2, # 6
 1454 0b9a 9B11     		asrs r3, r3, # 6
 1455 0b9c 8018     		adds r0, r0, r2         @r
 1456 0b9e C918     		adds r1, r1, r3         @i
 1457 0ba0 3618     		adds r6, r6, r0
 1458 0ba2 7F18     		adds r7, r7, r1
 1459              	
 1460              		@4
 1461 0ba4 DD46     		mov sp, r11
 1462 0ba6 0FBC     		pop {r0-r3}
 1463 0ba8 EB46     		mov r11, sp
 1464 0baa D546     		mov sp, r10
 1465 0bac 10BC     		pop {r4}
 1466 0bae EA46     		mov r10, sp
ARM GAS  1.s 			page 27


 1467 0bb0 2546     		mov r5, r4
 1468 0bb2 2404     		lsls r4, r4, # 16
 1469 0bb4 240C     		lsrs r4, r4, # 16
 1470 0bb6 2D0C     		lsrs r5, r5, # 16
 1471 0bb8 6043     		muls r0, r0, r4		@R
 1472 0bba 6143     		muls r1, r1, r4		@I
 1473 0bbc 6A43     		muls r2, r2, r5		@R
 1474 0bbe 6B43     		muls r3, r3, r5		@I
 1475 0bc0 8011     		asrs r0, r0, # 6
 1476 0bc2 8911     		asrs r1, r1, # 6
 1477 0bc4 9211     		asrs r2, r2, # 6
 1478 0bc6 9B11     		asrs r3, r3, # 6
 1479 0bc8 8018     		adds r0, r0, r2	 @r
 1480 0bca C918     		adds r1, r1, r3	 @i
 1481 0bcc 3618     		adds r6, r6, r0
 1482 0bce 7F18     		adds r7, r7, r1
 1483              	
 1484 0bd0 DD46     		mov sp, r11
 1485 0bd2 0FBC     		pop {r0-r3}
 1486 0bd4 EB46     		mov r11, sp
 1487 0bd6 D546     		mov sp, r10
 1488 0bd8 10BC     		pop {r4}
 1489 0bda EA46     		mov r10, sp
 1490 0bdc 2546     		mov r5, r4
 1491 0bde 2404     		lsls r4, r4, # 16
 1492 0be0 240C     		lsrs r4, r4, # 16
 1493 0be2 2D0C     		lsrs r5, r5, # 16
 1494 0be4 6043     		muls r0, r0, r4
 1495 0be6 6143     		muls r1, r1, r4
 1496 0be8 6A43     		muls r2, r2, r5
 1497 0bea 6B43     		muls r3, r3, r5
 1498 0bec 8011     		asrs r0, r0, # 6
 1499 0bee 8911     		asrs r1, r1, # 6
 1500 0bf0 9211     		asrs r2, r2, # 6
 1501 0bf2 9B11     		asrs r3, r3, # 6
 1502 0bf4 8018     		adds r0, r0, r2         @r
 1503 0bf6 C918     		adds r1, r1, r3         @i
 1504 0bf8 3618     		adds r6, r6, r0
 1505 0bfa 7F18     		adds r7, r7, r1
 1506              	
 1507 0bfc DD46     		mov sp, r11
 1508 0bfe 0FBC     		pop {r0-r3}
 1509 0c00 EB46     		mov r11, sp
 1510 0c02 D546     		mov sp, r10
 1511 0c04 10BC     		pop {r4}
 1512 0c06 EA46     		mov r10, sp
 1513 0c08 2546     		mov r5, r4
 1514 0c0a 2404     		lsls r4, r4, # 16
 1515 0c0c 240C     		lsrs r4, r4, # 16
 1516 0c0e 2D0C     		lsrs r5, r5, # 16
 1517 0c10 6043     		muls r0, r0, r4
 1518 0c12 6143     		muls r1, r1, r4
 1519 0c14 6A43     		muls r2, r2, r5
 1520 0c16 6B43     		muls r3, r3, r5
 1521 0c18 8011     		asrs r0, r0, # 6
 1522 0c1a 8911     		asrs r1, r1, # 6
 1523 0c1c 9211     		asrs r2, r2, # 6
ARM GAS  1.s 			page 28


 1524 0c1e 9B11     		asrs r3, r3, # 6
 1525 0c20 8018     		adds r0, r0, r2  @r
 1526 0c22 C918     		adds r1, r1, r3  @i
 1527 0c24 3618     		adds r6, r6, r0
 1528 0c26 7F18     		adds r7, r7, r1
 1529              	
 1530 0c28 DD46     		mov sp, r11
 1531 0c2a 0FBC     		pop {r0-r3}
 1532 0c2c EB46     		mov r11, sp
 1533 0c2e D546     		mov sp, r10
 1534 0c30 10BC     		pop {r4}
 1535 0c32 EA46     		mov r10, sp
 1536 0c34 2546     		mov r5, r4
 1537 0c36 2404     		lsls r4, r4, # 16
 1538 0c38 240C     		lsrs r4, r4, # 16
 1539 0c3a 2D0C     		lsrs r5, r5, # 16
 1540 0c3c 6043     		muls r0, r0, r4
 1541 0c3e 6143     		muls r1, r1, r4
 1542 0c40 6A43     		muls r2, r2, r5
 1543 0c42 6B43     		muls r3, r3, r5
 1544 0c44 8011     		asrs r0, r0, # 6
 1545 0c46 8911     		asrs r1, r1, # 6
 1546 0c48 9211     		asrs r2, r2, # 6
 1547 0c4a 9B11     		asrs r3, r3, # 6
 1548 0c4c 8018     		adds r0, r0, r2         @r
 1549 0c4e C918     		adds r1, r1, r3         @i
 1550 0c50 3618     		adds r6, r6, r0
 1551 0c52 7F18     		adds r7, r7, r1
 1552              	
 1553              		@5
 1554 0c54 DD46     		mov sp, r11
 1555 0c56 0FBC     		pop {r0-r3}
 1556 0c58 EB46     		mov r11, sp
 1557 0c5a D546     		mov sp, r10
 1558 0c5c 10BC     		pop {r4}
 1559 0c5e EA46     		mov r10, sp
 1560 0c60 2546     		mov r5, r4
 1561 0c62 2404     		lsls r4, r4, # 16
 1562 0c64 240C     		lsrs r4, r4, # 16
 1563 0c66 2D0C     		lsrs r5, r5, # 16
 1564 0c68 6043     		muls r0, r0, r4		@R
 1565 0c6a 6143     		muls r1, r1, r4		@I
 1566 0c6c 6A43     		muls r2, r2, r5		@R
 1567 0c6e 6B43     		muls r3, r3, r5		@I
 1568 0c70 8011     		asrs r0, r0, # 6
 1569 0c72 8911     		asrs r1, r1, # 6
 1570 0c74 9211     		asrs r2, r2, # 6
 1571 0c76 9B11     		asrs r3, r3, # 6
 1572 0c78 8018     		adds r0, r0, r2	 @r
 1573 0c7a C918     		adds r1, r1, r3	 @i
 1574 0c7c 3618     		adds r6, r6, r0
 1575 0c7e 7F18     		adds r7, r7, r1
 1576              	
 1577 0c80 DD46     		mov sp, r11
 1578 0c82 0FBC     		pop {r0-r3}
 1579 0c84 EB46     		mov r11, sp
 1580 0c86 D546     		mov sp, r10
ARM GAS  1.s 			page 29


 1581 0c88 10BC     		pop {r4}
 1582 0c8a EA46     		mov r10, sp
 1583 0c8c 2546     		mov r5, r4
 1584 0c8e 2404     		lsls r4, r4, # 16
 1585 0c90 240C     		lsrs r4, r4, # 16
 1586 0c92 2D0C     		lsrs r5, r5, # 16
 1587 0c94 6043     		muls r0, r0, r4
 1588 0c96 6143     		muls r1, r1, r4
 1589 0c98 6A43     		muls r2, r2, r5
 1590 0c9a 6B43     		muls r3, r3, r5
 1591 0c9c 8011     		asrs r0, r0, # 6
 1592 0c9e 8911     		asrs r1, r1, # 6
 1593 0ca0 9211     		asrs r2, r2, # 6
 1594 0ca2 9B11     		asrs r3, r3, # 6
 1595 0ca4 8018     		adds r0, r0, r2         @r
 1596 0ca6 C918     		adds r1, r1, r3         @i
 1597 0ca8 3618     		adds r6, r6, r0
 1598 0caa 7F18     		adds r7, r7, r1
 1599              	
 1600 0cac DD46     		mov sp, r11
 1601 0cae 0FBC     		pop {r0-r3}
 1602 0cb0 EB46     		mov r11, sp
 1603 0cb2 D546     		mov sp, r10
 1604 0cb4 10BC     		pop {r4}
 1605 0cb6 EA46     		mov r10, sp
 1606 0cb8 2546     		mov r5, r4
 1607 0cba 2404     		lsls r4, r4, # 16
 1608 0cbc 240C     		lsrs r4, r4, # 16
 1609 0cbe 2D0C     		lsrs r5, r5, # 16
 1610 0cc0 6043     		muls r0, r0, r4
 1611 0cc2 6143     		muls r1, r1, r4
 1612 0cc4 6A43     		muls r2, r2, r5
 1613 0cc6 6B43     		muls r3, r3, r5
 1614 0cc8 8011     		asrs r0, r0, # 6
 1615 0cca 8911     		asrs r1, r1, # 6
 1616 0ccc 9211     		asrs r2, r2, # 6
 1617 0cce 9B11     		asrs r3, r3, # 6
 1618 0cd0 8018     		adds r0, r0, r2  @r
 1619 0cd2 C918     		adds r1, r1, r3  @i
 1620 0cd4 3618     		adds r6, r6, r0
 1621 0cd6 7F18     		adds r7, r7, r1
 1622              	
 1623 0cd8 DD46     		mov sp, r11
 1624 0cda 0FBC     		pop {r0-r3}
 1625 0cdc EB46     		mov r11, sp
 1626 0cde D546     		mov sp, r10
 1627 0ce0 10BC     		pop {r4}
 1628 0ce2 EA46     		mov r10, sp
 1629 0ce4 2546     		mov r5, r4
 1630 0ce6 2404     		lsls r4, r4, # 16
 1631 0ce8 240C     		lsrs r4, r4, # 16
 1632 0cea 2D0C     		lsrs r5, r5, # 16
 1633 0cec 6043     		muls r0, r0, r4
 1634 0cee 6143     		muls r1, r1, r4
 1635 0cf0 6A43     		muls r2, r2, r5
 1636 0cf2 6B43     		muls r3, r3, r5
 1637 0cf4 8011     		asrs r0, r0, # 6
ARM GAS  1.s 			page 30


 1638 0cf6 8911     		asrs r1, r1, # 6
 1639 0cf8 9211     		asrs r2, r2, # 6
 1640 0cfa 9B11     		asrs r3, r3, # 6
 1641 0cfc 8018     		adds r0, r0, r2         @r
 1642 0cfe C918     		adds r1, r1, r3         @i
 1643 0d00 3618     		adds r6, r6, r0
 1644 0d02 7F18     		adds r7, r7, r1
 1645              	
 1646              		@6
 1647 0d04 DD46     		mov sp, r11
 1648 0d06 0FBC     		pop {r0-r3}
 1649 0d08 EB46     		mov r11, sp
 1650 0d0a D546     		mov sp, r10
 1651 0d0c 10BC     		pop {r4}
 1652 0d0e EA46     		mov r10, sp
 1653 0d10 2546     		mov r5, r4
 1654 0d12 2404     		lsls r4, r4, # 16
 1655 0d14 240C     		lsrs r4, r4, # 16
 1656 0d16 2D0C     		lsrs r5, r5, # 16
 1657 0d18 6043     		muls r0, r0, r4		@R
 1658 0d1a 6143     		muls r1, r1, r4		@I
 1659 0d1c 6A43     		muls r2, r2, r5		@R
 1660 0d1e 6B43     		muls r3, r3, r5		@I
 1661 0d20 8011     		asrs r0, r0, # 6
 1662 0d22 8911     		asrs r1, r1, # 6
 1663 0d24 9211     		asrs r2, r2, # 6
 1664 0d26 9B11     		asrs r3, r3, # 6
 1665 0d28 8018     		adds r0, r0, r2	 @r
 1666 0d2a C918     		adds r1, r1, r3	 @i
 1667 0d2c 3618     		adds r6, r6, r0
 1668 0d2e 7F18     		adds r7, r7, r1
 1669              	
 1670 0d30 DD46     		mov sp, r11
 1671 0d32 0FBC     		pop {r0-r3}
 1672 0d34 EB46     		mov r11, sp
 1673 0d36 D546     		mov sp, r10
 1674 0d38 10BC     		pop {r4}
 1675 0d3a EA46     		mov r10, sp
 1676 0d3c 2546     		mov r5, r4
 1677 0d3e 2404     		lsls r4, r4, # 16
 1678 0d40 240C     		lsrs r4, r4, # 16
 1679 0d42 2D0C     		lsrs r5, r5, # 16
 1680 0d44 6043     		muls r0, r0, r4
 1681 0d46 6143     		muls r1, r1, r4
 1682 0d48 6A43     		muls r2, r2, r5
 1683 0d4a 6B43     		muls r3, r3, r5
 1684 0d4c 8011     		asrs r0, r0, # 6
 1685 0d4e 8911     		asrs r1, r1, # 6
 1686 0d50 9211     		asrs r2, r2, # 6
 1687 0d52 9B11     		asrs r3, r3, # 6
 1688 0d54 8018     		adds r0, r0, r2         @r
 1689 0d56 C918     		adds r1, r1, r3         @i
 1690 0d58 3618     		adds r6, r6, r0
 1691 0d5a 7F18     		adds r7, r7, r1
 1692              	
 1693 0d5c DD46     		mov sp, r11
 1694 0d5e 0FBC     		pop {r0-r3}
ARM GAS  1.s 			page 31


 1695 0d60 EB46     		mov r11, sp
 1696 0d62 D546     		mov sp, r10
 1697 0d64 10BC     		pop {r4}
 1698 0d66 EA46     		mov r10, sp
 1699 0d68 2546     		mov r5, r4
 1700 0d6a 2404     		lsls r4, r4, # 16
 1701 0d6c 240C     		lsrs r4, r4, # 16
 1702 0d6e 2D0C     		lsrs r5, r5, # 16
 1703 0d70 6043     		muls r0, r0, r4
 1704 0d72 6143     		muls r1, r1, r4
 1705 0d74 6A43     		muls r2, r2, r5
 1706 0d76 6B43     		muls r3, r3, r5
 1707 0d78 8011     		asrs r0, r0, # 6
 1708 0d7a 8911     		asrs r1, r1, # 6
 1709 0d7c 9211     		asrs r2, r2, # 6
 1710 0d7e 9B11     		asrs r3, r3, # 6
 1711 0d80 8018     		adds r0, r0, r2  @r
 1712 0d82 C918     		adds r1, r1, r3  @i
 1713 0d84 3618     		adds r6, r6, r0
 1714 0d86 7F18     		adds r7, r7, r1
 1715              	
 1716 0d88 DD46     		mov sp, r11
 1717 0d8a 0FBC     		pop {r0-r3}
 1718 0d8c EB46     		mov r11, sp
 1719 0d8e D546     		mov sp, r10
 1720 0d90 10BC     		pop {r4}
 1721 0d92 EA46     		mov r10, sp
 1722 0d94 2546     		mov r5, r4
 1723 0d96 2404     		lsls r4, r4, # 16
 1724 0d98 240C     		lsrs r4, r4, # 16
 1725 0d9a 2D0C     		lsrs r5, r5, # 16
 1726 0d9c 6043     		muls r0, r0, r4
 1727 0d9e 6143     		muls r1, r1, r4
 1728 0da0 6A43     		muls r2, r2, r5
 1729 0da2 6B43     		muls r3, r3, r5
 1730 0da4 8011     		asrs r0, r0, # 6
 1731 0da6 8911     		asrs r1, r1, # 6
 1732 0da8 9211     		asrs r2, r2, # 6
 1733 0daa 9B11     		asrs r3, r3, # 6
 1734 0dac 8018     		adds r0, r0, r2         @r
 1735 0dae C918     		adds r1, r1, r3         @i
 1736 0db0 3618     		adds r6, r6, r0
 1737 0db2 7F18     		adds r7, r7, r1
 1738              	
 1739              		@7
 1740 0db4 DD46     		mov sp, r11
 1741 0db6 0FBC     		pop {r0-r3}
 1742 0db8 EB46     		mov r11, sp
 1743 0dba D546     		mov sp, r10
 1744 0dbc 10BC     		pop {r4}
 1745 0dbe EA46     		mov r10, sp
 1746 0dc0 2546     		mov r5, r4
 1747 0dc2 2404     		lsls r4, r4, # 16
 1748 0dc4 240C     		lsrs r4, r4, # 16
 1749 0dc6 2D0C     		lsrs r5, r5, # 16
 1750 0dc8 6043     		muls r0, r0, r4		@R
 1751 0dca 6143     		muls r1, r1, r4		@I
ARM GAS  1.s 			page 32


 1752 0dcc 6A43     		muls r2, r2, r5		@R
 1753 0dce 6B43     		muls r3, r3, r5		@I
 1754 0dd0 8011     		asrs r0, r0, # 6
 1755 0dd2 8911     		asrs r1, r1, # 6
 1756 0dd4 9211     		asrs r2, r2, # 6
 1757 0dd6 9B11     		asrs r3, r3, # 6
 1758 0dd8 8018     		adds r0, r0, r2	 @r
 1759 0dda C918     		adds r1, r1, r3	 @i
 1760 0ddc 3618     		adds r6, r6, r0
 1761 0dde 7F18     		adds r7, r7, r1
 1762              	
 1763 0de0 DD46     		mov sp, r11
 1764 0de2 0FBC     		pop {r0-r3}
 1765 0de4 EB46     		mov r11, sp
 1766 0de6 D546     		mov sp, r10
 1767 0de8 10BC     		pop {r4}
 1768 0dea EA46     		mov r10, sp
 1769 0dec 2546     		mov r5, r4
 1770 0dee 2404     		lsls r4, r4, # 16
 1771 0df0 240C     		lsrs r4, r4, # 16
 1772 0df2 2D0C     		lsrs r5, r5, # 16
 1773 0df4 6043     		muls r0, r0, r4
 1774 0df6 6143     		muls r1, r1, r4
 1775 0df8 6A43     		muls r2, r2, r5
 1776 0dfa 6B43     		muls r3, r3, r5
 1777 0dfc 8011     		asrs r0, r0, # 6
 1778 0dfe 8911     		asrs r1, r1, # 6
 1779 0e00 9211     		asrs r2, r2, # 6
 1780 0e02 9B11     		asrs r3, r3, # 6
 1781 0e04 8018     		adds r0, r0, r2         @r
 1782 0e06 C918     		adds r1, r1, r3         @i
 1783 0e08 3618     		adds r6, r6, r0
 1784 0e0a 7F18     		adds r7, r7, r1
 1785              	
 1786 0e0c DD46     		mov sp, r11
 1787 0e0e 0FBC     		pop {r0-r3}
 1788 0e10 EB46     		mov r11, sp
 1789 0e12 D546     		mov sp, r10
 1790 0e14 10BC     		pop {r4}
 1791 0e16 EA46     		mov r10, sp
 1792 0e18 2546     		mov r5, r4
 1793 0e1a 2404     		lsls r4, r4, # 16
 1794 0e1c 240C     		lsrs r4, r4, # 16
 1795 0e1e 2D0C     		lsrs r5, r5, # 16
 1796 0e20 6043     		muls r0, r0, r4
 1797 0e22 6143     		muls r1, r1, r4
 1798 0e24 6A43     		muls r2, r2, r5
 1799 0e26 6B43     		muls r3, r3, r5
 1800 0e28 8011     		asrs r0, r0, # 6
 1801 0e2a 8911     		asrs r1, r1, # 6
 1802 0e2c 9211     		asrs r2, r2, # 6
 1803 0e2e 9B11     		asrs r3, r3, # 6
 1804 0e30 8018     		adds r0, r0, r2  @r
 1805 0e32 C918     		adds r1, r1, r3  @i
 1806 0e34 3618     		adds r6, r6, r0
 1807 0e36 7F18     		adds r7, r7, r1
 1808              	
ARM GAS  1.s 			page 33


 1809 0e38 DD46     		mov sp, r11
 1810 0e3a 0FBC     		pop {r0-r3}
 1811 0e3c EB46     		mov r11, sp
 1812 0e3e D546     		mov sp, r10
 1813 0e40 10BC     		pop {r4}
 1814 0e42 EA46     		mov r10, sp
 1815 0e44 2546     		mov r5, r4
 1816 0e46 2404     		lsls r4, r4, # 16
 1817 0e48 240C     		lsrs r4, r4, # 16
 1818 0e4a 2D0C     		lsrs r5, r5, # 16
 1819 0e4c 6043     		muls r0, r0, r4
 1820 0e4e 6143     		muls r1, r1, r4
 1821 0e50 6A43     		muls r2, r2, r5
 1822 0e52 6B43     		muls r3, r3, r5
 1823 0e54 8011     		asrs r0, r0, # 6
 1824 0e56 8911     		asrs r1, r1, # 6
 1825 0e58 9211     		asrs r2, r2, # 6
 1826 0e5a 9B11     		asrs r3, r3, # 6
 1827 0e5c 8018     		adds r0, r0, r2         @r
 1828 0e5e C918     		adds r1, r1, r3         @i
 1829 0e60 3618     		adds r6, r6, r0
 1830 0e62 7F18     		adds r7, r7, r1
 1831              	
 1832              		@8
 1833 0e64 DD46     		mov sp, r11
 1834 0e66 0FBC     		pop {r0-r3}
 1835 0e68 EB46     		mov r11, sp
 1836 0e6a D546     		mov sp, r10
 1837 0e6c 10BC     		pop {r4}
 1838 0e6e EA46     		mov r10, sp
 1839 0e70 2546     		mov r5, r4
 1840 0e72 2404     		lsls r4, r4, # 16
 1841 0e74 240C     		lsrs r4, r4, # 16
 1842 0e76 2D0C     		lsrs r5, r5, # 16
 1843 0e78 6043     		muls r0, r0, r4		@R
 1844 0e7a 6143     		muls r1, r1, r4		@I
 1845 0e7c 6A43     		muls r2, r2, r5		@R
 1846 0e7e 6B43     		muls r3, r3, r5		@I
 1847 0e80 8011     		asrs r0, r0, # 6
 1848 0e82 8911     		asrs r1, r1, # 6
 1849 0e84 9211     		asrs r2, r2, # 6
 1850 0e86 9B11     		asrs r3, r3, # 6
 1851 0e88 8018     		adds r0, r0, r2	 @r
 1852 0e8a C918     		adds r1, r1, r3	 @i
 1853 0e8c 3618     		adds r6, r6, r0
 1854 0e8e 7F18     		adds r7, r7, r1
 1855              	
 1856 0e90 DD46     		mov sp, r11
 1857 0e92 0FBC     		pop {r0-r3}
 1858 0e94 EB46     		mov r11, sp
 1859 0e96 D546     		mov sp, r10
 1860 0e98 10BC     		pop {r4}
 1861 0e9a EA46     		mov r10, sp
 1862 0e9c 2546     		mov r5, r4
 1863 0e9e 2404     		lsls r4, r4, # 16
 1864 0ea0 240C     		lsrs r4, r4, # 16
 1865 0ea2 2D0C     		lsrs r5, r5, # 16
ARM GAS  1.s 			page 34


 1866 0ea4 6043     		muls r0, r0, r4
 1867 0ea6 6143     		muls r1, r1, r4
 1868 0ea8 6A43     		muls r2, r2, r5
 1869 0eaa 6B43     		muls r3, r3, r5
 1870 0eac 8011     		asrs r0, r0, # 6
 1871 0eae 8911     		asrs r1, r1, # 6
 1872 0eb0 9211     		asrs r2, r2, # 6
 1873 0eb2 9B11     		asrs r3, r3, # 6
 1874 0eb4 8018     		adds r0, r0, r2         @r
 1875 0eb6 C918     		adds r1, r1, r3         @i
 1876 0eb8 3618     		adds r6, r6, r0
 1877 0eba 7F18     		adds r7, r7, r1
 1878              	
 1879 0ebc DD46     		mov sp, r11
 1880 0ebe 0FBC     		pop {r0-r3}
 1881 0ec0 EB46     		mov r11, sp
 1882 0ec2 D546     		mov sp, r10
 1883 0ec4 10BC     		pop {r4}
 1884 0ec6 EA46     		mov r10, sp
 1885 0ec8 2546     		mov r5, r4
 1886 0eca 2404     		lsls r4, r4, # 16
 1887 0ecc 240C     		lsrs r4, r4, # 16
 1888 0ece 2D0C     		lsrs r5, r5, # 16
 1889 0ed0 6043     		muls r0, r0, r4
 1890 0ed2 6143     		muls r1, r1, r4
 1891 0ed4 6A43     		muls r2, r2, r5
 1892 0ed6 6B43     		muls r3, r3, r5
 1893 0ed8 8011     		asrs r0, r0, # 6
 1894 0eda 8911     		asrs r1, r1, # 6
 1895 0edc 9211     		asrs r2, r2, # 6
 1896 0ede 9B11     		asrs r3, r3, # 6
 1897 0ee0 8018     		adds r0, r0, r2  @r
 1898 0ee2 C918     		adds r1, r1, r3  @i
 1899 0ee4 3618     		adds r6, r6, r0
 1900 0ee6 7F18     		adds r7, r7, r1
 1901              	
 1902 0ee8 DD46     		mov sp, r11
 1903 0eea 0FBC     		pop {r0-r3}
 1904 0eec EB46     		mov r11, sp
 1905 0eee D546     		mov sp, r10
 1906 0ef0 10BC     		pop {r4}
 1907 0ef2 EA46     		mov r10, sp
 1908 0ef4 2546     		mov r5, r4
 1909 0ef6 2404     		lsls r4, r4, # 16
 1910 0ef8 240C     		lsrs r4, r4, # 16
 1911 0efa 2D0C     		lsrs r5, r5, # 16
 1912 0efc 6043     		muls r0, r0, r4
 1913 0efe 6143     		muls r1, r1, r4
 1914 0f00 6A43     		muls r2, r2, r5
 1915 0f02 6B43     		muls r3, r3, r5
 1916 0f04 8011     		asrs r0, r0, # 6
 1917 0f06 8911     		asrs r1, r1, # 6
 1918 0f08 9211     		asrs r2, r2, # 6
 1919 0f0a 9B11     		asrs r3, r3, # 6
 1920 0f0c 8018     		adds r0, r0, r2         @r
 1921 0f0e C918     		adds r1, r1, r3         @i
 1922 0f10 3618     		adds r6, r6, r0
ARM GAS  1.s 			page 35


 1923 0f12 7F18     		adds r7, r7, r1
 1924              	
 1925              		@9
 1926 0f14 DD46     		mov sp, r11
 1927 0f16 0FBC     		pop {r0-r3}
 1928 0f18 EB46     		mov r11, sp
 1929 0f1a D546     		mov sp, r10
 1930 0f1c 10BC     		pop {r4}
 1931 0f1e EA46     		mov r10, sp
 1932 0f20 2546     		mov r5, r4
 1933 0f22 2404     		lsls r4, r4, # 16
 1934 0f24 240C     		lsrs r4, r4, # 16
 1935 0f26 2D0C     		lsrs r5, r5, # 16
 1936 0f28 6043     		muls r0, r0, r4		@R
 1937 0f2a 6143     		muls r1, r1, r4		@I
 1938 0f2c 6A43     		muls r2, r2, r5		@R
 1939 0f2e 6B43     		muls r3, r3, r5		@I
 1940 0f30 8011     		asrs r0, r0, # 6
 1941 0f32 8911     		asrs r1, r1, # 6
 1942 0f34 9211     		asrs r2, r2, # 6
 1943 0f36 9B11     		asrs r3, r3, # 6
 1944 0f38 8018     		adds r0, r0, r2	 @r
 1945 0f3a C918     		adds r1, r1, r3	 @i
 1946 0f3c 3618     		adds r6, r6, r0
 1947 0f3e 7F18     		adds r7, r7, r1
 1948              	
 1949 0f40 DD46     		mov sp, r11
 1950 0f42 0FBC     		pop {r0-r3}
 1951 0f44 EB46     		mov r11, sp
 1952 0f46 D546     		mov sp, r10
 1953 0f48 10BC     		pop {r4}
 1954 0f4a EA46     		mov r10, sp
 1955 0f4c 2546     		mov r5, r4
 1956 0f4e 2404     		lsls r4, r4, # 16
 1957 0f50 240C     		lsrs r4, r4, # 16
 1958 0f52 2D0C     		lsrs r5, r5, # 16
 1959 0f54 6043     		muls r0, r0, r4
 1960 0f56 6143     		muls r1, r1, r4
 1961 0f58 6A43     		muls r2, r2, r5
 1962 0f5a 6B43     		muls r3, r3, r5
 1963 0f5c 8011     		asrs r0, r0, # 6
 1964 0f5e 8911     		asrs r1, r1, # 6
 1965 0f60 9211     		asrs r2, r2, # 6
 1966 0f62 9B11     		asrs r3, r3, # 6
 1967 0f64 8018     		adds r0, r0, r2         @r
 1968 0f66 C918     		adds r1, r1, r3         @i
 1969 0f68 3618     		adds r6, r6, r0
 1970 0f6a 7F18     		adds r7, r7, r1
 1971              	
 1972 0f6c DD46     		mov sp, r11
 1973 0f6e 0FBC     		pop {r0-r3}
 1974 0f70 EB46     		mov r11, sp
 1975 0f72 D546     		mov sp, r10
 1976 0f74 10BC     		pop {r4}
 1977 0f76 EA46     		mov r10, sp
 1978 0f78 2546     		mov r5, r4
 1979 0f7a 2404     		lsls r4, r4, # 16
ARM GAS  1.s 			page 36


 1980 0f7c 240C     		lsrs r4, r4, # 16
 1981 0f7e 2D0C     		lsrs r5, r5, # 16
 1982 0f80 6043     		muls r0, r0, r4
 1983 0f82 6143     		muls r1, r1, r4
 1984 0f84 6A43     		muls r2, r2, r5
 1985 0f86 6B43     		muls r3, r3, r5
 1986 0f88 8011     		asrs r0, r0, # 6
 1987 0f8a 8911     		asrs r1, r1, # 6
 1988 0f8c 9211     		asrs r2, r2, # 6
 1989 0f8e 9B11     		asrs r3, r3, # 6
 1990 0f90 8018     		adds r0, r0, r2  @r
 1991 0f92 C918     		adds r1, r1, r3  @i
 1992 0f94 3618     		adds r6, r6, r0
 1993 0f96 7F18     		adds r7, r7, r1
 1994              	
 1995 0f98 DD46     		mov sp, r11
 1996 0f9a 0FBC     		pop {r0-r3}
 1997 0f9c EB46     		mov r11, sp
 1998 0f9e D546     		mov sp, r10
 1999 0fa0 10BC     		pop {r4}
 2000 0fa2 EA46     		mov r10, sp
 2001 0fa4 2546     		mov r5, r4
 2002 0fa6 2404     		lsls r4, r4, # 16
 2003 0fa8 240C     		lsrs r4, r4, # 16
 2004 0faa 2D0C     		lsrs r5, r5, # 16
 2005 0fac 6043     		muls r0, r0, r4
 2006 0fae 6143     		muls r1, r1, r4
 2007 0fb0 6A43     		muls r2, r2, r5
 2008 0fb2 6B43     		muls r3, r3, r5
 2009 0fb4 8011     		asrs r0, r0, # 6
 2010 0fb6 8911     		asrs r1, r1, # 6
 2011 0fb8 9211     		asrs r2, r2, # 6
 2012 0fba 9B11     		asrs r3, r3, # 6
 2013 0fbc 8018     		adds r0, r0, r2         @r
 2014 0fbe C918     		adds r1, r1, r3         @i
 2015 0fc0 3618     		adds r6, r6, r0
 2016 0fc2 7F18     		adds r7, r7, r1
 2017              	@yjm1
 2018              		@0
 2019 0fc4 DD46     		mov sp, r11
 2020 0fc6 0FBC     		pop {r0-r3}
 2021 0fc8 EB46     		mov r11, sp
 2022 0fca D546     		mov sp, r10
 2023 0fcc 10BC     		pop {r4}
 2024 0fce EA46     		mov r10, sp
 2025 0fd0 2546     		mov r5, r4
 2026 0fd2 2404     		lsls r4, r4, # 16
 2027 0fd4 240C     		lsrs r4, r4, # 16
 2028 0fd6 2D0C     		lsrs r5, r5, # 16
 2029 0fd8 6043     		muls r0, r0, r4		@R
 2030 0fda 6143     		muls r1, r1, r4		@I
 2031 0fdc 6A43     		muls r2, r2, r5		@R
 2032 0fde 6B43     		muls r3, r3, r5		@I
 2033 0fe0 8011     		asrs r0, r0, # 6
 2034 0fe2 8911     		asrs r1, r1, # 6
 2035 0fe4 9211     		asrs r2, r2, # 6
 2036 0fe6 9B11     		asrs r3, r3, # 6
ARM GAS  1.s 			page 37


 2037 0fe8 8018     		adds r0, r0, r2	 @r
 2038 0fea C918     		adds r1, r1, r3	 @i
 2039 0fec 3618     		adds r6, r6, r0
 2040 0fee 7F18     		adds r7, r7, r1
 2041              	
 2042 0ff0 DD46     		mov sp, r11
 2043 0ff2 0FBC     		pop {r0-r3}
 2044 0ff4 EB46     		mov r11, sp
 2045 0ff6 D546     		mov sp, r10
 2046 0ff8 10BC     		pop {r4}
 2047 0ffa EA46     		mov r10, sp
 2048 0ffc 2546     		mov r5, r4
 2049 0ffe 2404     		lsls r4, r4, # 16
 2050 1000 240C     		lsrs r4, r4, # 16
 2051 1002 2D0C     		lsrs r5, r5, # 16
 2052 1004 6043     		muls r0, r0, r4
 2053 1006 6143     		muls r1, r1, r4
 2054 1008 6A43     		muls r2, r2, r5
 2055 100a 6B43     		muls r3, r3, r5
 2056 100c 8011     		asrs r0, r0, # 6
 2057 100e 8911     		asrs r1, r1, # 6
 2058 1010 9211     		asrs r2, r2, # 6
 2059 1012 9B11     		asrs r3, r3, # 6
 2060 1014 8018     		adds r0, r0, r2         @r
 2061 1016 C918     		adds r1, r1, r3         @i
 2062 1018 3618     		adds r6, r6, r0
 2063 101a 7F18     		adds r7, r7, r1
 2064              	
 2065 101c DD46     		mov sp, r11
 2066 101e 0FBC     		pop {r0-r3}
 2067 1020 EB46     		mov r11, sp
 2068 1022 D546     		mov sp, r10
 2069 1024 10BC     		pop {r4}
 2070 1026 EA46     		mov r10, sp
 2071 1028 2546     		mov r5, r4
 2072 102a 2404     		lsls r4, r4, # 16
 2073 102c 240C     		lsrs r4, r4, # 16
 2074 102e 2D0C     		lsrs r5, r5, # 16
 2075 1030 6043     		muls r0, r0, r4
 2076 1032 6143     		muls r1, r1, r4
 2077 1034 6A43     		muls r2, r2, r5
 2078 1036 6B43     		muls r3, r3, r5
 2079 1038 8011     		asrs r0, r0, # 6
 2080 103a 8911     		asrs r1, r1, # 6
 2081 103c 9211     		asrs r2, r2, # 6
 2082 103e 9B11     		asrs r3, r3, # 6
 2083 1040 8018     		adds r0, r0, r2  @r
 2084 1042 C918     		adds r1, r1, r3  @i
 2085 1044 3618     		adds r6, r6, r0
 2086 1046 7F18     		adds r7, r7, r1
 2087              	
 2088 1048 DD46     		mov sp, r11
 2089 104a 0FBC     		pop {r0-r3}
 2090 104c EB46     		mov r11, sp
 2091 104e D546     		mov sp, r10
 2092 1050 10BC     		pop {r4}
 2093 1052 EA46     		mov r10, sp
ARM GAS  1.s 			page 38


 2094 1054 2546     		mov r5, r4
 2095 1056 2404     		lsls r4, r4, # 16
 2096 1058 240C     		lsrs r4, r4, # 16
 2097 105a 2D0C     		lsrs r5, r5, # 16
 2098 105c 6043     		muls r0, r0, r4
 2099 105e 6143     		muls r1, r1, r4
 2100 1060 6A43     		muls r2, r2, r5
 2101 1062 6B43     		muls r3, r3, r5
 2102 1064 8011     		asrs r0, r0, # 6
 2103 1066 8911     		asrs r1, r1, # 6
 2104 1068 9211     		asrs r2, r2, # 6
 2105 106a 9B11     		asrs r3, r3, # 6
 2106 106c 8018     		adds r0, r0, r2         @r
 2107 106e C918     		adds r1, r1, r3         @i
 2108 1070 3618     		adds r6, r6, r0
 2109 1072 7F18     		adds r7, r7, r1
 2110              	
 2111              		@1
 2112 1074 DD46     		mov sp, r11
 2113 1076 0FBC     		pop {r0-r3}
 2114 1078 EB46     		mov r11, sp
 2115 107a D546     		mov sp, r10
 2116 107c 10BC     		pop {r4}
 2117 107e EA46     		mov r10, sp
 2118 1080 2546     		mov r5, r4
 2119 1082 2404     		lsls r4, r4, # 16
 2120 1084 240C     		lsrs r4, r4, # 16
 2121 1086 2D0C     		lsrs r5, r5, # 16
 2122 1088 6043     		muls r0, r0, r4		@R
 2123 108a 6143     		muls r1, r1, r4		@I
 2124 108c 6A43     		muls r2, r2, r5		@R
 2125 108e 6B43     		muls r3, r3, r5		@I
 2126 1090 8011     		asrs r0, r0, # 6
 2127 1092 8911     		asrs r1, r1, # 6
 2128 1094 9211     		asrs r2, r2, # 6
 2129 1096 9B11     		asrs r3, r3, # 6
 2130 1098 8018     		adds r0, r0, r2	 @r
 2131 109a C918     		adds r1, r1, r3	 @i
 2132 109c 3618     		adds r6, r6, r0
 2133 109e 7F18     		adds r7, r7, r1
 2134              	
 2135 10a0 DD46     		mov sp, r11
 2136 10a2 0FBC     		pop {r0-r3}
 2137 10a4 EB46     		mov r11, sp
 2138 10a6 D546     		mov sp, r10
 2139 10a8 10BC     		pop {r4}
 2140 10aa EA46     		mov r10, sp
 2141 10ac 2546     		mov r5, r4
 2142 10ae 2404     		lsls r4, r4, # 16
 2143 10b0 240C     		lsrs r4, r4, # 16
 2144 10b2 2D0C     		lsrs r5, r5, # 16
 2145 10b4 6043     		muls r0, r0, r4
 2146 10b6 6143     		muls r1, r1, r4
 2147 10b8 6A43     		muls r2, r2, r5
 2148 10ba 6B43     		muls r3, r3, r5
 2149 10bc 8011     		asrs r0, r0, # 6
 2150 10be 8911     		asrs r1, r1, # 6
ARM GAS  1.s 			page 39


 2151 10c0 9211     		asrs r2, r2, # 6
 2152 10c2 9B11     		asrs r3, r3, # 6
 2153 10c4 8018     		adds r0, r0, r2         @r
 2154 10c6 C918     		adds r1, r1, r3         @i
 2155 10c8 3618     		adds r6, r6, r0
 2156 10ca 7F18     		adds r7, r7, r1
 2157              	
 2158 10cc DD46     		mov sp, r11
 2159 10ce 0FBC     		pop {r0-r3}
 2160 10d0 EB46     		mov r11, sp
 2161 10d2 D546     		mov sp, r10
 2162 10d4 10BC     		pop {r4}
 2163 10d6 EA46     		mov r10, sp
 2164 10d8 2546     		mov r5, r4
 2165 10da 2404     		lsls r4, r4, # 16
 2166 10dc 240C     		lsrs r4, r4, # 16
 2167 10de 2D0C     		lsrs r5, r5, # 16
 2168 10e0 6043     		muls r0, r0, r4
 2169 10e2 6143     		muls r1, r1, r4
 2170 10e4 6A43     		muls r2, r2, r5
 2171 10e6 6B43     		muls r3, r3, r5
 2172 10e8 8011     		asrs r0, r0, # 6
 2173 10ea 8911     		asrs r1, r1, # 6
 2174 10ec 9211     		asrs r2, r2, # 6
 2175 10ee 9B11     		asrs r3, r3, # 6
 2176 10f0 8018     		adds r0, r0, r2  @r
 2177 10f2 C918     		adds r1, r1, r3  @i
 2178 10f4 3618     		adds r6, r6, r0
 2179 10f6 7F18     		adds r7, r7, r1
 2180              	
 2181 10f8 DD46     		mov sp, r11
 2182 10fa 0FBC     		pop {r0-r3}
 2183 10fc EB46     		mov r11, sp
 2184 10fe D546     		mov sp, r10
 2185 1100 10BC     		pop {r4}
 2186 1102 EA46     		mov r10, sp
 2187 1104 2546     		mov r5, r4
 2188 1106 2404     		lsls r4, r4, # 16
 2189 1108 240C     		lsrs r4, r4, # 16
 2190 110a 2D0C     		lsrs r5, r5, # 16
 2191 110c 6043     		muls r0, r0, r4
 2192 110e 6143     		muls r1, r1, r4
 2193 1110 6A43     		muls r2, r2, r5
 2194 1112 6B43     		muls r3, r3, r5
 2195 1114 8011     		asrs r0, r0, # 6
 2196 1116 8911     		asrs r1, r1, # 6
 2197 1118 9211     		asrs r2, r2, # 6
 2198 111a 9B11     		asrs r3, r3, # 6
 2199 111c 8018     		adds r0, r0, r2         @r
 2200 111e C918     		adds r1, r1, r3         @i
 2201 1120 3618     		adds r6, r6, r0
 2202 1122 7F18     		adds r7, r7, r1
 2203              	
 2204              		@2
 2205 1124 DD46     		mov sp, r11
 2206 1126 0FBC     		pop {r0-r3}
 2207 1128 EB46     		mov r11, sp
ARM GAS  1.s 			page 40


 2208 112a D546     		mov sp, r10
 2209 112c 10BC     		pop {r4}
 2210 112e EA46     		mov r10, sp
 2211 1130 2546     		mov r5, r4
 2212 1132 2404     		lsls r4, r4, # 16
 2213 1134 240C     		lsrs r4, r4, # 16
 2214 1136 2D0C     		lsrs r5, r5, # 16
 2215 1138 6043     		muls r0, r0, r4		@R
 2216 113a 6143     		muls r1, r1, r4		@I
 2217 113c 6A43     		muls r2, r2, r5		@R
 2218 113e 6B43     		muls r3, r3, r5		@I
 2219 1140 8011     		asrs r0, r0, # 6
 2220 1142 8911     		asrs r1, r1, # 6
 2221 1144 9211     		asrs r2, r2, # 6
 2222 1146 9B11     		asrs r3, r3, # 6
 2223 1148 8018     		adds r0, r0, r2	 @r
 2224 114a C918     		adds r1, r1, r3	 @i
 2225 114c 3618     		adds r6, r6, r0
 2226 114e 7F18     		adds r7, r7, r1
 2227              	
 2228 1150 DD46     		mov sp, r11
 2229 1152 0FBC     		pop {r0-r3}
 2230 1154 EB46     		mov r11, sp
 2231 1156 D546     		mov sp, r10
 2232 1158 10BC     		pop {r4}
 2233 115a EA46     		mov r10, sp
 2234 115c 2546     		mov r5, r4
 2235 115e 2404     		lsls r4, r4, # 16
 2236 1160 240C     		lsrs r4, r4, # 16
 2237 1162 2D0C     		lsrs r5, r5, # 16
 2238 1164 6043     		muls r0, r0, r4
 2239 1166 6143     		muls r1, r1, r4
 2240 1168 6A43     		muls r2, r2, r5
 2241 116a 6B43     		muls r3, r3, r5
 2242 116c 8011     		asrs r0, r0, # 6
 2243 116e 8911     		asrs r1, r1, # 6
 2244 1170 9211     		asrs r2, r2, # 6
 2245 1172 9B11     		asrs r3, r3, # 6
 2246 1174 8018     		adds r0, r0, r2         @r
 2247 1176 C918     		adds r1, r1, r3         @i
 2248 1178 3618     		adds r6, r6, r0
 2249 117a 7F18     		adds r7, r7, r1
 2250              	
 2251 117c DD46     		mov sp, r11
 2252 117e 0FBC     		pop {r0-r3}
 2253 1180 EB46     		mov r11, sp
 2254 1182 D546     		mov sp, r10
 2255 1184 10BC     		pop {r4}
 2256 1186 EA46     		mov r10, sp
 2257 1188 2546     		mov r5, r4
 2258 118a 2404     		lsls r4, r4, # 16
 2259 118c 240C     		lsrs r4, r4, # 16
 2260 118e 2D0C     		lsrs r5, r5, # 16
 2261 1190 6043     		muls r0, r0, r4
 2262 1192 6143     		muls r1, r1, r4
 2263 1194 6A43     		muls r2, r2, r5
 2264 1196 6B43     		muls r3, r3, r5
ARM GAS  1.s 			page 41


 2265 1198 8011     		asrs r0, r0, # 6
 2266 119a 8911     		asrs r1, r1, # 6
 2267 119c 9211     		asrs r2, r2, # 6
 2268 119e 9B11     		asrs r3, r3, # 6
 2269 11a0 8018     		adds r0, r0, r2  @r
 2270 11a2 C918     		adds r1, r1, r3  @i
 2271 11a4 3618     		adds r6, r6, r0
 2272 11a6 7F18     		adds r7, r7, r1
 2273              	
 2274 11a8 DD46     		mov sp, r11
 2275 11aa 0FBC     		pop {r0-r3}
 2276 11ac EB46     		mov r11, sp
 2277 11ae D546     		mov sp, r10
 2278 11b0 10BC     		pop {r4}
 2279 11b2 EA46     		mov r10, sp
 2280 11b4 2546     		mov r5, r4
 2281 11b6 2404     		lsls r4, r4, # 16
 2282 11b8 240C     		lsrs r4, r4, # 16
 2283 11ba 2D0C     		lsrs r5, r5, # 16
 2284 11bc 6043     		muls r0, r0, r4
 2285 11be 6143     		muls r1, r1, r4
 2286 11c0 6A43     		muls r2, r2, r5
 2287 11c2 6B43     		muls r3, r3, r5
 2288 11c4 8011     		asrs r0, r0, # 6
 2289 11c6 8911     		asrs r1, r1, # 6
 2290 11c8 9211     		asrs r2, r2, # 6
 2291 11ca 9B11     		asrs r3, r3, # 6
 2292 11cc 8018     		adds r0, r0, r2         @r
 2293 11ce C918     		adds r1, r1, r3         @i
 2294 11d0 3618     		adds r6, r6, r0
 2295 11d2 7F18     		adds r7, r7, r1
 2296              	
 2297              		@3
 2298 11d4 DD46     		mov sp, r11
 2299 11d6 0FBC     		pop {r0-r3}
 2300 11d8 EB46     		mov r11, sp
 2301 11da D546     		mov sp, r10
 2302 11dc 10BC     		pop {r4}
 2303 11de EA46     		mov r10, sp
 2304 11e0 2546     		mov r5, r4
 2305 11e2 2404     		lsls r4, r4, # 16
 2306 11e4 240C     		lsrs r4, r4, # 16
 2307 11e6 2D0C     		lsrs r5, r5, # 16
 2308 11e8 6043     		muls r0, r0, r4		@R
 2309 11ea 6143     		muls r1, r1, r4		@I
 2310 11ec 6A43     		muls r2, r2, r5		@R
 2311 11ee 6B43     		muls r3, r3, r5		@I
 2312 11f0 8011     		asrs r0, r0, # 6
 2313 11f2 8911     		asrs r1, r1, # 6
 2314 11f4 9211     		asrs r2, r2, # 6
 2315 11f6 9B11     		asrs r3, r3, # 6
 2316 11f8 8018     		adds r0, r0, r2	 @r
 2317 11fa C918     		adds r1, r1, r3	 @i
 2318 11fc 3618     		adds r6, r6, r0
 2319 11fe 7F18     		adds r7, r7, r1
 2320              	
 2321 1200 DD46     		mov sp, r11
ARM GAS  1.s 			page 42


 2322 1202 0FBC     		pop {r0-r3}
 2323 1204 EB46     		mov r11, sp
 2324 1206 D546     		mov sp, r10
 2325 1208 10BC     		pop {r4}
 2326 120a EA46     		mov r10, sp
 2327 120c 2546     		mov r5, r4
 2328 120e 2404     		lsls r4, r4, # 16
 2329 1210 240C     		lsrs r4, r4, # 16
 2330 1212 2D0C     		lsrs r5, r5, # 16
 2331 1214 6043     		muls r0, r0, r4
 2332 1216 6143     		muls r1, r1, r4
 2333 1218 6A43     		muls r2, r2, r5
 2334 121a 6B43     		muls r3, r3, r5
 2335 121c 8011     		asrs r0, r0, # 6
 2336 121e 8911     		asrs r1, r1, # 6
 2337 1220 9211     		asrs r2, r2, # 6
 2338 1222 9B11     		asrs r3, r3, # 6
 2339 1224 8018     		adds r0, r0, r2         @r
 2340 1226 C918     		adds r1, r1, r3         @i
 2341 1228 3618     		adds r6, r6, r0
 2342 122a 7F18     		adds r7, r7, r1
 2343              	
 2344 122c DD46     		mov sp, r11
 2345 122e 0FBC     		pop {r0-r3}
 2346 1230 EB46     		mov r11, sp
 2347 1232 D546     		mov sp, r10
 2348 1234 10BC     		pop {r4}
 2349 1236 EA46     		mov r10, sp
 2350 1238 2546     		mov r5, r4
 2351 123a 2404     		lsls r4, r4, # 16
 2352 123c 240C     		lsrs r4, r4, # 16
 2353 123e 2D0C     		lsrs r5, r5, # 16
 2354 1240 6043     		muls r0, r0, r4
 2355 1242 6143     		muls r1, r1, r4
 2356 1244 6A43     		muls r2, r2, r5
 2357 1246 6B43     		muls r3, r3, r5
 2358 1248 8011     		asrs r0, r0, # 6
 2359 124a 8911     		asrs r1, r1, # 6
 2360 124c 9211     		asrs r2, r2, # 6
 2361 124e 9B11     		asrs r3, r3, # 6
 2362 1250 8018     		adds r0, r0, r2  @r
 2363 1252 C918     		adds r1, r1, r3  @i
 2364 1254 3618     		adds r6, r6, r0
 2365 1256 7F18     		adds r7, r7, r1
 2366              	
 2367 1258 DD46     		mov sp, r11
 2368 125a 0FBC     		pop {r0-r3}
 2369 125c EB46     		mov r11, sp
 2370 125e D546     		mov sp, r10
 2371 1260 10BC     		pop {r4}
 2372 1262 EA46     		mov r10, sp
 2373 1264 2546     		mov r5, r4
 2374 1266 2404     		lsls r4, r4, # 16
 2375 1268 240C     		lsrs r4, r4, # 16
 2376 126a 2D0C     		lsrs r5, r5, # 16
 2377 126c 6043     		muls r0, r0, r4
 2378 126e 6143     		muls r1, r1, r4
ARM GAS  1.s 			page 43


 2379 1270 6A43     		muls r2, r2, r5
 2380 1272 6B43     		muls r3, r3, r5
 2381 1274 8011     		asrs r0, r0, # 6
 2382 1276 8911     		asrs r1, r1, # 6
 2383 1278 9211     		asrs r2, r2, # 6
 2384 127a 9B11     		asrs r3, r3, # 6
 2385 127c 8018     		adds r0, r0, r2         @r
 2386 127e C918     		adds r1, r1, r3         @i
 2387 1280 3618     		adds r6, r6, r0
 2388 1282 7F18     		adds r7, r7, r1
 2389              	
 2390              		@4
 2391 1284 DD46     		mov sp, r11
 2392 1286 0FBC     		pop {r0-r3}
 2393 1288 EB46     		mov r11, sp
 2394 128a D546     		mov sp, r10
 2395 128c 10BC     		pop {r4}
 2396 128e EA46     		mov r10, sp
 2397 1290 2546     		mov r5, r4
 2398 1292 2404     		lsls r4, r4, # 16
 2399 1294 240C     		lsrs r4, r4, # 16
 2400 1296 2D0C     		lsrs r5, r5, # 16
 2401 1298 6043     		muls r0, r0, r4		@R
 2402 129a 6143     		muls r1, r1, r4		@I
 2403 129c 6A43     		muls r2, r2, r5		@R
 2404 129e 6B43     		muls r3, r3, r5		@I
 2405 12a0 8011     		asrs r0, r0, # 6
 2406 12a2 8911     		asrs r1, r1, # 6
 2407 12a4 9211     		asrs r2, r2, # 6
 2408 12a6 9B11     		asrs r3, r3, # 6
 2409 12a8 8018     		adds r0, r0, r2	 @r
 2410 12aa C918     		adds r1, r1, r3	 @i
 2411 12ac 3618     		adds r6, r6, r0
 2412 12ae 7F18     		adds r7, r7, r1
 2413              	
 2414 12b0 DD46     		mov sp, r11
 2415 12b2 0FBC     		pop {r0-r3}
 2416 12b4 EB46     		mov r11, sp
 2417 12b6 D546     		mov sp, r10
 2418 12b8 10BC     		pop {r4}
 2419 12ba EA46     		mov r10, sp
 2420 12bc 2546     		mov r5, r4
 2421 12be 2404     		lsls r4, r4, # 16
 2422 12c0 240C     		lsrs r4, r4, # 16
 2423 12c2 2D0C     		lsrs r5, r5, # 16
 2424 12c4 6043     		muls r0, r0, r4
 2425 12c6 6143     		muls r1, r1, r4
 2426 12c8 6A43     		muls r2, r2, r5
 2427 12ca 6B43     		muls r3, r3, r5
 2428 12cc 8011     		asrs r0, r0, # 6
 2429 12ce 8911     		asrs r1, r1, # 6
 2430 12d0 9211     		asrs r2, r2, # 6
 2431 12d2 9B11     		asrs r3, r3, # 6
 2432 12d4 8018     		adds r0, r0, r2         @r
 2433 12d6 C918     		adds r1, r1, r3         @i
 2434 12d8 3618     		adds r6, r6, r0
 2435 12da 7F18     		adds r7, r7, r1
ARM GAS  1.s 			page 44


 2436              	
 2437 12dc DD46     		mov sp, r11
 2438 12de 0FBC     		pop {r0-r3}
 2439 12e0 EB46     		mov r11, sp
 2440 12e2 D546     		mov sp, r10
 2441 12e4 10BC     		pop {r4}
 2442 12e6 EA46     		mov r10, sp
 2443 12e8 2546     		mov r5, r4
 2444 12ea 2404     		lsls r4, r4, # 16
 2445 12ec 240C     		lsrs r4, r4, # 16
 2446 12ee 2D0C     		lsrs r5, r5, # 16
 2447 12f0 6043     		muls r0, r0, r4
 2448 12f2 6143     		muls r1, r1, r4
 2449 12f4 6A43     		muls r2, r2, r5
 2450 12f6 6B43     		muls r3, r3, r5
 2451 12f8 8011     		asrs r0, r0, # 6
 2452 12fa 8911     		asrs r1, r1, # 6
 2453 12fc 9211     		asrs r2, r2, # 6
 2454 12fe 9B11     		asrs r3, r3, # 6
 2455 1300 8018     		adds r0, r0, r2  @r
 2456 1302 C918     		adds r1, r1, r3  @i
 2457 1304 3618     		adds r6, r6, r0
 2458 1306 7F18     		adds r7, r7, r1
 2459              	
 2460 1308 DD46     		mov sp, r11
 2461 130a 0FBC     		pop {r0-r3}
 2462 130c EB46     		mov r11, sp
 2463 130e D546     		mov sp, r10
 2464 1310 10BC     		pop {r4}
 2465 1312 EA46     		mov r10, sp
 2466 1314 2546     		mov r5, r4
 2467 1316 2404     		lsls r4, r4, # 16
 2468 1318 240C     		lsrs r4, r4, # 16
 2469 131a 2D0C     		lsrs r5, r5, # 16
 2470 131c 6043     		muls r0, r0, r4
 2471 131e 6143     		muls r1, r1, r4
 2472 1320 6A43     		muls r2, r2, r5
 2473 1322 6B43     		muls r3, r3, r5
 2474 1324 8011     		asrs r0, r0, # 6
 2475 1326 8911     		asrs r1, r1, # 6
 2476 1328 9211     		asrs r2, r2, # 6
 2477 132a 9B11     		asrs r3, r3, # 6
 2478 132c 8018     		adds r0, r0, r2         @r
 2479 132e C918     		adds r1, r1, r3         @i
 2480 1330 3618     		adds r6, r6, r0
 2481 1332 7F18     		adds r7, r7, r1
 2482              	
 2483              		@5
 2484 1334 DD46     		mov sp, r11
 2485 1336 0FBC     		pop {r0-r3}
 2486 1338 EB46     		mov r11, sp
 2487 133a D546     		mov sp, r10
 2488 133c 10BC     		pop {r4}
 2489 133e EA46     		mov r10, sp
 2490 1340 2546     		mov r5, r4
 2491 1342 2404     		lsls r4, r4, # 16
 2492 1344 240C     		lsrs r4, r4, # 16
ARM GAS  1.s 			page 45


 2493 1346 2D0C     		lsrs r5, r5, # 16
 2494 1348 6043     		muls r0, r0, r4		@R
 2495 134a 6143     		muls r1, r1, r4		@I
 2496 134c 6A43     		muls r2, r2, r5		@R
 2497 134e 6B43     		muls r3, r3, r5		@I
 2498 1350 8011     		asrs r0, r0, # 6
 2499 1352 8911     		asrs r1, r1, # 6
 2500 1354 9211     		asrs r2, r2, # 6
 2501 1356 9B11     		asrs r3, r3, # 6
 2502 1358 8018     		adds r0, r0, r2	 @r
 2503 135a C918     		adds r1, r1, r3	 @i
 2504 135c 3618     		adds r6, r6, r0
 2505 135e 7F18     		adds r7, r7, r1
 2506              	
 2507 1360 DD46     		mov sp, r11
 2508 1362 0FBC     		pop {r0-r3}
 2509 1364 EB46     		mov r11, sp
 2510 1366 D546     		mov sp, r10
 2511 1368 10BC     		pop {r4}
 2512 136a EA46     		mov r10, sp
 2513 136c 2546     		mov r5, r4
 2514 136e 2404     		lsls r4, r4, # 16
 2515 1370 240C     		lsrs r4, r4, # 16
 2516 1372 2D0C     		lsrs r5, r5, # 16
 2517 1374 6043     		muls r0, r0, r4
 2518 1376 6143     		muls r1, r1, r4
 2519 1378 6A43     		muls r2, r2, r5
 2520 137a 6B43     		muls r3, r3, r5
 2521 137c 8011     		asrs r0, r0, # 6
 2522 137e 8911     		asrs r1, r1, # 6
 2523 1380 9211     		asrs r2, r2, # 6
 2524 1382 9B11     		asrs r3, r3, # 6
 2525 1384 8018     		adds r0, r0, r2         @r
 2526 1386 C918     		adds r1, r1, r3         @i
 2527 1388 3618     		adds r6, r6, r0
 2528 138a 7F18     		adds r7, r7, r1
 2529              	
 2530 138c DD46     		mov sp, r11
 2531 138e 0FBC     		pop {r0-r3}
 2532 1390 EB46     		mov r11, sp
 2533 1392 D546     		mov sp, r10
 2534 1394 10BC     		pop {r4}
 2535 1396 EA46     		mov r10, sp
 2536 1398 2546     		mov r5, r4
 2537 139a 2404     		lsls r4, r4, # 16
 2538 139c 240C     		lsrs r4, r4, # 16
 2539 139e 2D0C     		lsrs r5, r5, # 16
 2540 13a0 6043     		muls r0, r0, r4
 2541 13a2 6143     		muls r1, r1, r4
 2542 13a4 6A43     		muls r2, r2, r5
 2543 13a6 6B43     		muls r3, r3, r5
 2544 13a8 8011     		asrs r0, r0, # 6
 2545 13aa 8911     		asrs r1, r1, # 6
 2546 13ac 9211     		asrs r2, r2, # 6
 2547 13ae 9B11     		asrs r3, r3, # 6
 2548 13b0 8018     		adds r0, r0, r2  @r
 2549 13b2 C918     		adds r1, r1, r3  @i
ARM GAS  1.s 			page 46


 2550 13b4 3618     		adds r6, r6, r0
 2551 13b6 7F18     		adds r7, r7, r1
 2552              	
 2553 13b8 DD46     		mov sp, r11
 2554 13ba 0FBC     		pop {r0-r3}
 2555 13bc EB46     		mov r11, sp
 2556 13be D546     		mov sp, r10
 2557 13c0 10BC     		pop {r4}
 2558 13c2 EA46     		mov r10, sp
 2559 13c4 2546     		mov r5, r4
 2560 13c6 2404     		lsls r4, r4, # 16
 2561 13c8 240C     		lsrs r4, r4, # 16
 2562 13ca 2D0C     		lsrs r5, r5, # 16
 2563 13cc 6043     		muls r0, r0, r4
 2564 13ce 6143     		muls r1, r1, r4
 2565 13d0 6A43     		muls r2, r2, r5
 2566 13d2 6B43     		muls r3, r3, r5
 2567 13d4 8011     		asrs r0, r0, # 6
 2568 13d6 8911     		asrs r1, r1, # 6
 2569 13d8 9211     		asrs r2, r2, # 6
 2570 13da 9B11     		asrs r3, r3, # 6
 2571 13dc 8018     		adds r0, r0, r2         @r
 2572 13de C918     		adds r1, r1, r3         @i
 2573 13e0 3618     		adds r6, r6, r0
 2574 13e2 7F18     		adds r7, r7, r1
 2575              	
 2576              		@6
 2577 13e4 DD46     		mov sp, r11
 2578 13e6 0FBC     		pop {r0-r3}
 2579 13e8 EB46     		mov r11, sp
 2580 13ea D546     		mov sp, r10
 2581 13ec 10BC     		pop {r4}
 2582 13ee EA46     		mov r10, sp
 2583 13f0 2546     		mov r5, r4
 2584 13f2 2404     		lsls r4, r4, # 16
 2585 13f4 240C     		lsrs r4, r4, # 16
 2586 13f6 2D0C     		lsrs r5, r5, # 16
 2587 13f8 6043     		muls r0, r0, r4		@R
 2588 13fa 6143     		muls r1, r1, r4		@I
 2589 13fc 6A43     		muls r2, r2, r5		@R
 2590 13fe 6B43     		muls r3, r3, r5		@I
 2591 1400 8011     		asrs r0, r0, # 6
 2592 1402 8911     		asrs r1, r1, # 6
 2593 1404 9211     		asrs r2, r2, # 6
 2594 1406 9B11     		asrs r3, r3, # 6
 2595 1408 8018     		adds r0, r0, r2	 @r
 2596 140a C918     		adds r1, r1, r3	 @i
 2597 140c 3618     		adds r6, r6, r0
 2598 140e 7F18     		adds r7, r7, r1
 2599              	
 2600 1410 DD46     		mov sp, r11
 2601 1412 0FBC     		pop {r0-r3}
 2602 1414 EB46     		mov r11, sp
 2603 1416 D546     		mov sp, r10
 2604 1418 10BC     		pop {r4}
 2605 141a EA46     		mov r10, sp
 2606 141c 2546     		mov r5, r4
ARM GAS  1.s 			page 47


 2607 141e 2404     		lsls r4, r4, # 16
 2608 1420 240C     		lsrs r4, r4, # 16
 2609 1422 2D0C     		lsrs r5, r5, # 16
 2610 1424 6043     		muls r0, r0, r4
 2611 1426 6143     		muls r1, r1, r4
 2612 1428 6A43     		muls r2, r2, r5
 2613 142a 6B43     		muls r3, r3, r5
 2614 142c 8011     		asrs r0, r0, # 6
 2615 142e 8911     		asrs r1, r1, # 6
 2616 1430 9211     		asrs r2, r2, # 6
 2617 1432 9B11     		asrs r3, r3, # 6
 2618 1434 8018     		adds r0, r0, r2         @r
 2619 1436 C918     		adds r1, r1, r3         @i
 2620 1438 3618     		adds r6, r6, r0
 2621 143a 7F18     		adds r7, r7, r1
 2622              	
 2623 143c DD46     		mov sp, r11
 2624 143e 0FBC     		pop {r0-r3}
 2625 1440 EB46     		mov r11, sp
 2626 1442 D546     		mov sp, r10
 2627 1444 10BC     		pop {r4}
 2628 1446 EA46     		mov r10, sp
 2629 1448 2546     		mov r5, r4
 2630 144a 2404     		lsls r4, r4, # 16
 2631 144c 240C     		lsrs r4, r4, # 16
 2632 144e 2D0C     		lsrs r5, r5, # 16
 2633 1450 6043     		muls r0, r0, r4
 2634 1452 6143     		muls r1, r1, r4
 2635 1454 6A43     		muls r2, r2, r5
 2636 1456 6B43     		muls r3, r3, r5
 2637 1458 8011     		asrs r0, r0, # 6
 2638 145a 8911     		asrs r1, r1, # 6
 2639 145c 9211     		asrs r2, r2, # 6
 2640 145e 9B11     		asrs r3, r3, # 6
 2641 1460 8018     		adds r0, r0, r2  @r
 2642 1462 C918     		adds r1, r1, r3  @i
 2643 1464 3618     		adds r6, r6, r0
 2644 1466 7F18     		adds r7, r7, r1
 2645              	
 2646 1468 DD46     		mov sp, r11
 2647 146a 0FBC     		pop {r0-r3}
 2648 146c EB46     		mov r11, sp
 2649 146e D546     		mov sp, r10
 2650 1470 10BC     		pop {r4}
 2651 1472 EA46     		mov r10, sp
 2652 1474 2546     		mov r5, r4
 2653 1476 2404     		lsls r4, r4, # 16
 2654 1478 240C     		lsrs r4, r4, # 16
 2655 147a 2D0C     		lsrs r5, r5, # 16
 2656 147c 6043     		muls r0, r0, r4
 2657 147e 6143     		muls r1, r1, r4
 2658 1480 6A43     		muls r2, r2, r5
 2659 1482 6B43     		muls r3, r3, r5
 2660 1484 8011     		asrs r0, r0, # 6
 2661 1486 8911     		asrs r1, r1, # 6
 2662 1488 9211     		asrs r2, r2, # 6
 2663 148a 9B11     		asrs r3, r3, # 6
ARM GAS  1.s 			page 48


 2664 148c 8018     		adds r0, r0, r2         @r
 2665 148e C918     		adds r1, r1, r3         @i
 2666 1490 3618     		adds r6, r6, r0
 2667 1492 7F18     		adds r7, r7, r1
 2668              	
 2669              		@7
 2670 1494 DD46     		mov sp, r11
 2671 1496 0FBC     		pop {r0-r3}
 2672 1498 EB46     		mov r11, sp
 2673 149a D546     		mov sp, r10
 2674 149c 10BC     		pop {r4}
 2675 149e EA46     		mov r10, sp
 2676 14a0 2546     		mov r5, r4
 2677 14a2 2404     		lsls r4, r4, # 16
 2678 14a4 240C     		lsrs r4, r4, # 16
 2679 14a6 2D0C     		lsrs r5, r5, # 16
 2680 14a8 6043     		muls r0, r0, r4		@R
 2681 14aa 6143     		muls r1, r1, r4		@I
 2682 14ac 6A43     		muls r2, r2, r5		@R
 2683 14ae 6B43     		muls r3, r3, r5		@I
 2684 14b0 8011     		asrs r0, r0, # 6
 2685 14b2 8911     		asrs r1, r1, # 6
 2686 14b4 9211     		asrs r2, r2, # 6
 2687 14b6 9B11     		asrs r3, r3, # 6
 2688 14b8 8018     		adds r0, r0, r2	 @r
 2689 14ba C918     		adds r1, r1, r3	 @i
 2690 14bc 3618     		adds r6, r6, r0
 2691 14be 7F18     		adds r7, r7, r1
 2692              	
 2693 14c0 DD46     		mov sp, r11
 2694 14c2 0FBC     		pop {r0-r3}
 2695 14c4 EB46     		mov r11, sp
 2696 14c6 D546     		mov sp, r10
 2697 14c8 10BC     		pop {r4}
 2698 14ca EA46     		mov r10, sp
 2699 14cc 2546     		mov r5, r4
 2700 14ce 2404     		lsls r4, r4, # 16
 2701 14d0 240C     		lsrs r4, r4, # 16
 2702 14d2 2D0C     		lsrs r5, r5, # 16
 2703 14d4 6043     		muls r0, r0, r4
 2704 14d6 6143     		muls r1, r1, r4
 2705 14d8 6A43     		muls r2, r2, r5
 2706 14da 6B43     		muls r3, r3, r5
 2707 14dc 8011     		asrs r0, r0, # 6
 2708 14de 8911     		asrs r1, r1, # 6
 2709 14e0 9211     		asrs r2, r2, # 6
 2710 14e2 9B11     		asrs r3, r3, # 6
 2711 14e4 8018     		adds r0, r0, r2         @r
 2712 14e6 C918     		adds r1, r1, r3         @i
 2713 14e8 3618     		adds r6, r6, r0
 2714 14ea 7F18     		adds r7, r7, r1
 2715              	
 2716 14ec DD46     		mov sp, r11
 2717 14ee 0FBC     		pop {r0-r3}
 2718 14f0 EB46     		mov r11, sp
 2719 14f2 D546     		mov sp, r10
 2720 14f4 10BC     		pop {r4}
ARM GAS  1.s 			page 49


 2721 14f6 EA46     		mov r10, sp
 2722 14f8 2546     		mov r5, r4
 2723 14fa 2404     		lsls r4, r4, # 16
 2724 14fc 240C     		lsrs r4, r4, # 16
 2725 14fe 2D0C     		lsrs r5, r5, # 16
 2726 1500 6043     		muls r0, r0, r4
 2727 1502 6143     		muls r1, r1, r4
 2728 1504 6A43     		muls r2, r2, r5
 2729 1506 6B43     		muls r3, r3, r5
 2730 1508 8011     		asrs r0, r0, # 6
 2731 150a 8911     		asrs r1, r1, # 6
 2732 150c 9211     		asrs r2, r2, # 6
 2733 150e 9B11     		asrs r3, r3, # 6
 2734 1510 8018     		adds r0, r0, r2  @r
 2735 1512 C918     		adds r1, r1, r3  @i
 2736 1514 3618     		adds r6, r6, r0
 2737 1516 7F18     		adds r7, r7, r1
 2738              	
 2739 1518 DD46     		mov sp, r11
 2740 151a 0FBC     		pop {r0-r3}
 2741 151c EB46     		mov r11, sp
 2742 151e D546     		mov sp, r10
 2743 1520 10BC     		pop {r4}
 2744 1522 EA46     		mov r10, sp
 2745 1524 2546     		mov r5, r4
 2746 1526 2404     		lsls r4, r4, # 16
 2747 1528 240C     		lsrs r4, r4, # 16
 2748 152a 2D0C     		lsrs r5, r5, # 16
 2749 152c 6043     		muls r0, r0, r4
 2750 152e 6143     		muls r1, r1, r4
 2751 1530 6A43     		muls r2, r2, r5
 2752 1532 6B43     		muls r3, r3, r5
 2753 1534 8011     		asrs r0, r0, # 6
 2754 1536 8911     		asrs r1, r1, # 6
 2755 1538 9211     		asrs r2, r2, # 6
 2756 153a 9B11     		asrs r3, r3, # 6
 2757 153c 8018     		adds r0, r0, r2         @r
 2758 153e C918     		adds r1, r1, r3         @i
 2759 1540 3618     		adds r6, r6, r0
 2760 1542 7F18     		adds r7, r7, r1
 2761              	
 2762              		@8
 2763 1544 DD46     		mov sp, r11
 2764 1546 0FBC     		pop {r0-r3}
 2765 1548 EB46     		mov r11, sp
 2766 154a D546     		mov sp, r10
 2767 154c 10BC     		pop {r4}
 2768 154e EA46     		mov r10, sp
 2769 1550 2546     		mov r5, r4
 2770 1552 2404     		lsls r4, r4, # 16
 2771 1554 240C     		lsrs r4, r4, # 16
 2772 1556 2D0C     		lsrs r5, r5, # 16
 2773 1558 6043     		muls r0, r0, r4		@R
 2774 155a 6143     		muls r1, r1, r4		@I
 2775 155c 6A43     		muls r2, r2, r5		@R
 2776 155e 6B43     		muls r3, r3, r5		@I
 2777 1560 8011     		asrs r0, r0, # 6
ARM GAS  1.s 			page 50


 2778 1562 8911     		asrs r1, r1, # 6
 2779 1564 9211     		asrs r2, r2, # 6
 2780 1566 9B11     		asrs r3, r3, # 6
 2781 1568 8018     		adds r0, r0, r2	 @r
 2782 156a C918     		adds r1, r1, r3	 @i
 2783 156c 3618     		adds r6, r6, r0
 2784 156e 7F18     		adds r7, r7, r1
 2785              	
 2786 1570 DD46     		mov sp, r11
 2787 1572 0FBC     		pop {r0-r3}
 2788 1574 EB46     		mov r11, sp
 2789 1576 D546     		mov sp, r10
 2790 1578 10BC     		pop {r4}
 2791 157a EA46     		mov r10, sp
 2792 157c 2546     		mov r5, r4
 2793 157e 2404     		lsls r4, r4, # 16
 2794 1580 240C     		lsrs r4, r4, # 16
 2795 1582 2D0C     		lsrs r5, r5, # 16
 2796 1584 6043     		muls r0, r0, r4
 2797 1586 6143     		muls r1, r1, r4
 2798 1588 6A43     		muls r2, r2, r5
 2799 158a 6B43     		muls r3, r3, r5
 2800 158c 8011     		asrs r0, r0, # 6
 2801 158e 8911     		asrs r1, r1, # 6
 2802 1590 9211     		asrs r2, r2, # 6
 2803 1592 9B11     		asrs r3, r3, # 6
 2804 1594 8018     		adds r0, r0, r2         @r
 2805 1596 C918     		adds r1, r1, r3         @i
 2806 1598 3618     		adds r6, r6, r0
 2807 159a 7F18     		adds r7, r7, r1
 2808              	
 2809 159c DD46     		mov sp, r11
 2810 159e 0FBC     		pop {r0-r3}
 2811 15a0 EB46     		mov r11, sp
 2812 15a2 D546     		mov sp, r10
 2813 15a4 10BC     		pop {r4}
 2814 15a6 EA46     		mov r10, sp
 2815 15a8 2546     		mov r5, r4
 2816 15aa 2404     		lsls r4, r4, # 16
 2817 15ac 240C     		lsrs r4, r4, # 16
 2818 15ae 2D0C     		lsrs r5, r5, # 16
 2819 15b0 6043     		muls r0, r0, r4
 2820 15b2 6143     		muls r1, r1, r4
 2821 15b4 6A43     		muls r2, r2, r5
 2822 15b6 6B43     		muls r3, r3, r5
 2823 15b8 8011     		asrs r0, r0, # 6
 2824 15ba 8911     		asrs r1, r1, # 6
 2825 15bc 9211     		asrs r2, r2, # 6
 2826 15be 9B11     		asrs r3, r3, # 6
 2827 15c0 8018     		adds r0, r0, r2  @r
 2828 15c2 C918     		adds r1, r1, r3  @i
 2829 15c4 3618     		adds r6, r6, r0
 2830 15c6 7F18     		adds r7, r7, r1
 2831              	
 2832 15c8 DD46     		mov sp, r11
 2833 15ca 0FBC     		pop {r0-r3}
 2834 15cc EB46     		mov r11, sp
ARM GAS  1.s 			page 51


 2835 15ce D546     		mov sp, r10
 2836 15d0 10BC     		pop {r4}
 2837 15d2 EA46     		mov r10, sp
 2838 15d4 2546     		mov r5, r4
 2839 15d6 2404     		lsls r4, r4, # 16
 2840 15d8 240C     		lsrs r4, r4, # 16
 2841 15da 2D0C     		lsrs r5, r5, # 16
 2842 15dc 6043     		muls r0, r0, r4
 2843 15de 6143     		muls r1, r1, r4
 2844 15e0 6A43     		muls r2, r2, r5
 2845 15e2 6B43     		muls r3, r3, r5
 2846 15e4 8011     		asrs r0, r0, # 6
 2847 15e6 8911     		asrs r1, r1, # 6
 2848 15e8 9211     		asrs r2, r2, # 6
 2849 15ea 9B11     		asrs r3, r3, # 6
 2850 15ec 8018     		adds r0, r0, r2         @r
 2851 15ee C918     		adds r1, r1, r3         @i
 2852 15f0 3618     		adds r6, r6, r0
 2853 15f2 7F18     		adds r7, r7, r1
 2854              	
 2855              		@9
 2856 15f4 DD46     		mov sp, r11
 2857 15f6 0FBC     		pop {r0-r3}
 2858 15f8 EB46     		mov r11, sp
 2859 15fa D546     		mov sp, r10
 2860 15fc 10BC     		pop {r4}
 2861 15fe EA46     		mov r10, sp
 2862 1600 2546     		mov r5, r4
 2863 1602 2404     		lsls r4, r4, # 16
 2864 1604 240C     		lsrs r4, r4, # 16
 2865 1606 2D0C     		lsrs r5, r5, # 16
 2866 1608 6043     		muls r0, r0, r4		@R
 2867 160a 6143     		muls r1, r1, r4		@I
 2868 160c 6A43     		muls r2, r2, r5		@R
 2869 160e 6B43     		muls r3, r3, r5		@I
 2870 1610 8011     		asrs r0, r0, # 6
 2871 1612 8911     		asrs r1, r1, # 6
 2872 1614 9211     		asrs r2, r2, # 6
 2873 1616 9B11     		asrs r3, r3, # 6
 2874 1618 8018     		adds r0, r0, r2	 @r
 2875 161a C918     		adds r1, r1, r3	 @i
 2876 161c 3618     		adds r6, r6, r0
 2877 161e 7F18     		adds r7, r7, r1
 2878              	
 2879 1620 DD46     		mov sp, r11
 2880 1622 0FBC     		pop {r0-r3}
 2881 1624 EB46     		mov r11, sp
 2882 1626 D546     		mov sp, r10
 2883 1628 10BC     		pop {r4}
 2884 162a EA46     		mov r10, sp
 2885 162c 2546     		mov r5, r4
 2886 162e 2404     		lsls r4, r4, # 16
 2887 1630 240C     		lsrs r4, r4, # 16
 2888 1632 2D0C     		lsrs r5, r5, # 16
 2889 1634 6043     		muls r0, r0, r4
 2890 1636 6143     		muls r1, r1, r4
 2891 1638 6A43     		muls r2, r2, r5
ARM GAS  1.s 			page 52


 2892 163a 6B43     		muls r3, r3, r5
 2893 163c 8011     		asrs r0, r0, # 6
 2894 163e 8911     		asrs r1, r1, # 6
 2895 1640 9211     		asrs r2, r2, # 6
 2896 1642 9B11     		asrs r3, r3, # 6
 2897 1644 8018     		adds r0, r0, r2         @r
 2898 1646 C918     		adds r1, r1, r3         @i
 2899 1648 3618     		adds r6, r6, r0
 2900 164a 7F18     		adds r7, r7, r1
 2901              	
 2902 164c DD46     		mov sp, r11
 2903 164e 0FBC     		pop {r0-r3}
 2904 1650 EB46     		mov r11, sp
 2905 1652 D546     		mov sp, r10
 2906 1654 10BC     		pop {r4}
 2907 1656 EA46     		mov r10, sp
 2908 1658 2546     		mov r5, r4
 2909 165a 2404     		lsls r4, r4, # 16
 2910 165c 240C     		lsrs r4, r4, # 16
 2911 165e 2D0C     		lsrs r5, r5, # 16
 2912 1660 6043     		muls r0, r0, r4
 2913 1662 6143     		muls r1, r1, r4
 2914 1664 6A43     		muls r2, r2, r5
 2915 1666 6B43     		muls r3, r3, r5
 2916 1668 8011     		asrs r0, r0, # 6
 2917 166a 8911     		asrs r1, r1, # 6
 2918 166c 9211     		asrs r2, r2, # 6
 2919 166e 9B11     		asrs r3, r3, # 6
 2920 1670 8018     		adds r0, r0, r2  @r
 2921 1672 C918     		adds r1, r1, r3  @i
 2922 1674 3618     		adds r6, r6, r0
 2923 1676 7F18     		adds r7, r7, r1
 2924              	
 2925 1678 DD46     		mov sp, r11
 2926 167a 0FBC     		pop {r0-r3}
 2927 167c EB46     		mov r11, sp
 2928 167e D546     		mov sp, r10
 2929 1680 10BC     		pop {r4}
 2930 1682 EA46     		mov r10, sp
 2931 1684 2546     		mov r5, r4
 2932 1686 2404     		lsls r4, r4, # 16
 2933 1688 240C     		lsrs r4, r4, # 16
 2934 168a 2D0C     		lsrs r5, r5, # 16
 2935 168c 6043     		muls r0, r0, r4
 2936 168e 6143     		muls r1, r1, r4
 2937 1690 6A43     		muls r2, r2, r5
 2938 1692 6B43     		muls r3, r3, r5
 2939 1694 8011     		asrs r0, r0, # 6
 2940 1696 8911     		asrs r1, r1, # 6
 2941 1698 9211     		asrs r2, r2, # 6
 2942 169a 9B11     		asrs r3, r3, # 6
 2943 169c 8018     		adds r0, r0, r2         @r
 2944 169e C918     		adds r1, r1, r3         @i
 2945 16a0 3618     		adds r6, r6, r0
 2946 16a2 7F18     		adds r7, r7, r1
 2947              	
 2948              	@yjm2
ARM GAS  1.s 			page 53


 2949              		@0
 2950 16a4 DD46     		mov sp, r11
 2951 16a6 0FBC     		pop {r0-r3}
 2952 16a8 EB46     		mov r11, sp
 2953 16aa D546     		mov sp, r10
 2954 16ac 10BC     		pop {r4}
 2955 16ae EA46     		mov r10, sp
 2956 16b0 2546     		mov r5, r4
 2957 16b2 2404     		lsls r4, r4, # 16
 2958 16b4 240C     		lsrs r4, r4, # 16
 2959 16b6 2D0C     		lsrs r5, r5, # 16
 2960 16b8 6043     		muls r0, r0, r4		@R
 2961 16ba 6143     		muls r1, r1, r4		@I
 2962 16bc 6A43     		muls r2, r2, r5		@R
 2963 16be 6B43     		muls r3, r3, r5		@I
 2964 16c0 8011     		asrs r0, r0, # 6
 2965 16c2 8911     		asrs r1, r1, # 6
 2966 16c4 9211     		asrs r2, r2, # 6
 2967 16c6 9B11     		asrs r3, r3, # 6
 2968 16c8 8018     		adds r0, r0, r2	 @r
 2969 16ca C918     		adds r1, r1, r3	 @i
 2970 16cc 3618     		adds r6, r6, r0
 2971 16ce 7F18     		adds r7, r7, r1
 2972              	
 2973 16d0 DD46     		mov sp, r11
 2974 16d2 0FBC     		pop {r0-r3}
 2975 16d4 EB46     		mov r11, sp
 2976 16d6 D546     		mov sp, r10
 2977 16d8 10BC     		pop {r4}
 2978 16da EA46     		mov r10, sp
 2979 16dc 2546     		mov r5, r4
 2980 16de 2404     		lsls r4, r4, # 16
 2981 16e0 240C     		lsrs r4, r4, # 16
 2982 16e2 2D0C     		lsrs r5, r5, # 16
 2983 16e4 6043     		muls r0, r0, r4
 2984 16e6 6143     		muls r1, r1, r4
 2985 16e8 6A43     		muls r2, r2, r5
 2986 16ea 6B43     		muls r3, r3, r5
 2987 16ec 8011     		asrs r0, r0, # 6
 2988 16ee 8911     		asrs r1, r1, # 6
 2989 16f0 9211     		asrs r2, r2, # 6
 2990 16f2 9B11     		asrs r3, r3, # 6
 2991 16f4 8018     		adds r0, r0, r2         @r
 2992 16f6 C918     		adds r1, r1, r3         @i
 2993 16f8 3618     		adds r6, r6, r0
 2994 16fa 7F18     		adds r7, r7, r1
 2995              	
 2996 16fc DD46     		mov sp, r11
 2997 16fe 0FBC     		pop {r0-r3}
 2998 1700 EB46     		mov r11, sp
 2999 1702 D546     		mov sp, r10
 3000 1704 10BC     		pop {r4}
 3001 1706 EA46     		mov r10, sp
 3002 1708 2546     		mov r5, r4
 3003 170a 2404     		lsls r4, r4, # 16
 3004 170c 240C     		lsrs r4, r4, # 16
 3005 170e 2D0C     		lsrs r5, r5, # 16
ARM GAS  1.s 			page 54


 3006 1710 6043     		muls r0, r0, r4
 3007 1712 6143     		muls r1, r1, r4
 3008 1714 6A43     		muls r2, r2, r5
 3009 1716 6B43     		muls r3, r3, r5
 3010 1718 8011     		asrs r0, r0, # 6
 3011 171a 8911     		asrs r1, r1, # 6
 3012 171c 9211     		asrs r2, r2, # 6
 3013 171e 9B11     		asrs r3, r3, # 6
 3014 1720 8018     		adds r0, r0, r2  @r
 3015 1722 C918     		adds r1, r1, r3  @i
 3016 1724 3618     		adds r6, r6, r0
 3017 1726 7F18     		adds r7, r7, r1
 3018              	
 3019 1728 DD46     		mov sp, r11
 3020 172a 0FBC     		pop {r0-r3}
 3021 172c EB46     		mov r11, sp
 3022 172e D546     		mov sp, r10
 3023 1730 10BC     		pop {r4}
 3024 1732 EA46     		mov r10, sp
 3025 1734 2546     		mov r5, r4
 3026 1736 2404     		lsls r4, r4, # 16
 3027 1738 240C     		lsrs r4, r4, # 16
 3028 173a 2D0C     		lsrs r5, r5, # 16
 3029 173c 6043     		muls r0, r0, r4
 3030 173e 6143     		muls r1, r1, r4
 3031 1740 6A43     		muls r2, r2, r5
 3032 1742 6B43     		muls r3, r3, r5
 3033 1744 8011     		asrs r0, r0, # 6
 3034 1746 8911     		asrs r1, r1, # 6
 3035 1748 9211     		asrs r2, r2, # 6
 3036 174a 9B11     		asrs r3, r3, # 6
 3037 174c 8018     		adds r0, r0, r2         @r
 3038 174e C918     		adds r1, r1, r3         @i
 3039 1750 3618     		adds r6, r6, r0
 3040 1752 7F18     		adds r7, r7, r1
 3041              	
 3042              		@1
 3043 1754 DD46     		mov sp, r11
 3044 1756 0FBC     		pop {r0-r3}
 3045 1758 EB46     		mov r11, sp
 3046 175a D546     		mov sp, r10
 3047 175c 10BC     		pop {r4}
 3048 175e EA46     		mov r10, sp
 3049 1760 2546     		mov r5, r4
 3050 1762 2404     		lsls r4, r4, # 16
 3051 1764 240C     		lsrs r4, r4, # 16
 3052 1766 2D0C     		lsrs r5, r5, # 16
 3053 1768 6043     		muls r0, r0, r4		@R
 3054 176a 6143     		muls r1, r1, r4		@I
 3055 176c 6A43     		muls r2, r2, r5		@R
 3056 176e 6B43     		muls r3, r3, r5		@I
 3057 1770 8011     		asrs r0, r0, # 6
 3058 1772 8911     		asrs r1, r1, # 6
 3059 1774 9211     		asrs r2, r2, # 6
 3060 1776 9B11     		asrs r3, r3, # 6
 3061 1778 8018     		adds r0, r0, r2	 @r
 3062 177a C918     		adds r1, r1, r3	 @i
ARM GAS  1.s 			page 55


 3063 177c 3618     		adds r6, r6, r0
 3064 177e 7F18     		adds r7, r7, r1
 3065              	
 3066 1780 DD46     		mov sp, r11
 3067 1782 0FBC     		pop {r0-r3}
 3068 1784 EB46     		mov r11, sp
 3069 1786 D546     		mov sp, r10
 3070 1788 10BC     		pop {r4}
 3071 178a EA46     		mov r10, sp
 3072 178c 2546     		mov r5, r4
 3073 178e 2404     		lsls r4, r4, # 16
 3074 1790 240C     		lsrs r4, r4, # 16
 3075 1792 2D0C     		lsrs r5, r5, # 16
 3076 1794 6043     		muls r0, r0, r4
 3077 1796 6143     		muls r1, r1, r4
 3078 1798 6A43     		muls r2, r2, r5
 3079 179a 6B43     		muls r3, r3, r5
 3080 179c 8011     		asrs r0, r0, # 6
 3081 179e 8911     		asrs r1, r1, # 6
 3082 17a0 9211     		asrs r2, r2, # 6
 3083 17a2 9B11     		asrs r3, r3, # 6
 3084 17a4 8018     		adds r0, r0, r2         @r
 3085 17a6 C918     		adds r1, r1, r3         @i
 3086 17a8 3618     		adds r6, r6, r0
 3087 17aa 7F18     		adds r7, r7, r1
 3088              	
 3089 17ac DD46     		mov sp, r11
 3090 17ae 0FBC     		pop {r0-r3}
 3091 17b0 EB46     		mov r11, sp
 3092 17b2 D546     		mov sp, r10
 3093 17b4 10BC     		pop {r4}
 3094 17b6 EA46     		mov r10, sp
 3095 17b8 2546     		mov r5, r4
 3096 17ba 2404     		lsls r4, r4, # 16
 3097 17bc 240C     		lsrs r4, r4, # 16
 3098 17be 2D0C     		lsrs r5, r5, # 16
 3099 17c0 6043     		muls r0, r0, r4
 3100 17c2 6143     		muls r1, r1, r4
 3101 17c4 6A43     		muls r2, r2, r5
 3102 17c6 6B43     		muls r3, r3, r5
 3103 17c8 8011     		asrs r0, r0, # 6
 3104 17ca 8911     		asrs r1, r1, # 6
 3105 17cc 9211     		asrs r2, r2, # 6
 3106 17ce 9B11     		asrs r3, r3, # 6
 3107 17d0 8018     		adds r0, r0, r2  @r
 3108 17d2 C918     		adds r1, r1, r3  @i
 3109 17d4 3618     		adds r6, r6, r0
 3110 17d6 7F18     		adds r7, r7, r1
 3111              	
 3112 17d8 DD46     		mov sp, r11
 3113 17da 0FBC     		pop {r0-r3}
 3114 17dc EB46     		mov r11, sp
 3115 17de D546     		mov sp, r10
 3116 17e0 10BC     		pop {r4}
 3117 17e2 EA46     		mov r10, sp
 3118 17e4 2546     		mov r5, r4
 3119 17e6 2404     		lsls r4, r4, # 16
ARM GAS  1.s 			page 56


 3120 17e8 240C     		lsrs r4, r4, # 16
 3121 17ea 2D0C     		lsrs r5, r5, # 16
 3122 17ec 6043     		muls r0, r0, r4
 3123 17ee 6143     		muls r1, r1, r4
 3124 17f0 6A43     		muls r2, r2, r5
 3125 17f2 6B43     		muls r3, r3, r5
 3126 17f4 8011     		asrs r0, r0, # 6
 3127 17f6 8911     		asrs r1, r1, # 6
 3128 17f8 9211     		asrs r2, r2, # 6
 3129 17fa 9B11     		asrs r3, r3, # 6
 3130 17fc 8018     		adds r0, r0, r2         @r
 3131 17fe C918     		adds r1, r1, r3         @i
 3132 1800 3618     		adds r6, r6, r0
 3133 1802 7F18     		adds r7, r7, r1
 3134              	
 3135              		@2
 3136 1804 DD46     		mov sp, r11
 3137 1806 0FBC     		pop {r0-r3}
 3138 1808 EB46     		mov r11, sp
 3139 180a D546     		mov sp, r10
 3140 180c 10BC     		pop {r4}
 3141 180e EA46     		mov r10, sp
 3142 1810 2546     		mov r5, r4
 3143 1812 2404     		lsls r4, r4, # 16
 3144 1814 240C     		lsrs r4, r4, # 16
 3145 1816 2D0C     		lsrs r5, r5, # 16
 3146 1818 6043     		muls r0, r0, r4		@R
 3147 181a 6143     		muls r1, r1, r4		@I
 3148 181c 6A43     		muls r2, r2, r5		@R
 3149 181e 6B43     		muls r3, r3, r5		@I
 3150 1820 8011     		asrs r0, r0, # 6
 3151 1822 8911     		asrs r1, r1, # 6
 3152 1824 9211     		asrs r2, r2, # 6
 3153 1826 9B11     		asrs r3, r3, # 6
 3154 1828 8018     		adds r0, r0, r2	 @r
 3155 182a C918     		adds r1, r1, r3	 @i
 3156 182c 3618     		adds r6, r6, r0
 3157 182e 7F18     		adds r7, r7, r1
 3158              	
 3159 1830 DD46     		mov sp, r11
 3160 1832 0FBC     		pop {r0-r3}
 3161 1834 EB46     		mov r11, sp
 3162 1836 D546     		mov sp, r10
 3163 1838 10BC     		pop {r4}
 3164 183a EA46     		mov r10, sp
 3165 183c 2546     		mov r5, r4
 3166 183e 2404     		lsls r4, r4, # 16
 3167 1840 240C     		lsrs r4, r4, # 16
 3168 1842 2D0C     		lsrs r5, r5, # 16
 3169 1844 6043     		muls r0, r0, r4
 3170 1846 6143     		muls r1, r1, r4
 3171 1848 6A43     		muls r2, r2, r5
 3172 184a 6B43     		muls r3, r3, r5
 3173 184c 8011     		asrs r0, r0, # 6
 3174 184e 8911     		asrs r1, r1, # 6
 3175 1850 9211     		asrs r2, r2, # 6
 3176 1852 9B11     		asrs r3, r3, # 6
ARM GAS  1.s 			page 57


 3177 1854 8018     		adds r0, r0, r2         @r
 3178 1856 C918     		adds r1, r1, r3         @i
 3179 1858 3618     		adds r6, r6, r0
 3180 185a 7F18     		adds r7, r7, r1
 3181              	
 3182 185c DD46     		mov sp, r11
 3183 185e 0FBC     		pop {r0-r3}
 3184 1860 EB46     		mov r11, sp
 3185 1862 D546     		mov sp, r10
 3186 1864 10BC     		pop {r4}
 3187 1866 EA46     		mov r10, sp
 3188 1868 2546     		mov r5, r4
 3189 186a 2404     		lsls r4, r4, # 16
 3190 186c 240C     		lsrs r4, r4, # 16
 3191 186e 2D0C     		lsrs r5, r5, # 16
 3192 1870 6043     		muls r0, r0, r4
 3193 1872 6143     		muls r1, r1, r4
 3194 1874 6A43     		muls r2, r2, r5
 3195 1876 6B43     		muls r3, r3, r5
 3196 1878 8011     		asrs r0, r0, # 6
 3197 187a 8911     		asrs r1, r1, # 6
 3198 187c 9211     		asrs r2, r2, # 6
 3199 187e 9B11     		asrs r3, r3, # 6
 3200 1880 8018     		adds r0, r0, r2  @r
 3201 1882 C918     		adds r1, r1, r3  @i
 3202 1884 3618     		adds r6, r6, r0
 3203 1886 7F18     		adds r7, r7, r1
 3204              	
 3205 1888 DD46     		mov sp, r11
 3206 188a 0FBC     		pop {r0-r3}
 3207 188c EB46     		mov r11, sp
 3208 188e D546     		mov sp, r10
 3209 1890 10BC     		pop {r4}
 3210 1892 EA46     		mov r10, sp
 3211 1894 2546     		mov r5, r4
 3212 1896 2404     		lsls r4, r4, # 16
 3213 1898 240C     		lsrs r4, r4, # 16
 3214 189a 2D0C     		lsrs r5, r5, # 16
 3215 189c 6043     		muls r0, r0, r4
 3216 189e 6143     		muls r1, r1, r4
 3217 18a0 6A43     		muls r2, r2, r5
 3218 18a2 6B43     		muls r3, r3, r5
 3219 18a4 8011     		asrs r0, r0, # 6
 3220 18a6 8911     		asrs r1, r1, # 6
 3221 18a8 9211     		asrs r2, r2, # 6
 3222 18aa 9B11     		asrs r3, r3, # 6
 3223 18ac 8018     		adds r0, r0, r2         @r
 3224 18ae C918     		adds r1, r1, r3         @i
 3225 18b0 3618     		adds r6, r6, r0
 3226 18b2 7F18     		adds r7, r7, r1
 3227              	
 3228              		@3
 3229 18b4 DD46     		mov sp, r11
 3230 18b6 0FBC     		pop {r0-r3}
 3231 18b8 EB46     		mov r11, sp
 3232 18ba D546     		mov sp, r10
 3233 18bc 10BC     		pop {r4}
ARM GAS  1.s 			page 58


 3234 18be EA46     		mov r10, sp
 3235 18c0 2546     		mov r5, r4
 3236 18c2 2404     		lsls r4, r4, # 16
 3237 18c4 240C     		lsrs r4, r4, # 16
 3238 18c6 2D0C     		lsrs r5, r5, # 16
 3239 18c8 6043     		muls r0, r0, r4		@R
 3240 18ca 6143     		muls r1, r1, r4		@I
 3241 18cc 6A43     		muls r2, r2, r5		@R
 3242 18ce 6B43     		muls r3, r3, r5		@I
 3243 18d0 8011     		asrs r0, r0, # 6
 3244 18d2 8911     		asrs r1, r1, # 6
 3245 18d4 9211     		asrs r2, r2, # 6
 3246 18d6 9B11     		asrs r3, r3, # 6
 3247 18d8 8018     		adds r0, r0, r2	 @r
 3248 18da C918     		adds r1, r1, r3	 @i
 3249 18dc 3618     		adds r6, r6, r0
 3250 18de 7F18     		adds r7, r7, r1
 3251              	
 3252 18e0 DD46     		mov sp, r11
 3253 18e2 0FBC     		pop {r0-r3}
 3254 18e4 EB46     		mov r11, sp
 3255 18e6 D546     		mov sp, r10
 3256 18e8 10BC     		pop {r4}
 3257 18ea EA46     		mov r10, sp
 3258 18ec 2546     		mov r5, r4
 3259 18ee 2404     		lsls r4, r4, # 16
 3260 18f0 240C     		lsrs r4, r4, # 16
 3261 18f2 2D0C     		lsrs r5, r5, # 16
 3262 18f4 6043     		muls r0, r0, r4
 3263 18f6 6143     		muls r1, r1, r4
 3264 18f8 6A43     		muls r2, r2, r5
 3265 18fa 6B43     		muls r3, r3, r5
 3266 18fc 8011     		asrs r0, r0, # 6
 3267 18fe 8911     		asrs r1, r1, # 6
 3268 1900 9211     		asrs r2, r2, # 6
 3269 1902 9B11     		asrs r3, r3, # 6
 3270 1904 8018     		adds r0, r0, r2         @r
 3271 1906 C918     		adds r1, r1, r3         @i
 3272 1908 3618     		adds r6, r6, r0
 3273 190a 7F18     		adds r7, r7, r1
 3274              	
 3275 190c DD46     		mov sp, r11
 3276 190e 0FBC     		pop {r0-r3}
 3277 1910 EB46     		mov r11, sp
 3278 1912 D546     		mov sp, r10
 3279 1914 10BC     		pop {r4}
 3280 1916 EA46     		mov r10, sp
 3281 1918 2546     		mov r5, r4
 3282 191a 2404     		lsls r4, r4, # 16
 3283 191c 240C     		lsrs r4, r4, # 16
 3284 191e 2D0C     		lsrs r5, r5, # 16
 3285 1920 6043     		muls r0, r0, r4
 3286 1922 6143     		muls r1, r1, r4
 3287 1924 6A43     		muls r2, r2, r5
 3288 1926 6B43     		muls r3, r3, r5
 3289 1928 8011     		asrs r0, r0, # 6
 3290 192a 8911     		asrs r1, r1, # 6
ARM GAS  1.s 			page 59


 3291 192c 9211     		asrs r2, r2, # 6
 3292 192e 9B11     		asrs r3, r3, # 6
 3293 1930 8018     		adds r0, r0, r2  @r
 3294 1932 C918     		adds r1, r1, r3  @i
 3295 1934 3618     		adds r6, r6, r0
 3296 1936 7F18     		adds r7, r7, r1
 3297              	
 3298 1938 DD46     		mov sp, r11
 3299 193a 0FBC     		pop {r0-r3}
 3300 193c EB46     		mov r11, sp
 3301 193e D546     		mov sp, r10
 3302 1940 10BC     		pop {r4}
 3303 1942 EA46     		mov r10, sp
 3304 1944 2546     		mov r5, r4
 3305 1946 2404     		lsls r4, r4, # 16
 3306 1948 240C     		lsrs r4, r4, # 16
 3307 194a 2D0C     		lsrs r5, r5, # 16
 3308 194c 6043     		muls r0, r0, r4
 3309 194e 6143     		muls r1, r1, r4
 3310 1950 6A43     		muls r2, r2, r5
 3311 1952 6B43     		muls r3, r3, r5
 3312 1954 8011     		asrs r0, r0, # 6
 3313 1956 8911     		asrs r1, r1, # 6
 3314 1958 9211     		asrs r2, r2, # 6
 3315 195a 9B11     		asrs r3, r3, # 6
 3316 195c 8018     		adds r0, r0, r2         @r
 3317 195e C918     		adds r1, r1, r3         @i
 3318 1960 3618     		adds r6, r6, r0
 3319 1962 7F18     		adds r7, r7, r1
 3320              	
 3321              		@4
 3322 1964 DD46     		mov sp, r11
 3323 1966 0FBC     		pop {r0-r3}
 3324 1968 EB46     		mov r11, sp
 3325 196a D546     		mov sp, r10
 3326 196c 10BC     		pop {r4}
 3327 196e EA46     		mov r10, sp
 3328 1970 2546     		mov r5, r4
 3329 1972 2404     		lsls r4, r4, # 16
 3330 1974 240C     		lsrs r4, r4, # 16
 3331 1976 2D0C     		lsrs r5, r5, # 16
 3332 1978 6043     		muls r0, r0, r4		@R
 3333 197a 6143     		muls r1, r1, r4		@I
 3334 197c 6A43     		muls r2, r2, r5		@R
 3335 197e 6B43     		muls r3, r3, r5		@I
 3336 1980 8011     		asrs r0, r0, # 6
 3337 1982 8911     		asrs r1, r1, # 6
 3338 1984 9211     		asrs r2, r2, # 6
 3339 1986 9B11     		asrs r3, r3, # 6
 3340 1988 8018     		adds r0, r0, r2	 @r
 3341 198a C918     		adds r1, r1, r3	 @i
 3342 198c 3618     		adds r6, r6, r0
 3343 198e 7F18     		adds r7, r7, r1
 3344              	
 3345 1990 DD46     		mov sp, r11
 3346 1992 0FBC     		pop {r0-r3}
 3347 1994 EB46     		mov r11, sp
ARM GAS  1.s 			page 60


 3348 1996 D546     		mov sp, r10
 3349 1998 10BC     		pop {r4}
 3350 199a EA46     		mov r10, sp
 3351 199c 2546     		mov r5, r4
 3352 199e 2404     		lsls r4, r4, # 16
 3353 19a0 240C     		lsrs r4, r4, # 16
 3354 19a2 2D0C     		lsrs r5, r5, # 16
 3355 19a4 6043     		muls r0, r0, r4
 3356 19a6 6143     		muls r1, r1, r4
 3357 19a8 6A43     		muls r2, r2, r5
 3358 19aa 6B43     		muls r3, r3, r5
 3359 19ac 8011     		asrs r0, r0, # 6
 3360 19ae 8911     		asrs r1, r1, # 6
 3361 19b0 9211     		asrs r2, r2, # 6
 3362 19b2 9B11     		asrs r3, r3, # 6
 3363 19b4 8018     		adds r0, r0, r2         @r
 3364 19b6 C918     		adds r1, r1, r3         @i
 3365 19b8 3618     		adds r6, r6, r0
 3366 19ba 7F18     		adds r7, r7, r1
 3367              	
 3368 19bc DD46     		mov sp, r11
 3369 19be 0FBC     		pop {r0-r3}
 3370 19c0 EB46     		mov r11, sp
 3371 19c2 D546     		mov sp, r10
 3372 19c4 10BC     		pop {r4}
 3373 19c6 EA46     		mov r10, sp
 3374 19c8 2546     		mov r5, r4
 3375 19ca 2404     		lsls r4, r4, # 16
 3376 19cc 240C     		lsrs r4, r4, # 16
 3377 19ce 2D0C     		lsrs r5, r5, # 16
 3378 19d0 6043     		muls r0, r0, r4
 3379 19d2 6143     		muls r1, r1, r4
 3380 19d4 6A43     		muls r2, r2, r5
 3381 19d6 6B43     		muls r3, r3, r5
 3382 19d8 8011     		asrs r0, r0, # 6
 3383 19da 8911     		asrs r1, r1, # 6
 3384 19dc 9211     		asrs r2, r2, # 6
 3385 19de 9B11     		asrs r3, r3, # 6
 3386 19e0 8018     		adds r0, r0, r2  @r
 3387 19e2 C918     		adds r1, r1, r3  @i
 3388 19e4 3618     		adds r6, r6, r0
 3389 19e6 7F18     		adds r7, r7, r1
 3390              	
 3391 19e8 DD46     		mov sp, r11
 3392 19ea 0FBC     		pop {r0-r3}
 3393 19ec EB46     		mov r11, sp
 3394 19ee D546     		mov sp, r10
 3395 19f0 10BC     		pop {r4}
 3396 19f2 EA46     		mov r10, sp
 3397 19f4 2546     		mov r5, r4
 3398 19f6 2404     		lsls r4, r4, # 16
 3399 19f8 240C     		lsrs r4, r4, # 16
 3400 19fa 2D0C     		lsrs r5, r5, # 16
 3401 19fc 6043     		muls r0, r0, r4
 3402 19fe 6143     		muls r1, r1, r4
 3403 1a00 6A43     		muls r2, r2, r5
 3404 1a02 6B43     		muls r3, r3, r5
ARM GAS  1.s 			page 61


 3405 1a04 8011     		asrs r0, r0, # 6
 3406 1a06 8911     		asrs r1, r1, # 6
 3407 1a08 9211     		asrs r2, r2, # 6
 3408 1a0a 9B11     		asrs r3, r3, # 6
 3409 1a0c 8018     		adds r0, r0, r2         @r
 3410 1a0e C918     		adds r1, r1, r3         @i
 3411 1a10 3618     		adds r6, r6, r0
 3412 1a12 7F18     		adds r7, r7, r1
 3413              	
 3414              		@5
 3415 1a14 DD46     		mov sp, r11
 3416 1a16 0FBC     		pop {r0-r3}
 3417 1a18 EB46     		mov r11, sp
 3418 1a1a D546     		mov sp, r10
 3419 1a1c 10BC     		pop {r4}
 3420 1a1e EA46     		mov r10, sp
 3421 1a20 2546     		mov r5, r4
 3422 1a22 2404     		lsls r4, r4, # 16
 3423 1a24 240C     		lsrs r4, r4, # 16
 3424 1a26 2D0C     		lsrs r5, r5, # 16
 3425 1a28 6043     		muls r0, r0, r4		@R
 3426 1a2a 6143     		muls r1, r1, r4		@I
 3427 1a2c 6A43     		muls r2, r2, r5		@R
 3428 1a2e 6B43     		muls r3, r3, r5		@I
 3429 1a30 8011     		asrs r0, r0, # 6
 3430 1a32 8911     		asrs r1, r1, # 6
 3431 1a34 9211     		asrs r2, r2, # 6
 3432 1a36 9B11     		asrs r3, r3, # 6
 3433 1a38 8018     		adds r0, r0, r2	 @r
 3434 1a3a C918     		adds r1, r1, r3	 @i
 3435 1a3c 3618     		adds r6, r6, r0
 3436 1a3e 7F18     		adds r7, r7, r1
 3437              	
 3438 1a40 DD46     		mov sp, r11
 3439 1a42 0FBC     		pop {r0-r3}
 3440 1a44 EB46     		mov r11, sp
 3441 1a46 D546     		mov sp, r10
 3442 1a48 10BC     		pop {r4}
 3443 1a4a EA46     		mov r10, sp
 3444 1a4c 2546     		mov r5, r4
 3445 1a4e 2404     		lsls r4, r4, # 16
 3446 1a50 240C     		lsrs r4, r4, # 16
 3447 1a52 2D0C     		lsrs r5, r5, # 16
 3448 1a54 6043     		muls r0, r0, r4
 3449 1a56 6143     		muls r1, r1, r4
 3450 1a58 6A43     		muls r2, r2, r5
 3451 1a5a 6B43     		muls r3, r3, r5
 3452 1a5c 8011     		asrs r0, r0, # 6
 3453 1a5e 8911     		asrs r1, r1, # 6
 3454 1a60 9211     		asrs r2, r2, # 6
 3455 1a62 9B11     		asrs r3, r3, # 6
 3456 1a64 8018     		adds r0, r0, r2         @r
 3457 1a66 C918     		adds r1, r1, r3         @i
 3458 1a68 3618     		adds r6, r6, r0
 3459 1a6a 7F18     		adds r7, r7, r1
 3460              	
 3461 1a6c DD46     		mov sp, r11
ARM GAS  1.s 			page 62


 3462 1a6e 0FBC     		pop {r0-r3}
 3463 1a70 EB46     		mov r11, sp
 3464 1a72 D546     		mov sp, r10
 3465 1a74 10BC     		pop {r4}
 3466 1a76 EA46     		mov r10, sp
 3467 1a78 2546     		mov r5, r4
 3468 1a7a 2404     		lsls r4, r4, # 16
 3469 1a7c 240C     		lsrs r4, r4, # 16
 3470 1a7e 2D0C     		lsrs r5, r5, # 16
 3471 1a80 6043     		muls r0, r0, r4
 3472 1a82 6143     		muls r1, r1, r4
 3473 1a84 6A43     		muls r2, r2, r5
 3474 1a86 6B43     		muls r3, r3, r5
 3475 1a88 8011     		asrs r0, r0, # 6
 3476 1a8a 8911     		asrs r1, r1, # 6
 3477 1a8c 9211     		asrs r2, r2, # 6
 3478 1a8e 9B11     		asrs r3, r3, # 6
 3479 1a90 8018     		adds r0, r0, r2  @r
 3480 1a92 C918     		adds r1, r1, r3  @i
 3481 1a94 3618     		adds r6, r6, r0
 3482 1a96 7F18     		adds r7, r7, r1
 3483              	
 3484 1a98 DD46     		mov sp, r11
 3485 1a9a 0FBC     		pop {r0-r3}
 3486 1a9c EB46     		mov r11, sp
 3487 1a9e D546     		mov sp, r10
 3488 1aa0 10BC     		pop {r4}
 3489 1aa2 EA46     		mov r10, sp
 3490 1aa4 2546     		mov r5, r4
 3491 1aa6 2404     		lsls r4, r4, # 16
 3492 1aa8 240C     		lsrs r4, r4, # 16
 3493 1aaa 2D0C     		lsrs r5, r5, # 16
 3494 1aac 6043     		muls r0, r0, r4
 3495 1aae 6143     		muls r1, r1, r4
 3496 1ab0 6A43     		muls r2, r2, r5
 3497 1ab2 6B43     		muls r3, r3, r5
 3498 1ab4 8011     		asrs r0, r0, # 6
 3499 1ab6 8911     		asrs r1, r1, # 6
 3500 1ab8 9211     		asrs r2, r2, # 6
 3501 1aba 9B11     		asrs r3, r3, # 6
 3502 1abc 8018     		adds r0, r0, r2         @r
 3503 1abe C918     		adds r1, r1, r3         @i
 3504 1ac0 3618     		adds r6, r6, r0
 3505 1ac2 7F18     		adds r7, r7, r1
 3506              	
 3507              		@6
 3508 1ac4 DD46     		mov sp, r11
 3509 1ac6 0FBC     		pop {r0-r3}
 3510 1ac8 EB46     		mov r11, sp
 3511 1aca D546     		mov sp, r10
 3512 1acc 10BC     		pop {r4}
 3513 1ace EA46     		mov r10, sp
 3514 1ad0 2546     		mov r5, r4
 3515 1ad2 2404     		lsls r4, r4, # 16
 3516 1ad4 240C     		lsrs r4, r4, # 16
 3517 1ad6 2D0C     		lsrs r5, r5, # 16
 3518 1ad8 6043     		muls r0, r0, r4		@R
ARM GAS  1.s 			page 63


 3519 1ada 6143     		muls r1, r1, r4		@I
 3520 1adc 6A43     		muls r2, r2, r5		@R
 3521 1ade 6B43     		muls r3, r3, r5		@I
 3522 1ae0 8011     		asrs r0, r0, # 6
 3523 1ae2 8911     		asrs r1, r1, # 6
 3524 1ae4 9211     		asrs r2, r2, # 6
 3525 1ae6 9B11     		asrs r3, r3, # 6
 3526 1ae8 8018     		adds r0, r0, r2	 @r
 3527 1aea C918     		adds r1, r1, r3	 @i
 3528 1aec 3618     		adds r6, r6, r0
 3529 1aee 7F18     		adds r7, r7, r1
 3530              	
 3531 1af0 DD46     		mov sp, r11
 3532 1af2 0FBC     		pop {r0-r3}
 3533 1af4 EB46     		mov r11, sp
 3534 1af6 D546     		mov sp, r10
 3535 1af8 10BC     		pop {r4}
 3536 1afa EA46     		mov r10, sp
 3537 1afc 2546     		mov r5, r4
 3538 1afe 2404     		lsls r4, r4, # 16
 3539 1b00 240C     		lsrs r4, r4, # 16
 3540 1b02 2D0C     		lsrs r5, r5, # 16
 3541 1b04 6043     		muls r0, r0, r4
 3542 1b06 6143     		muls r1, r1, r4
 3543 1b08 6A43     		muls r2, r2, r5
 3544 1b0a 6B43     		muls r3, r3, r5
 3545 1b0c 8011     		asrs r0, r0, # 6
 3546 1b0e 8911     		asrs r1, r1, # 6
 3547 1b10 9211     		asrs r2, r2, # 6
 3548 1b12 9B11     		asrs r3, r3, # 6
 3549 1b14 8018     		adds r0, r0, r2         @r
 3550 1b16 C918     		adds r1, r1, r3         @i
 3551 1b18 3618     		adds r6, r6, r0
 3552 1b1a 7F18     		adds r7, r7, r1
 3553              	
 3554 1b1c DD46     		mov sp, r11
 3555 1b1e 0FBC     		pop {r0-r3}
 3556 1b20 EB46     		mov r11, sp
 3557 1b22 D546     		mov sp, r10
 3558 1b24 10BC     		pop {r4}
 3559 1b26 EA46     		mov r10, sp
 3560 1b28 2546     		mov r5, r4
 3561 1b2a 2404     		lsls r4, r4, # 16
 3562 1b2c 240C     		lsrs r4, r4, # 16
 3563 1b2e 2D0C     		lsrs r5, r5, # 16
 3564 1b30 6043     		muls r0, r0, r4
 3565 1b32 6143     		muls r1, r1, r4
 3566 1b34 6A43     		muls r2, r2, r5
 3567 1b36 6B43     		muls r3, r3, r5
 3568 1b38 8011     		asrs r0, r0, # 6
 3569 1b3a 8911     		asrs r1, r1, # 6
 3570 1b3c 9211     		asrs r2, r2, # 6
 3571 1b3e 9B11     		asrs r3, r3, # 6
 3572 1b40 8018     		adds r0, r0, r2  @r
 3573 1b42 C918     		adds r1, r1, r3  @i
 3574 1b44 3618     		adds r6, r6, r0
 3575 1b46 7F18     		adds r7, r7, r1
ARM GAS  1.s 			page 64


 3576              	
 3577 1b48 DD46     		mov sp, r11
 3578 1b4a 0FBC     		pop {r0-r3}
 3579 1b4c EB46     		mov r11, sp
 3580 1b4e D546     		mov sp, r10
 3581 1b50 10BC     		pop {r4}
 3582 1b52 EA46     		mov r10, sp
 3583 1b54 2546     		mov r5, r4
 3584 1b56 2404     		lsls r4, r4, # 16
 3585 1b58 240C     		lsrs r4, r4, # 16
 3586 1b5a 2D0C     		lsrs r5, r5, # 16
 3587 1b5c 6043     		muls r0, r0, r4
 3588 1b5e 6143     		muls r1, r1, r4
 3589 1b60 6A43     		muls r2, r2, r5
 3590 1b62 6B43     		muls r3, r3, r5
 3591 1b64 8011     		asrs r0, r0, # 6
 3592 1b66 8911     		asrs r1, r1, # 6
 3593 1b68 9211     		asrs r2, r2, # 6
 3594 1b6a 9B11     		asrs r3, r3, # 6
 3595 1b6c 8018     		adds r0, r0, r2         @r
 3596 1b6e C918     		adds r1, r1, r3         @i
 3597 1b70 3618     		adds r6, r6, r0
 3598 1b72 7F18     		adds r7, r7, r1
 3599              	
 3600              		@7
 3601 1b74 DD46     		mov sp, r11
 3602 1b76 0FBC     		pop {r0-r3}
 3603 1b78 EB46     		mov r11, sp
 3604 1b7a D546     		mov sp, r10
 3605 1b7c 10BC     		pop {r4}
 3606 1b7e EA46     		mov r10, sp
 3607 1b80 2546     		mov r5, r4
 3608 1b82 2404     		lsls r4, r4, # 16
 3609 1b84 240C     		lsrs r4, r4, # 16
 3610 1b86 2D0C     		lsrs r5, r5, # 16
 3611 1b88 6043     		muls r0, r0, r4		@R
 3612 1b8a 6143     		muls r1, r1, r4		@I
 3613 1b8c 6A43     		muls r2, r2, r5		@R
 3614 1b8e 6B43     		muls r3, r3, r5		@I
 3615 1b90 8011     		asrs r0, r0, # 6
 3616 1b92 8911     		asrs r1, r1, # 6
 3617 1b94 9211     		asrs r2, r2, # 6
 3618 1b96 9B11     		asrs r3, r3, # 6
 3619 1b98 8018     		adds r0, r0, r2	 @r
 3620 1b9a C918     		adds r1, r1, r3	 @i
 3621 1b9c 3618     		adds r6, r6, r0
 3622 1b9e 7F18     		adds r7, r7, r1
 3623              	
 3624 1ba0 DD46     		mov sp, r11
 3625 1ba2 0FBC     		pop {r0-r3}
 3626 1ba4 EB46     		mov r11, sp
 3627 1ba6 D546     		mov sp, r10
 3628 1ba8 10BC     		pop {r4}
 3629 1baa EA46     		mov r10, sp
 3630 1bac 2546     		mov r5, r4
 3631 1bae 2404     		lsls r4, r4, # 16
 3632 1bb0 240C     		lsrs r4, r4, # 16
ARM GAS  1.s 			page 65


 3633 1bb2 2D0C     		lsrs r5, r5, # 16
 3634 1bb4 6043     		muls r0, r0, r4
 3635 1bb6 6143     		muls r1, r1, r4
 3636 1bb8 6A43     		muls r2, r2, r5
 3637 1bba 6B43     		muls r3, r3, r5
 3638 1bbc 8011     		asrs r0, r0, # 6
 3639 1bbe 8911     		asrs r1, r1, # 6
 3640 1bc0 9211     		asrs r2, r2, # 6
 3641 1bc2 9B11     		asrs r3, r3, # 6
 3642 1bc4 8018     		adds r0, r0, r2         @r
 3643 1bc6 C918     		adds r1, r1, r3         @i
 3644 1bc8 3618     		adds r6, r6, r0
 3645 1bca 7F18     		adds r7, r7, r1
 3646              	
 3647 1bcc DD46     		mov sp, r11
 3648 1bce 0FBC     		pop {r0-r3}
 3649 1bd0 EB46     		mov r11, sp
 3650 1bd2 D546     		mov sp, r10
 3651 1bd4 10BC     		pop {r4}
 3652 1bd6 EA46     		mov r10, sp
 3653 1bd8 2546     		mov r5, r4
 3654 1bda 2404     		lsls r4, r4, # 16
 3655 1bdc 240C     		lsrs r4, r4, # 16
 3656 1bde 2D0C     		lsrs r5, r5, # 16
 3657 1be0 6043     		muls r0, r0, r4
 3658 1be2 6143     		muls r1, r1, r4
 3659 1be4 6A43     		muls r2, r2, r5
 3660 1be6 6B43     		muls r3, r3, r5
 3661 1be8 8011     		asrs r0, r0, # 6
 3662 1bea 8911     		asrs r1, r1, # 6
 3663 1bec 9211     		asrs r2, r2, # 6
 3664 1bee 9B11     		asrs r3, r3, # 6
 3665 1bf0 8018     		adds r0, r0, r2  @r
 3666 1bf2 C918     		adds r1, r1, r3  @i
 3667 1bf4 3618     		adds r6, r6, r0
 3668 1bf6 7F18     		adds r7, r7, r1
 3669              	
 3670 1bf8 DD46     		mov sp, r11
 3671 1bfa 0FBC     		pop {r0-r3}
 3672 1bfc EB46     		mov r11, sp
 3673 1bfe D546     		mov sp, r10
 3674 1c00 10BC     		pop {r4}
 3675 1c02 EA46     		mov r10, sp
 3676 1c04 2546     		mov r5, r4
 3677 1c06 2404     		lsls r4, r4, # 16
 3678 1c08 240C     		lsrs r4, r4, # 16
 3679 1c0a 2D0C     		lsrs r5, r5, # 16
 3680 1c0c 6043     		muls r0, r0, r4
 3681 1c0e 6143     		muls r1, r1, r4
 3682 1c10 6A43     		muls r2, r2, r5
 3683 1c12 6B43     		muls r3, r3, r5
 3684 1c14 8011     		asrs r0, r0, # 6
 3685 1c16 8911     		asrs r1, r1, # 6
 3686 1c18 9211     		asrs r2, r2, # 6
 3687 1c1a 9B11     		asrs r3, r3, # 6
 3688 1c1c 8018     		adds r0, r0, r2         @r
 3689 1c1e C918     		adds r1, r1, r3         @i
ARM GAS  1.s 			page 66


 3690 1c20 3618     		adds r6, r6, r0
 3691 1c22 7F18     		adds r7, r7, r1
 3692              	
 3693              		@8
 3694 1c24 DD46     		mov sp, r11
 3695 1c26 0FBC     		pop {r0-r3}
 3696 1c28 EB46     		mov r11, sp
 3697 1c2a D546     		mov sp, r10
 3698 1c2c 10BC     		pop {r4}
 3699 1c2e EA46     		mov r10, sp
 3700 1c30 2546     		mov r5, r4
 3701 1c32 2404     		lsls r4, r4, # 16
 3702 1c34 240C     		lsrs r4, r4, # 16
 3703 1c36 2D0C     		lsrs r5, r5, # 16
 3704 1c38 6043     		muls r0, r0, r4		@R
 3705 1c3a 6143     		muls r1, r1, r4		@I
 3706 1c3c 6A43     		muls r2, r2, r5		@R
 3707 1c3e 6B43     		muls r3, r3, r5		@I
 3708 1c40 8011     		asrs r0, r0, # 6
 3709 1c42 8911     		asrs r1, r1, # 6
 3710 1c44 9211     		asrs r2, r2, # 6
 3711 1c46 9B11     		asrs r3, r3, # 6
 3712 1c48 8018     		adds r0, r0, r2	 @r
 3713 1c4a C918     		adds r1, r1, r3	 @i
 3714 1c4c 3618     		adds r6, r6, r0
 3715 1c4e 7F18     		adds r7, r7, r1
 3716              	
 3717 1c50 DD46     		mov sp, r11
 3718 1c52 0FBC     		pop {r0-r3}
 3719 1c54 EB46     		mov r11, sp
 3720 1c56 D546     		mov sp, r10
 3721 1c58 10BC     		pop {r4}
 3722 1c5a EA46     		mov r10, sp
 3723 1c5c 2546     		mov r5, r4
 3724 1c5e 2404     		lsls r4, r4, # 16
 3725 1c60 240C     		lsrs r4, r4, # 16
 3726 1c62 2D0C     		lsrs r5, r5, # 16
 3727 1c64 6043     		muls r0, r0, r4
 3728 1c66 6143     		muls r1, r1, r4
 3729 1c68 6A43     		muls r2, r2, r5
 3730 1c6a 6B43     		muls r3, r3, r5
 3731 1c6c 8011     		asrs r0, r0, # 6
 3732 1c6e 8911     		asrs r1, r1, # 6
 3733 1c70 9211     		asrs r2, r2, # 6
 3734 1c72 9B11     		asrs r3, r3, # 6
 3735 1c74 8018     		adds r0, r0, r2         @r
 3736 1c76 C918     		adds r1, r1, r3         @i
 3737 1c78 3618     		adds r6, r6, r0
 3738 1c7a 7F18     		adds r7, r7, r1
 3739              	
 3740 1c7c DD46     		mov sp, r11
 3741 1c7e 0FBC     		pop {r0-r3}
 3742 1c80 EB46     		mov r11, sp
 3743 1c82 D546     		mov sp, r10
 3744 1c84 10BC     		pop {r4}
 3745 1c86 EA46     		mov r10, sp
 3746 1c88 2546     		mov r5, r4
ARM GAS  1.s 			page 67


 3747 1c8a 2404     		lsls r4, r4, # 16
 3748 1c8c 240C     		lsrs r4, r4, # 16
 3749 1c8e 2D0C     		lsrs r5, r5, # 16
 3750 1c90 6043     		muls r0, r0, r4
 3751 1c92 6143     		muls r1, r1, r4
 3752 1c94 6A43     		muls r2, r2, r5
 3753 1c96 6B43     		muls r3, r3, r5
 3754 1c98 8011     		asrs r0, r0, # 6
 3755 1c9a 8911     		asrs r1, r1, # 6
 3756 1c9c 9211     		asrs r2, r2, # 6
 3757 1c9e 9B11     		asrs r3, r3, # 6
 3758 1ca0 8018     		adds r0, r0, r2  @r
 3759 1ca2 C918     		adds r1, r1, r3  @i
 3760 1ca4 3618     		adds r6, r6, r0
 3761 1ca6 7F18     		adds r7, r7, r1
 3762              	
 3763 1ca8 DD46     		mov sp, r11
 3764 1caa 0FBC     		pop {r0-r3}
 3765 1cac EB46     		mov r11, sp
 3766 1cae D546     		mov sp, r10
 3767 1cb0 10BC     		pop {r4}
 3768 1cb2 EA46     		mov r10, sp
 3769 1cb4 2546     		mov r5, r4
 3770 1cb6 2404     		lsls r4, r4, # 16
 3771 1cb8 240C     		lsrs r4, r4, # 16
 3772 1cba 2D0C     		lsrs r5, r5, # 16
 3773 1cbc 6043     		muls r0, r0, r4
 3774 1cbe 6143     		muls r1, r1, r4
 3775 1cc0 6A43     		muls r2, r2, r5
 3776 1cc2 6B43     		muls r3, r3, r5
 3777 1cc4 8011     		asrs r0, r0, # 6
 3778 1cc6 8911     		asrs r1, r1, # 6
 3779 1cc8 9211     		asrs r2, r2, # 6
 3780 1cca 9B11     		asrs r3, r3, # 6
 3781 1ccc 8018     		adds r0, r0, r2         @r
 3782 1cce C918     		adds r1, r1, r3         @i
 3783 1cd0 3618     		adds r6, r6, r0
 3784 1cd2 7F18     		adds r7, r7, r1
 3785              	
 3786              		@9
 3787 1cd4 DD46     		mov sp, r11
 3788 1cd6 0FBC     		pop {r0-r3}
 3789 1cd8 EB46     		mov r11, sp
 3790 1cda D546     		mov sp, r10
 3791 1cdc 10BC     		pop {r4}
 3792 1cde EA46     		mov r10, sp
 3793 1ce0 2546     		mov r5, r4
 3794 1ce2 2404     		lsls r4, r4, # 16
 3795 1ce4 240C     		lsrs r4, r4, # 16
 3796 1ce6 2D0C     		lsrs r5, r5, # 16
 3797 1ce8 6043     		muls r0, r0, r4		@R
 3798 1cea 6143     		muls r1, r1, r4		@I
 3799 1cec 6A43     		muls r2, r2, r5		@R
 3800 1cee 6B43     		muls r3, r3, r5		@I
 3801 1cf0 8011     		asrs r0, r0, # 6
 3802 1cf2 8911     		asrs r1, r1, # 6
 3803 1cf4 9211     		asrs r2, r2, # 6
ARM GAS  1.s 			page 68


 3804 1cf6 9B11     		asrs r3, r3, # 6
 3805 1cf8 8018     		adds r0, r0, r2	 @r
 3806 1cfa C918     		adds r1, r1, r3	 @i
 3807 1cfc 3618     		adds r6, r6, r0
 3808 1cfe 7F18     		adds r7, r7, r1
 3809              	
 3810 1d00 DD46     		mov sp, r11
 3811 1d02 0FBC     		pop {r0-r3}
 3812 1d04 EB46     		mov r11, sp
 3813 1d06 D546     		mov sp, r10
 3814 1d08 10BC     		pop {r4}
 3815 1d0a EA46     		mov r10, sp
 3816 1d0c 2546     		mov r5, r4
 3817 1d0e 2404     		lsls r4, r4, # 16
 3818 1d10 240C     		lsrs r4, r4, # 16
 3819 1d12 2D0C     		lsrs r5, r5, # 16
 3820 1d14 6043     		muls r0, r0, r4
 3821 1d16 6143     		muls r1, r1, r4
 3822 1d18 6A43     		muls r2, r2, r5
 3823 1d1a 6B43     		muls r3, r3, r5
 3824 1d1c 8011     		asrs r0, r0, # 6
 3825 1d1e 8911     		asrs r1, r1, # 6
 3826 1d20 9211     		asrs r2, r2, # 6
 3827 1d22 9B11     		asrs r3, r3, # 6
 3828 1d24 8018     		adds r0, r0, r2         @r
 3829 1d26 C918     		adds r1, r1, r3         @i
 3830 1d28 3618     		adds r6, r6, r0
 3831 1d2a 7F18     		adds r7, r7, r1
 3832              	
 3833 1d2c DD46     		mov sp, r11
 3834 1d2e 0FBC     		pop {r0-r3}
 3835 1d30 EB46     		mov r11, sp
 3836 1d32 D546     		mov sp, r10
 3837 1d34 10BC     		pop {r4}
 3838 1d36 EA46     		mov r10, sp
 3839 1d38 2546     		mov r5, r4
 3840 1d3a 2404     		lsls r4, r4, # 16
 3841 1d3c 240C     		lsrs r4, r4, # 16
 3842 1d3e 2D0C     		lsrs r5, r5, # 16
 3843 1d40 6043     		muls r0, r0, r4
 3844 1d42 6143     		muls r1, r1, r4
 3845 1d44 6A43     		muls r2, r2, r5
 3846 1d46 6B43     		muls r3, r3, r5
 3847 1d48 8011     		asrs r0, r0, # 6
 3848 1d4a 8911     		asrs r1, r1, # 6
 3849 1d4c 9211     		asrs r2, r2, # 6
 3850 1d4e 9B11     		asrs r3, r3, # 6
 3851 1d50 8018     		adds r0, r0, r2  @r
 3852 1d52 C918     		adds r1, r1, r3  @i
 3853 1d54 3618     		adds r6, r6, r0
 3854 1d56 7F18     		adds r7, r7, r1
 3855              	
 3856 1d58 DD46     		mov sp, r11
 3857 1d5a 0FBC     		pop {r0-r3}
 3858 1d5c EB46     		mov r11, sp
 3859 1d5e D546     		mov sp, r10
 3860 1d60 10BC     		pop {r4}
ARM GAS  1.s 			page 69


 3861 1d62 EA46     		mov r10, sp
 3862 1d64 2546     		mov r5, r4
 3863 1d66 2404     		lsls r4, r4, # 16
 3864 1d68 240C     		lsrs r4, r4, # 16
 3865 1d6a 2D0C     		lsrs r5, r5, # 16
 3866 1d6c 6043     		muls r0, r0, r4
 3867 1d6e 6143     		muls r1, r1, r4
 3868 1d70 6A43     		muls r2, r2, r5
 3869 1d72 6B43     		muls r3, r3, r5
 3870 1d74 8011     		asrs r0, r0, # 6
 3871 1d76 8911     		asrs r1, r1, # 6
 3872 1d78 9211     		asrs r2, r2, # 6
 3873 1d7a 9B11     		asrs r3, r3, # 6
 3874 1d7c 8018     		adds r0, r0, r2         @r
 3875 1d7e C918     		adds r1, r1, r3         @i
 3876 1d80 3618     		adds r6, r6, r0
 3877 1d82 7F18     		adds r7, r7, r1
 3878              	
 3879              	@yjm3
 3880              	
 3881              		@0
 3882 1d84 DD46     		mov sp, r11
 3883 1d86 0FBC     		pop {r0-r3}
 3884 1d88 EB46     		mov r11, sp
 3885 1d8a D546     		mov sp, r10
 3886 1d8c 10BC     		pop {r4}
 3887 1d8e EA46     		mov r10, sp
 3888 1d90 2546     		mov r5, r4
 3889 1d92 2404     		lsls r4, r4, # 16
 3890 1d94 240C     		lsrs r4, r4, # 16
 3891 1d96 2D0C     		lsrs r5, r5, # 16
 3892 1d98 6043     		muls r0, r0, r4		@R
 3893 1d9a 6143     		muls r1, r1, r4		@I
 3894 1d9c 6A43     		muls r2, r2, r5		@R
 3895 1d9e 6B43     		muls r3, r3, r5		@I
 3896 1da0 8011     		asrs r0, r0, # 6
 3897 1da2 8911     		asrs r1, r1, # 6
 3898 1da4 9211     		asrs r2, r2, # 6
 3899 1da6 9B11     		asrs r3, r3, # 6
 3900 1da8 8018     		adds r0, r0, r2	 @r
 3901 1daa C918     		adds r1, r1, r3	 @i
 3902 1dac 3618     		adds r6, r6, r0
 3903 1dae 7F18     		adds r7, r7, r1
 3904              	
 3905 1db0 DD46     		mov sp, r11
 3906 1db2 0FBC     		pop {r0-r3}
 3907 1db4 EB46     		mov r11, sp
 3908 1db6 D546     		mov sp, r10
 3909 1db8 10BC     		pop {r4}
 3910 1dba EA46     		mov r10, sp
 3911 1dbc 2546     		mov r5, r4
 3912 1dbe 2404     		lsls r4, r4, # 16
 3913 1dc0 240C     		lsrs r4, r4, # 16
 3914 1dc2 2D0C     		lsrs r5, r5, # 16
 3915 1dc4 6043     		muls r0, r0, r4
 3916 1dc6 6143     		muls r1, r1, r4
 3917 1dc8 6A43     		muls r2, r2, r5
ARM GAS  1.s 			page 70


 3918 1dca 6B43     		muls r3, r3, r5
 3919 1dcc 8011     		asrs r0, r0, # 6
 3920 1dce 8911     		asrs r1, r1, # 6
 3921 1dd0 9211     		asrs r2, r2, # 6
 3922 1dd2 9B11     		asrs r3, r3, # 6
 3923 1dd4 8018     		adds r0, r0, r2         @r
 3924 1dd6 C918     		adds r1, r1, r3         @i
 3925 1dd8 3618     		adds r6, r6, r0
 3926 1dda 7F18     		adds r7, r7, r1
 3927              	
 3928 1ddc DD46     		mov sp, r11
 3929 1dde 0FBC     		pop {r0-r3}
 3930 1de0 EB46     		mov r11, sp
 3931 1de2 D546     		mov sp, r10
 3932 1de4 10BC     		pop {r4}
 3933 1de6 EA46     		mov r10, sp
 3934 1de8 2546     		mov r5, r4
 3935 1dea 2404     		lsls r4, r4, # 16
 3936 1dec 240C     		lsrs r4, r4, # 16
 3937 1dee 2D0C     		lsrs r5, r5, # 16
 3938 1df0 6043     		muls r0, r0, r4
 3939 1df2 6143     		muls r1, r1, r4
 3940 1df4 6A43     		muls r2, r2, r5
 3941 1df6 6B43     		muls r3, r3, r5
 3942 1df8 8011     		asrs r0, r0, # 6
 3943 1dfa 8911     		asrs r1, r1, # 6
 3944 1dfc 9211     		asrs r2, r2, # 6
 3945 1dfe 9B11     		asrs r3, r3, # 6
 3946 1e00 8018     		adds r0, r0, r2  @r
 3947 1e02 C918     		adds r1, r1, r3  @i
 3948 1e04 3618     		adds r6, r6, r0
 3949 1e06 7F18     		adds r7, r7, r1
 3950              	
 3951 1e08 DD46     		mov sp, r11
 3952 1e0a 0FBC     		pop {r0-r3}
 3953 1e0c EB46     		mov r11, sp
 3954 1e0e D546     		mov sp, r10
 3955 1e10 10BC     		pop {r4}
 3956 1e12 EA46     		mov r10, sp
 3957 1e14 2546     		mov r5, r4
 3958 1e16 2404     		lsls r4, r4, # 16
 3959 1e18 240C     		lsrs r4, r4, # 16
 3960 1e1a 2D0C     		lsrs r5, r5, # 16
 3961 1e1c 6043     		muls r0, r0, r4
 3962 1e1e 6143     		muls r1, r1, r4
 3963 1e20 6A43     		muls r2, r2, r5
 3964 1e22 6B43     		muls r3, r3, r5
 3965 1e24 8011     		asrs r0, r0, # 6
 3966 1e26 8911     		asrs r1, r1, # 6
 3967 1e28 9211     		asrs r2, r2, # 6
 3968 1e2a 9B11     		asrs r3, r3, # 6
 3969 1e2c 8018     		adds r0, r0, r2         @r
 3970 1e2e C918     		adds r1, r1, r3         @i
 3971 1e30 3618     		adds r6, r6, r0
 3972 1e32 7F18     		adds r7, r7, r1
 3973              	
 3974              		@1
ARM GAS  1.s 			page 71


 3975 1e34 DD46     		mov sp, r11
 3976 1e36 0FBC     		pop {r0-r3}
 3977 1e38 EB46     		mov r11, sp
 3978 1e3a D546     		mov sp, r10
 3979 1e3c 10BC     		pop {r4}
 3980 1e3e EA46     		mov r10, sp
 3981 1e40 2546     		mov r5, r4
 3982 1e42 2404     		lsls r4, r4, # 16
 3983 1e44 240C     		lsrs r4, r4, # 16
 3984 1e46 2D0C     		lsrs r5, r5, # 16
 3985 1e48 6043     		muls r0, r0, r4		@R
 3986 1e4a 6143     		muls r1, r1, r4		@I
 3987 1e4c 6A43     		muls r2, r2, r5		@R
 3988 1e4e 6B43     		muls r3, r3, r5		@I
 3989 1e50 8011     		asrs r0, r0, # 6
 3990 1e52 8911     		asrs r1, r1, # 6
 3991 1e54 9211     		asrs r2, r2, # 6
 3992 1e56 9B11     		asrs r3, r3, # 6
 3993 1e58 8018     		adds r0, r0, r2	 @r
 3994 1e5a C918     		adds r1, r1, r3	 @i
 3995 1e5c 3618     		adds r6, r6, r0
 3996 1e5e 7F18     		adds r7, r7, r1
 3997              	
 3998 1e60 DD46     		mov sp, r11
 3999 1e62 0FBC     		pop {r0-r3}
 4000 1e64 EB46     		mov r11, sp
 4001 1e66 D546     		mov sp, r10
 4002 1e68 10BC     		pop {r4}
 4003 1e6a EA46     		mov r10, sp
 4004 1e6c 2546     		mov r5, r4
 4005 1e6e 2404     		lsls r4, r4, # 16
 4006 1e70 240C     		lsrs r4, r4, # 16
 4007 1e72 2D0C     		lsrs r5, r5, # 16
 4008 1e74 6043     		muls r0, r0, r4
 4009 1e76 6143     		muls r1, r1, r4
 4010 1e78 6A43     		muls r2, r2, r5
 4011 1e7a 6B43     		muls r3, r3, r5
 4012 1e7c 8011     		asrs r0, r0, # 6
 4013 1e7e 8911     		asrs r1, r1, # 6
 4014 1e80 9211     		asrs r2, r2, # 6
 4015 1e82 9B11     		asrs r3, r3, # 6
 4016 1e84 8018     		adds r0, r0, r2         @r
 4017 1e86 C918     		adds r1, r1, r3         @i
 4018 1e88 3618     		adds r6, r6, r0
 4019 1e8a 7F18     		adds r7, r7, r1
 4020              	
 4021 1e8c DD46     		mov sp, r11
 4022 1e8e 0FBC     		pop {r0-r3}
 4023 1e90 EB46     		mov r11, sp
 4024 1e92 D546     		mov sp, r10
 4025 1e94 10BC     		pop {r4}
 4026 1e96 EA46     		mov r10, sp
 4027 1e98 2546     		mov r5, r4
 4028 1e9a 2404     		lsls r4, r4, # 16
 4029 1e9c 240C     		lsrs r4, r4, # 16
 4030 1e9e 2D0C     		lsrs r5, r5, # 16
 4031 1ea0 6043     		muls r0, r0, r4
ARM GAS  1.s 			page 72


 4032 1ea2 6143     		muls r1, r1, r4
 4033 1ea4 6A43     		muls r2, r2, r5
 4034 1ea6 6B43     		muls r3, r3, r5
 4035 1ea8 8011     		asrs r0, r0, # 6
 4036 1eaa 8911     		asrs r1, r1, # 6
 4037 1eac 9211     		asrs r2, r2, # 6
 4038 1eae 9B11     		asrs r3, r3, # 6
 4039 1eb0 8018     		adds r0, r0, r2  @r
 4040 1eb2 C918     		adds r1, r1, r3  @i
 4041 1eb4 3618     		adds r6, r6, r0
 4042 1eb6 7F18     		adds r7, r7, r1
 4043              	
 4044 1eb8 DD46     		mov sp, r11
 4045 1eba 0FBC     		pop {r0-r3}
 4046 1ebc EB46     		mov r11, sp
 4047 1ebe D546     		mov sp, r10
 4048 1ec0 10BC     		pop {r4}
 4049 1ec2 EA46     		mov r10, sp
 4050 1ec4 2546     		mov r5, r4
 4051 1ec6 2404     		lsls r4, r4, # 16
 4052 1ec8 240C     		lsrs r4, r4, # 16
 4053 1eca 2D0C     		lsrs r5, r5, # 16
 4054 1ecc 6043     		muls r0, r0, r4
 4055 1ece 6143     		muls r1, r1, r4
 4056 1ed0 6A43     		muls r2, r2, r5
 4057 1ed2 6B43     		muls r3, r3, r5
 4058 1ed4 8011     		asrs r0, r0, # 6
 4059 1ed6 8911     		asrs r1, r1, # 6
 4060 1ed8 9211     		asrs r2, r2, # 6
 4061 1eda 9B11     		asrs r3, r3, # 6
 4062 1edc 8018     		adds r0, r0, r2         @r
 4063 1ede C918     		adds r1, r1, r3         @i
 4064 1ee0 3618     		adds r6, r6, r0
 4065 1ee2 7F18     		adds r7, r7, r1
 4066              	
 4067              		@2
 4068 1ee4 DD46     		mov sp, r11
 4069 1ee6 0FBC     		pop {r0-r3}
 4070 1ee8 EB46     		mov r11, sp
 4071 1eea D546     		mov sp, r10
 4072 1eec 10BC     		pop {r4}
 4073 1eee EA46     		mov r10, sp
 4074 1ef0 2546     		mov r5, r4
 4075 1ef2 2404     		lsls r4, r4, # 16
 4076 1ef4 240C     		lsrs r4, r4, # 16
 4077 1ef6 2D0C     		lsrs r5, r5, # 16
 4078 1ef8 6043     		muls r0, r0, r4		@R
 4079 1efa 6143     		muls r1, r1, r4		@I
 4080 1efc 6A43     		muls r2, r2, r5		@R
 4081 1efe 6B43     		muls r3, r3, r5		@I
 4082 1f00 8011     		asrs r0, r0, # 6
 4083 1f02 8911     		asrs r1, r1, # 6
 4084 1f04 9211     		asrs r2, r2, # 6
 4085 1f06 9B11     		asrs r3, r3, # 6
 4086 1f08 8018     		adds r0, r0, r2	 @r
 4087 1f0a C918     		adds r1, r1, r3	 @i
 4088 1f0c 3618     		adds r6, r6, r0
ARM GAS  1.s 			page 73


 4089 1f0e 7F18     		adds r7, r7, r1
 4090              	
 4091 1f10 DD46     		mov sp, r11
 4092 1f12 0FBC     		pop {r0-r3}
 4093 1f14 EB46     		mov r11, sp
 4094 1f16 D546     		mov sp, r10
 4095 1f18 10BC     		pop {r4}
 4096 1f1a EA46     		mov r10, sp
 4097 1f1c 2546     		mov r5, r4
 4098 1f1e 2404     		lsls r4, r4, # 16
 4099 1f20 240C     		lsrs r4, r4, # 16
 4100 1f22 2D0C     		lsrs r5, r5, # 16
 4101 1f24 6043     		muls r0, r0, r4
 4102 1f26 6143     		muls r1, r1, r4
 4103 1f28 6A43     		muls r2, r2, r5
 4104 1f2a 6B43     		muls r3, r3, r5
 4105 1f2c 8011     		asrs r0, r0, # 6
 4106 1f2e 8911     		asrs r1, r1, # 6
 4107 1f30 9211     		asrs r2, r2, # 6
 4108 1f32 9B11     		asrs r3, r3, # 6
 4109 1f34 8018     		adds r0, r0, r2         @r
 4110 1f36 C918     		adds r1, r1, r3         @i
 4111 1f38 3618     		adds r6, r6, r0
 4112 1f3a 7F18     		adds r7, r7, r1
 4113              	
 4114 1f3c DD46     		mov sp, r11
 4115 1f3e 0FBC     		pop {r0-r3}
 4116 1f40 EB46     		mov r11, sp
 4117 1f42 D546     		mov sp, r10
 4118 1f44 10BC     		pop {r4}
 4119 1f46 EA46     		mov r10, sp
 4120 1f48 2546     		mov r5, r4
 4121 1f4a 2404     		lsls r4, r4, # 16
 4122 1f4c 240C     		lsrs r4, r4, # 16
 4123 1f4e 2D0C     		lsrs r5, r5, # 16
 4124 1f50 6043     		muls r0, r0, r4
 4125 1f52 6143     		muls r1, r1, r4
 4126 1f54 6A43     		muls r2, r2, r5
 4127 1f56 6B43     		muls r3, r3, r5
 4128 1f58 8011     		asrs r0, r0, # 6
 4129 1f5a 8911     		asrs r1, r1, # 6
 4130 1f5c 9211     		asrs r2, r2, # 6
 4131 1f5e 9B11     		asrs r3, r3, # 6
 4132 1f60 8018     		adds r0, r0, r2  @r
 4133 1f62 C918     		adds r1, r1, r3  @i
 4134 1f64 3618     		adds r6, r6, r0
 4135 1f66 7F18     		adds r7, r7, r1
 4136              	
 4137 1f68 DD46     		mov sp, r11
 4138 1f6a 0FBC     		pop {r0-r3}
 4139 1f6c EB46     		mov r11, sp
 4140 1f6e D546     		mov sp, r10
 4141 1f70 10BC     		pop {r4}
 4142 1f72 EA46     		mov r10, sp
 4143 1f74 2546     		mov r5, r4
 4144 1f76 2404     		lsls r4, r4, # 16
 4145 1f78 240C     		lsrs r4, r4, # 16
ARM GAS  1.s 			page 74


 4146 1f7a 2D0C     		lsrs r5, r5, # 16
 4147 1f7c 6043     		muls r0, r0, r4
 4148 1f7e 6143     		muls r1, r1, r4
 4149 1f80 6A43     		muls r2, r2, r5
 4150 1f82 6B43     		muls r3, r3, r5
 4151 1f84 8011     		asrs r0, r0, # 6
 4152 1f86 8911     		asrs r1, r1, # 6
 4153 1f88 9211     		asrs r2, r2, # 6
 4154 1f8a 9B11     		asrs r3, r3, # 6
 4155 1f8c 8018     		adds r0, r0, r2         @r
 4156 1f8e C918     		adds r1, r1, r3         @i
 4157 1f90 3618     		adds r6, r6, r0
 4158 1f92 7F18     		adds r7, r7, r1
 4159              	
 4160              		@3
 4161 1f94 DD46     		mov sp, r11
 4162 1f96 0FBC     		pop {r0-r3}
 4163 1f98 EB46     		mov r11, sp
 4164 1f9a D546     		mov sp, r10
 4165 1f9c 10BC     		pop {r4}
 4166 1f9e EA46     		mov r10, sp
 4167 1fa0 2546     		mov r5, r4
 4168 1fa2 2404     		lsls r4, r4, # 16
 4169 1fa4 240C     		lsrs r4, r4, # 16
 4170 1fa6 2D0C     		lsrs r5, r5, # 16
 4171 1fa8 6043     		muls r0, r0, r4		@R
 4172 1faa 6143     		muls r1, r1, r4		@I
 4173 1fac 6A43     		muls r2, r2, r5		@R
 4174 1fae 6B43     		muls r3, r3, r5		@I
 4175 1fb0 8011     		asrs r0, r0, # 6
 4176 1fb2 8911     		asrs r1, r1, # 6
 4177 1fb4 9211     		asrs r2, r2, # 6
 4178 1fb6 9B11     		asrs r3, r3, # 6
 4179 1fb8 8018     		adds r0, r0, r2	 @r
 4180 1fba C918     		adds r1, r1, r3	 @i
 4181 1fbc 3618     		adds r6, r6, r0
 4182 1fbe 7F18     		adds r7, r7, r1
 4183              	
 4184 1fc0 DD46     		mov sp, r11
 4185 1fc2 0FBC     		pop {r0-r3}
 4186 1fc4 EB46     		mov r11, sp
 4187 1fc6 D546     		mov sp, r10
 4188 1fc8 10BC     		pop {r4}
 4189 1fca EA46     		mov r10, sp
 4190 1fcc 2546     		mov r5, r4
 4191 1fce 2404     		lsls r4, r4, # 16
 4192 1fd0 240C     		lsrs r4, r4, # 16
 4193 1fd2 2D0C     		lsrs r5, r5, # 16
 4194 1fd4 6043     		muls r0, r0, r4
 4195 1fd6 6143     		muls r1, r1, r4
 4196 1fd8 6A43     		muls r2, r2, r5
 4197 1fda 6B43     		muls r3, r3, r5
 4198 1fdc 8011     		asrs r0, r0, # 6
 4199 1fde 8911     		asrs r1, r1, # 6
 4200 1fe0 9211     		asrs r2, r2, # 6
 4201 1fe2 9B11     		asrs r3, r3, # 6
 4202 1fe4 8018     		adds r0, r0, r2         @r
ARM GAS  1.s 			page 75


 4203 1fe6 C918     		adds r1, r1, r3         @i
 4204 1fe8 3618     		adds r6, r6, r0
 4205 1fea 7F18     		adds r7, r7, r1
 4206              	
 4207 1fec DD46     		mov sp, r11
 4208 1fee 0FBC     		pop {r0-r3}
 4209 1ff0 EB46     		mov r11, sp
 4210 1ff2 D546     		mov sp, r10
 4211 1ff4 10BC     		pop {r4}
 4212 1ff6 EA46     		mov r10, sp
 4213 1ff8 2546     		mov r5, r4
 4214 1ffa 2404     		lsls r4, r4, # 16
 4215 1ffc 240C     		lsrs r4, r4, # 16
 4216 1ffe 2D0C     		lsrs r5, r5, # 16
 4217 2000 6043     		muls r0, r0, r4
 4218 2002 6143     		muls r1, r1, r4
 4219 2004 6A43     		muls r2, r2, r5
 4220 2006 6B43     		muls r3, r3, r5
 4221 2008 8011     		asrs r0, r0, # 6
 4222 200a 8911     		asrs r1, r1, # 6
 4223 200c 9211     		asrs r2, r2, # 6
 4224 200e 9B11     		asrs r3, r3, # 6
 4225 2010 8018     		adds r0, r0, r2  @r
 4226 2012 C918     		adds r1, r1, r3  @i
 4227 2014 3618     		adds r6, r6, r0
 4228 2016 7F18     		adds r7, r7, r1
 4229              	
 4230 2018 DD46     		mov sp, r11
 4231 201a 0FBC     		pop {r0-r3}
 4232 201c EB46     		mov r11, sp
 4233 201e D546     		mov sp, r10
 4234 2020 10BC     		pop {r4}
 4235 2022 EA46     		mov r10, sp
 4236 2024 2546     		mov r5, r4
 4237 2026 2404     		lsls r4, r4, # 16
 4238 2028 240C     		lsrs r4, r4, # 16
 4239 202a 2D0C     		lsrs r5, r5, # 16
 4240 202c 6043     		muls r0, r0, r4
 4241 202e 6143     		muls r1, r1, r4
 4242 2030 6A43     		muls r2, r2, r5
 4243 2032 6B43     		muls r3, r3, r5
 4244 2034 8011     		asrs r0, r0, # 6
 4245 2036 8911     		asrs r1, r1, # 6
 4246 2038 9211     		asrs r2, r2, # 6
 4247 203a 9B11     		asrs r3, r3, # 6
 4248 203c 8018     		adds r0, r0, r2         @r
 4249 203e C918     		adds r1, r1, r3         @i
 4250 2040 3618     		adds r6, r6, r0
 4251 2042 7F18     		adds r7, r7, r1
 4252              	
 4253              		@4
 4254 2044 DD46     		mov sp, r11
 4255 2046 0FBC     		pop {r0-r3}
 4256 2048 EB46     		mov r11, sp
 4257 204a D546     		mov sp, r10
 4258 204c 10BC     		pop {r4}
 4259 204e EA46     		mov r10, sp
ARM GAS  1.s 			page 76


 4260 2050 2546     		mov r5, r4
 4261 2052 2404     		lsls r4, r4, # 16
 4262 2054 240C     		lsrs r4, r4, # 16
 4263 2056 2D0C     		lsrs r5, r5, # 16
 4264 2058 6043     		muls r0, r0, r4		@R
 4265 205a 6143     		muls r1, r1, r4		@I
 4266 205c 6A43     		muls r2, r2, r5		@R
 4267 205e 6B43     		muls r3, r3, r5		@I
 4268 2060 8011     		asrs r0, r0, # 6
 4269 2062 8911     		asrs r1, r1, # 6
 4270 2064 9211     		asrs r2, r2, # 6
 4271 2066 9B11     		asrs r3, r3, # 6
 4272 2068 8018     		adds r0, r0, r2	 @r
 4273 206a C918     		adds r1, r1, r3	 @i
 4274 206c 3618     		adds r6, r6, r0
 4275 206e 7F18     		adds r7, r7, r1
 4276              	
 4277 2070 DD46     		mov sp, r11
 4278 2072 0FBC     		pop {r0-r3}
 4279 2074 EB46     		mov r11, sp
 4280 2076 D546     		mov sp, r10
 4281 2078 10BC     		pop {r4}
 4282 207a EA46     		mov r10, sp
 4283 207c 2546     		mov r5, r4
 4284 207e 2404     		lsls r4, r4, # 16
 4285 2080 240C     		lsrs r4, r4, # 16
 4286 2082 2D0C     		lsrs r5, r5, # 16
 4287 2084 6043     		muls r0, r0, r4
 4288 2086 6143     		muls r1, r1, r4
 4289 2088 6A43     		muls r2, r2, r5
 4290 208a 6B43     		muls r3, r3, r5
 4291 208c 8011     		asrs r0, r0, # 6
 4292 208e 8911     		asrs r1, r1, # 6
 4293 2090 9211     		asrs r2, r2, # 6
 4294 2092 9B11     		asrs r3, r3, # 6
 4295 2094 8018     		adds r0, r0, r2         @r
 4296 2096 C918     		adds r1, r1, r3         @i
 4297 2098 3618     		adds r6, r6, r0
 4298 209a 7F18     		adds r7, r7, r1
 4299              	
 4300 209c DD46     		mov sp, r11
 4301 209e 0FBC     		pop {r0-r3}
 4302 20a0 EB46     		mov r11, sp
 4303 20a2 D546     		mov sp, r10
 4304 20a4 10BC     		pop {r4}
 4305 20a6 EA46     		mov r10, sp
 4306 20a8 2546     		mov r5, r4
 4307 20aa 2404     		lsls r4, r4, # 16
 4308 20ac 240C     		lsrs r4, r4, # 16
 4309 20ae 2D0C     		lsrs r5, r5, # 16
 4310 20b0 6043     		muls r0, r0, r4
 4311 20b2 6143     		muls r1, r1, r4
 4312 20b4 6A43     		muls r2, r2, r5
 4313 20b6 6B43     		muls r3, r3, r5
 4314 20b8 8011     		asrs r0, r0, # 6
 4315 20ba 8911     		asrs r1, r1, # 6
 4316 20bc 9211     		asrs r2, r2, # 6
ARM GAS  1.s 			page 77


 4317 20be 9B11     		asrs r3, r3, # 6
 4318 20c0 8018     		adds r0, r0, r2  @r
 4319 20c2 C918     		adds r1, r1, r3  @i
 4320 20c4 3618     		adds r6, r6, r0
 4321 20c6 7F18     		adds r7, r7, r1
 4322              	
 4323 20c8 DD46     		mov sp, r11
 4324 20ca 0FBC     		pop {r0-r3}
 4325 20cc EB46     		mov r11, sp
 4326 20ce D546     		mov sp, r10
 4327 20d0 10BC     		pop {r4}
 4328 20d2 EA46     		mov r10, sp
 4329 20d4 2546     		mov r5, r4
 4330 20d6 2404     		lsls r4, r4, # 16
 4331 20d8 240C     		lsrs r4, r4, # 16
 4332 20da 2D0C     		lsrs r5, r5, # 16
 4333 20dc 6043     		muls r0, r0, r4
 4334 20de 6143     		muls r1, r1, r4
 4335 20e0 6A43     		muls r2, r2, r5
 4336 20e2 6B43     		muls r3, r3, r5
 4337 20e4 8011     		asrs r0, r0, # 6
 4338 20e6 8911     		asrs r1, r1, # 6
 4339 20e8 9211     		asrs r2, r2, # 6
 4340 20ea 9B11     		asrs r3, r3, # 6
 4341 20ec 8018     		adds r0, r0, r2         @r
 4342 20ee C918     		adds r1, r1, r3         @i
 4343 20f0 3618     		adds r6, r6, r0
 4344 20f2 7F18     		adds r7, r7, r1
 4345              	
 4346              		@5
 4347 20f4 DD46     		mov sp, r11
 4348 20f6 0FBC     		pop {r0-r3}
 4349 20f8 EB46     		mov r11, sp
 4350 20fa D546     		mov sp, r10
 4351 20fc 10BC     		pop {r4}
 4352 20fe EA46     		mov r10, sp
 4353 2100 2546     		mov r5, r4
 4354 2102 2404     		lsls r4, r4, # 16
 4355 2104 240C     		lsrs r4, r4, # 16
 4356 2106 2D0C     		lsrs r5, r5, # 16
 4357 2108 6043     		muls r0, r0, r4		@R
 4358 210a 6143     		muls r1, r1, r4		@I
 4359 210c 6A43     		muls r2, r2, r5		@R
 4360 210e 6B43     		muls r3, r3, r5		@I
 4361 2110 8011     		asrs r0, r0, # 6
 4362 2112 8911     		asrs r1, r1, # 6
 4363 2114 9211     		asrs r2, r2, # 6
 4364 2116 9B11     		asrs r3, r3, # 6
 4365 2118 8018     		adds r0, r0, r2	 @r
 4366 211a C918     		adds r1, r1, r3	 @i
 4367 211c 3618     		adds r6, r6, r0
 4368 211e 7F18     		adds r7, r7, r1
 4369              	
 4370 2120 DD46     		mov sp, r11
 4371 2122 0FBC     		pop {r0-r3}
 4372 2124 EB46     		mov r11, sp
 4373 2126 D546     		mov sp, r10
ARM GAS  1.s 			page 78


 4374 2128 10BC     		pop {r4}
 4375 212a EA46     		mov r10, sp
 4376 212c 2546     		mov r5, r4
 4377 212e 2404     		lsls r4, r4, # 16
 4378 2130 240C     		lsrs r4, r4, # 16
 4379 2132 2D0C     		lsrs r5, r5, # 16
 4380 2134 6043     		muls r0, r0, r4
 4381 2136 6143     		muls r1, r1, r4
 4382 2138 6A43     		muls r2, r2, r5
 4383 213a 6B43     		muls r3, r3, r5
 4384 213c 8011     		asrs r0, r0, # 6
 4385 213e 8911     		asrs r1, r1, # 6
 4386 2140 9211     		asrs r2, r2, # 6
 4387 2142 9B11     		asrs r3, r3, # 6
 4388 2144 8018     		adds r0, r0, r2         @r
 4389 2146 C918     		adds r1, r1, r3         @i
 4390 2148 3618     		adds r6, r6, r0
 4391 214a 7F18     		adds r7, r7, r1
 4392              	
 4393 214c DD46     		mov sp, r11
 4394 214e 0FBC     		pop {r0-r3}
 4395 2150 EB46     		mov r11, sp
 4396 2152 D546     		mov sp, r10
 4397 2154 10BC     		pop {r4}
 4398 2156 EA46     		mov r10, sp
 4399 2158 2546     		mov r5, r4
 4400 215a 2404     		lsls r4, r4, # 16
 4401 215c 240C     		lsrs r4, r4, # 16
 4402 215e 2D0C     		lsrs r5, r5, # 16
 4403 2160 6043     		muls r0, r0, r4
 4404 2162 6143     		muls r1, r1, r4
 4405 2164 6A43     		muls r2, r2, r5
 4406 2166 6B43     		muls r3, r3, r5
 4407 2168 8011     		asrs r0, r0, # 6
 4408 216a 8911     		asrs r1, r1, # 6
 4409 216c 9211     		asrs r2, r2, # 6
 4410 216e 9B11     		asrs r3, r3, # 6
 4411 2170 8018     		adds r0, r0, r2  @r
 4412 2172 C918     		adds r1, r1, r3  @i
 4413 2174 3618     		adds r6, r6, r0
 4414 2176 7F18     		adds r7, r7, r1
 4415              	
 4416 2178 DD46     		mov sp, r11
 4417 217a 0FBC     		pop {r0-r3}
 4418 217c EB46     		mov r11, sp
 4419 217e D546     		mov sp, r10
 4420 2180 10BC     		pop {r4}
 4421 2182 EA46     		mov r10, sp
 4422 2184 2546     		mov r5, r4
 4423 2186 2404     		lsls r4, r4, # 16
 4424 2188 240C     		lsrs r4, r4, # 16
 4425 218a 2D0C     		lsrs r5, r5, # 16
 4426 218c 6043     		muls r0, r0, r4
 4427 218e 6143     		muls r1, r1, r4
 4428 2190 6A43     		muls r2, r2, r5
 4429 2192 6B43     		muls r3, r3, r5
 4430 2194 8011     		asrs r0, r0, # 6
ARM GAS  1.s 			page 79


 4431 2196 8911     		asrs r1, r1, # 6
 4432 2198 9211     		asrs r2, r2, # 6
 4433 219a 9B11     		asrs r3, r3, # 6
 4434 219c 8018     		adds r0, r0, r2         @r
 4435 219e C918     		adds r1, r1, r3         @i
 4436 21a0 3618     		adds r6, r6, r0
 4437 21a2 7F18     		adds r7, r7, r1
 4438              	
 4439              		@6
 4440 21a4 DD46     		mov sp, r11
 4441 21a6 0FBC     		pop {r0-r3}
 4442 21a8 EB46     		mov r11, sp
 4443 21aa D546     		mov sp, r10
 4444 21ac 10BC     		pop {r4}
 4445 21ae EA46     		mov r10, sp
 4446 21b0 2546     		mov r5, r4
 4447 21b2 2404     		lsls r4, r4, # 16
 4448 21b4 240C     		lsrs r4, r4, # 16
 4449 21b6 2D0C     		lsrs r5, r5, # 16
 4450 21b8 6043     		muls r0, r0, r4		@R
 4451 21ba 6143     		muls r1, r1, r4		@I
 4452 21bc 6A43     		muls r2, r2, r5		@R
 4453 21be 6B43     		muls r3, r3, r5		@I
 4454 21c0 8011     		asrs r0, r0, # 6
 4455 21c2 8911     		asrs r1, r1, # 6
 4456 21c4 9211     		asrs r2, r2, # 6
 4457 21c6 9B11     		asrs r3, r3, # 6
 4458 21c8 8018     		adds r0, r0, r2	 @r
 4459 21ca C918     		adds r1, r1, r3	 @i
 4460 21cc 3618     		adds r6, r6, r0
 4461 21ce 7F18     		adds r7, r7, r1
 4462              	
 4463 21d0 DD46     		mov sp, r11
 4464 21d2 0FBC     		pop {r0-r3}
 4465 21d4 EB46     		mov r11, sp
 4466 21d6 D546     		mov sp, r10
 4467 21d8 10BC     		pop {r4}
 4468 21da EA46     		mov r10, sp
 4469 21dc 2546     		mov r5, r4
 4470 21de 2404     		lsls r4, r4, # 16
 4471 21e0 240C     		lsrs r4, r4, # 16
 4472 21e2 2D0C     		lsrs r5, r5, # 16
 4473 21e4 6043     		muls r0, r0, r4
 4474 21e6 6143     		muls r1, r1, r4
 4475 21e8 6A43     		muls r2, r2, r5
 4476 21ea 6B43     		muls r3, r3, r5
 4477 21ec 8011     		asrs r0, r0, # 6
 4478 21ee 8911     		asrs r1, r1, # 6
 4479 21f0 9211     		asrs r2, r2, # 6
 4480 21f2 9B11     		asrs r3, r3, # 6
 4481 21f4 8018     		adds r0, r0, r2         @r
 4482 21f6 C918     		adds r1, r1, r3         @i
 4483 21f8 3618     		adds r6, r6, r0
 4484 21fa 7F18     		adds r7, r7, r1
 4485              	
 4486 21fc DD46     		mov sp, r11
 4487 21fe 0FBC     		pop {r0-r3}
ARM GAS  1.s 			page 80


 4488 2200 EB46     		mov r11, sp
 4489 2202 D546     		mov sp, r10
 4490 2204 10BC     		pop {r4}
 4491 2206 EA46     		mov r10, sp
 4492 2208 2546     		mov r5, r4
 4493 220a 2404     		lsls r4, r4, # 16
 4494 220c 240C     		lsrs r4, r4, # 16
 4495 220e 2D0C     		lsrs r5, r5, # 16
 4496 2210 6043     		muls r0, r0, r4
 4497 2212 6143     		muls r1, r1, r4
 4498 2214 6A43     		muls r2, r2, r5
 4499 2216 6B43     		muls r3, r3, r5
 4500 2218 8011     		asrs r0, r0, # 6
 4501 221a 8911     		asrs r1, r1, # 6
 4502 221c 9211     		asrs r2, r2, # 6
 4503 221e 9B11     		asrs r3, r3, # 6
 4504 2220 8018     		adds r0, r0, r2  @r
 4505 2222 C918     		adds r1, r1, r3  @i
 4506 2224 3618     		adds r6, r6, r0
 4507 2226 7F18     		adds r7, r7, r1
 4508              	
 4509 2228 DD46     		mov sp, r11
 4510 222a 0FBC     		pop {r0-r3}
 4511 222c EB46     		mov r11, sp
 4512 222e D546     		mov sp, r10
 4513 2230 10BC     		pop {r4}
 4514 2232 EA46     		mov r10, sp
 4515 2234 2546     		mov r5, r4
 4516 2236 2404     		lsls r4, r4, # 16
 4517 2238 240C     		lsrs r4, r4, # 16
 4518 223a 2D0C     		lsrs r5, r5, # 16
 4519 223c 6043     		muls r0, r0, r4
 4520 223e 6143     		muls r1, r1, r4
 4521 2240 6A43     		muls r2, r2, r5
 4522 2242 6B43     		muls r3, r3, r5
 4523 2244 8011     		asrs r0, r0, # 6
 4524 2246 8911     		asrs r1, r1, # 6
 4525 2248 9211     		asrs r2, r2, # 6
 4526 224a 9B11     		asrs r3, r3, # 6
 4527 224c 8018     		adds r0, r0, r2         @r
 4528 224e C918     		adds r1, r1, r3         @i
 4529 2250 3618     		adds r6, r6, r0
 4530 2252 7F18     		adds r7, r7, r1
 4531              	
 4532              		@7
 4533 2254 DD46     		mov sp, r11
 4534 2256 0FBC     		pop {r0-r3}
 4535 2258 EB46     		mov r11, sp
 4536 225a D546     		mov sp, r10
 4537 225c 10BC     		pop {r4}
 4538 225e EA46     		mov r10, sp
 4539 2260 2546     		mov r5, r4
 4540 2262 2404     		lsls r4, r4, # 16
 4541 2264 240C     		lsrs r4, r4, # 16
 4542 2266 2D0C     		lsrs r5, r5, # 16
 4543 2268 6043     		muls r0, r0, r4		@R
 4544 226a 6143     		muls r1, r1, r4		@I
ARM GAS  1.s 			page 81


 4545 226c 6A43     		muls r2, r2, r5		@R
 4546 226e 6B43     		muls r3, r3, r5		@I
 4547 2270 8011     		asrs r0, r0, # 6
 4548 2272 8911     		asrs r1, r1, # 6
 4549 2274 9211     		asrs r2, r2, # 6
 4550 2276 9B11     		asrs r3, r3, # 6
 4551 2278 8018     		adds r0, r0, r2	 @r
 4552 227a C918     		adds r1, r1, r3	 @i
 4553 227c 3618     		adds r6, r6, r0
 4554 227e 7F18     		adds r7, r7, r1
 4555              	
 4556 2280 DD46     		mov sp, r11
 4557 2282 0FBC     		pop {r0-r3}
 4558 2284 EB46     		mov r11, sp
 4559 2286 D546     		mov sp, r10
 4560 2288 10BC     		pop {r4}
 4561 228a EA46     		mov r10, sp
 4562 228c 2546     		mov r5, r4
 4563 228e 2404     		lsls r4, r4, # 16
 4564 2290 240C     		lsrs r4, r4, # 16
 4565 2292 2D0C     		lsrs r5, r5, # 16
 4566 2294 6043     		muls r0, r0, r4
 4567 2296 6143     		muls r1, r1, r4
 4568 2298 6A43     		muls r2, r2, r5
 4569 229a 6B43     		muls r3, r3, r5
 4570 229c 8011     		asrs r0, r0, # 6
 4571 229e 8911     		asrs r1, r1, # 6
 4572 22a0 9211     		asrs r2, r2, # 6
 4573 22a2 9B11     		asrs r3, r3, # 6
 4574 22a4 8018     		adds r0, r0, r2         @r
 4575 22a6 C918     		adds r1, r1, r3         @i
 4576 22a8 3618     		adds r6, r6, r0
 4577 22aa 7F18     		adds r7, r7, r1
 4578              	
 4579 22ac DD46     		mov sp, r11
 4580 22ae 0FBC     		pop {r0-r3}
 4581 22b0 EB46     		mov r11, sp
 4582 22b2 D546     		mov sp, r10
 4583 22b4 10BC     		pop {r4}
 4584 22b6 EA46     		mov r10, sp
 4585 22b8 2546     		mov r5, r4
 4586 22ba 2404     		lsls r4, r4, # 16
 4587 22bc 240C     		lsrs r4, r4, # 16
 4588 22be 2D0C     		lsrs r5, r5, # 16
 4589 22c0 6043     		muls r0, r0, r4
 4590 22c2 6143     		muls r1, r1, r4
 4591 22c4 6A43     		muls r2, r2, r5
 4592 22c6 6B43     		muls r3, r3, r5
 4593 22c8 8011     		asrs r0, r0, # 6
 4594 22ca 8911     		asrs r1, r1, # 6
 4595 22cc 9211     		asrs r2, r2, # 6
 4596 22ce 9B11     		asrs r3, r3, # 6
 4597 22d0 8018     		adds r0, r0, r2  @r
 4598 22d2 C918     		adds r1, r1, r3  @i
 4599 22d4 3618     		adds r6, r6, r0
 4600 22d6 7F18     		adds r7, r7, r1
 4601              	
ARM GAS  1.s 			page 82


 4602 22d8 DD46     		mov sp, r11
 4603 22da 0FBC     		pop {r0-r3}
 4604 22dc EB46     		mov r11, sp
 4605 22de D546     		mov sp, r10
 4606 22e0 10BC     		pop {r4}
 4607 22e2 EA46     		mov r10, sp
 4608 22e4 2546     		mov r5, r4
 4609 22e6 2404     		lsls r4, r4, # 16
 4610 22e8 240C     		lsrs r4, r4, # 16
 4611 22ea 2D0C     		lsrs r5, r5, # 16
 4612 22ec 6043     		muls r0, r0, r4
 4613 22ee 6143     		muls r1, r1, r4
 4614 22f0 6A43     		muls r2, r2, r5
 4615 22f2 6B43     		muls r3, r3, r5
 4616 22f4 8011     		asrs r0, r0, # 6
 4617 22f6 8911     		asrs r1, r1, # 6
 4618 22f8 9211     		asrs r2, r2, # 6
 4619 22fa 9B11     		asrs r3, r3, # 6
 4620 22fc 8018     		adds r0, r0, r2         @r
 4621 22fe C918     		adds r1, r1, r3         @i
 4622 2300 3618     		adds r6, r6, r0
 4623 2302 7F18     		adds r7, r7, r1
 4624              	
 4625              		@8
 4626 2304 DD46     		mov sp, r11
 4627 2306 0FBC     		pop {r0-r3}
 4628 2308 EB46     		mov r11, sp
 4629 230a D546     		mov sp, r10
 4630 230c 10BC     		pop {r4}
 4631 230e EA46     		mov r10, sp
 4632 2310 2546     		mov r5, r4
 4633 2312 2404     		lsls r4, r4, # 16
 4634 2314 240C     		lsrs r4, r4, # 16
 4635 2316 2D0C     		lsrs r5, r5, # 16
 4636 2318 6043     		muls r0, r0, r4		@R
 4637 231a 6143     		muls r1, r1, r4		@I
 4638 231c 6A43     		muls r2, r2, r5		@R
 4639 231e 6B43     		muls r3, r3, r5		@I
 4640 2320 8011     		asrs r0, r0, # 6
 4641 2322 8911     		asrs r1, r1, # 6
 4642 2324 9211     		asrs r2, r2, # 6
 4643 2326 9B11     		asrs r3, r3, # 6
 4644 2328 8018     		adds r0, r0, r2	 @r
 4645 232a C918     		adds r1, r1, r3	 @i
 4646 232c 3618     		adds r6, r6, r0
 4647 232e 7F18     		adds r7, r7, r1
 4648              	
 4649 2330 DD46     		mov sp, r11
 4650 2332 0FBC     		pop {r0-r3}
 4651 2334 EB46     		mov r11, sp
 4652 2336 D546     		mov sp, r10
 4653 2338 10BC     		pop {r4}
 4654 233a EA46     		mov r10, sp
 4655 233c 2546     		mov r5, r4
 4656 233e 2404     		lsls r4, r4, # 16
 4657 2340 240C     		lsrs r4, r4, # 16
 4658 2342 2D0C     		lsrs r5, r5, # 16
ARM GAS  1.s 			page 83


 4659 2344 6043     		muls r0, r0, r4
 4660 2346 6143     		muls r1, r1, r4
 4661 2348 6A43     		muls r2, r2, r5
 4662 234a 6B43     		muls r3, r3, r5
 4663 234c 8011     		asrs r0, r0, # 6
 4664 234e 8911     		asrs r1, r1, # 6
 4665 2350 9211     		asrs r2, r2, # 6
 4666 2352 9B11     		asrs r3, r3, # 6
 4667 2354 8018     		adds r0, r0, r2         @r
 4668 2356 C918     		adds r1, r1, r3         @i
 4669 2358 3618     		adds r6, r6, r0
 4670 235a 7F18     		adds r7, r7, r1
 4671              	
 4672 235c DD46     		mov sp, r11
 4673 235e 0FBC     		pop {r0-r3}
 4674 2360 EB46     		mov r11, sp
 4675 2362 D546     		mov sp, r10
 4676 2364 10BC     		pop {r4}
 4677 2366 EA46     		mov r10, sp
 4678 2368 2546     		mov r5, r4
 4679 236a 2404     		lsls r4, r4, # 16
 4680 236c 240C     		lsrs r4, r4, # 16
 4681 236e 2D0C     		lsrs r5, r5, # 16
 4682 2370 6043     		muls r0, r0, r4
 4683 2372 6143     		muls r1, r1, r4
 4684 2374 6A43     		muls r2, r2, r5
 4685 2376 6B43     		muls r3, r3, r5
 4686 2378 8011     		asrs r0, r0, # 6
 4687 237a 8911     		asrs r1, r1, # 6
 4688 237c 9211     		asrs r2, r2, # 6
 4689 237e 9B11     		asrs r3, r3, # 6
 4690 2380 8018     		adds r0, r0, r2  @r
 4691 2382 C918     		adds r1, r1, r3  @i
 4692 2384 3618     		adds r6, r6, r0
 4693 2386 7F18     		adds r7, r7, r1
 4694              	
 4695 2388 DD46     		mov sp, r11
 4696 238a 0FBC     		pop {r0-r3}
 4697 238c EB46     		mov r11, sp
 4698 238e D546     		mov sp, r10
 4699 2390 10BC     		pop {r4}
 4700 2392 EA46     		mov r10, sp
 4701 2394 2546     		mov r5, r4
 4702 2396 2404     		lsls r4, r4, # 16
 4703 2398 240C     		lsrs r4, r4, # 16
 4704 239a 2D0C     		lsrs r5, r5, # 16
 4705 239c 6043     		muls r0, r0, r4
 4706 239e 6143     		muls r1, r1, r4
 4707 23a0 6A43     		muls r2, r2, r5
 4708 23a2 6B43     		muls r3, r3, r5
 4709 23a4 8011     		asrs r0, r0, # 6
 4710 23a6 8911     		asrs r1, r1, # 6
 4711 23a8 9211     		asrs r2, r2, # 6
 4712 23aa 9B11     		asrs r3, r3, # 6
 4713 23ac 8018     		adds r0, r0, r2         @r
 4714 23ae C918     		adds r1, r1, r3         @i
 4715 23b0 3618     		adds r6, r6, r0
ARM GAS  1.s 			page 84


 4716 23b2 7F18     		adds r7, r7, r1
 4717              	
 4718              		@9
 4719 23b4 DD46     		mov sp, r11
 4720 23b6 0FBC     		pop {r0-r3}
 4721 23b8 EB46     		mov r11, sp
 4722 23ba D546     		mov sp, r10
 4723 23bc 10BC     		pop {r4}
 4724 23be EA46     		mov r10, sp
 4725 23c0 2546     		mov r5, r4
 4726 23c2 2404     		lsls r4, r4, # 16
 4727 23c4 240C     		lsrs r4, r4, # 16
 4728 23c6 2D0C     		lsrs r5, r5, # 16
 4729 23c8 6043     		muls r0, r0, r4		@R
 4730 23ca 6143     		muls r1, r1, r4		@I
 4731 23cc 6A43     		muls r2, r2, r5		@R
 4732 23ce 6B43     		muls r3, r3, r5		@I
 4733 23d0 8011     		asrs r0, r0, # 6
 4734 23d2 8911     		asrs r1, r1, # 6
 4735 23d4 9211     		asrs r2, r2, # 6
 4736 23d6 9B11     		asrs r3, r3, # 6
 4737 23d8 8018     		adds r0, r0, r2	 @r
 4738 23da C918     		adds r1, r1, r3	 @i
 4739 23dc 3618     		adds r6, r6, r0
 4740 23de 7F18     		adds r7, r7, r1
 4741              	
 4742 23e0 DD46     		mov sp, r11
 4743 23e2 0FBC     		pop {r0-r3}
 4744 23e4 EB46     		mov r11, sp
 4745 23e6 D546     		mov sp, r10
 4746 23e8 10BC     		pop {r4}
 4747 23ea EA46     		mov r10, sp
 4748 23ec 2546     		mov r5, r4
 4749 23ee 2404     		lsls r4, r4, # 16
 4750 23f0 240C     		lsrs r4, r4, # 16
 4751 23f2 2D0C     		lsrs r5, r5, # 16
 4752 23f4 6043     		muls r0, r0, r4
 4753 23f6 6143     		muls r1, r1, r4
 4754 23f8 6A43     		muls r2, r2, r5
 4755 23fa 6B43     		muls r3, r3, r5
 4756 23fc 8011     		asrs r0, r0, # 6
 4757 23fe 8911     		asrs r1, r1, # 6
 4758 2400 9211     		asrs r2, r2, # 6
 4759 2402 9B11     		asrs r3, r3, # 6
 4760 2404 8018     		adds r0, r0, r2         @r
 4761 2406 C918     		adds r1, r1, r3         @i
 4762 2408 3618     		adds r6, r6, r0
 4763 240a 7F18     		adds r7, r7, r1
 4764              	
 4765 240c DD46     		mov sp, r11
 4766 240e 0FBC     		pop {r0-r3}
 4767 2410 EB46     		mov r11, sp
 4768 2412 D546     		mov sp, r10
 4769 2414 10BC     		pop {r4}
 4770 2416 EA46     		mov r10, sp
 4771 2418 2546     		mov r5, r4
 4772 241a 2404     		lsls r4, r4, # 16
ARM GAS  1.s 			page 85


 4773 241c 240C     		lsrs r4, r4, # 16
 4774 241e 2D0C     		lsrs r5, r5, # 16
 4775 2420 6043     		muls r0, r0, r4
 4776 2422 6143     		muls r1, r1, r4
 4777 2424 6A43     		muls r2, r2, r5
 4778 2426 6B43     		muls r3, r3, r5
 4779 2428 8011     		asrs r0, r0, # 6
 4780 242a 8911     		asrs r1, r1, # 6
 4781 242c 9211     		asrs r2, r2, # 6
 4782 242e 9B11     		asrs r3, r3, # 6
 4783 2430 8018     		adds r0, r0, r2  @r
 4784 2432 C918     		adds r1, r1, r3  @i
 4785 2434 3618     		adds r6, r6, r0
 4786 2436 7F18     		adds r7, r7, r1
 4787              	
 4788 2438 DD46     		mov sp, r11
 4789 243a 0FBC     		pop {r0-r3}
 4790 243c EB46     		mov r11, sp
 4791 243e D546     		mov sp, r10
 4792 2440 10BC     		pop {r4}
 4793 2442 EA46     		mov r10, sp
 4794 2444 2546     		mov r5, r4
 4795 2446 2404     		lsls r4, r4, # 16
 4796 2448 240C     		lsrs r4, r4, # 16
 4797 244a 2D0C     		lsrs r5, r5, # 16
 4798 244c 6043     		muls r0, r0, r4
 4799 244e 6143     		muls r1, r1, r4
 4800 2450 6A43     		muls r2, r2, r5
 4801 2452 6B43     		muls r3, r3, r5
 4802 2454 8011     		asrs r0, r0, # 6
 4803 2456 8911     		asrs r1, r1, # 6
 4804 2458 9211     		asrs r2, r2, # 6
 4805 245a 9B11     		asrs r3, r3, # 6
 4806 245c 8018     		adds r0, r0, r2         @r
 4807 245e C918     		adds r1, r1, r3         @i
 4808 2460 3618     		adds r6, r6, r0
 4809 2462 7F18     		adds r7, r7, r1
 4810              	
 4811              	@yjm4
 4812              		@0
 4813 2464 DD46     		mov sp, r11
 4814 2466 0FBC     		pop {r0-r3}
 4815 2468 EB46     		mov r11, sp
 4816 246a D546     		mov sp, r10
 4817 246c 10BC     		pop {r4}
 4818 246e EA46     		mov r10, sp
 4819 2470 2546     		mov r5, r4
 4820 2472 2404     		lsls r4, r4, # 16
 4821 2474 240C     		lsrs r4, r4, # 16
 4822 2476 2D0C     		lsrs r5, r5, # 16
 4823 2478 6043     		muls r0, r0, r4		@R
 4824 247a 6143     		muls r1, r1, r4		@I
 4825 247c 6A43     		muls r2, r2, r5		@R
 4826 247e 6B43     		muls r3, r3, r5		@I
 4827 2480 8011     		asrs r0, r0, # 6
 4828 2482 8911     		asrs r1, r1, # 6
 4829 2484 9211     		asrs r2, r2, # 6
ARM GAS  1.s 			page 86


 4830 2486 9B11     		asrs r3, r3, # 6
 4831 2488 8018     		adds r0, r0, r2	 @r
 4832 248a C918     		adds r1, r1, r3	 @i
 4833 248c 3618     		adds r6, r6, r0
 4834 248e 7F18     		adds r7, r7, r1
 4835              	
 4836 2490 DD46     		mov sp, r11
 4837 2492 0FBC     		pop {r0-r3}
 4838 2494 EB46     		mov r11, sp
 4839 2496 D546     		mov sp, r10
 4840 2498 10BC     		pop {r4}
 4841 249a EA46     		mov r10, sp
 4842 249c 2546     		mov r5, r4
 4843 249e 2404     		lsls r4, r4, # 16
 4844 24a0 240C     		lsrs r4, r4, # 16
 4845 24a2 2D0C     		lsrs r5, r5, # 16
 4846 24a4 6043     		muls r0, r0, r4
 4847 24a6 6143     		muls r1, r1, r4
 4848 24a8 6A43     		muls r2, r2, r5
 4849 24aa 6B43     		muls r3, r3, r5
 4850 24ac 8011     		asrs r0, r0, # 6
 4851 24ae 8911     		asrs r1, r1, # 6
 4852 24b0 9211     		asrs r2, r2, # 6
 4853 24b2 9B11     		asrs r3, r3, # 6
 4854 24b4 8018     		adds r0, r0, r2         @r
 4855 24b6 C918     		adds r1, r1, r3         @i
 4856 24b8 3618     		adds r6, r6, r0
 4857 24ba 7F18     		adds r7, r7, r1
 4858              	
 4859 24bc DD46     		mov sp, r11
 4860 24be 0FBC     		pop {r0-r3}
 4861 24c0 EB46     		mov r11, sp
 4862 24c2 D546     		mov sp, r10
 4863 24c4 10BC     		pop {r4}
 4864 24c6 EA46     		mov r10, sp
 4865 24c8 2546     		mov r5, r4
 4866 24ca 2404     		lsls r4, r4, # 16
 4867 24cc 240C     		lsrs r4, r4, # 16
 4868 24ce 2D0C     		lsrs r5, r5, # 16
 4869 24d0 6043     		muls r0, r0, r4
 4870 24d2 6143     		muls r1, r1, r4
 4871 24d4 6A43     		muls r2, r2, r5
 4872 24d6 6B43     		muls r3, r3, r5
 4873 24d8 8011     		asrs r0, r0, # 6
 4874 24da 8911     		asrs r1, r1, # 6
 4875 24dc 9211     		asrs r2, r2, # 6
 4876 24de 9B11     		asrs r3, r3, # 6
 4877 24e0 8018     		adds r0, r0, r2  @r
 4878 24e2 C918     		adds r1, r1, r3  @i
 4879 24e4 3618     		adds r6, r6, r0
 4880 24e6 7F18     		adds r7, r7, r1
 4881              	
 4882 24e8 DD46     		mov sp, r11
 4883 24ea 0FBC     		pop {r0-r3}
 4884 24ec EB46     		mov r11, sp
 4885 24ee D546     		mov sp, r10
 4886 24f0 10BC     		pop {r4}
ARM GAS  1.s 			page 87


 4887 24f2 EA46     		mov r10, sp
 4888 24f4 2546     		mov r5, r4
 4889 24f6 2404     		lsls r4, r4, # 16
 4890 24f8 240C     		lsrs r4, r4, # 16
 4891 24fa 2D0C     		lsrs r5, r5, # 16
 4892 24fc 6043     		muls r0, r0, r4
 4893 24fe 6143     		muls r1, r1, r4
 4894 2500 6A43     		muls r2, r2, r5
 4895 2502 6B43     		muls r3, r3, r5
 4896 2504 8011     		asrs r0, r0, # 6
 4897 2506 8911     		asrs r1, r1, # 6
 4898 2508 9211     		asrs r2, r2, # 6
 4899 250a 9B11     		asrs r3, r3, # 6
 4900 250c 8018     		adds r0, r0, r2         @r
 4901 250e C918     		adds r1, r1, r3         @i
 4902 2510 3618     		adds r6, r6, r0
 4903 2512 7F18     		adds r7, r7, r1
 4904              	
 4905              		@1
 4906 2514 DD46     		mov sp, r11
 4907 2516 0FBC     		pop {r0-r3}
 4908 2518 EB46     		mov r11, sp
 4909 251a D546     		mov sp, r10
 4910 251c 10BC     		pop {r4}
 4911 251e EA46     		mov r10, sp
 4912 2520 2546     		mov r5, r4
 4913 2522 2404     		lsls r4, r4, # 16
 4914 2524 240C     		lsrs r4, r4, # 16
 4915 2526 2D0C     		lsrs r5, r5, # 16
 4916 2528 6043     		muls r0, r0, r4		@R
 4917 252a 6143     		muls r1, r1, r4		@I
 4918 252c 6A43     		muls r2, r2, r5		@R
 4919 252e 6B43     		muls r3, r3, r5		@I
 4920 2530 8011     		asrs r0, r0, # 6
 4921 2532 8911     		asrs r1, r1, # 6
 4922 2534 9211     		asrs r2, r2, # 6
 4923 2536 9B11     		asrs r3, r3, # 6
 4924 2538 8018     		adds r0, r0, r2	 @r
 4925 253a C918     		adds r1, r1, r3	 @i
 4926 253c 3618     		adds r6, r6, r0
 4927 253e 7F18     		adds r7, r7, r1
 4928              	
 4929 2540 DD46     		mov sp, r11
 4930 2542 0FBC     		pop {r0-r3}
 4931 2544 EB46     		mov r11, sp
 4932 2546 D546     		mov sp, r10
 4933 2548 10BC     		pop {r4}
 4934 254a EA46     		mov r10, sp
 4935 254c 2546     		mov r5, r4
 4936 254e 2404     		lsls r4, r4, # 16
 4937 2550 240C     		lsrs r4, r4, # 16
 4938 2552 2D0C     		lsrs r5, r5, # 16
 4939 2554 6043     		muls r0, r0, r4
 4940 2556 6143     		muls r1, r1, r4
 4941 2558 6A43     		muls r2, r2, r5
 4942 255a 6B43     		muls r3, r3, r5
 4943 255c 8011     		asrs r0, r0, # 6
ARM GAS  1.s 			page 88


 4944 255e 8911     		asrs r1, r1, # 6
 4945 2560 9211     		asrs r2, r2, # 6
 4946 2562 9B11     		asrs r3, r3, # 6
 4947 2564 8018     		adds r0, r0, r2         @r
 4948 2566 C918     		adds r1, r1, r3         @i
 4949 2568 3618     		adds r6, r6, r0
 4950 256a 7F18     		adds r7, r7, r1
 4951              	
 4952 256c DD46     		mov sp, r11
 4953 256e 0FBC     		pop {r0-r3}
 4954 2570 EB46     		mov r11, sp
 4955 2572 D546     		mov sp, r10
 4956 2574 10BC     		pop {r4}
 4957 2576 EA46     		mov r10, sp
 4958 2578 2546     		mov r5, r4
 4959 257a 2404     		lsls r4, r4, # 16
 4960 257c 240C     		lsrs r4, r4, # 16
 4961 257e 2D0C     		lsrs r5, r5, # 16
 4962 2580 6043     		muls r0, r0, r4
 4963 2582 6143     		muls r1, r1, r4
 4964 2584 6A43     		muls r2, r2, r5
 4965 2586 6B43     		muls r3, r3, r5
 4966 2588 8011     		asrs r0, r0, # 6
 4967 258a 8911     		asrs r1, r1, # 6
 4968 258c 9211     		asrs r2, r2, # 6
 4969 258e 9B11     		asrs r3, r3, # 6
 4970 2590 8018     		adds r0, r0, r2  @r
 4971 2592 C918     		adds r1, r1, r3  @i
 4972 2594 3618     		adds r6, r6, r0
 4973 2596 7F18     		adds r7, r7, r1
 4974              	
 4975 2598 DD46     		mov sp, r11
 4976 259a 0FBC     		pop {r0-r3}
 4977 259c EB46     		mov r11, sp
 4978 259e D546     		mov sp, r10
 4979 25a0 10BC     		pop {r4}
 4980 25a2 EA46     		mov r10, sp
 4981 25a4 2546     		mov r5, r4
 4982 25a6 2404     		lsls r4, r4, # 16
 4983 25a8 240C     		lsrs r4, r4, # 16
 4984 25aa 2D0C     		lsrs r5, r5, # 16
 4985 25ac 6043     		muls r0, r0, r4
 4986 25ae 6143     		muls r1, r1, r4
 4987 25b0 6A43     		muls r2, r2, r5
 4988 25b2 6B43     		muls r3, r3, r5
 4989 25b4 8011     		asrs r0, r0, # 6
 4990 25b6 8911     		asrs r1, r1, # 6
 4991 25b8 9211     		asrs r2, r2, # 6
 4992 25ba 9B11     		asrs r3, r3, # 6
 4993 25bc 8018     		adds r0, r0, r2         @r
 4994 25be C918     		adds r1, r1, r3         @i
 4995 25c0 3618     		adds r6, r6, r0
 4996 25c2 7F18     		adds r7, r7, r1
 4997              	
 4998              		@2
 4999 25c4 DD46     		mov sp, r11
 5000 25c6 0FBC     		pop {r0-r3}
ARM GAS  1.s 			page 89


 5001 25c8 EB46     		mov r11, sp
 5002 25ca D546     		mov sp, r10
 5003 25cc 10BC     		pop {r4}
 5004 25ce EA46     		mov r10, sp
 5005 25d0 2546     		mov r5, r4
 5006 25d2 2404     		lsls r4, r4, # 16
 5007 25d4 240C     		lsrs r4, r4, # 16
 5008 25d6 2D0C     		lsrs r5, r5, # 16
 5009 25d8 6043     		muls r0, r0, r4		@R
 5010 25da 6143     		muls r1, r1, r4		@I
 5011 25dc 6A43     		muls r2, r2, r5		@R
 5012 25de 6B43     		muls r3, r3, r5		@I
 5013 25e0 8011     		asrs r0, r0, # 6
 5014 25e2 8911     		asrs r1, r1, # 6
 5015 25e4 9211     		asrs r2, r2, # 6
 5016 25e6 9B11     		asrs r3, r3, # 6
 5017 25e8 8018     		adds r0, r0, r2	 @r
 5018 25ea C918     		adds r1, r1, r3	 @i
 5019 25ec 3618     		adds r6, r6, r0
 5020 25ee 7F18     		adds r7, r7, r1
 5021              	
 5022 25f0 DD46     		mov sp, r11
 5023 25f2 0FBC     		pop {r0-r3}
 5024 25f4 EB46     		mov r11, sp
 5025 25f6 D546     		mov sp, r10
 5026 25f8 10BC     		pop {r4}
 5027 25fa EA46     		mov r10, sp
 5028 25fc 2546     		mov r5, r4
 5029 25fe 2404     		lsls r4, r4, # 16
 5030 2600 240C     		lsrs r4, r4, # 16
 5031 2602 2D0C     		lsrs r5, r5, # 16
 5032 2604 6043     		muls r0, r0, r4
 5033 2606 6143     		muls r1, r1, r4
 5034 2608 6A43     		muls r2, r2, r5
 5035 260a 6B43     		muls r3, r3, r5
 5036 260c 8011     		asrs r0, r0, # 6
 5037 260e 8911     		asrs r1, r1, # 6
 5038 2610 9211     		asrs r2, r2, # 6
 5039 2612 9B11     		asrs r3, r3, # 6
 5040 2614 8018     		adds r0, r0, r2         @r
 5041 2616 C918     		adds r1, r1, r3         @i
 5042 2618 3618     		adds r6, r6, r0
 5043 261a 7F18     		adds r7, r7, r1
 5044              	
 5045 261c DD46     		mov sp, r11
 5046 261e 0FBC     		pop {r0-r3}
 5047 2620 EB46     		mov r11, sp
 5048 2622 D546     		mov sp, r10
 5049 2624 10BC     		pop {r4}
 5050 2626 EA46     		mov r10, sp
 5051 2628 2546     		mov r5, r4
 5052 262a 2404     		lsls r4, r4, # 16
 5053 262c 240C     		lsrs r4, r4, # 16
 5054 262e 2D0C     		lsrs r5, r5, # 16
 5055 2630 6043     		muls r0, r0, r4
 5056 2632 6143     		muls r1, r1, r4
 5057 2634 6A43     		muls r2, r2, r5
ARM GAS  1.s 			page 90


 5058 2636 6B43     		muls r3, r3, r5
 5059 2638 8011     		asrs r0, r0, # 6
 5060 263a 8911     		asrs r1, r1, # 6
 5061 263c 9211     		asrs r2, r2, # 6
 5062 263e 9B11     		asrs r3, r3, # 6
 5063 2640 8018     		adds r0, r0, r2  @r
 5064 2642 C918     		adds r1, r1, r3  @i
 5065 2644 3618     		adds r6, r6, r0
 5066 2646 7F18     		adds r7, r7, r1
 5067              	
 5068 2648 DD46     		mov sp, r11
 5069 264a 0FBC     		pop {r0-r3}
 5070 264c EB46     		mov r11, sp
 5071 264e D546     		mov sp, r10
 5072 2650 10BC     		pop {r4}
 5073 2652 EA46     		mov r10, sp
 5074 2654 2546     		mov r5, r4
 5075 2656 2404     		lsls r4, r4, # 16
 5076 2658 240C     		lsrs r4, r4, # 16
 5077 265a 2D0C     		lsrs r5, r5, # 16
 5078 265c 6043     		muls r0, r0, r4
 5079 265e 6143     		muls r1, r1, r4
 5080 2660 6A43     		muls r2, r2, r5
 5081 2662 6B43     		muls r3, r3, r5
 5082 2664 8011     		asrs r0, r0, # 6
 5083 2666 8911     		asrs r1, r1, # 6
 5084 2668 9211     		asrs r2, r2, # 6
 5085 266a 9B11     		asrs r3, r3, # 6
 5086 266c 8018     		adds r0, r0, r2         @r
 5087 266e C918     		adds r1, r1, r3         @i
 5088 2670 3618     		adds r6, r6, r0
 5089 2672 7F18     		adds r7, r7, r1
 5090              	
 5091              		@3
 5092 2674 DD46     		mov sp, r11
 5093 2676 0FBC     		pop {r0-r3}
 5094 2678 EB46     		mov r11, sp
 5095 267a D546     		mov sp, r10
 5096 267c 10BC     		pop {r4}
 5097 267e EA46     		mov r10, sp
 5098 2680 2546     		mov r5, r4
 5099 2682 2404     		lsls r4, r4, # 16
 5100 2684 240C     		lsrs r4, r4, # 16
 5101 2686 2D0C     		lsrs r5, r5, # 16
 5102 2688 6043     		muls r0, r0, r4		@R
 5103 268a 6143     		muls r1, r1, r4		@I
 5104 268c 6A43     		muls r2, r2, r5		@R
 5105 268e 6B43     		muls r3, r3, r5		@I
 5106 2690 8011     		asrs r0, r0, # 6
 5107 2692 8911     		asrs r1, r1, # 6
 5108 2694 9211     		asrs r2, r2, # 6
 5109 2696 9B11     		asrs r3, r3, # 6
 5110 2698 8018     		adds r0, r0, r2	 @r
 5111 269a C918     		adds r1, r1, r3	 @i
 5112 269c 3618     		adds r6, r6, r0
 5113 269e 7F18     		adds r7, r7, r1
 5114              	
ARM GAS  1.s 			page 91


 5115 26a0 DD46     		mov sp, r11
 5116 26a2 0FBC     		pop {r0-r3}
 5117 26a4 EB46     		mov r11, sp
 5118 26a6 D546     		mov sp, r10
 5119 26a8 10BC     		pop {r4}
 5120 26aa EA46     		mov r10, sp
 5121 26ac 2546     		mov r5, r4
 5122 26ae 2404     		lsls r4, r4, # 16
 5123 26b0 240C     		lsrs r4, r4, # 16
 5124 26b2 2D0C     		lsrs r5, r5, # 16
 5125 26b4 6043     		muls r0, r0, r4
 5126 26b6 6143     		muls r1, r1, r4
 5127 26b8 6A43     		muls r2, r2, r5
 5128 26ba 6B43     		muls r3, r3, r5
 5129 26bc 8011     		asrs r0, r0, # 6
 5130 26be 8911     		asrs r1, r1, # 6
 5131 26c0 9211     		asrs r2, r2, # 6
 5132 26c2 9B11     		asrs r3, r3, # 6
 5133 26c4 8018     		adds r0, r0, r2         @r
 5134 26c6 C918     		adds r1, r1, r3         @i
 5135 26c8 3618     		adds r6, r6, r0
 5136 26ca 7F18     		adds r7, r7, r1
 5137              	
 5138 26cc DD46     		mov sp, r11
 5139 26ce 0FBC     		pop {r0-r3}
 5140 26d0 EB46     		mov r11, sp
 5141 26d2 D546     		mov sp, r10
 5142 26d4 10BC     		pop {r4}
 5143 26d6 EA46     		mov r10, sp
 5144 26d8 2546     		mov r5, r4
 5145 26da 2404     		lsls r4, r4, # 16
 5146 26dc 240C     		lsrs r4, r4, # 16
 5147 26de 2D0C     		lsrs r5, r5, # 16
 5148 26e0 6043     		muls r0, r0, r4
 5149 26e2 6143     		muls r1, r1, r4
 5150 26e4 6A43     		muls r2, r2, r5
 5151 26e6 6B43     		muls r3, r3, r5
 5152 26e8 8011     		asrs r0, r0, # 6
 5153 26ea 8911     		asrs r1, r1, # 6
 5154 26ec 9211     		asrs r2, r2, # 6
 5155 26ee 9B11     		asrs r3, r3, # 6
 5156 26f0 8018     		adds r0, r0, r2  @r
 5157 26f2 C918     		adds r1, r1, r3  @i
 5158 26f4 3618     		adds r6, r6, r0
 5159 26f6 7F18     		adds r7, r7, r1
 5160              	
 5161 26f8 DD46     		mov sp, r11
 5162 26fa 0FBC     		pop {r0-r3}
 5163 26fc EB46     		mov r11, sp
 5164 26fe D546     		mov sp, r10
 5165 2700 10BC     		pop {r4}
 5166 2702 EA46     		mov r10, sp
 5167 2704 2546     		mov r5, r4
 5168 2706 2404     		lsls r4, r4, # 16
 5169 2708 240C     		lsrs r4, r4, # 16
 5170 270a 2D0C     		lsrs r5, r5, # 16
 5171 270c 6043     		muls r0, r0, r4
ARM GAS  1.s 			page 92


 5172 270e 6143     		muls r1, r1, r4
 5173 2710 6A43     		muls r2, r2, r5
 5174 2712 6B43     		muls r3, r3, r5
 5175 2714 8011     		asrs r0, r0, # 6
 5176 2716 8911     		asrs r1, r1, # 6
 5177 2718 9211     		asrs r2, r2, # 6
 5178 271a 9B11     		asrs r3, r3, # 6
 5179 271c 8018     		adds r0, r0, r2         @r
 5180 271e C918     		adds r1, r1, r3         @i
 5181 2720 3618     		adds r6, r6, r0
 5182 2722 7F18     		adds r7, r7, r1
 5183              	
 5184              		@4
 5185 2724 DD46     		mov sp, r11
 5186 2726 0FBC     		pop {r0-r3}
 5187 2728 EB46     		mov r11, sp
 5188 272a D546     		mov sp, r10
 5189 272c 10BC     		pop {r4}
 5190 272e EA46     		mov r10, sp
 5191 2730 2546     		mov r5, r4
 5192 2732 2404     		lsls r4, r4, # 16
 5193 2734 240C     		lsrs r4, r4, # 16
 5194 2736 2D0C     		lsrs r5, r5, # 16
 5195 2738 6043     		muls r0, r0, r4		@R
 5196 273a 6143     		muls r1, r1, r4		@I
 5197 273c 6A43     		muls r2, r2, r5		@R
 5198 273e 6B43     		muls r3, r3, r5		@I
 5199 2740 8011     		asrs r0, r0, # 6
 5200 2742 8911     		asrs r1, r1, # 6
 5201 2744 9211     		asrs r2, r2, # 6
 5202 2746 9B11     		asrs r3, r3, # 6
 5203 2748 8018     		adds r0, r0, r2	 @r
 5204 274a C918     		adds r1, r1, r3	 @i
 5205 274c 3618     		adds r6, r6, r0
 5206 274e 7F18     		adds r7, r7, r1
 5207              	
 5208 2750 DD46     		mov sp, r11
 5209 2752 0FBC     		pop {r0-r3}
 5210 2754 EB46     		mov r11, sp
 5211 2756 D546     		mov sp, r10
 5212 2758 10BC     		pop {r4}
 5213 275a EA46     		mov r10, sp
 5214 275c 2546     		mov r5, r4
 5215 275e 2404     		lsls r4, r4, # 16
 5216 2760 240C     		lsrs r4, r4, # 16
 5217 2762 2D0C     		lsrs r5, r5, # 16
 5218 2764 6043     		muls r0, r0, r4
 5219 2766 6143     		muls r1, r1, r4
 5220 2768 6A43     		muls r2, r2, r5
 5221 276a 6B43     		muls r3, r3, r5
 5222 276c 8011     		asrs r0, r0, # 6
 5223 276e 8911     		asrs r1, r1, # 6
 5224 2770 9211     		asrs r2, r2, # 6
 5225 2772 9B11     		asrs r3, r3, # 6
 5226 2774 8018     		adds r0, r0, r2         @r
 5227 2776 C918     		adds r1, r1, r3         @i
 5228 2778 3618     		adds r6, r6, r0
ARM GAS  1.s 			page 93


 5229 277a 7F18     		adds r7, r7, r1
 5230              	
 5231 277c DD46     		mov sp, r11
 5232 277e 0FBC     		pop {r0-r3}
 5233 2780 EB46     		mov r11, sp
 5234 2782 D546     		mov sp, r10
 5235 2784 10BC     		pop {r4}
 5236 2786 EA46     		mov r10, sp
 5237 2788 2546     		mov r5, r4
 5238 278a 2404     		lsls r4, r4, # 16
 5239 278c 240C     		lsrs r4, r4, # 16
 5240 278e 2D0C     		lsrs r5, r5, # 16
 5241 2790 6043     		muls r0, r0, r4
 5242 2792 6143     		muls r1, r1, r4
 5243 2794 6A43     		muls r2, r2, r5
 5244 2796 6B43     		muls r3, r3, r5
 5245 2798 8011     		asrs r0, r0, # 6
 5246 279a 8911     		asrs r1, r1, # 6
 5247 279c 9211     		asrs r2, r2, # 6
 5248 279e 9B11     		asrs r3, r3, # 6
 5249 27a0 8018     		adds r0, r0, r2  @r
 5250 27a2 C918     		adds r1, r1, r3  @i
 5251 27a4 3618     		adds r6, r6, r0
 5252 27a6 7F18     		adds r7, r7, r1
 5253              	
 5254 27a8 DD46     		mov sp, r11
 5255 27aa 0FBC     		pop {r0-r3}
 5256 27ac EB46     		mov r11, sp
 5257 27ae D546     		mov sp, r10
 5258 27b0 10BC     		pop {r4}
 5259 27b2 EA46     		mov r10, sp
 5260 27b4 2546     		mov r5, r4
 5261 27b6 2404     		lsls r4, r4, # 16
 5262 27b8 240C     		lsrs r4, r4, # 16
 5263 27ba 2D0C     		lsrs r5, r5, # 16
 5264 27bc 6043     		muls r0, r0, r4
 5265 27be 6143     		muls r1, r1, r4
 5266 27c0 6A43     		muls r2, r2, r5
 5267 27c2 6B43     		muls r3, r3, r5
 5268 27c4 8011     		asrs r0, r0, # 6
 5269 27c6 8911     		asrs r1, r1, # 6
 5270 27c8 9211     		asrs r2, r2, # 6
 5271 27ca 9B11     		asrs r3, r3, # 6
 5272 27cc 8018     		adds r0, r0, r2         @r
 5273 27ce C918     		adds r1, r1, r3         @i
 5274 27d0 3618     		adds r6, r6, r0
 5275 27d2 7F18     		adds r7, r7, r1
 5276              	
 5277              		@5
 5278 27d4 DD46     		mov sp, r11
 5279 27d6 0FBC     		pop {r0-r3}
 5280 27d8 EB46     		mov r11, sp
 5281 27da D546     		mov sp, r10
 5282 27dc 10BC     		pop {r4}
 5283 27de EA46     		mov r10, sp
 5284 27e0 2546     		mov r5, r4
 5285 27e2 2404     		lsls r4, r4, # 16
ARM GAS  1.s 			page 94


 5286 27e4 240C     		lsrs r4, r4, # 16
 5287 27e6 2D0C     		lsrs r5, r5, # 16
 5288 27e8 6043     		muls r0, r0, r4		@R
 5289 27ea 6143     		muls r1, r1, r4		@I
 5290 27ec 6A43     		muls r2, r2, r5		@R
 5291 27ee 6B43     		muls r3, r3, r5		@I
 5292 27f0 8011     		asrs r0, r0, # 6
 5293 27f2 8911     		asrs r1, r1, # 6
 5294 27f4 9211     		asrs r2, r2, # 6
 5295 27f6 9B11     		asrs r3, r3, # 6
 5296 27f8 8018     		adds r0, r0, r2	 @r
 5297 27fa C918     		adds r1, r1, r3	 @i
 5298 27fc 3618     		adds r6, r6, r0
 5299 27fe 7F18     		adds r7, r7, r1
 5300              	
 5301 2800 DD46     		mov sp, r11
 5302 2802 0FBC     		pop {r0-r3}
 5303 2804 EB46     		mov r11, sp
 5304 2806 D546     		mov sp, r10
 5305 2808 10BC     		pop {r4}
 5306 280a EA46     		mov r10, sp
 5307 280c 2546     		mov r5, r4
 5308 280e 2404     		lsls r4, r4, # 16
 5309 2810 240C     		lsrs r4, r4, # 16
 5310 2812 2D0C     		lsrs r5, r5, # 16
 5311 2814 6043     		muls r0, r0, r4
 5312 2816 6143     		muls r1, r1, r4
 5313 2818 6A43     		muls r2, r2, r5
 5314 281a 6B43     		muls r3, r3, r5
 5315 281c 8011     		asrs r0, r0, # 6
 5316 281e 8911     		asrs r1, r1, # 6
 5317 2820 9211     		asrs r2, r2, # 6
 5318 2822 9B11     		asrs r3, r3, # 6
 5319 2824 8018     		adds r0, r0, r2         @r
 5320 2826 C918     		adds r1, r1, r3         @i
 5321 2828 3618     		adds r6, r6, r0
 5322 282a 7F18     		adds r7, r7, r1
 5323              	
 5324 282c DD46     		mov sp, r11
 5325 282e 0FBC     		pop {r0-r3}
 5326 2830 EB46     		mov r11, sp
 5327 2832 D546     		mov sp, r10
 5328 2834 10BC     		pop {r4}
 5329 2836 EA46     		mov r10, sp
 5330 2838 2546     		mov r5, r4
 5331 283a 2404     		lsls r4, r4, # 16
 5332 283c 240C     		lsrs r4, r4, # 16
 5333 283e 2D0C     		lsrs r5, r5, # 16
 5334 2840 6043     		muls r0, r0, r4
 5335 2842 6143     		muls r1, r1, r4
 5336 2844 6A43     		muls r2, r2, r5
 5337 2846 6B43     		muls r3, r3, r5
 5338 2848 8011     		asrs r0, r0, # 6
 5339 284a 8911     		asrs r1, r1, # 6
 5340 284c 9211     		asrs r2, r2, # 6
 5341 284e 9B11     		asrs r3, r3, # 6
 5342 2850 8018     		adds r0, r0, r2  @r
ARM GAS  1.s 			page 95


 5343 2852 C918     		adds r1, r1, r3  @i
 5344 2854 3618     		adds r6, r6, r0
 5345 2856 7F18     		adds r7, r7, r1
 5346              	
 5347 2858 DD46     		mov sp, r11
 5348 285a 0FBC     		pop {r0-r3}
 5349 285c EB46     		mov r11, sp
 5350 285e D546     		mov sp, r10
 5351 2860 10BC     		pop {r4}
 5352 2862 EA46     		mov r10, sp
 5353 2864 2546     		mov r5, r4
 5354 2866 2404     		lsls r4, r4, # 16
 5355 2868 240C     		lsrs r4, r4, # 16
 5356 286a 2D0C     		lsrs r5, r5, # 16
 5357 286c 6043     		muls r0, r0, r4
 5358 286e 6143     		muls r1, r1, r4
 5359 2870 6A43     		muls r2, r2, r5
 5360 2872 6B43     		muls r3, r3, r5
 5361 2874 8011     		asrs r0, r0, # 6
 5362 2876 8911     		asrs r1, r1, # 6
 5363 2878 9211     		asrs r2, r2, # 6
 5364 287a 9B11     		asrs r3, r3, # 6
 5365 287c 8018     		adds r0, r0, r2         @r
 5366 287e C918     		adds r1, r1, r3         @i
 5367 2880 3618     		adds r6, r6, r0
 5368 2882 7F18     		adds r7, r7, r1
 5369              	
 5370              		@6
 5371 2884 DD46     		mov sp, r11
 5372 2886 0FBC     		pop {r0-r3}
 5373 2888 EB46     		mov r11, sp
 5374 288a D546     		mov sp, r10
 5375 288c 10BC     		pop {r4}
 5376 288e EA46     		mov r10, sp
 5377 2890 2546     		mov r5, r4
 5378 2892 2404     		lsls r4, r4, # 16
 5379 2894 240C     		lsrs r4, r4, # 16
 5380 2896 2D0C     		lsrs r5, r5, # 16
 5381 2898 6043     		muls r0, r0, r4		@R
 5382 289a 6143     		muls r1, r1, r4		@I
 5383 289c 6A43     		muls r2, r2, r5		@R
 5384 289e 6B43     		muls r3, r3, r5		@I
 5385 28a0 8011     		asrs r0, r0, # 6
 5386 28a2 8911     		asrs r1, r1, # 6
 5387 28a4 9211     		asrs r2, r2, # 6
 5388 28a6 9B11     		asrs r3, r3, # 6
 5389 28a8 8018     		adds r0, r0, r2	 @r
 5390 28aa C918     		adds r1, r1, r3	 @i
 5391 28ac 3618     		adds r6, r6, r0
 5392 28ae 7F18     		adds r7, r7, r1
 5393              	
 5394 28b0 DD46     		mov sp, r11
 5395 28b2 0FBC     		pop {r0-r3}
 5396 28b4 EB46     		mov r11, sp
 5397 28b6 D546     		mov sp, r10
 5398 28b8 10BC     		pop {r4}
 5399 28ba EA46     		mov r10, sp
ARM GAS  1.s 			page 96


 5400 28bc 2546     		mov r5, r4
 5401 28be 2404     		lsls r4, r4, # 16
 5402 28c0 240C     		lsrs r4, r4, # 16
 5403 28c2 2D0C     		lsrs r5, r5, # 16
 5404 28c4 6043     		muls r0, r0, r4
 5405 28c6 6143     		muls r1, r1, r4
 5406 28c8 6A43     		muls r2, r2, r5
 5407 28ca 6B43     		muls r3, r3, r5
 5408 28cc 8011     		asrs r0, r0, # 6
 5409 28ce 8911     		asrs r1, r1, # 6
 5410 28d0 9211     		asrs r2, r2, # 6
 5411 28d2 9B11     		asrs r3, r3, # 6
 5412 28d4 8018     		adds r0, r0, r2         @r
 5413 28d6 C918     		adds r1, r1, r3         @i
 5414 28d8 3618     		adds r6, r6, r0
 5415 28da 7F18     		adds r7, r7, r1
 5416              	
 5417 28dc DD46     		mov sp, r11
 5418 28de 0FBC     		pop {r0-r3}
 5419 28e0 EB46     		mov r11, sp
 5420 28e2 D546     		mov sp, r10
 5421 28e4 10BC     		pop {r4}
 5422 28e6 EA46     		mov r10, sp
 5423 28e8 2546     		mov r5, r4
 5424 28ea 2404     		lsls r4, r4, # 16
 5425 28ec 240C     		lsrs r4, r4, # 16
 5426 28ee 2D0C     		lsrs r5, r5, # 16
 5427 28f0 6043     		muls r0, r0, r4
 5428 28f2 6143     		muls r1, r1, r4
 5429 28f4 6A43     		muls r2, r2, r5
 5430 28f6 6B43     		muls r3, r3, r5
 5431 28f8 8011     		asrs r0, r0, # 6
 5432 28fa 8911     		asrs r1, r1, # 6
 5433 28fc 9211     		asrs r2, r2, # 6
 5434 28fe 9B11     		asrs r3, r3, # 6
 5435 2900 8018     		adds r0, r0, r2  @r
 5436 2902 C918     		adds r1, r1, r3  @i
 5437 2904 3618     		adds r6, r6, r0
 5438 2906 7F18     		adds r7, r7, r1
 5439              	
 5440 2908 DD46     		mov sp, r11
 5441 290a 0FBC     		pop {r0-r3}
 5442 290c EB46     		mov r11, sp
 5443 290e D546     		mov sp, r10
 5444 2910 10BC     		pop {r4}
 5445 2912 EA46     		mov r10, sp
 5446 2914 2546     		mov r5, r4
 5447 2916 2404     		lsls r4, r4, # 16
 5448 2918 240C     		lsrs r4, r4, # 16
 5449 291a 2D0C     		lsrs r5, r5, # 16
 5450 291c 6043     		muls r0, r0, r4
 5451 291e 6143     		muls r1, r1, r4
 5452 2920 6A43     		muls r2, r2, r5
 5453 2922 6B43     		muls r3, r3, r5
 5454 2924 8011     		asrs r0, r0, # 6
 5455 2926 8911     		asrs r1, r1, # 6
 5456 2928 9211     		asrs r2, r2, # 6
ARM GAS  1.s 			page 97


 5457 292a 9B11     		asrs r3, r3, # 6
 5458 292c 8018     		adds r0, r0, r2         @r
 5459 292e C918     		adds r1, r1, r3         @i
 5460 2930 3618     		adds r6, r6, r0
 5461 2932 7F18     		adds r7, r7, r1
 5462              	
 5463              		@7
 5464 2934 DD46     		mov sp, r11
 5465 2936 0FBC     		pop {r0-r3}
 5466 2938 EB46     		mov r11, sp
 5467 293a D546     		mov sp, r10
 5468 293c 10BC     		pop {r4}
 5469 293e EA46     		mov r10, sp
 5470 2940 2546     		mov r5, r4
 5471 2942 2404     		lsls r4, r4, # 16
 5472 2944 240C     		lsrs r4, r4, # 16
 5473 2946 2D0C     		lsrs r5, r5, # 16
 5474 2948 6043     		muls r0, r0, r4		@R
 5475 294a 6143     		muls r1, r1, r4		@I
 5476 294c 6A43     		muls r2, r2, r5		@R
 5477 294e 6B43     		muls r3, r3, r5		@I
 5478 2950 8011     		asrs r0, r0, # 6
 5479 2952 8911     		asrs r1, r1, # 6
 5480 2954 9211     		asrs r2, r2, # 6
 5481 2956 9B11     		asrs r3, r3, # 6
 5482 2958 8018     		adds r0, r0, r2	 @r
 5483 295a C918     		adds r1, r1, r3	 @i
 5484 295c 3618     		adds r6, r6, r0
 5485 295e 7F18     		adds r7, r7, r1
 5486              	
 5487 2960 DD46     		mov sp, r11
 5488 2962 0FBC     		pop {r0-r3}
 5489 2964 EB46     		mov r11, sp
 5490 2966 D546     		mov sp, r10
 5491 2968 10BC     		pop {r4}
 5492 296a EA46     		mov r10, sp
 5493 296c 2546     		mov r5, r4
 5494 296e 2404     		lsls r4, r4, # 16
 5495 2970 240C     		lsrs r4, r4, # 16
 5496 2972 2D0C     		lsrs r5, r5, # 16
 5497 2974 6043     		muls r0, r0, r4
 5498 2976 6143     		muls r1, r1, r4
 5499 2978 6A43     		muls r2, r2, r5
 5500 297a 6B43     		muls r3, r3, r5
 5501 297c 8011     		asrs r0, r0, # 6
 5502 297e 8911     		asrs r1, r1, # 6
 5503 2980 9211     		asrs r2, r2, # 6
 5504 2982 9B11     		asrs r3, r3, # 6
 5505 2984 8018     		adds r0, r0, r2         @r
 5506 2986 C918     		adds r1, r1, r3         @i
 5507 2988 3618     		adds r6, r6, r0
 5508 298a 7F18     		adds r7, r7, r1
 5509              	
 5510 298c DD46     		mov sp, r11
 5511 298e 0FBC     		pop {r0-r3}
 5512 2990 EB46     		mov r11, sp
 5513 2992 D546     		mov sp, r10
ARM GAS  1.s 			page 98


 5514 2994 10BC     		pop {r4}
 5515 2996 EA46     		mov r10, sp
 5516 2998 2546     		mov r5, r4
 5517 299a 2404     		lsls r4, r4, # 16
 5518 299c 240C     		lsrs r4, r4, # 16
 5519 299e 2D0C     		lsrs r5, r5, # 16
 5520 29a0 6043     		muls r0, r0, r4
 5521 29a2 6143     		muls r1, r1, r4
 5522 29a4 6A43     		muls r2, r2, r5
 5523 29a6 6B43     		muls r3, r3, r5
 5524 29a8 8011     		asrs r0, r0, # 6
 5525 29aa 8911     		asrs r1, r1, # 6
 5526 29ac 9211     		asrs r2, r2, # 6
 5527 29ae 9B11     		asrs r3, r3, # 6
 5528 29b0 8018     		adds r0, r0, r2  @r
 5529 29b2 C918     		adds r1, r1, r3  @i
 5530 29b4 3618     		adds r6, r6, r0
 5531 29b6 7F18     		adds r7, r7, r1
 5532              	
 5533 29b8 DD46     		mov sp, r11
 5534 29ba 0FBC     		pop {r0-r3}
 5535 29bc EB46     		mov r11, sp
 5536 29be D546     		mov sp, r10
 5537 29c0 10BC     		pop {r4}
 5538 29c2 EA46     		mov r10, sp
 5539 29c4 2546     		mov r5, r4
 5540 29c6 2404     		lsls r4, r4, # 16
 5541 29c8 240C     		lsrs r4, r4, # 16
 5542 29ca 2D0C     		lsrs r5, r5, # 16
 5543 29cc 6043     		muls r0, r0, r4
 5544 29ce 6143     		muls r1, r1, r4
 5545 29d0 6A43     		muls r2, r2, r5
 5546 29d2 6B43     		muls r3, r3, r5
 5547 29d4 8011     		asrs r0, r0, # 6
 5548 29d6 8911     		asrs r1, r1, # 6
 5549 29d8 9211     		asrs r2, r2, # 6
 5550 29da 9B11     		asrs r3, r3, # 6
 5551 29dc 8018     		adds r0, r0, r2         @r
 5552 29de C918     		adds r1, r1, r3         @i
 5553 29e0 3618     		adds r6, r6, r0
 5554 29e2 7F18     		adds r7, r7, r1
 5555              	
 5556              		@8
 5557 29e4 DD46     		mov sp, r11
 5558 29e6 0FBC     		pop {r0-r3}
 5559 29e8 EB46     		mov r11, sp
 5560 29ea D546     		mov sp, r10
 5561 29ec 10BC     		pop {r4}
 5562 29ee EA46     		mov r10, sp
 5563 29f0 2546     		mov r5, r4
 5564 29f2 2404     		lsls r4, r4, # 16
 5565 29f4 240C     		lsrs r4, r4, # 16
 5566 29f6 2D0C     		lsrs r5, r5, # 16
 5567 29f8 6043     		muls r0, r0, r4		@R
 5568 29fa 6143     		muls r1, r1, r4		@I
 5569 29fc 6A43     		muls r2, r2, r5		@R
 5570 29fe 6B43     		muls r3, r3, r5		@I
ARM GAS  1.s 			page 99


 5571 2a00 8011     		asrs r0, r0, # 6
 5572 2a02 8911     		asrs r1, r1, # 6
 5573 2a04 9211     		asrs r2, r2, # 6
 5574 2a06 9B11     		asrs r3, r3, # 6
 5575 2a08 8018     		adds r0, r0, r2	 @r
 5576 2a0a C918     		adds r1, r1, r3	 @i
 5577 2a0c 3618     		adds r6, r6, r0
 5578 2a0e 7F18     		adds r7, r7, r1
 5579              	
 5580 2a10 DD46     		mov sp, r11
 5581 2a12 0FBC     		pop {r0-r3}
 5582 2a14 EB46     		mov r11, sp
 5583 2a16 D546     		mov sp, r10
 5584 2a18 10BC     		pop {r4}
 5585 2a1a EA46     		mov r10, sp
 5586 2a1c 2546     		mov r5, r4
 5587 2a1e 2404     		lsls r4, r4, # 16
 5588 2a20 240C     		lsrs r4, r4, # 16
 5589 2a22 2D0C     		lsrs r5, r5, # 16
 5590 2a24 6043     		muls r0, r0, r4
 5591 2a26 6143     		muls r1, r1, r4
 5592 2a28 6A43     		muls r2, r2, r5
 5593 2a2a 6B43     		muls r3, r3, r5
 5594 2a2c 8011     		asrs r0, r0, # 6
 5595 2a2e 8911     		asrs r1, r1, # 6
 5596 2a30 9211     		asrs r2, r2, # 6
 5597 2a32 9B11     		asrs r3, r3, # 6
 5598 2a34 8018     		adds r0, r0, r2         @r
 5599 2a36 C918     		adds r1, r1, r3         @i
 5600 2a38 3618     		adds r6, r6, r0
 5601 2a3a 7F18     		adds r7, r7, r1
 5602              	
 5603 2a3c DD46     		mov sp, r11
 5604 2a3e 0FBC     		pop {r0-r3}
 5605 2a40 EB46     		mov r11, sp
 5606 2a42 D546     		mov sp, r10
 5607 2a44 10BC     		pop {r4}
 5608 2a46 EA46     		mov r10, sp
 5609 2a48 2546     		mov r5, r4
 5610 2a4a 2404     		lsls r4, r4, # 16
 5611 2a4c 240C     		lsrs r4, r4, # 16
 5612 2a4e 2D0C     		lsrs r5, r5, # 16
 5613 2a50 6043     		muls r0, r0, r4
 5614 2a52 6143     		muls r1, r1, r4
 5615 2a54 6A43     		muls r2, r2, r5
 5616 2a56 6B43     		muls r3, r3, r5
 5617 2a58 8011     		asrs r0, r0, # 6
 5618 2a5a 8911     		asrs r1, r1, # 6
 5619 2a5c 9211     		asrs r2, r2, # 6
 5620 2a5e 9B11     		asrs r3, r3, # 6
 5621 2a60 8018     		adds r0, r0, r2  @r
 5622 2a62 C918     		adds r1, r1, r3  @i
 5623 2a64 3618     		adds r6, r6, r0
 5624 2a66 7F18     		adds r7, r7, r1
 5625              	
 5626 2a68 DD46     		mov sp, r11
 5627 2a6a 0FBC     		pop {r0-r3}
ARM GAS  1.s 			page 100


 5628 2a6c EB46     		mov r11, sp
 5629 2a6e D546     		mov sp, r10
 5630 2a70 10BC     		pop {r4}
 5631 2a72 EA46     		mov r10, sp
 5632 2a74 2546     		mov r5, r4
 5633 2a76 2404     		lsls r4, r4, # 16
 5634 2a78 240C     		lsrs r4, r4, # 16
 5635 2a7a 2D0C     		lsrs r5, r5, # 16
 5636 2a7c 6043     		muls r0, r0, r4
 5637 2a7e 6143     		muls r1, r1, r4
 5638 2a80 6A43     		muls r2, r2, r5
 5639 2a82 6B43     		muls r3, r3, r5
 5640 2a84 8011     		asrs r0, r0, # 6
 5641 2a86 8911     		asrs r1, r1, # 6
 5642 2a88 9211     		asrs r2, r2, # 6
 5643 2a8a 9B11     		asrs r3, r3, # 6
 5644 2a8c 8018     		adds r0, r0, r2         @r
 5645 2a8e C918     		adds r1, r1, r3         @i
 5646 2a90 3618     		adds r6, r6, r0
 5647 2a92 7F18     		adds r7, r7, r1
 5648              	
 5649              		@9
 5650 2a94 DD46     		mov sp, r11
 5651 2a96 0FBC     		pop {r0-r3}
 5652 2a98 EB46     		mov r11, sp
 5653 2a9a D546     		mov sp, r10
 5654 2a9c 10BC     		pop {r4}
 5655 2a9e EA46     		mov r10, sp
 5656 2aa0 2546     		mov r5, r4
 5657 2aa2 2404     		lsls r4, r4, # 16
 5658 2aa4 240C     		lsrs r4, r4, # 16
 5659 2aa6 2D0C     		lsrs r5, r5, # 16
 5660 2aa8 6043     		muls r0, r0, r4		@R
 5661 2aaa 6143     		muls r1, r1, r4		@I
 5662 2aac 6A43     		muls r2, r2, r5		@R
 5663 2aae 6B43     		muls r3, r3, r5		@I
 5664 2ab0 8011     		asrs r0, r0, # 6
 5665 2ab2 8911     		asrs r1, r1, # 6
 5666 2ab4 9211     		asrs r2, r2, # 6
 5667 2ab6 9B11     		asrs r3, r3, # 6
 5668 2ab8 8018     		adds r0, r0, r2	 @r
 5669 2aba C918     		adds r1, r1, r3	 @i
 5670 2abc 3618     		adds r6, r6, r0
 5671 2abe 7F18     		adds r7, r7, r1
 5672              	
 5673 2ac0 DD46     		mov sp, r11
 5674 2ac2 0FBC     		pop {r0-r3}
 5675 2ac4 EB46     		mov r11, sp
 5676 2ac6 D546     		mov sp, r10
 5677 2ac8 10BC     		pop {r4}
 5678 2aca EA46     		mov r10, sp
 5679 2acc 2546     		mov r5, r4
 5680 2ace 2404     		lsls r4, r4, # 16
 5681 2ad0 240C     		lsrs r4, r4, # 16
 5682 2ad2 2D0C     		lsrs r5, r5, # 16
 5683 2ad4 6043     		muls r0, r0, r4
 5684 2ad6 6143     		muls r1, r1, r4
ARM GAS  1.s 			page 101


 5685 2ad8 6A43     		muls r2, r2, r5
 5686 2ada 6B43     		muls r3, r3, r5
 5687 2adc 8011     		asrs r0, r0, # 6
 5688 2ade 8911     		asrs r1, r1, # 6
 5689 2ae0 9211     		asrs r2, r2, # 6
 5690 2ae2 9B11     		asrs r3, r3, # 6
 5691 2ae4 8018     		adds r0, r0, r2         @r
 5692 2ae6 C918     		adds r1, r1, r3         @i
 5693 2ae8 3618     		adds r6, r6, r0
 5694 2aea 7F18     		adds r7, r7, r1
 5695              	
 5696 2aec DD46     		mov sp, r11
 5697 2aee 0FBC     		pop {r0-r3}
 5698 2af0 EB46     		mov r11, sp
 5699 2af2 D546     		mov sp, r10
 5700 2af4 10BC     		pop {r4}
 5701 2af6 EA46     		mov r10, sp
 5702 2af8 2546     		mov r5, r4
 5703 2afa 2404     		lsls r4, r4, # 16
 5704 2afc 240C     		lsrs r4, r4, # 16
 5705 2afe 2D0C     		lsrs r5, r5, # 16
 5706 2b00 6043     		muls r0, r0, r4
 5707 2b02 6143     		muls r1, r1, r4
 5708 2b04 6A43     		muls r2, r2, r5
 5709 2b06 6B43     		muls r3, r3, r5
 5710 2b08 8011     		asrs r0, r0, # 6
 5711 2b0a 8911     		asrs r1, r1, # 6
 5712 2b0c 9211     		asrs r2, r2, # 6
 5713 2b0e 9B11     		asrs r3, r3, # 6
 5714 2b10 8018     		adds r0, r0, r2  @r
 5715 2b12 C918     		adds r1, r1, r3  @i
 5716 2b14 3618     		adds r6, r6, r0
 5717 2b16 7F18     		adds r7, r7, r1
 5718              	
 5719 2b18 DD46     		mov sp, r11
 5720 2b1a 0FBC     		pop {r0-r3}
 5721 2b1c EB46     		mov r11, sp
 5722 2b1e D546     		mov sp, r10
 5723 2b20 10BC     		pop {r4}
 5724 2b22 EA46     		mov r10, sp
 5725 2b24 2546     		mov r5, r4
 5726 2b26 2404     		lsls r4, r4, # 16
 5727 2b28 240C     		lsrs r4, r4, # 16
 5728 2b2a 2D0C     		lsrs r5, r5, # 16
 5729 2b2c 6043     		muls r0, r0, r4
 5730 2b2e 6143     		muls r1, r1, r4
 5731 2b30 6A43     		muls r2, r2, r5
 5732 2b32 6B43     		muls r3, r3, r5
 5733 2b34 8011     		asrs r0, r0, # 6
 5734 2b36 8911     		asrs r1, r1, # 6
 5735 2b38 9211     		asrs r2, r2, # 6
 5736 2b3a 9B11     		asrs r3, r3, # 6
 5737 2b3c 8018     		adds r0, r0, r2         @r
 5738 2b3e C918     		adds r1, r1, r3         @i
 5739 2b40 3618     		adds r6, r6, r0
 5740 2b42 7F18     		adds r7, r7, r1
 5741              	
ARM GAS  1.s 			page 102


 5742              	@yjm5
 5743              		@0
 5744 2b44 DD46     		mov sp, r11
 5745 2b46 0FBC     		pop {r0-r3}
 5746 2b48 EB46     		mov r11, sp
 5747 2b4a D546     		mov sp, r10
 5748 2b4c 10BC     		pop {r4}
 5749 2b4e EA46     		mov r10, sp
 5750 2b50 2546     		mov r5, r4
 5751 2b52 2404     		lsls r4, r4, # 16
 5752 2b54 240C     		lsrs r4, r4, # 16
 5753 2b56 2D0C     		lsrs r5, r5, # 16
 5754 2b58 6043     		muls r0, r0, r4		@R
 5755 2b5a 6143     		muls r1, r1, r4		@I
 5756 2b5c 6A43     		muls r2, r2, r5		@R
 5757 2b5e 6B43     		muls r3, r3, r5		@I
 5758 2b60 8011     		asrs r0, r0, # 6
 5759 2b62 8911     		asrs r1, r1, # 6
 5760 2b64 9211     		asrs r2, r2, # 6
 5761 2b66 9B11     		asrs r3, r3, # 6
 5762 2b68 8018     		adds r0, r0, r2	 @r
 5763 2b6a C918     		adds r1, r1, r3	 @i
 5764 2b6c 3618     		adds r6, r6, r0
 5765 2b6e 7F18     		adds r7, r7, r1
 5766              	
 5767 2b70 DD46     		mov sp, r11
 5768 2b72 0FBC     		pop {r0-r3}
 5769 2b74 EB46     		mov r11, sp
 5770 2b76 D546     		mov sp, r10
 5771 2b78 10BC     		pop {r4}
 5772 2b7a EA46     		mov r10, sp
 5773 2b7c 2546     		mov r5, r4
 5774 2b7e 2404     		lsls r4, r4, # 16
 5775 2b80 240C     		lsrs r4, r4, # 16
 5776 2b82 2D0C     		lsrs r5, r5, # 16
 5777 2b84 6043     		muls r0, r0, r4
 5778 2b86 6143     		muls r1, r1, r4
 5779 2b88 6A43     		muls r2, r2, r5
 5780 2b8a 6B43     		muls r3, r3, r5
 5781 2b8c 8011     		asrs r0, r0, # 6
 5782 2b8e 8911     		asrs r1, r1, # 6
 5783 2b90 9211     		asrs r2, r2, # 6
 5784 2b92 9B11     		asrs r3, r3, # 6
 5785 2b94 8018     		adds r0, r0, r2         @r
 5786 2b96 C918     		adds r1, r1, r3         @i
 5787 2b98 3618     		adds r6, r6, r0
 5788 2b9a 7F18     		adds r7, r7, r1
 5789              	
 5790 2b9c DD46     		mov sp, r11
 5791 2b9e 0FBC     		pop {r0-r3}
 5792 2ba0 EB46     		mov r11, sp
 5793 2ba2 D546     		mov sp, r10
 5794 2ba4 10BC     		pop {r4}
 5795 2ba6 EA46     		mov r10, sp
 5796 2ba8 2546     		mov r5, r4
 5797 2baa 2404     		lsls r4, r4, # 16
 5798 2bac 240C     		lsrs r4, r4, # 16
ARM GAS  1.s 			page 103


 5799 2bae 2D0C     		lsrs r5, r5, # 16
 5800 2bb0 6043     		muls r0, r0, r4
 5801 2bb2 6143     		muls r1, r1, r4
 5802 2bb4 6A43     		muls r2, r2, r5
 5803 2bb6 6B43     		muls r3, r3, r5
 5804 2bb8 8011     		asrs r0, r0, # 6
 5805 2bba 8911     		asrs r1, r1, # 6
 5806 2bbc 9211     		asrs r2, r2, # 6
 5807 2bbe 9B11     		asrs r3, r3, # 6
 5808 2bc0 8018     		adds r0, r0, r2  @r
 5809 2bc2 C918     		adds r1, r1, r3  @i
 5810 2bc4 3618     		adds r6, r6, r0
 5811 2bc6 7F18     		adds r7, r7, r1
 5812              	
 5813 2bc8 DD46     		mov sp, r11
 5814 2bca 0FBC     		pop {r0-r3}
 5815 2bcc EB46     		mov r11, sp
 5816 2bce D546     		mov sp, r10
 5817 2bd0 10BC     		pop {r4}
 5818 2bd2 EA46     		mov r10, sp
 5819 2bd4 2546     		mov r5, r4
 5820 2bd6 2404     		lsls r4, r4, # 16
 5821 2bd8 240C     		lsrs r4, r4, # 16
 5822 2bda 2D0C     		lsrs r5, r5, # 16
 5823 2bdc 6043     		muls r0, r0, r4
 5824 2bde 6143     		muls r1, r1, r4
 5825 2be0 6A43     		muls r2, r2, r5
 5826 2be2 6B43     		muls r3, r3, r5
 5827 2be4 8011     		asrs r0, r0, # 6
 5828 2be6 8911     		asrs r1, r1, # 6
 5829 2be8 9211     		asrs r2, r2, # 6
 5830 2bea 9B11     		asrs r3, r3, # 6
 5831 2bec 8018     		adds r0, r0, r2         @r
 5832 2bee C918     		adds r1, r1, r3         @i
 5833 2bf0 3618     		adds r6, r6, r0
 5834 2bf2 7F18     		adds r7, r7, r1
 5835              	
 5836              		@1
 5837 2bf4 DD46     		mov sp, r11
 5838 2bf6 0FBC     		pop {r0-r3}
 5839 2bf8 EB46     		mov r11, sp
 5840 2bfa D546     		mov sp, r10
 5841 2bfc 10BC     		pop {r4}
 5842 2bfe EA46     		mov r10, sp
 5843 2c00 2546     		mov r5, r4
 5844 2c02 2404     		lsls r4, r4, # 16
 5845 2c04 240C     		lsrs r4, r4, # 16
 5846 2c06 2D0C     		lsrs r5, r5, # 16
 5847 2c08 6043     		muls r0, r0, r4		@R
 5848 2c0a 6143     		muls r1, r1, r4		@I
 5849 2c0c 6A43     		muls r2, r2, r5		@R
 5850 2c0e 6B43     		muls r3, r3, r5		@I
 5851 2c10 8011     		asrs r0, r0, # 6
 5852 2c12 8911     		asrs r1, r1, # 6
 5853 2c14 9211     		asrs r2, r2, # 6
 5854 2c16 9B11     		asrs r3, r3, # 6
 5855 2c18 8018     		adds r0, r0, r2	 @r
ARM GAS  1.s 			page 104


 5856 2c1a C918     		adds r1, r1, r3	 @i
 5857 2c1c 3618     		adds r6, r6, r0
 5858 2c1e 7F18     		adds r7, r7, r1
 5859              	
 5860 2c20 DD46     		mov sp, r11
 5861 2c22 0FBC     		pop {r0-r3}
 5862 2c24 EB46     		mov r11, sp
 5863 2c26 D546     		mov sp, r10
 5864 2c28 10BC     		pop {r4}
 5865 2c2a EA46     		mov r10, sp
 5866 2c2c 2546     		mov r5, r4
 5867 2c2e 2404     		lsls r4, r4, # 16
 5868 2c30 240C     		lsrs r4, r4, # 16
 5869 2c32 2D0C     		lsrs r5, r5, # 16
 5870 2c34 6043     		muls r0, r0, r4
 5871 2c36 6143     		muls r1, r1, r4
 5872 2c38 6A43     		muls r2, r2, r5
 5873 2c3a 6B43     		muls r3, r3, r5
 5874 2c3c 8011     		asrs r0, r0, # 6
 5875 2c3e 8911     		asrs r1, r1, # 6
 5876 2c40 9211     		asrs r2, r2, # 6
 5877 2c42 9B11     		asrs r3, r3, # 6
 5878 2c44 8018     		adds r0, r0, r2         @r
 5879 2c46 C918     		adds r1, r1, r3         @i
 5880 2c48 3618     		adds r6, r6, r0
 5881 2c4a 7F18     		adds r7, r7, r1
 5882              	
 5883 2c4c DD46     		mov sp, r11
 5884 2c4e 0FBC     		pop {r0-r3}
 5885 2c50 EB46     		mov r11, sp
 5886 2c52 D546     		mov sp, r10
 5887 2c54 10BC     		pop {r4}
 5888 2c56 EA46     		mov r10, sp
 5889 2c58 2546     		mov r5, r4
 5890 2c5a 2404     		lsls r4, r4, # 16
 5891 2c5c 240C     		lsrs r4, r4, # 16
 5892 2c5e 2D0C     		lsrs r5, r5, # 16
 5893 2c60 6043     		muls r0, r0, r4
 5894 2c62 6143     		muls r1, r1, r4
 5895 2c64 6A43     		muls r2, r2, r5
 5896 2c66 6B43     		muls r3, r3, r5
 5897 2c68 8011     		asrs r0, r0, # 6
 5898 2c6a 8911     		asrs r1, r1, # 6
 5899 2c6c 9211     		asrs r2, r2, # 6
 5900 2c6e 9B11     		asrs r3, r3, # 6
 5901 2c70 8018     		adds r0, r0, r2  @r
 5902 2c72 C918     		adds r1, r1, r3  @i
 5903 2c74 3618     		adds r6, r6, r0
 5904 2c76 7F18     		adds r7, r7, r1
 5905              	
 5906 2c78 DD46     		mov sp, r11
 5907 2c7a 0FBC     		pop {r0-r3}
 5908 2c7c EB46     		mov r11, sp
 5909 2c7e D546     		mov sp, r10
 5910 2c80 10BC     		pop {r4}
 5911 2c82 EA46     		mov r10, sp
 5912 2c84 2546     		mov r5, r4
ARM GAS  1.s 			page 105


 5913 2c86 2404     		lsls r4, r4, # 16
 5914 2c88 240C     		lsrs r4, r4, # 16
 5915 2c8a 2D0C     		lsrs r5, r5, # 16
 5916 2c8c 6043     		muls r0, r0, r4
 5917 2c8e 6143     		muls r1, r1, r4
 5918 2c90 6A43     		muls r2, r2, r5
 5919 2c92 6B43     		muls r3, r3, r5
 5920 2c94 8011     		asrs r0, r0, # 6
 5921 2c96 8911     		asrs r1, r1, # 6
 5922 2c98 9211     		asrs r2, r2, # 6
 5923 2c9a 9B11     		asrs r3, r3, # 6
 5924 2c9c 8018     		adds r0, r0, r2         @r
 5925 2c9e C918     		adds r1, r1, r3         @i
 5926 2ca0 3618     		adds r6, r6, r0
 5927 2ca2 7F18     		adds r7, r7, r1
 5928              	
 5929              		@2
 5930 2ca4 DD46     		mov sp, r11
 5931 2ca6 0FBC     		pop {r0-r3}
 5932 2ca8 EB46     		mov r11, sp
 5933 2caa D546     		mov sp, r10
 5934 2cac 10BC     		pop {r4}
 5935 2cae EA46     		mov r10, sp
 5936 2cb0 2546     		mov r5, r4
 5937 2cb2 2404     		lsls r4, r4, # 16
 5938 2cb4 240C     		lsrs r4, r4, # 16
 5939 2cb6 2D0C     		lsrs r5, r5, # 16
 5940 2cb8 6043     		muls r0, r0, r4		@R
 5941 2cba 6143     		muls r1, r1, r4		@I
 5942 2cbc 6A43     		muls r2, r2, r5		@R
 5943 2cbe 6B43     		muls r3, r3, r5		@I
 5944 2cc0 8011     		asrs r0, r0, # 6
 5945 2cc2 8911     		asrs r1, r1, # 6
 5946 2cc4 9211     		asrs r2, r2, # 6
 5947 2cc6 9B11     		asrs r3, r3, # 6
 5948 2cc8 8018     		adds r0, r0, r2	 @r
 5949 2cca C918     		adds r1, r1, r3	 @i
 5950 2ccc 3618     		adds r6, r6, r0
 5951 2cce 7F18     		adds r7, r7, r1
 5952              	
 5953 2cd0 DD46     		mov sp, r11
 5954 2cd2 0FBC     		pop {r0-r3}
 5955 2cd4 EB46     		mov r11, sp
 5956 2cd6 D546     		mov sp, r10
 5957 2cd8 10BC     		pop {r4}
 5958 2cda EA46     		mov r10, sp
 5959 2cdc 2546     		mov r5, r4
 5960 2cde 2404     		lsls r4, r4, # 16
 5961 2ce0 240C     		lsrs r4, r4, # 16
 5962 2ce2 2D0C     		lsrs r5, r5, # 16
 5963 2ce4 6043     		muls r0, r0, r4
 5964 2ce6 6143     		muls r1, r1, r4
 5965 2ce8 6A43     		muls r2, r2, r5
 5966 2cea 6B43     		muls r3, r3, r5
 5967 2cec 8011     		asrs r0, r0, # 6
 5968 2cee 8911     		asrs r1, r1, # 6
 5969 2cf0 9211     		asrs r2, r2, # 6
ARM GAS  1.s 			page 106


 5970 2cf2 9B11     		asrs r3, r3, # 6
 5971 2cf4 8018     		adds r0, r0, r2         @r
 5972 2cf6 C918     		adds r1, r1, r3         @i
 5973 2cf8 3618     		adds r6, r6, r0
 5974 2cfa 7F18     		adds r7, r7, r1
 5975              	
 5976 2cfc DD46     		mov sp, r11
 5977 2cfe 0FBC     		pop {r0-r3}
 5978 2d00 EB46     		mov r11, sp
 5979 2d02 D546     		mov sp, r10
 5980 2d04 10BC     		pop {r4}
 5981 2d06 EA46     		mov r10, sp
 5982 2d08 2546     		mov r5, r4
 5983 2d0a 2404     		lsls r4, r4, # 16
 5984 2d0c 240C     		lsrs r4, r4, # 16
 5985 2d0e 2D0C     		lsrs r5, r5, # 16
 5986 2d10 6043     		muls r0, r0, r4
 5987 2d12 6143     		muls r1, r1, r4
 5988 2d14 6A43     		muls r2, r2, r5
 5989 2d16 6B43     		muls r3, r3, r5
 5990 2d18 8011     		asrs r0, r0, # 6
 5991 2d1a 8911     		asrs r1, r1, # 6
 5992 2d1c 9211     		asrs r2, r2, # 6
 5993 2d1e 9B11     		asrs r3, r3, # 6
 5994 2d20 8018     		adds r0, r0, r2  @r
 5995 2d22 C918     		adds r1, r1, r3  @i
 5996 2d24 3618     		adds r6, r6, r0
 5997 2d26 7F18     		adds r7, r7, r1
 5998              	
 5999 2d28 DD46     		mov sp, r11
 6000 2d2a 0FBC     		pop {r0-r3}
 6001 2d2c EB46     		mov r11, sp
 6002 2d2e D546     		mov sp, r10
 6003 2d30 10BC     		pop {r4}
 6004 2d32 EA46     		mov r10, sp
 6005 2d34 2546     		mov r5, r4
 6006 2d36 2404     		lsls r4, r4, # 16
 6007 2d38 240C     		lsrs r4, r4, # 16
 6008 2d3a 2D0C     		lsrs r5, r5, # 16
 6009 2d3c 6043     		muls r0, r0, r4
 6010 2d3e 6143     		muls r1, r1, r4
 6011 2d40 6A43     		muls r2, r2, r5
 6012 2d42 6B43     		muls r3, r3, r5
 6013 2d44 8011     		asrs r0, r0, # 6
 6014 2d46 8911     		asrs r1, r1, # 6
 6015 2d48 9211     		asrs r2, r2, # 6
 6016 2d4a 9B11     		asrs r3, r3, # 6
 6017 2d4c 8018     		adds r0, r0, r2         @r
 6018 2d4e C918     		adds r1, r1, r3         @i
 6019 2d50 3618     		adds r6, r6, r0
 6020 2d52 7F18     		adds r7, r7, r1
 6021              	
 6022              		@3
 6023 2d54 DD46     		mov sp, r11
 6024 2d56 0FBC     		pop {r0-r3}
 6025 2d58 EB46     		mov r11, sp
 6026 2d5a D546     		mov sp, r10
ARM GAS  1.s 			page 107


 6027 2d5c 10BC     		pop {r4}
 6028 2d5e EA46     		mov r10, sp
 6029 2d60 2546     		mov r5, r4
 6030 2d62 2404     		lsls r4, r4, # 16
 6031 2d64 240C     		lsrs r4, r4, # 16
 6032 2d66 2D0C     		lsrs r5, r5, # 16
 6033 2d68 6043     		muls r0, r0, r4		@R
 6034 2d6a 6143     		muls r1, r1, r4		@I
 6035 2d6c 6A43     		muls r2, r2, r5		@R
 6036 2d6e 6B43     		muls r3, r3, r5		@I
 6037 2d70 8011     		asrs r0, r0, # 6
 6038 2d72 8911     		asrs r1, r1, # 6
 6039 2d74 9211     		asrs r2, r2, # 6
 6040 2d76 9B11     		asrs r3, r3, # 6
 6041 2d78 8018     		adds r0, r0, r2	 @r
 6042 2d7a C918     		adds r1, r1, r3	 @i
 6043 2d7c 3618     		adds r6, r6, r0
 6044 2d7e 7F18     		adds r7, r7, r1
 6045              	
 6046 2d80 DD46     		mov sp, r11
 6047 2d82 0FBC     		pop {r0-r3}
 6048 2d84 EB46     		mov r11, sp
 6049 2d86 D546     		mov sp, r10
 6050 2d88 10BC     		pop {r4}
 6051 2d8a EA46     		mov r10, sp
 6052 2d8c 2546     		mov r5, r4
 6053 2d8e 2404     		lsls r4, r4, # 16
 6054 2d90 240C     		lsrs r4, r4, # 16
 6055 2d92 2D0C     		lsrs r5, r5, # 16
 6056 2d94 6043     		muls r0, r0, r4
 6057 2d96 6143     		muls r1, r1, r4
 6058 2d98 6A43     		muls r2, r2, r5
 6059 2d9a 6B43     		muls r3, r3, r5
 6060 2d9c 8011     		asrs r0, r0, # 6
 6061 2d9e 8911     		asrs r1, r1, # 6
 6062 2da0 9211     		asrs r2, r2, # 6
 6063 2da2 9B11     		asrs r3, r3, # 6
 6064 2da4 8018     		adds r0, r0, r2         @r
 6065 2da6 C918     		adds r1, r1, r3         @i
 6066 2da8 3618     		adds r6, r6, r0
 6067 2daa 7F18     		adds r7, r7, r1
 6068              	
 6069 2dac DD46     		mov sp, r11
 6070 2dae 0FBC     		pop {r0-r3}
 6071 2db0 EB46     		mov r11, sp
 6072 2db2 D546     		mov sp, r10
 6073 2db4 10BC     		pop {r4}
 6074 2db6 EA46     		mov r10, sp
 6075 2db8 2546     		mov r5, r4
 6076 2dba 2404     		lsls r4, r4, # 16
 6077 2dbc 240C     		lsrs r4, r4, # 16
 6078 2dbe 2D0C     		lsrs r5, r5, # 16
 6079 2dc0 6043     		muls r0, r0, r4
 6080 2dc2 6143     		muls r1, r1, r4
 6081 2dc4 6A43     		muls r2, r2, r5
 6082 2dc6 6B43     		muls r3, r3, r5
 6083 2dc8 8011     		asrs r0, r0, # 6
ARM GAS  1.s 			page 108


 6084 2dca 8911     		asrs r1, r1, # 6
 6085 2dcc 9211     		asrs r2, r2, # 6
 6086 2dce 9B11     		asrs r3, r3, # 6
 6087 2dd0 8018     		adds r0, r0, r2  @r
 6088 2dd2 C918     		adds r1, r1, r3  @i
 6089 2dd4 3618     		adds r6, r6, r0
 6090 2dd6 7F18     		adds r7, r7, r1
 6091              	
 6092 2dd8 DD46     		mov sp, r11
 6093 2dda 0FBC     		pop {r0-r3}
 6094 2ddc EB46     		mov r11, sp
 6095 2dde D546     		mov sp, r10
 6096 2de0 10BC     		pop {r4}
 6097 2de2 EA46     		mov r10, sp
 6098 2de4 2546     		mov r5, r4
 6099 2de6 2404     		lsls r4, r4, # 16
 6100 2de8 240C     		lsrs r4, r4, # 16
 6101 2dea 2D0C     		lsrs r5, r5, # 16
 6102 2dec 6043     		muls r0, r0, r4
 6103 2dee 6143     		muls r1, r1, r4
 6104 2df0 6A43     		muls r2, r2, r5
 6105 2df2 6B43     		muls r3, r3, r5
 6106 2df4 8011     		asrs r0, r0, # 6
 6107 2df6 8911     		asrs r1, r1, # 6
 6108 2df8 9211     		asrs r2, r2, # 6
 6109 2dfa 9B11     		asrs r3, r3, # 6
 6110 2dfc 8018     		adds r0, r0, r2         @r
 6111 2dfe C918     		adds r1, r1, r3         @i
 6112 2e00 3618     		adds r6, r6, r0
 6113 2e02 7F18     		adds r7, r7, r1
 6114              	
 6115              		@4
 6116 2e04 DD46     		mov sp, r11
 6117 2e06 0FBC     		pop {r0-r3}
 6118 2e08 EB46     		mov r11, sp
 6119 2e0a D546     		mov sp, r10
 6120 2e0c 10BC     		pop {r4}
 6121 2e0e EA46     		mov r10, sp
 6122 2e10 2546     		mov r5, r4
 6123 2e12 2404     		lsls r4, r4, # 16
 6124 2e14 240C     		lsrs r4, r4, # 16
 6125 2e16 2D0C     		lsrs r5, r5, # 16
 6126 2e18 6043     		muls r0, r0, r4		@R
 6127 2e1a 6143     		muls r1, r1, r4		@I
 6128 2e1c 6A43     		muls r2, r2, r5		@R
 6129 2e1e 6B43     		muls r3, r3, r5		@I
 6130 2e20 8011     		asrs r0, r0, # 6
 6131 2e22 8911     		asrs r1, r1, # 6
 6132 2e24 9211     		asrs r2, r2, # 6
 6133 2e26 9B11     		asrs r3, r3, # 6
 6134 2e28 8018     		adds r0, r0, r2	 @r
 6135 2e2a C918     		adds r1, r1, r3	 @i
 6136 2e2c 3618     		adds r6, r6, r0
 6137 2e2e 7F18     		adds r7, r7, r1
 6138              	
 6139 2e30 DD46     		mov sp, r11
 6140 2e32 0FBC     		pop {r0-r3}
ARM GAS  1.s 			page 109


 6141 2e34 EB46     		mov r11, sp
 6142 2e36 D546     		mov sp, r10
 6143 2e38 10BC     		pop {r4}
 6144 2e3a EA46     		mov r10, sp
 6145 2e3c 2546     		mov r5, r4
 6146 2e3e 2404     		lsls r4, r4, # 16
 6147 2e40 240C     		lsrs r4, r4, # 16
 6148 2e42 2D0C     		lsrs r5, r5, # 16
 6149 2e44 6043     		muls r0, r0, r4
 6150 2e46 6143     		muls r1, r1, r4
 6151 2e48 6A43     		muls r2, r2, r5
 6152 2e4a 6B43     		muls r3, r3, r5
 6153 2e4c 8011     		asrs r0, r0, # 6
 6154 2e4e 8911     		asrs r1, r1, # 6
 6155 2e50 9211     		asrs r2, r2, # 6
 6156 2e52 9B11     		asrs r3, r3, # 6
 6157 2e54 8018     		adds r0, r0, r2         @r
 6158 2e56 C918     		adds r1, r1, r3         @i
 6159 2e58 3618     		adds r6, r6, r0
 6160 2e5a 7F18     		adds r7, r7, r1
 6161              	
 6162 2e5c DD46     		mov sp, r11
 6163 2e5e 0FBC     		pop {r0-r3}
 6164 2e60 EB46     		mov r11, sp
 6165 2e62 D546     		mov sp, r10
 6166 2e64 10BC     		pop {r4}
 6167 2e66 EA46     		mov r10, sp
 6168 2e68 2546     		mov r5, r4
 6169 2e6a 2404     		lsls r4, r4, # 16
 6170 2e6c 240C     		lsrs r4, r4, # 16
 6171 2e6e 2D0C     		lsrs r5, r5, # 16
 6172 2e70 6043     		muls r0, r0, r4
 6173 2e72 6143     		muls r1, r1, r4
 6174 2e74 6A43     		muls r2, r2, r5
 6175 2e76 6B43     		muls r3, r3, r5
 6176 2e78 8011     		asrs r0, r0, # 6
 6177 2e7a 8911     		asrs r1, r1, # 6
 6178 2e7c 9211     		asrs r2, r2, # 6
 6179 2e7e 9B11     		asrs r3, r3, # 6
 6180 2e80 8018     		adds r0, r0, r2  @r
 6181 2e82 C918     		adds r1, r1, r3  @i
 6182 2e84 3618     		adds r6, r6, r0
 6183 2e86 7F18     		adds r7, r7, r1
 6184              	
 6185 2e88 DD46     		mov sp, r11
 6186 2e8a 0FBC     		pop {r0-r3}
 6187 2e8c EB46     		mov r11, sp
 6188 2e8e D546     		mov sp, r10
 6189 2e90 10BC     		pop {r4}
 6190 2e92 EA46     		mov r10, sp
 6191 2e94 2546     		mov r5, r4
 6192 2e96 2404     		lsls r4, r4, # 16
 6193 2e98 240C     		lsrs r4, r4, # 16
 6194 2e9a 2D0C     		lsrs r5, r5, # 16
 6195 2e9c 6043     		muls r0, r0, r4
 6196 2e9e 6143     		muls r1, r1, r4
 6197 2ea0 6A43     		muls r2, r2, r5
ARM GAS  1.s 			page 110


 6198 2ea2 6B43     		muls r3, r3, r5
 6199 2ea4 8011     		asrs r0, r0, # 6
 6200 2ea6 8911     		asrs r1, r1, # 6
 6201 2ea8 9211     		asrs r2, r2, # 6
 6202 2eaa 9B11     		asrs r3, r3, # 6
 6203 2eac 8018     		adds r0, r0, r2         @r
 6204 2eae C918     		adds r1, r1, r3         @i
 6205 2eb0 3618     		adds r6, r6, r0
 6206 2eb2 7F18     		adds r7, r7, r1
 6207              	
 6208              		@5
 6209 2eb4 DD46     		mov sp, r11
 6210 2eb6 0FBC     		pop {r0-r3}
 6211 2eb8 EB46     		mov r11, sp
 6212 2eba D546     		mov sp, r10
 6213 2ebc 10BC     		pop {r4}
 6214 2ebe EA46     		mov r10, sp
 6215 2ec0 2546     		mov r5, r4
 6216 2ec2 2404     		lsls r4, r4, # 16
 6217 2ec4 240C     		lsrs r4, r4, # 16
 6218 2ec6 2D0C     		lsrs r5, r5, # 16
 6219 2ec8 6043     		muls r0, r0, r4		@R
 6220 2eca 6143     		muls r1, r1, r4		@I
 6221 2ecc 6A43     		muls r2, r2, r5		@R
 6222 2ece 6B43     		muls r3, r3, r5		@I
 6223 2ed0 8011     		asrs r0, r0, # 6
 6224 2ed2 8911     		asrs r1, r1, # 6
 6225 2ed4 9211     		asrs r2, r2, # 6
 6226 2ed6 9B11     		asrs r3, r3, # 6
 6227 2ed8 8018     		adds r0, r0, r2	 @r
 6228 2eda C918     		adds r1, r1, r3	 @i
 6229 2edc 3618     		adds r6, r6, r0
 6230 2ede 7F18     		adds r7, r7, r1
 6231              	
 6232 2ee0 DD46     		mov sp, r11
 6233 2ee2 0FBC     		pop {r0-r3}
 6234 2ee4 EB46     		mov r11, sp
 6235 2ee6 D546     		mov sp, r10
 6236 2ee8 10BC     		pop {r4}
 6237 2eea EA46     		mov r10, sp
 6238 2eec 2546     		mov r5, r4
 6239 2eee 2404     		lsls r4, r4, # 16
 6240 2ef0 240C     		lsrs r4, r4, # 16
 6241 2ef2 2D0C     		lsrs r5, r5, # 16
 6242 2ef4 6043     		muls r0, r0, r4
 6243 2ef6 6143     		muls r1, r1, r4
 6244 2ef8 6A43     		muls r2, r2, r5
 6245 2efa 6B43     		muls r3, r3, r5
 6246 2efc 8011     		asrs r0, r0, # 6
 6247 2efe 8911     		asrs r1, r1, # 6
 6248 2f00 9211     		asrs r2, r2, # 6
 6249 2f02 9B11     		asrs r3, r3, # 6
 6250 2f04 8018     		adds r0, r0, r2         @r
 6251 2f06 C918     		adds r1, r1, r3         @i
 6252 2f08 3618     		adds r6, r6, r0
 6253 2f0a 7F18     		adds r7, r7, r1
 6254              	
ARM GAS  1.s 			page 111


 6255 2f0c DD46     		mov sp, r11
 6256 2f0e 0FBC     		pop {r0-r3}
 6257 2f10 EB46     		mov r11, sp
 6258 2f12 D546     		mov sp, r10
 6259 2f14 10BC     		pop {r4}
 6260 2f16 EA46     		mov r10, sp
 6261 2f18 2546     		mov r5, r4
 6262 2f1a 2404     		lsls r4, r4, # 16
 6263 2f1c 240C     		lsrs r4, r4, # 16
 6264 2f1e 2D0C     		lsrs r5, r5, # 16
 6265 2f20 6043     		muls r0, r0, r4
 6266 2f22 6143     		muls r1, r1, r4
 6267 2f24 6A43     		muls r2, r2, r5
 6268 2f26 6B43     		muls r3, r3, r5
 6269 2f28 8011     		asrs r0, r0, # 6
 6270 2f2a 8911     		asrs r1, r1, # 6
 6271 2f2c 9211     		asrs r2, r2, # 6
 6272 2f2e 9B11     		asrs r3, r3, # 6
 6273 2f30 8018     		adds r0, r0, r2  @r
 6274 2f32 C918     		adds r1, r1, r3  @i
 6275 2f34 3618     		adds r6, r6, r0
 6276 2f36 7F18     		adds r7, r7, r1
 6277              	
 6278 2f38 DD46     		mov sp, r11
 6279 2f3a 0FBC     		pop {r0-r3}
 6280 2f3c EB46     		mov r11, sp
 6281 2f3e D546     		mov sp, r10
 6282 2f40 10BC     		pop {r4}
 6283 2f42 EA46     		mov r10, sp
 6284 2f44 2546     		mov r5, r4
 6285 2f46 2404     		lsls r4, r4, # 16
 6286 2f48 240C     		lsrs r4, r4, # 16
 6287 2f4a 2D0C     		lsrs r5, r5, # 16
 6288 2f4c 6043     		muls r0, r0, r4
 6289 2f4e 6143     		muls r1, r1, r4
 6290 2f50 6A43     		muls r2, r2, r5
 6291 2f52 6B43     		muls r3, r3, r5
 6292 2f54 8011     		asrs r0, r0, # 6
 6293 2f56 8911     		asrs r1, r1, # 6
 6294 2f58 9211     		asrs r2, r2, # 6
 6295 2f5a 9B11     		asrs r3, r3, # 6
 6296 2f5c 8018     		adds r0, r0, r2         @r
 6297 2f5e C918     		adds r1, r1, r3         @i
 6298 2f60 3618     		adds r6, r6, r0
 6299 2f62 7F18     		adds r7, r7, r1
 6300              	
 6301              		@6
 6302 2f64 DD46     		mov sp, r11
 6303 2f66 0FBC     		pop {r0-r3}
 6304 2f68 EB46     		mov r11, sp
 6305 2f6a D546     		mov sp, r10
 6306 2f6c 10BC     		pop {r4}
 6307 2f6e EA46     		mov r10, sp
 6308 2f70 2546     		mov r5, r4
 6309 2f72 2404     		lsls r4, r4, # 16
 6310 2f74 240C     		lsrs r4, r4, # 16
 6311 2f76 2D0C     		lsrs r5, r5, # 16
ARM GAS  1.s 			page 112


 6312 2f78 6043     		muls r0, r0, r4		@R
 6313 2f7a 6143     		muls r1, r1, r4		@I
 6314 2f7c 6A43     		muls r2, r2, r5		@R
 6315 2f7e 6B43     		muls r3, r3, r5		@I
 6316 2f80 8011     		asrs r0, r0, # 6
 6317 2f82 8911     		asrs r1, r1, # 6
 6318 2f84 9211     		asrs r2, r2, # 6
 6319 2f86 9B11     		asrs r3, r3, # 6
 6320 2f88 8018     		adds r0, r0, r2	 @r
 6321 2f8a C918     		adds r1, r1, r3	 @i
 6322 2f8c 3618     		adds r6, r6, r0
 6323 2f8e 7F18     		adds r7, r7, r1
 6324              	
 6325 2f90 DD46     		mov sp, r11
 6326 2f92 0FBC     		pop {r0-r3}
 6327 2f94 EB46     		mov r11, sp
 6328 2f96 D546     		mov sp, r10
 6329 2f98 10BC     		pop {r4}
 6330 2f9a EA46     		mov r10, sp
 6331 2f9c 2546     		mov r5, r4
 6332 2f9e 2404     		lsls r4, r4, # 16
 6333 2fa0 240C     		lsrs r4, r4, # 16
 6334 2fa2 2D0C     		lsrs r5, r5, # 16
 6335 2fa4 6043     		muls r0, r0, r4
 6336 2fa6 6143     		muls r1, r1, r4
 6337 2fa8 6A43     		muls r2, r2, r5
 6338 2faa 6B43     		muls r3, r3, r5
 6339 2fac 8011     		asrs r0, r0, # 6
 6340 2fae 8911     		asrs r1, r1, # 6
 6341 2fb0 9211     		asrs r2, r2, # 6
 6342 2fb2 9B11     		asrs r3, r3, # 6
 6343 2fb4 8018     		adds r0, r0, r2         @r
 6344 2fb6 C918     		adds r1, r1, r3         @i
 6345 2fb8 3618     		adds r6, r6, r0
 6346 2fba 7F18     		adds r7, r7, r1
 6347              	
 6348 2fbc DD46     		mov sp, r11
 6349 2fbe 0FBC     		pop {r0-r3}
 6350 2fc0 EB46     		mov r11, sp
 6351 2fc2 D546     		mov sp, r10
 6352 2fc4 10BC     		pop {r4}
 6353 2fc6 EA46     		mov r10, sp
 6354 2fc8 2546     		mov r5, r4
 6355 2fca 2404     		lsls r4, r4, # 16
 6356 2fcc 240C     		lsrs r4, r4, # 16
 6357 2fce 2D0C     		lsrs r5, r5, # 16
 6358 2fd0 6043     		muls r0, r0, r4
 6359 2fd2 6143     		muls r1, r1, r4
 6360 2fd4 6A43     		muls r2, r2, r5
 6361 2fd6 6B43     		muls r3, r3, r5
 6362 2fd8 8011     		asrs r0, r0, # 6
 6363 2fda 8911     		asrs r1, r1, # 6
 6364 2fdc 9211     		asrs r2, r2, # 6
 6365 2fde 9B11     		asrs r3, r3, # 6
 6366 2fe0 8018     		adds r0, r0, r2  @r
 6367 2fe2 C918     		adds r1, r1, r3  @i
 6368 2fe4 3618     		adds r6, r6, r0
ARM GAS  1.s 			page 113


 6369 2fe6 7F18     		adds r7, r7, r1
 6370              	
 6371 2fe8 DD46     		mov sp, r11
 6372 2fea 0FBC     		pop {r0-r3}
 6373 2fec EB46     		mov r11, sp
 6374 2fee D546     		mov sp, r10
 6375 2ff0 10BC     		pop {r4}
 6376 2ff2 EA46     		mov r10, sp
 6377 2ff4 2546     		mov r5, r4
 6378 2ff6 2404     		lsls r4, r4, # 16
 6379 2ff8 240C     		lsrs r4, r4, # 16
 6380 2ffa 2D0C     		lsrs r5, r5, # 16
 6381 2ffc 6043     		muls r0, r0, r4
 6382 2ffe 6143     		muls r1, r1, r4
 6383 3000 6A43     		muls r2, r2, r5
 6384 3002 6B43     		muls r3, r3, r5
 6385 3004 8011     		asrs r0, r0, # 6
 6386 3006 8911     		asrs r1, r1, # 6
 6387 3008 9211     		asrs r2, r2, # 6
 6388 300a 9B11     		asrs r3, r3, # 6
 6389 300c 8018     		adds r0, r0, r2         @r
 6390 300e C918     		adds r1, r1, r3         @i
 6391 3010 3618     		adds r6, r6, r0
 6392 3012 7F18     		adds r7, r7, r1
 6393              	
 6394              		@7
 6395 3014 DD46     		mov sp, r11
 6396 3016 0FBC     		pop {r0-r3}
 6397 3018 EB46     		mov r11, sp
 6398 301a D546     		mov sp, r10
 6399 301c 10BC     		pop {r4}
 6400 301e EA46     		mov r10, sp
 6401 3020 2546     		mov r5, r4
 6402 3022 2404     		lsls r4, r4, # 16
 6403 3024 240C     		lsrs r4, r4, # 16
 6404 3026 2D0C     		lsrs r5, r5, # 16
 6405 3028 6043     		muls r0, r0, r4		@R
 6406 302a 6143     		muls r1, r1, r4		@I
 6407 302c 6A43     		muls r2, r2, r5		@R
 6408 302e 6B43     		muls r3, r3, r5		@I
 6409 3030 8011     		asrs r0, r0, # 6
 6410 3032 8911     		asrs r1, r1, # 6
 6411 3034 9211     		asrs r2, r2, # 6
 6412 3036 9B11     		asrs r3, r3, # 6
 6413 3038 8018     		adds r0, r0, r2	 @r
 6414 303a C918     		adds r1, r1, r3	 @i
 6415 303c 3618     		adds r6, r6, r0
 6416 303e 7F18     		adds r7, r7, r1
 6417              	
 6418 3040 DD46     		mov sp, r11
 6419 3042 0FBC     		pop {r0-r3}
 6420 3044 EB46     		mov r11, sp
 6421 3046 D546     		mov sp, r10
 6422 3048 10BC     		pop {r4}
 6423 304a EA46     		mov r10, sp
 6424 304c 2546     		mov r5, r4
 6425 304e 2404     		lsls r4, r4, # 16
ARM GAS  1.s 			page 114


 6426 3050 240C     		lsrs r4, r4, # 16
 6427 3052 2D0C     		lsrs r5, r5, # 16
 6428 3054 6043     		muls r0, r0, r4
 6429 3056 6143     		muls r1, r1, r4
 6430 3058 6A43     		muls r2, r2, r5
 6431 305a 6B43     		muls r3, r3, r5
 6432 305c 8011     		asrs r0, r0, # 6
 6433 305e 8911     		asrs r1, r1, # 6
 6434 3060 9211     		asrs r2, r2, # 6
 6435 3062 9B11     		asrs r3, r3, # 6
 6436 3064 8018     		adds r0, r0, r2         @r
 6437 3066 C918     		adds r1, r1, r3         @i
 6438 3068 3618     		adds r6, r6, r0
 6439 306a 7F18     		adds r7, r7, r1
 6440              	
 6441 306c DD46     		mov sp, r11
 6442 306e 0FBC     		pop {r0-r3}
 6443 3070 EB46     		mov r11, sp
 6444 3072 D546     		mov sp, r10
 6445 3074 10BC     		pop {r4}
 6446 3076 EA46     		mov r10, sp
 6447 3078 2546     		mov r5, r4
 6448 307a 2404     		lsls r4, r4, # 16
 6449 307c 240C     		lsrs r4, r4, # 16
 6450 307e 2D0C     		lsrs r5, r5, # 16
 6451 3080 6043     		muls r0, r0, r4
 6452 3082 6143     		muls r1, r1, r4
 6453 3084 6A43     		muls r2, r2, r5
 6454 3086 6B43     		muls r3, r3, r5
 6455 3088 8011     		asrs r0, r0, # 6
 6456 308a 8911     		asrs r1, r1, # 6
 6457 308c 9211     		asrs r2, r2, # 6
 6458 308e 9B11     		asrs r3, r3, # 6
 6459 3090 8018     		adds r0, r0, r2  @r
 6460 3092 C918     		adds r1, r1, r3  @i
 6461 3094 3618     		adds r6, r6, r0
 6462 3096 7F18     		adds r7, r7, r1
 6463              	
 6464 3098 DD46     		mov sp, r11
 6465 309a 0FBC     		pop {r0-r3}
 6466 309c EB46     		mov r11, sp
 6467 309e D546     		mov sp, r10
 6468 30a0 10BC     		pop {r4}
 6469 30a2 EA46     		mov r10, sp
 6470 30a4 2546     		mov r5, r4
 6471 30a6 2404     		lsls r4, r4, # 16
 6472 30a8 240C     		lsrs r4, r4, # 16
 6473 30aa 2D0C     		lsrs r5, r5, # 16
 6474 30ac 6043     		muls r0, r0, r4
 6475 30ae 6143     		muls r1, r1, r4
 6476 30b0 6A43     		muls r2, r2, r5
 6477 30b2 6B43     		muls r3, r3, r5
 6478 30b4 8011     		asrs r0, r0, # 6
 6479 30b6 8911     		asrs r1, r1, # 6
 6480 30b8 9211     		asrs r2, r2, # 6
 6481 30ba 9B11     		asrs r3, r3, # 6
 6482 30bc 8018     		adds r0, r0, r2         @r
ARM GAS  1.s 			page 115


 6483 30be C918     		adds r1, r1, r3         @i
 6484 30c0 3618     		adds r6, r6, r0
 6485 30c2 7F18     		adds r7, r7, r1
 6486              	
 6487              		@8
 6488 30c4 DD46     		mov sp, r11
 6489 30c6 0FBC     		pop {r0-r3}
 6490 30c8 EB46     		mov r11, sp
 6491 30ca D546     		mov sp, r10
 6492 30cc 10BC     		pop {r4}
 6493 30ce EA46     		mov r10, sp
 6494 30d0 2546     		mov r5, r4
 6495 30d2 2404     		lsls r4, r4, # 16
 6496 30d4 240C     		lsrs r4, r4, # 16
 6497 30d6 2D0C     		lsrs r5, r5, # 16
 6498 30d8 6043     		muls r0, r0, r4		@R
 6499 30da 6143     		muls r1, r1, r4		@I
 6500 30dc 6A43     		muls r2, r2, r5		@R
 6501 30de 6B43     		muls r3, r3, r5		@I
 6502 30e0 8011     		asrs r0, r0, # 6
 6503 30e2 8911     		asrs r1, r1, # 6
 6504 30e4 9211     		asrs r2, r2, # 6
 6505 30e6 9B11     		asrs r3, r3, # 6
 6506 30e8 8018     		adds r0, r0, r2	 @r
 6507 30ea C918     		adds r1, r1, r3	 @i
 6508 30ec 3618     		adds r6, r6, r0
 6509 30ee 7F18     		adds r7, r7, r1
 6510              	
 6511 30f0 DD46     		mov sp, r11
 6512 30f2 0FBC     		pop {r0-r3}
 6513 30f4 EB46     		mov r11, sp
 6514 30f6 D546     		mov sp, r10
 6515 30f8 10BC     		pop {r4}
 6516 30fa EA46     		mov r10, sp
 6517 30fc 2546     		mov r5, r4
 6518 30fe 2404     		lsls r4, r4, # 16
 6519 3100 240C     		lsrs r4, r4, # 16
 6520 3102 2D0C     		lsrs r5, r5, # 16
 6521 3104 6043     		muls r0, r0, r4
 6522 3106 6143     		muls r1, r1, r4
 6523 3108 6A43     		muls r2, r2, r5
 6524 310a 6B43     		muls r3, r3, r5
 6525 310c 8011     		asrs r0, r0, # 6
 6526 310e 8911     		asrs r1, r1, # 6
 6527 3110 9211     		asrs r2, r2, # 6
 6528 3112 9B11     		asrs r3, r3, # 6
 6529 3114 8018     		adds r0, r0, r2         @r
 6530 3116 C918     		adds r1, r1, r3         @i
 6531 3118 3618     		adds r6, r6, r0
 6532 311a 7F18     		adds r7, r7, r1
 6533              	
 6534 311c DD46     		mov sp, r11
 6535 311e 0FBC     		pop {r0-r3}
 6536 3120 EB46     		mov r11, sp
 6537 3122 D546     		mov sp, r10
 6538 3124 10BC     		pop {r4}
 6539 3126 EA46     		mov r10, sp
ARM GAS  1.s 			page 116


 6540 3128 2546     		mov r5, r4
 6541 312a 2404     		lsls r4, r4, # 16
 6542 312c 240C     		lsrs r4, r4, # 16
 6543 312e 2D0C     		lsrs r5, r5, # 16
 6544 3130 6043     		muls r0, r0, r4
 6545 3132 6143     		muls r1, r1, r4
 6546 3134 6A43     		muls r2, r2, r5
 6547 3136 6B43     		muls r3, r3, r5
 6548 3138 8011     		asrs r0, r0, # 6
 6549 313a 8911     		asrs r1, r1, # 6
 6550 313c 9211     		asrs r2, r2, # 6
 6551 313e 9B11     		asrs r3, r3, # 6
 6552 3140 8018     		adds r0, r0, r2  @r
 6553 3142 C918     		adds r1, r1, r3  @i
 6554 3144 3618     		adds r6, r6, r0
 6555 3146 7F18     		adds r7, r7, r1
 6556              	
 6557 3148 DD46     		mov sp, r11
 6558 314a 0FBC     		pop {r0-r3}
 6559 314c EB46     		mov r11, sp
 6560 314e D546     		mov sp, r10
 6561 3150 10BC     		pop {r4}
 6562 3152 EA46     		mov r10, sp
 6563 3154 2546     		mov r5, r4
 6564 3156 2404     		lsls r4, r4, # 16
 6565 3158 240C     		lsrs r4, r4, # 16
 6566 315a 2D0C     		lsrs r5, r5, # 16
 6567 315c 6043     		muls r0, r0, r4
 6568 315e 6143     		muls r1, r1, r4
 6569 3160 6A43     		muls r2, r2, r5
 6570 3162 6B43     		muls r3, r3, r5
 6571 3164 8011     		asrs r0, r0, # 6
 6572 3166 8911     		asrs r1, r1, # 6
 6573 3168 9211     		asrs r2, r2, # 6
 6574 316a 9B11     		asrs r3, r3, # 6
 6575 316c 8018     		adds r0, r0, r2         @r
 6576 316e C918     		adds r1, r1, r3         @i
 6577 3170 3618     		adds r6, r6, r0
 6578 3172 7F18     		adds r7, r7, r1
 6579              	
 6580              		@9
 6581 3174 DD46     		mov sp, r11
 6582 3176 0FBC     		pop {r0-r3}
 6583 3178 EB46     		mov r11, sp
 6584 317a D546     		mov sp, r10
 6585 317c 10BC     		pop {r4}
 6586 317e EA46     		mov r10, sp
 6587 3180 2546     		mov r5, r4
 6588 3182 2404     		lsls r4, r4, # 16
 6589 3184 240C     		lsrs r4, r4, # 16
 6590 3186 2D0C     		lsrs r5, r5, # 16
 6591 3188 6043     		muls r0, r0, r4		@R
 6592 318a 6143     		muls r1, r1, r4		@I
 6593 318c 6A43     		muls r2, r2, r5		@R
 6594 318e 6B43     		muls r3, r3, r5		@I
 6595 3190 8011     		asrs r0, r0, # 6
 6596 3192 8911     		asrs r1, r1, # 6
ARM GAS  1.s 			page 117


 6597 3194 9211     		asrs r2, r2, # 6
 6598 3196 9B11     		asrs r3, r3, # 6
 6599 3198 8018     		adds r0, r0, r2	 @r
 6600 319a C918     		adds r1, r1, r3	 @i
 6601 319c 3618     		adds r6, r6, r0
 6602 319e 7F18     		adds r7, r7, r1
 6603              	
 6604 31a0 DD46     		mov sp, r11
 6605 31a2 0FBC     		pop {r0-r3}
 6606 31a4 EB46     		mov r11, sp
 6607 31a6 D546     		mov sp, r10
 6608 31a8 10BC     		pop {r4}
 6609 31aa EA46     		mov r10, sp
 6610 31ac 2546     		mov r5, r4
 6611 31ae 2404     		lsls r4, r4, # 16
 6612 31b0 240C     		lsrs r4, r4, # 16
 6613 31b2 2D0C     		lsrs r5, r5, # 16
 6614 31b4 6043     		muls r0, r0, r4
 6615 31b6 6143     		muls r1, r1, r4
 6616 31b8 6A43     		muls r2, r2, r5
 6617 31ba 6B43     		muls r3, r3, r5
 6618 31bc 8011     		asrs r0, r0, # 6
 6619 31be 8911     		asrs r1, r1, # 6
 6620 31c0 9211     		asrs r2, r2, # 6
 6621 31c2 9B11     		asrs r3, r3, # 6
 6622 31c4 8018     		adds r0, r0, r2         @r
 6623 31c6 C918     		adds r1, r1, r3         @i
 6624 31c8 3618     		adds r6, r6, r0
 6625 31ca 7F18     		adds r7, r7, r1
 6626              	
 6627 31cc DD46     		mov sp, r11
 6628 31ce 0FBC     		pop {r0-r3}
 6629 31d0 EB46     		mov r11, sp
 6630 31d2 D546     		mov sp, r10
 6631 31d4 10BC     		pop {r4}
 6632 31d6 EA46     		mov r10, sp
 6633 31d8 2546     		mov r5, r4
 6634 31da 2404     		lsls r4, r4, # 16
 6635 31dc 240C     		lsrs r4, r4, # 16
 6636 31de 2D0C     		lsrs r5, r5, # 16
 6637 31e0 6043     		muls r0, r0, r4
 6638 31e2 6143     		muls r1, r1, r4
 6639 31e4 6A43     		muls r2, r2, r5
 6640 31e6 6B43     		muls r3, r3, r5
 6641 31e8 8011     		asrs r0, r0, # 6
 6642 31ea 8911     		asrs r1, r1, # 6
 6643 31ec 9211     		asrs r2, r2, # 6
 6644 31ee 9B11     		asrs r3, r3, # 6
 6645 31f0 8018     		adds r0, r0, r2  @r
 6646 31f2 C918     		adds r1, r1, r3  @i
 6647 31f4 3618     		adds r6, r6, r0
 6648 31f6 7F18     		adds r7, r7, r1
 6649              	
 6650 31f8 DD46     		mov sp, r11
 6651 31fa 0FBC     		pop {r0-r3}
 6652 31fc EB46     		mov r11, sp
 6653 31fe D546     		mov sp, r10
ARM GAS  1.s 			page 118


 6654 3200 10BC     		pop {r4}
 6655 3202 EA46     		mov r10, sp
 6656 3204 2546     		mov r5, r4
 6657 3206 2404     		lsls r4, r4, # 16
 6658 3208 240C     		lsrs r4, r4, # 16
 6659 320a 2D0C     		lsrs r5, r5, # 16
 6660 320c 6043     		muls r0, r0, r4
 6661 320e 6143     		muls r1, r1, r4
 6662 3210 6A43     		muls r2, r2, r5
 6663 3212 6B43     		muls r3, r3, r5
 6664 3214 8011     		asrs r0, r0, # 6
 6665 3216 8911     		asrs r1, r1, # 6
 6666 3218 9211     		asrs r2, r2, # 6
 6667 321a 9B11     		asrs r3, r3, # 6
 6668 321c 8018     		adds r0, r0, r2         @r
 6669 321e C918     		adds r1, r1, r3         @i
 6670 3220 3618     		adds r6, r6, r0
 6671 3222 7F18     		adds r7, r7, r1
 6672              	
 6673              	@yjm6
 6674              		@0
 6675 3224 DD46     		mov sp, r11
 6676 3226 0FBC     		pop {r0-r3}
 6677 3228 EB46     		mov r11, sp
 6678 322a D546     		mov sp, r10
 6679 322c 10BC     		pop {r4}
 6680 322e EA46     		mov r10, sp
 6681 3230 2546     		mov r5, r4
 6682 3232 2404     		lsls r4, r4, # 16
 6683 3234 240C     		lsrs r4, r4, # 16
 6684 3236 2D0C     		lsrs r5, r5, # 16
 6685 3238 6043     		muls r0, r0, r4		@R
 6686 323a 6143     		muls r1, r1, r4		@I
 6687 323c 6A43     		muls r2, r2, r5		@R
 6688 323e 6B43     		muls r3, r3, r5		@I
 6689 3240 8011     		asrs r0, r0, # 6
 6690 3242 8911     		asrs r1, r1, # 6
 6691 3244 9211     		asrs r2, r2, # 6
 6692 3246 9B11     		asrs r3, r3, # 6
 6693 3248 8018     		adds r0, r0, r2	 @r
 6694 324a C918     		adds r1, r1, r3	 @i
 6695 324c 3618     		adds r6, r6, r0
 6696 324e 7F18     		adds r7, r7, r1
 6697              	
 6698 3250 DD46     		mov sp, r11
 6699 3252 0FBC     		pop {r0-r3}
 6700 3254 EB46     		mov r11, sp
 6701 3256 D546     		mov sp, r10
 6702 3258 10BC     		pop {r4}
 6703 325a EA46     		mov r10, sp
 6704 325c 2546     		mov r5, r4
 6705 325e 2404     		lsls r4, r4, # 16
 6706 3260 240C     		lsrs r4, r4, # 16
 6707 3262 2D0C     		lsrs r5, r5, # 16
 6708 3264 6043     		muls r0, r0, r4
 6709 3266 6143     		muls r1, r1, r4
 6710 3268 6A43     		muls r2, r2, r5
ARM GAS  1.s 			page 119


 6711 326a 6B43     		muls r3, r3, r5
 6712 326c 8011     		asrs r0, r0, # 6
 6713 326e 8911     		asrs r1, r1, # 6
 6714 3270 9211     		asrs r2, r2, # 6
 6715 3272 9B11     		asrs r3, r3, # 6
 6716 3274 8018     		adds r0, r0, r2         @r
 6717 3276 C918     		adds r1, r1, r3         @i
 6718 3278 3618     		adds r6, r6, r0
 6719 327a 7F18     		adds r7, r7, r1
 6720              	
 6721 327c DD46     		mov sp, r11
 6722 327e 0FBC     		pop {r0-r3}
 6723 3280 EB46     		mov r11, sp
 6724 3282 D546     		mov sp, r10
 6725 3284 10BC     		pop {r4}
 6726 3286 EA46     		mov r10, sp
 6727 3288 2546     		mov r5, r4
 6728 328a 2404     		lsls r4, r4, # 16
 6729 328c 240C     		lsrs r4, r4, # 16
 6730 328e 2D0C     		lsrs r5, r5, # 16
 6731 3290 6043     		muls r0, r0, r4
 6732 3292 6143     		muls r1, r1, r4
 6733 3294 6A43     		muls r2, r2, r5
 6734 3296 6B43     		muls r3, r3, r5
 6735 3298 8011     		asrs r0, r0, # 6
 6736 329a 8911     		asrs r1, r1, # 6
 6737 329c 9211     		asrs r2, r2, # 6
 6738 329e 9B11     		asrs r3, r3, # 6
 6739 32a0 8018     		adds r0, r0, r2  @r
 6740 32a2 C918     		adds r1, r1, r3  @i
 6741 32a4 3618     		adds r6, r6, r0
 6742 32a6 7F18     		adds r7, r7, r1
 6743              	
 6744 32a8 DD46     		mov sp, r11
 6745 32aa 0FBC     		pop {r0-r3}
 6746 32ac EB46     		mov r11, sp
 6747 32ae D546     		mov sp, r10
 6748 32b0 10BC     		pop {r4}
 6749 32b2 EA46     		mov r10, sp
 6750 32b4 2546     		mov r5, r4
 6751 32b6 2404     		lsls r4, r4, # 16
 6752 32b8 240C     		lsrs r4, r4, # 16
 6753 32ba 2D0C     		lsrs r5, r5, # 16
 6754 32bc 6043     		muls r0, r0, r4
 6755 32be 6143     		muls r1, r1, r4
 6756 32c0 6A43     		muls r2, r2, r5
 6757 32c2 6B43     		muls r3, r3, r5
 6758 32c4 8011     		asrs r0, r0, # 6
 6759 32c6 8911     		asrs r1, r1, # 6
 6760 32c8 9211     		asrs r2, r2, # 6
 6761 32ca 9B11     		asrs r3, r3, # 6
 6762 32cc 8018     		adds r0, r0, r2         @r
 6763 32ce C918     		adds r1, r1, r3         @i
 6764 32d0 3618     		adds r6, r6, r0
 6765 32d2 7F18     		adds r7, r7, r1
 6766              	
 6767              		@1
ARM GAS  1.s 			page 120


 6768 32d4 DD46     		mov sp, r11
 6769 32d6 0FBC     		pop {r0-r3}
 6770 32d8 EB46     		mov r11, sp
 6771 32da D546     		mov sp, r10
 6772 32dc 10BC     		pop {r4}
 6773 32de EA46     		mov r10, sp
 6774 32e0 2546     		mov r5, r4
 6775 32e2 2404     		lsls r4, r4, # 16
 6776 32e4 240C     		lsrs r4, r4, # 16
 6777 32e6 2D0C     		lsrs r5, r5, # 16
 6778 32e8 6043     		muls r0, r0, r4		@R
 6779 32ea 6143     		muls r1, r1, r4		@I
 6780 32ec 6A43     		muls r2, r2, r5		@R
 6781 32ee 6B43     		muls r3, r3, r5		@I
 6782 32f0 8011     		asrs r0, r0, # 6
 6783 32f2 8911     		asrs r1, r1, # 6
 6784 32f4 9211     		asrs r2, r2, # 6
 6785 32f6 9B11     		asrs r3, r3, # 6
 6786 32f8 8018     		adds r0, r0, r2	 @r
 6787 32fa C918     		adds r1, r1, r3	 @i
 6788 32fc 3618     		adds r6, r6, r0
 6789 32fe 7F18     		adds r7, r7, r1
 6790              	
 6791 3300 DD46     		mov sp, r11
 6792 3302 0FBC     		pop {r0-r3}
 6793 3304 EB46     		mov r11, sp
 6794 3306 D546     		mov sp, r10
 6795 3308 10BC     		pop {r4}
 6796 330a EA46     		mov r10, sp
 6797 330c 2546     		mov r5, r4
 6798 330e 2404     		lsls r4, r4, # 16
 6799 3310 240C     		lsrs r4, r4, # 16
 6800 3312 2D0C     		lsrs r5, r5, # 16
 6801 3314 6043     		muls r0, r0, r4
 6802 3316 6143     		muls r1, r1, r4
 6803 3318 6A43     		muls r2, r2, r5
 6804 331a 6B43     		muls r3, r3, r5
 6805 331c 8011     		asrs r0, r0, # 6
 6806 331e 8911     		asrs r1, r1, # 6
 6807 3320 9211     		asrs r2, r2, # 6
 6808 3322 9B11     		asrs r3, r3, # 6
 6809 3324 8018     		adds r0, r0, r2         @r
 6810 3326 C918     		adds r1, r1, r3         @i
 6811 3328 3618     		adds r6, r6, r0
 6812 332a 7F18     		adds r7, r7, r1
 6813              	
 6814 332c DD46     		mov sp, r11
 6815 332e 0FBC     		pop {r0-r3}
 6816 3330 EB46     		mov r11, sp
 6817 3332 D546     		mov sp, r10
 6818 3334 10BC     		pop {r4}
 6819 3336 EA46     		mov r10, sp
 6820 3338 2546     		mov r5, r4
 6821 333a 2404     		lsls r4, r4, # 16
 6822 333c 240C     		lsrs r4, r4, # 16
 6823 333e 2D0C     		lsrs r5, r5, # 16
 6824 3340 6043     		muls r0, r0, r4
ARM GAS  1.s 			page 121


 6825 3342 6143     		muls r1, r1, r4
 6826 3344 6A43     		muls r2, r2, r5
 6827 3346 6B43     		muls r3, r3, r5
 6828 3348 8011     		asrs r0, r0, # 6
 6829 334a 8911     		asrs r1, r1, # 6
 6830 334c 9211     		asrs r2, r2, # 6
 6831 334e 9B11     		asrs r3, r3, # 6
 6832 3350 8018     		adds r0, r0, r2  @r
 6833 3352 C918     		adds r1, r1, r3  @i
 6834 3354 3618     		adds r6, r6, r0
 6835 3356 7F18     		adds r7, r7, r1
 6836              	
 6837 3358 DD46     		mov sp, r11
 6838 335a 0FBC     		pop {r0-r3}
 6839 335c EB46     		mov r11, sp
 6840 335e D546     		mov sp, r10
 6841 3360 10BC     		pop {r4}
 6842 3362 EA46     		mov r10, sp
 6843 3364 2546     		mov r5, r4
 6844 3366 2404     		lsls r4, r4, # 16
 6845 3368 240C     		lsrs r4, r4, # 16
 6846 336a 2D0C     		lsrs r5, r5, # 16
 6847 336c 6043     		muls r0, r0, r4
 6848 336e 6143     		muls r1, r1, r4
 6849 3370 6A43     		muls r2, r2, r5
 6850 3372 6B43     		muls r3, r3, r5
 6851 3374 8011     		asrs r0, r0, # 6
 6852 3376 8911     		asrs r1, r1, # 6
 6853 3378 9211     		asrs r2, r2, # 6
 6854 337a 9B11     		asrs r3, r3, # 6
 6855 337c 8018     		adds r0, r0, r2         @r
 6856 337e C918     		adds r1, r1, r3         @i
 6857 3380 3618     		adds r6, r6, r0
 6858 3382 7F18     		adds r7, r7, r1
 6859              	
 6860              		@2
 6861 3384 DD46     		mov sp, r11
 6862 3386 0FBC     		pop {r0-r3}
 6863 3388 EB46     		mov r11, sp
 6864 338a D546     		mov sp, r10
 6865 338c 10BC     		pop {r4}
 6866 338e EA46     		mov r10, sp
 6867 3390 2546     		mov r5, r4
 6868 3392 2404     		lsls r4, r4, # 16
 6869 3394 240C     		lsrs r4, r4, # 16
 6870 3396 2D0C     		lsrs r5, r5, # 16
 6871 3398 6043     		muls r0, r0, r4		@R
 6872 339a 6143     		muls r1, r1, r4		@I
 6873 339c 6A43     		muls r2, r2, r5		@R
 6874 339e 6B43     		muls r3, r3, r5		@I
 6875 33a0 8011     		asrs r0, r0, # 6
 6876 33a2 8911     		asrs r1, r1, # 6
 6877 33a4 9211     		asrs r2, r2, # 6
 6878 33a6 9B11     		asrs r3, r3, # 6
 6879 33a8 8018     		adds r0, r0, r2	 @r
 6880 33aa C918     		adds r1, r1, r3	 @i
 6881 33ac 3618     		adds r6, r6, r0
ARM GAS  1.s 			page 122


 6882 33ae 7F18     		adds r7, r7, r1
 6883              	
 6884 33b0 DD46     		mov sp, r11
 6885 33b2 0FBC     		pop {r0-r3}
 6886 33b4 EB46     		mov r11, sp
 6887 33b6 D546     		mov sp, r10
 6888 33b8 10BC     		pop {r4}
 6889 33ba EA46     		mov r10, sp
 6890 33bc 2546     		mov r5, r4
 6891 33be 2404     		lsls r4, r4, # 16
 6892 33c0 240C     		lsrs r4, r4, # 16
 6893 33c2 2D0C     		lsrs r5, r5, # 16
 6894 33c4 6043     		muls r0, r0, r4
 6895 33c6 6143     		muls r1, r1, r4
 6896 33c8 6A43     		muls r2, r2, r5
 6897 33ca 6B43     		muls r3, r3, r5
 6898 33cc 8011     		asrs r0, r0, # 6
 6899 33ce 8911     		asrs r1, r1, # 6
 6900 33d0 9211     		asrs r2, r2, # 6
 6901 33d2 9B11     		asrs r3, r3, # 6
 6902 33d4 8018     		adds r0, r0, r2         @r
 6903 33d6 C918     		adds r1, r1, r3         @i
 6904 33d8 3618     		adds r6, r6, r0
 6905 33da 7F18     		adds r7, r7, r1
 6906              	
 6907 33dc DD46     		mov sp, r11
 6908 33de 0FBC     		pop {r0-r3}
 6909 33e0 EB46     		mov r11, sp
 6910 33e2 D546     		mov sp, r10
 6911 33e4 10BC     		pop {r4}
 6912 33e6 EA46     		mov r10, sp
 6913 33e8 2546     		mov r5, r4
 6914 33ea 2404     		lsls r4, r4, # 16
 6915 33ec 240C     		lsrs r4, r4, # 16
 6916 33ee 2D0C     		lsrs r5, r5, # 16
 6917 33f0 6043     		muls r0, r0, r4
 6918 33f2 6143     		muls r1, r1, r4
 6919 33f4 6A43     		muls r2, r2, r5
 6920 33f6 6B43     		muls r3, r3, r5
 6921 33f8 8011     		asrs r0, r0, # 6
 6922 33fa 8911     		asrs r1, r1, # 6
 6923 33fc 9211     		asrs r2, r2, # 6
 6924 33fe 9B11     		asrs r3, r3, # 6
 6925 3400 8018     		adds r0, r0, r2  @r
 6926 3402 C918     		adds r1, r1, r3  @i
 6927 3404 3618     		adds r6, r6, r0
 6928 3406 7F18     		adds r7, r7, r1
 6929              	
 6930 3408 DD46     		mov sp, r11
 6931 340a 0FBC     		pop {r0-r3}
 6932 340c EB46     		mov r11, sp
 6933 340e D546     		mov sp, r10
 6934 3410 10BC     		pop {r4}
 6935 3412 EA46     		mov r10, sp
 6936 3414 2546     		mov r5, r4
 6937 3416 2404     		lsls r4, r4, # 16
 6938 3418 240C     		lsrs r4, r4, # 16
ARM GAS  1.s 			page 123


 6939 341a 2D0C     		lsrs r5, r5, # 16
 6940 341c 6043     		muls r0, r0, r4
 6941 341e 6143     		muls r1, r1, r4
 6942 3420 6A43     		muls r2, r2, r5
 6943 3422 6B43     		muls r3, r3, r5
 6944 3424 8011     		asrs r0, r0, # 6
 6945 3426 8911     		asrs r1, r1, # 6
 6946 3428 9211     		asrs r2, r2, # 6
 6947 342a 9B11     		asrs r3, r3, # 6
 6948 342c 8018     		adds r0, r0, r2         @r
 6949 342e C918     		adds r1, r1, r3         @i
 6950 3430 3618     		adds r6, r6, r0
 6951 3432 7F18     		adds r7, r7, r1
 6952              	
 6953              		@3
 6954 3434 DD46     		mov sp, r11
 6955 3436 0FBC     		pop {r0-r3}
 6956 3438 EB46     		mov r11, sp
 6957 343a D546     		mov sp, r10
 6958 343c 10BC     		pop {r4}
 6959 343e EA46     		mov r10, sp
 6960 3440 2546     		mov r5, r4
 6961 3442 2404     		lsls r4, r4, # 16
 6962 3444 240C     		lsrs r4, r4, # 16
 6963 3446 2D0C     		lsrs r5, r5, # 16
 6964 3448 6043     		muls r0, r0, r4		@R
 6965 344a 6143     		muls r1, r1, r4		@I
 6966 344c 6A43     		muls r2, r2, r5		@R
 6967 344e 6B43     		muls r3, r3, r5		@I
 6968 3450 8011     		asrs r0, r0, # 6
 6969 3452 8911     		asrs r1, r1, # 6
 6970 3454 9211     		asrs r2, r2, # 6
 6971 3456 9B11     		asrs r3, r3, # 6
 6972 3458 8018     		adds r0, r0, r2	 @r
 6973 345a C918     		adds r1, r1, r3	 @i
 6974 345c 3618     		adds r6, r6, r0
 6975 345e 7F18     		adds r7, r7, r1
 6976              	
 6977 3460 DD46     		mov sp, r11
 6978 3462 0FBC     		pop {r0-r3}
 6979 3464 EB46     		mov r11, sp
 6980 3466 D546     		mov sp, r10
 6981 3468 10BC     		pop {r4}
 6982 346a EA46     		mov r10, sp
 6983 346c 2546     		mov r5, r4
 6984 346e 2404     		lsls r4, r4, # 16
 6985 3470 240C     		lsrs r4, r4, # 16
 6986 3472 2D0C     		lsrs r5, r5, # 16
 6987 3474 6043     		muls r0, r0, r4
 6988 3476 6143     		muls r1, r1, r4
 6989 3478 6A43     		muls r2, r2, r5
 6990 347a 6B43     		muls r3, r3, r5
 6991 347c 8011     		asrs r0, r0, # 6
 6992 347e 8911     		asrs r1, r1, # 6
 6993 3480 9211     		asrs r2, r2, # 6
 6994 3482 9B11     		asrs r3, r3, # 6
 6995 3484 8018     		adds r0, r0, r2         @r
ARM GAS  1.s 			page 124


 6996 3486 C918     		adds r1, r1, r3         @i
 6997 3488 3618     		adds r6, r6, r0
 6998 348a 7F18     		adds r7, r7, r1
 6999              	
 7000 348c DD46     		mov sp, r11
 7001 348e 0FBC     		pop {r0-r3}
 7002 3490 EB46     		mov r11, sp
 7003 3492 D546     		mov sp, r10
 7004 3494 10BC     		pop {r4}
 7005 3496 EA46     		mov r10, sp
 7006 3498 2546     		mov r5, r4
 7007 349a 2404     		lsls r4, r4, # 16
 7008 349c 240C     		lsrs r4, r4, # 16
 7009 349e 2D0C     		lsrs r5, r5, # 16
 7010 34a0 6043     		muls r0, r0, r4
 7011 34a2 6143     		muls r1, r1, r4
 7012 34a4 6A43     		muls r2, r2, r5
 7013 34a6 6B43     		muls r3, r3, r5
 7014 34a8 8011     		asrs r0, r0, # 6
 7015 34aa 8911     		asrs r1, r1, # 6
 7016 34ac 9211     		asrs r2, r2, # 6
 7017 34ae 9B11     		asrs r3, r3, # 6
 7018 34b0 8018     		adds r0, r0, r2  @r
 7019 34b2 C918     		adds r1, r1, r3  @i
 7020 34b4 3618     		adds r6, r6, r0
 7021 34b6 7F18     		adds r7, r7, r1
 7022              	
 7023 34b8 DD46     		mov sp, r11
 7024 34ba 0FBC     		pop {r0-r3}
 7025 34bc EB46     		mov r11, sp
 7026 34be D546     		mov sp, r10
 7027 34c0 10BC     		pop {r4}
 7028 34c2 EA46     		mov r10, sp
 7029 34c4 2546     		mov r5, r4
 7030 34c6 2404     		lsls r4, r4, # 16
 7031 34c8 240C     		lsrs r4, r4, # 16
 7032 34ca 2D0C     		lsrs r5, r5, # 16
 7033 34cc 6043     		muls r0, r0, r4
 7034 34ce 6143     		muls r1, r1, r4
 7035 34d0 6A43     		muls r2, r2, r5
 7036 34d2 6B43     		muls r3, r3, r5
 7037 34d4 8011     		asrs r0, r0, # 6
 7038 34d6 8911     		asrs r1, r1, # 6
 7039 34d8 9211     		asrs r2, r2, # 6
 7040 34da 9B11     		asrs r3, r3, # 6
 7041 34dc 8018     		adds r0, r0, r2         @r
 7042 34de C918     		adds r1, r1, r3         @i
 7043 34e0 3618     		adds r6, r6, r0
 7044 34e2 7F18     		adds r7, r7, r1
 7045              	
 7046              		@4
 7047 34e4 DD46     		mov sp, r11
 7048 34e6 0FBC     		pop {r0-r3}
 7049 34e8 EB46     		mov r11, sp
 7050 34ea D546     		mov sp, r10
 7051 34ec 10BC     		pop {r4}
 7052 34ee EA46     		mov r10, sp
ARM GAS  1.s 			page 125


 7053 34f0 2546     		mov r5, r4
 7054 34f2 2404     		lsls r4, r4, # 16
 7055 34f4 240C     		lsrs r4, r4, # 16
 7056 34f6 2D0C     		lsrs r5, r5, # 16
 7057 34f8 6043     		muls r0, r0, r4		@R
 7058 34fa 6143     		muls r1, r1, r4		@I
 7059 34fc 6A43     		muls r2, r2, r5		@R
 7060 34fe 6B43     		muls r3, r3, r5		@I
 7061 3500 8011     		asrs r0, r0, # 6
 7062 3502 8911     		asrs r1, r1, # 6
 7063 3504 9211     		asrs r2, r2, # 6
 7064 3506 9B11     		asrs r3, r3, # 6
 7065 3508 8018     		adds r0, r0, r2	 @r
 7066 350a C918     		adds r1, r1, r3	 @i
 7067 350c 3618     		adds r6, r6, r0
 7068 350e 7F18     		adds r7, r7, r1
 7069              	
 7070 3510 DD46     		mov sp, r11
 7071 3512 0FBC     		pop {r0-r3}
 7072 3514 EB46     		mov r11, sp
 7073 3516 D546     		mov sp, r10
 7074 3518 10BC     		pop {r4}
 7075 351a EA46     		mov r10, sp
 7076 351c 2546     		mov r5, r4
 7077 351e 2404     		lsls r4, r4, # 16
 7078 3520 240C     		lsrs r4, r4, # 16
 7079 3522 2D0C     		lsrs r5, r5, # 16
 7080 3524 6043     		muls r0, r0, r4
 7081 3526 6143     		muls r1, r1, r4
 7082 3528 6A43     		muls r2, r2, r5
 7083 352a 6B43     		muls r3, r3, r5
 7084 352c 8011     		asrs r0, r0, # 6
 7085 352e 8911     		asrs r1, r1, # 6
 7086 3530 9211     		asrs r2, r2, # 6
 7087 3532 9B11     		asrs r3, r3, # 6
 7088 3534 8018     		adds r0, r0, r2         @r
 7089 3536 C918     		adds r1, r1, r3         @i
 7090 3538 3618     		adds r6, r6, r0
 7091 353a 7F18     		adds r7, r7, r1
 7092              	
 7093 353c DD46     		mov sp, r11
 7094 353e 0FBC     		pop {r0-r3}
 7095 3540 EB46     		mov r11, sp
 7096 3542 D546     		mov sp, r10
 7097 3544 10BC     		pop {r4}
 7098 3546 EA46     		mov r10, sp
 7099 3548 2546     		mov r5, r4
 7100 354a 2404     		lsls r4, r4, # 16
 7101 354c 240C     		lsrs r4, r4, # 16
 7102 354e 2D0C     		lsrs r5, r5, # 16
 7103 3550 6043     		muls r0, r0, r4
 7104 3552 6143     		muls r1, r1, r4
 7105 3554 6A43     		muls r2, r2, r5
 7106 3556 6B43     		muls r3, r3, r5
 7107 3558 8011     		asrs r0, r0, # 6
 7108 355a 8911     		asrs r1, r1, # 6
 7109 355c 9211     		asrs r2, r2, # 6
ARM GAS  1.s 			page 126


 7110 355e 9B11     		asrs r3, r3, # 6
 7111 3560 8018     		adds r0, r0, r2  @r
 7112 3562 C918     		adds r1, r1, r3  @i
 7113 3564 3618     		adds r6, r6, r0
 7114 3566 7F18     		adds r7, r7, r1
 7115              	
 7116 3568 DD46     		mov sp, r11
 7117 356a 0FBC     		pop {r0-r3}
 7118 356c EB46     		mov r11, sp
 7119 356e D546     		mov sp, r10
 7120 3570 10BC     		pop {r4}
 7121 3572 EA46     		mov r10, sp
 7122 3574 2546     		mov r5, r4
 7123 3576 2404     		lsls r4, r4, # 16
 7124 3578 240C     		lsrs r4, r4, # 16
 7125 357a 2D0C     		lsrs r5, r5, # 16
 7126 357c 6043     		muls r0, r0, r4
 7127 357e 6143     		muls r1, r1, r4
 7128 3580 6A43     		muls r2, r2, r5
 7129 3582 6B43     		muls r3, r3, r5
 7130 3584 8011     		asrs r0, r0, # 6
 7131 3586 8911     		asrs r1, r1, # 6
 7132 3588 9211     		asrs r2, r2, # 6
 7133 358a 9B11     		asrs r3, r3, # 6
 7134 358c 8018     		adds r0, r0, r2         @r
 7135 358e C918     		adds r1, r1, r3         @i
 7136 3590 3618     		adds r6, r6, r0
 7137 3592 7F18     		adds r7, r7, r1
 7138              	
 7139              		@5
 7140 3594 DD46     		mov sp, r11
 7141 3596 0FBC     		pop {r0-r3}
 7142 3598 EB46     		mov r11, sp
 7143 359a D546     		mov sp, r10
 7144 359c 10BC     		pop {r4}
 7145 359e EA46     		mov r10, sp
 7146 35a0 2546     		mov r5, r4
 7147 35a2 2404     		lsls r4, r4, # 16
 7148 35a4 240C     		lsrs r4, r4, # 16
 7149 35a6 2D0C     		lsrs r5, r5, # 16
 7150 35a8 6043     		muls r0, r0, r4		@R
 7151 35aa 6143     		muls r1, r1, r4		@I
 7152 35ac 6A43     		muls r2, r2, r5		@R
 7153 35ae 6B43     		muls r3, r3, r5		@I
 7154 35b0 8011     		asrs r0, r0, # 6
 7155 35b2 8911     		asrs r1, r1, # 6
 7156 35b4 9211     		asrs r2, r2, # 6
 7157 35b6 9B11     		asrs r3, r3, # 6
 7158 35b8 8018     		adds r0, r0, r2	 @r
 7159 35ba C918     		adds r1, r1, r3	 @i
 7160 35bc 3618     		adds r6, r6, r0
 7161 35be 7F18     		adds r7, r7, r1
 7162              	
 7163 35c0 DD46     		mov sp, r11
 7164 35c2 0FBC     		pop {r0-r3}
 7165 35c4 EB46     		mov r11, sp
 7166 35c6 D546     		mov sp, r10
ARM GAS  1.s 			page 127


 7167 35c8 10BC     		pop {r4}
 7168 35ca EA46     		mov r10, sp
 7169 35cc 2546     		mov r5, r4
 7170 35ce 2404     		lsls r4, r4, # 16
 7171 35d0 240C     		lsrs r4, r4, # 16
 7172 35d2 2D0C     		lsrs r5, r5, # 16
 7173 35d4 6043     		muls r0, r0, r4
 7174 35d6 6143     		muls r1, r1, r4
 7175 35d8 6A43     		muls r2, r2, r5
 7176 35da 6B43     		muls r3, r3, r5
 7177 35dc 8011     		asrs r0, r0, # 6
 7178 35de 8911     		asrs r1, r1, # 6
 7179 35e0 9211     		asrs r2, r2, # 6
 7180 35e2 9B11     		asrs r3, r3, # 6
 7181 35e4 8018     		adds r0, r0, r2         @r
 7182 35e6 C918     		adds r1, r1, r3         @i
 7183 35e8 3618     		adds r6, r6, r0
 7184 35ea 7F18     		adds r7, r7, r1
 7185              	
 7186 35ec DD46     		mov sp, r11
 7187 35ee 0FBC     		pop {r0-r3}
 7188 35f0 EB46     		mov r11, sp
 7189 35f2 D546     		mov sp, r10
 7190 35f4 10BC     		pop {r4}
 7191 35f6 EA46     		mov r10, sp
 7192 35f8 2546     		mov r5, r4
 7193 35fa 2404     		lsls r4, r4, # 16
 7194 35fc 240C     		lsrs r4, r4, # 16
 7195 35fe 2D0C     		lsrs r5, r5, # 16
 7196 3600 6043     		muls r0, r0, r4
 7197 3602 6143     		muls r1, r1, r4
 7198 3604 6A43     		muls r2, r2, r5
 7199 3606 6B43     		muls r3, r3, r5
 7200 3608 8011     		asrs r0, r0, # 6
 7201 360a 8911     		asrs r1, r1, # 6
 7202 360c 9211     		asrs r2, r2, # 6
 7203 360e 9B11     		asrs r3, r3, # 6
 7204 3610 8018     		adds r0, r0, r2  @r
 7205 3612 C918     		adds r1, r1, r3  @i
 7206 3614 3618     		adds r6, r6, r0
 7207 3616 7F18     		adds r7, r7, r1
 7208              	
 7209 3618 DD46     		mov sp, r11
 7210 361a 0FBC     		pop {r0-r3}
 7211 361c EB46     		mov r11, sp
 7212 361e D546     		mov sp, r10
 7213 3620 10BC     		pop {r4}
 7214 3622 EA46     		mov r10, sp
 7215 3624 2546     		mov r5, r4
 7216 3626 2404     		lsls r4, r4, # 16
 7217 3628 240C     		lsrs r4, r4, # 16
 7218 362a 2D0C     		lsrs r5, r5, # 16
 7219 362c 6043     		muls r0, r0, r4
 7220 362e 6143     		muls r1, r1, r4
 7221 3630 6A43     		muls r2, r2, r5
 7222 3632 6B43     		muls r3, r3, r5
 7223 3634 8011     		asrs r0, r0, # 6
ARM GAS  1.s 			page 128


 7224 3636 8911     		asrs r1, r1, # 6
 7225 3638 9211     		asrs r2, r2, # 6
 7226 363a 9B11     		asrs r3, r3, # 6
 7227 363c 8018     		adds r0, r0, r2         @r
 7228 363e C918     		adds r1, r1, r3         @i
 7229 3640 3618     		adds r6, r6, r0
 7230 3642 7F18     		adds r7, r7, r1
 7231              	
 7232              		@6
 7233 3644 DD46     		mov sp, r11
 7234 3646 0FBC     		pop {r0-r3}
 7235 3648 EB46     		mov r11, sp
 7236 364a D546     		mov sp, r10
 7237 364c 10BC     		pop {r4}
 7238 364e EA46     		mov r10, sp
 7239 3650 2546     		mov r5, r4
 7240 3652 2404     		lsls r4, r4, # 16
 7241 3654 240C     		lsrs r4, r4, # 16
 7242 3656 2D0C     		lsrs r5, r5, # 16
 7243 3658 6043     		muls r0, r0, r4		@R
 7244 365a 6143     		muls r1, r1, r4		@I
 7245 365c 6A43     		muls r2, r2, r5		@R
 7246 365e 6B43     		muls r3, r3, r5		@I
 7247 3660 8011     		asrs r0, r0, # 6
 7248 3662 8911     		asrs r1, r1, # 6
 7249 3664 9211     		asrs r2, r2, # 6
 7250 3666 9B11     		asrs r3, r3, # 6
 7251 3668 8018     		adds r0, r0, r2	 @r
 7252 366a C918     		adds r1, r1, r3	 @i
 7253 366c 3618     		adds r6, r6, r0
 7254 366e 7F18     		adds r7, r7, r1
 7255              	
 7256 3670 DD46     		mov sp, r11
 7257 3672 0FBC     		pop {r0-r3}
 7258 3674 EB46     		mov r11, sp
 7259 3676 D546     		mov sp, r10
 7260 3678 10BC     		pop {r4}
 7261 367a EA46     		mov r10, sp
 7262 367c 2546     		mov r5, r4
 7263 367e 2404     		lsls r4, r4, # 16
 7264 3680 240C     		lsrs r4, r4, # 16
 7265 3682 2D0C     		lsrs r5, r5, # 16
 7266 3684 6043     		muls r0, r0, r4
 7267 3686 6143     		muls r1, r1, r4
 7268 3688 6A43     		muls r2, r2, r5
 7269 368a 6B43     		muls r3, r3, r5
 7270 368c 8011     		asrs r0, r0, # 6
 7271 368e 8911     		asrs r1, r1, # 6
 7272 3690 9211     		asrs r2, r2, # 6
 7273 3692 9B11     		asrs r3, r3, # 6
 7274 3694 8018     		adds r0, r0, r2         @r
 7275 3696 C918     		adds r1, r1, r3         @i
 7276 3698 3618     		adds r6, r6, r0
 7277 369a 7F18     		adds r7, r7, r1
 7278              	
 7279 369c DD46     		mov sp, r11
 7280 369e 0FBC     		pop {r0-r3}
ARM GAS  1.s 			page 129


 7281 36a0 EB46     		mov r11, sp
 7282 36a2 D546     		mov sp, r10
 7283 36a4 10BC     		pop {r4}
 7284 36a6 EA46     		mov r10, sp
 7285 36a8 2546     		mov r5, r4
 7286 36aa 2404     		lsls r4, r4, # 16
 7287 36ac 240C     		lsrs r4, r4, # 16
 7288 36ae 2D0C     		lsrs r5, r5, # 16
 7289 36b0 6043     		muls r0, r0, r4
 7290 36b2 6143     		muls r1, r1, r4
 7291 36b4 6A43     		muls r2, r2, r5
 7292 36b6 6B43     		muls r3, r3, r5
 7293 36b8 8011     		asrs r0, r0, # 6
 7294 36ba 8911     		asrs r1, r1, # 6
 7295 36bc 9211     		asrs r2, r2, # 6
 7296 36be 9B11     		asrs r3, r3, # 6
 7297 36c0 8018     		adds r0, r0, r2  @r
 7298 36c2 C918     		adds r1, r1, r3  @i
 7299 36c4 3618     		adds r6, r6, r0
 7300 36c6 7F18     		adds r7, r7, r1
 7301              	
 7302 36c8 DD46     		mov sp, r11
 7303 36ca 0FBC     		pop {r0-r3}
 7304 36cc EB46     		mov r11, sp
 7305 36ce D546     		mov sp, r10
 7306 36d0 10BC     		pop {r4}
 7307 36d2 EA46     		mov r10, sp
 7308 36d4 2546     		mov r5, r4
 7309 36d6 2404     		lsls r4, r4, # 16
 7310 36d8 240C     		lsrs r4, r4, # 16
 7311 36da 2D0C     		lsrs r5, r5, # 16
 7312 36dc 6043     		muls r0, r0, r4
 7313 36de 6143     		muls r1, r1, r4
 7314 36e0 6A43     		muls r2, r2, r5
 7315 36e2 6B43     		muls r3, r3, r5
 7316 36e4 8011     		asrs r0, r0, # 6
 7317 36e6 8911     		asrs r1, r1, # 6
 7318 36e8 9211     		asrs r2, r2, # 6
 7319 36ea 9B11     		asrs r3, r3, # 6
 7320 36ec 8018     		adds r0, r0, r2         @r
 7321 36ee C918     		adds r1, r1, r3         @i
 7322 36f0 3618     		adds r6, r6, r0
 7323 36f2 7F18     		adds r7, r7, r1
 7324              	
 7325              		@7
 7326 36f4 DD46     		mov sp, r11
 7327 36f6 0FBC     		pop {r0-r3}
 7328 36f8 EB46     		mov r11, sp
 7329 36fa D546     		mov sp, r10
 7330 36fc 10BC     		pop {r4}
 7331 36fe EA46     		mov r10, sp
 7332 3700 2546     		mov r5, r4
 7333 3702 2404     		lsls r4, r4, # 16
 7334 3704 240C     		lsrs r4, r4, # 16
 7335 3706 2D0C     		lsrs r5, r5, # 16
 7336 3708 6043     		muls r0, r0, r4		@R
 7337 370a 6143     		muls r1, r1, r4		@I
ARM GAS  1.s 			page 130


 7338 370c 6A43     		muls r2, r2, r5		@R
 7339 370e 6B43     		muls r3, r3, r5		@I
 7340 3710 8011     		asrs r0, r0, # 6
 7341 3712 8911     		asrs r1, r1, # 6
 7342 3714 9211     		asrs r2, r2, # 6
 7343 3716 9B11     		asrs r3, r3, # 6
 7344 3718 8018     		adds r0, r0, r2	 @r
 7345 371a C918     		adds r1, r1, r3	 @i
 7346 371c 3618     		adds r6, r6, r0
 7347 371e 7F18     		adds r7, r7, r1
 7348              	
 7349 3720 DD46     		mov sp, r11
 7350 3722 0FBC     		pop {r0-r3}
 7351 3724 EB46     		mov r11, sp
 7352 3726 D546     		mov sp, r10
 7353 3728 10BC     		pop {r4}
 7354 372a EA46     		mov r10, sp
 7355 372c 2546     		mov r5, r4
 7356 372e 2404     		lsls r4, r4, # 16
 7357 3730 240C     		lsrs r4, r4, # 16
 7358 3732 2D0C     		lsrs r5, r5, # 16
 7359 3734 6043     		muls r0, r0, r4
 7360 3736 6143     		muls r1, r1, r4
 7361 3738 6A43     		muls r2, r2, r5
 7362 373a 6B43     		muls r3, r3, r5
 7363 373c 8011     		asrs r0, r0, # 6
 7364 373e 8911     		asrs r1, r1, # 6
 7365 3740 9211     		asrs r2, r2, # 6
 7366 3742 9B11     		asrs r3, r3, # 6
 7367 3744 8018     		adds r0, r0, r2         @r
 7368 3746 C918     		adds r1, r1, r3         @i
 7369 3748 3618     		adds r6, r6, r0
 7370 374a 7F18     		adds r7, r7, r1
 7371              	
 7372 374c DD46     		mov sp, r11
 7373 374e 0FBC     		pop {r0-r3}
 7374 3750 EB46     		mov r11, sp
 7375 3752 D546     		mov sp, r10
 7376 3754 10BC     		pop {r4}
 7377 3756 EA46     		mov r10, sp
 7378 3758 2546     		mov r5, r4
 7379 375a 2404     		lsls r4, r4, # 16
 7380 375c 240C     		lsrs r4, r4, # 16
 7381 375e 2D0C     		lsrs r5, r5, # 16
 7382 3760 6043     		muls r0, r0, r4
 7383 3762 6143     		muls r1, r1, r4
 7384 3764 6A43     		muls r2, r2, r5
 7385 3766 6B43     		muls r3, r3, r5
 7386 3768 8011     		asrs r0, r0, # 6
 7387 376a 8911     		asrs r1, r1, # 6
 7388 376c 9211     		asrs r2, r2, # 6
 7389 376e 9B11     		asrs r3, r3, # 6
 7390 3770 8018     		adds r0, r0, r2  @r
 7391 3772 C918     		adds r1, r1, r3  @i
 7392 3774 3618     		adds r6, r6, r0
 7393 3776 7F18     		adds r7, r7, r1
 7394              	
ARM GAS  1.s 			page 131


 7395 3778 DD46     		mov sp, r11
 7396 377a 0FBC     		pop {r0-r3}
 7397 377c EB46     		mov r11, sp
 7398 377e D546     		mov sp, r10
 7399 3780 10BC     		pop {r4}
 7400 3782 EA46     		mov r10, sp
 7401 3784 2546     		mov r5, r4
 7402 3786 2404     		lsls r4, r4, # 16
 7403 3788 240C     		lsrs r4, r4, # 16
 7404 378a 2D0C     		lsrs r5, r5, # 16
 7405 378c 6043     		muls r0, r0, r4
 7406 378e 6143     		muls r1, r1, r4
 7407 3790 6A43     		muls r2, r2, r5
 7408 3792 6B43     		muls r3, r3, r5
 7409 3794 8011     		asrs r0, r0, # 6
 7410 3796 8911     		asrs r1, r1, # 6
 7411 3798 9211     		asrs r2, r2, # 6
 7412 379a 9B11     		asrs r3, r3, # 6
 7413 379c 8018     		adds r0, r0, r2         @r
 7414 379e C918     		adds r1, r1, r3         @i
 7415 37a0 3618     		adds r6, r6, r0
 7416 37a2 7F18     		adds r7, r7, r1
 7417              	
 7418              		@8
 7419 37a4 DD46     		mov sp, r11
 7420 37a6 0FBC     		pop {r0-r3}
 7421 37a8 EB46     		mov r11, sp
 7422 37aa D546     		mov sp, r10
 7423 37ac 10BC     		pop {r4}
 7424 37ae EA46     		mov r10, sp
 7425 37b0 2546     		mov r5, r4
 7426 37b2 2404     		lsls r4, r4, # 16
 7427 37b4 240C     		lsrs r4, r4, # 16
 7428 37b6 2D0C     		lsrs r5, r5, # 16
 7429 37b8 6043     		muls r0, r0, r4		@R
 7430 37ba 6143     		muls r1, r1, r4		@I
 7431 37bc 6A43     		muls r2, r2, r5		@R
 7432 37be 6B43     		muls r3, r3, r5		@I
 7433 37c0 8011     		asrs r0, r0, # 6
 7434 37c2 8911     		asrs r1, r1, # 6
 7435 37c4 9211     		asrs r2, r2, # 6
 7436 37c6 9B11     		asrs r3, r3, # 6
 7437 37c8 8018     		adds r0, r0, r2	 @r
 7438 37ca C918     		adds r1, r1, r3	 @i
 7439 37cc 3618     		adds r6, r6, r0
 7440 37ce 7F18     		adds r7, r7, r1
 7441              	
 7442 37d0 DD46     		mov sp, r11
 7443 37d2 0FBC     		pop {r0-r3}
 7444 37d4 EB46     		mov r11, sp
 7445 37d6 D546     		mov sp, r10
 7446 37d8 10BC     		pop {r4}
 7447 37da EA46     		mov r10, sp
 7448 37dc 2546     		mov r5, r4
 7449 37de 2404     		lsls r4, r4, # 16
 7450 37e0 240C     		lsrs r4, r4, # 16
 7451 37e2 2D0C     		lsrs r5, r5, # 16
ARM GAS  1.s 			page 132


 7452 37e4 6043     		muls r0, r0, r4
 7453 37e6 6143     		muls r1, r1, r4
 7454 37e8 6A43     		muls r2, r2, r5
 7455 37ea 6B43     		muls r3, r3, r5
 7456 37ec 8011     		asrs r0, r0, # 6
 7457 37ee 8911     		asrs r1, r1, # 6
 7458 37f0 9211     		asrs r2, r2, # 6
 7459 37f2 9B11     		asrs r3, r3, # 6
 7460 37f4 8018     		adds r0, r0, r2         @r
 7461 37f6 C918     		adds r1, r1, r3         @i
 7462 37f8 3618     		adds r6, r6, r0
 7463 37fa 7F18     		adds r7, r7, r1
 7464              	
 7465 37fc DD46     		mov sp, r11
 7466 37fe 0FBC     		pop {r0-r3}
 7467 3800 EB46     		mov r11, sp
 7468 3802 D546     		mov sp, r10
 7469 3804 10BC     		pop {r4}
 7470 3806 EA46     		mov r10, sp
 7471 3808 2546     		mov r5, r4
 7472 380a 2404     		lsls r4, r4, # 16
 7473 380c 240C     		lsrs r4, r4, # 16
 7474 380e 2D0C     		lsrs r5, r5, # 16
 7475 3810 6043     		muls r0, r0, r4
 7476 3812 6143     		muls r1, r1, r4
 7477 3814 6A43     		muls r2, r2, r5
 7478 3816 6B43     		muls r3, r3, r5
 7479 3818 8011     		asrs r0, r0, # 6
 7480 381a 8911     		asrs r1, r1, # 6
 7481 381c 9211     		asrs r2, r2, # 6
 7482 381e 9B11     		asrs r3, r3, # 6
 7483 3820 8018     		adds r0, r0, r2  @r
 7484 3822 C918     		adds r1, r1, r3  @i
 7485 3824 3618     		adds r6, r6, r0
 7486 3826 7F18     		adds r7, r7, r1
 7487              	
 7488 3828 DD46     		mov sp, r11
 7489 382a 0FBC     		pop {r0-r3}
 7490 382c EB46     		mov r11, sp
 7491 382e D546     		mov sp, r10
 7492 3830 10BC     		pop {r4}
 7493 3832 EA46     		mov r10, sp
 7494 3834 2546     		mov r5, r4
 7495 3836 2404     		lsls r4, r4, # 16
 7496 3838 240C     		lsrs r4, r4, # 16
 7497 383a 2D0C     		lsrs r5, r5, # 16
 7498 383c 6043     		muls r0, r0, r4
 7499 383e 6143     		muls r1, r1, r4
 7500 3840 6A43     		muls r2, r2, r5
 7501 3842 6B43     		muls r3, r3, r5
 7502 3844 8011     		asrs r0, r0, # 6
 7503 3846 8911     		asrs r1, r1, # 6
 7504 3848 9211     		asrs r2, r2, # 6
 7505 384a 9B11     		asrs r3, r3, # 6
 7506 384c 8018     		adds r0, r0, r2         @r
 7507 384e C918     		adds r1, r1, r3         @i
 7508 3850 3618     		adds r6, r6, r0
ARM GAS  1.s 			page 133


 7509 3852 7F18     		adds r7, r7, r1
 7510              	
 7511              		@9
 7512 3854 DD46     		mov sp, r11
 7513 3856 0FBC     		pop {r0-r3}
 7514 3858 EB46     		mov r11, sp
 7515 385a D546     		mov sp, r10
 7516 385c 10BC     		pop {r4}
 7517 385e EA46     		mov r10, sp
 7518 3860 2546     		mov r5, r4
 7519 3862 2404     		lsls r4, r4, # 16
 7520 3864 240C     		lsrs r4, r4, # 16
 7521 3866 2D0C     		lsrs r5, r5, # 16
 7522 3868 6043     		muls r0, r0, r4		@R
 7523 386a 6143     		muls r1, r1, r4		@I
 7524 386c 6A43     		muls r2, r2, r5		@R
 7525 386e 6B43     		muls r3, r3, r5		@I
 7526 3870 8011     		asrs r0, r0, # 6
 7527 3872 8911     		asrs r1, r1, # 6
 7528 3874 9211     		asrs r2, r2, # 6
 7529 3876 9B11     		asrs r3, r3, # 6
 7530 3878 8018     		adds r0, r0, r2	 @r
 7531 387a C918     		adds r1, r1, r3	 @i
 7532 387c 3618     		adds r6, r6, r0
 7533 387e 7F18     		adds r7, r7, r1
 7534              	
 7535 3880 DD46     		mov sp, r11
 7536 3882 0FBC     		pop {r0-r3}
 7537 3884 EB46     		mov r11, sp
 7538 3886 D546     		mov sp, r10
 7539 3888 10BC     		pop {r4}
 7540 388a EA46     		mov r10, sp
 7541 388c 2546     		mov r5, r4
 7542 388e 2404     		lsls r4, r4, # 16
 7543 3890 240C     		lsrs r4, r4, # 16
 7544 3892 2D0C     		lsrs r5, r5, # 16
 7545 3894 6043     		muls r0, r0, r4
 7546 3896 6143     		muls r1, r1, r4
 7547 3898 6A43     		muls r2, r2, r5
 7548 389a 6B43     		muls r3, r3, r5
 7549 389c 8011     		asrs r0, r0, # 6
 7550 389e 8911     		asrs r1, r1, # 6
 7551 38a0 9211     		asrs r2, r2, # 6
 7552 38a2 9B11     		asrs r3, r3, # 6
 7553 38a4 8018     		adds r0, r0, r2         @r
 7554 38a6 C918     		adds r1, r1, r3         @i
 7555 38a8 3618     		adds r6, r6, r0
 7556 38aa 7F18     		adds r7, r7, r1
 7557              	
 7558 38ac DD46     		mov sp, r11
 7559 38ae 0FBC     		pop {r0-r3}
 7560 38b0 EB46     		mov r11, sp
 7561 38b2 D546     		mov sp, r10
 7562 38b4 10BC     		pop {r4}
 7563 38b6 EA46     		mov r10, sp
 7564 38b8 2546     		mov r5, r4
 7565 38ba 2404     		lsls r4, r4, # 16
ARM GAS  1.s 			page 134


 7566 38bc 240C     		lsrs r4, r4, # 16
 7567 38be 2D0C     		lsrs r5, r5, # 16
 7568 38c0 6043     		muls r0, r0, r4
 7569 38c2 6143     		muls r1, r1, r4
 7570 38c4 6A43     		muls r2, r2, r5
 7571 38c6 6B43     		muls r3, r3, r5
 7572 38c8 8011     		asrs r0, r0, # 6
 7573 38ca 8911     		asrs r1, r1, # 6
 7574 38cc 9211     		asrs r2, r2, # 6
 7575 38ce 9B11     		asrs r3, r3, # 6
 7576 38d0 8018     		adds r0, r0, r2  @r
 7577 38d2 C918     		adds r1, r1, r3  @i
 7578 38d4 3618     		adds r6, r6, r0
 7579 38d6 7F18     		adds r7, r7, r1
 7580              	
 7581 38d8 DD46     		mov sp, r11
 7582 38da 0FBC     		pop {r0-r3}
 7583 38dc EB46     		mov r11, sp
 7584 38de D546     		mov sp, r10
 7585 38e0 10BC     		pop {r4}
 7586 38e2 EA46     		mov r10, sp
 7587 38e4 2546     		mov r5, r4
 7588 38e6 2404     		lsls r4, r4, # 16
 7589 38e8 240C     		lsrs r4, r4, # 16
 7590 38ea 2D0C     		lsrs r5, r5, # 16
 7591 38ec 6043     		muls r0, r0, r4
 7592 38ee 6143     		muls r1, r1, r4
 7593 38f0 6A43     		muls r2, r2, r5
 7594 38f2 6B43     		muls r3, r3, r5
 7595 38f4 8011     		asrs r0, r0, # 6
 7596 38f6 8911     		asrs r1, r1, # 6
 7597 38f8 9211     		asrs r2, r2, # 6
 7598 38fa 9B11     		asrs r3, r3, # 6
 7599 38fc 8018     		adds r0, r0, r2         @r
 7600 38fe C918     		adds r1, r1, r3         @i
 7601 3900 3618     		adds r6, r6, r0
 7602 3902 7F18     		adds r7, r7, r1
 7603              	
 7604              	@yjm7
 7605              		@0
 7606 3904 DD46     		mov sp, r11
 7607 3906 0FBC     		pop {r0-r3}
 7608 3908 EB46     		mov r11, sp
 7609 390a D546     		mov sp, r10
 7610 390c 10BC     		pop {r4}
 7611 390e EA46     		mov r10, sp
 7612 3910 2546     		mov r5, r4
 7613 3912 2404     		lsls r4, r4, # 16
 7614 3914 240C     		lsrs r4, r4, # 16
 7615 3916 2D0C     		lsrs r5, r5, # 16
 7616 3918 6043     		muls r0, r0, r4		@R
 7617 391a 6143     		muls r1, r1, r4		@I
 7618 391c 6A43     		muls r2, r2, r5		@R
 7619 391e 6B43     		muls r3, r3, r5		@I
 7620 3920 8011     		asrs r0, r0, # 6
 7621 3922 8911     		asrs r1, r1, # 6
 7622 3924 9211     		asrs r2, r2, # 6
ARM GAS  1.s 			page 135


 7623 3926 9B11     		asrs r3, r3, # 6
 7624 3928 8018     		adds r0, r0, r2	 @r
 7625 392a C918     		adds r1, r1, r3	 @i
 7626 392c 3618     		adds r6, r6, r0
 7627 392e 7F18     		adds r7, r7, r1
 7628              	
 7629 3930 DD46     		mov sp, r11
 7630 3932 0FBC     		pop {r0-r3}
 7631 3934 EB46     		mov r11, sp
 7632 3936 D546     		mov sp, r10
 7633 3938 10BC     		pop {r4}
 7634 393a EA46     		mov r10, sp
 7635 393c 2546     		mov r5, r4
 7636 393e 2404     		lsls r4, r4, # 16
 7637 3940 240C     		lsrs r4, r4, # 16
 7638 3942 2D0C     		lsrs r5, r5, # 16
 7639 3944 6043     		muls r0, r0, r4
 7640 3946 6143     		muls r1, r1, r4
 7641 3948 6A43     		muls r2, r2, r5
 7642 394a 6B43     		muls r3, r3, r5
 7643 394c 8011     		asrs r0, r0, # 6
 7644 394e 8911     		asrs r1, r1, # 6
 7645 3950 9211     		asrs r2, r2, # 6
 7646 3952 9B11     		asrs r3, r3, # 6
 7647 3954 8018     		adds r0, r0, r2         @r
 7648 3956 C918     		adds r1, r1, r3         @i
 7649 3958 3618     		adds r6, r6, r0
 7650 395a 7F18     		adds r7, r7, r1
 7651              	
 7652 395c DD46     		mov sp, r11
 7653 395e 0FBC     		pop {r0-r3}
 7654 3960 EB46     		mov r11, sp
 7655 3962 D546     		mov sp, r10
 7656 3964 10BC     		pop {r4}
 7657 3966 EA46     		mov r10, sp
 7658 3968 2546     		mov r5, r4
 7659 396a 2404     		lsls r4, r4, # 16
 7660 396c 240C     		lsrs r4, r4, # 16
 7661 396e 2D0C     		lsrs r5, r5, # 16
 7662 3970 6043     		muls r0, r0, r4
 7663 3972 6143     		muls r1, r1, r4
 7664 3974 6A43     		muls r2, r2, r5
 7665 3976 6B43     		muls r3, r3, r5
 7666 3978 8011     		asrs r0, r0, # 6
 7667 397a 8911     		asrs r1, r1, # 6
 7668 397c 9211     		asrs r2, r2, # 6
 7669 397e 9B11     		asrs r3, r3, # 6
 7670 3980 8018     		adds r0, r0, r2  @r
 7671 3982 C918     		adds r1, r1, r3  @i
 7672 3984 3618     		adds r6, r6, r0
 7673 3986 7F18     		adds r7, r7, r1
 7674              	
 7675 3988 DD46     		mov sp, r11
 7676 398a 0FBC     		pop {r0-r3}
 7677 398c EB46     		mov r11, sp
 7678 398e D546     		mov sp, r10
 7679 3990 10BC     		pop {r4}
ARM GAS  1.s 			page 136


 7680 3992 EA46     		mov r10, sp
 7681 3994 2546     		mov r5, r4
 7682 3996 2404     		lsls r4, r4, # 16
 7683 3998 240C     		lsrs r4, r4, # 16
 7684 399a 2D0C     		lsrs r5, r5, # 16
 7685 399c 6043     		muls r0, r0, r4
 7686 399e 6143     		muls r1, r1, r4
 7687 39a0 6A43     		muls r2, r2, r5
 7688 39a2 6B43     		muls r3, r3, r5
 7689 39a4 8011     		asrs r0, r0, # 6
 7690 39a6 8911     		asrs r1, r1, # 6
 7691 39a8 9211     		asrs r2, r2, # 6
 7692 39aa 9B11     		asrs r3, r3, # 6
 7693 39ac 8018     		adds r0, r0, r2         @r
 7694 39ae C918     		adds r1, r1, r3         @i
 7695 39b0 3618     		adds r6, r6, r0
 7696 39b2 7F18     		adds r7, r7, r1
 7697              	
 7698              		@1
 7699 39b4 DD46     		mov sp, r11
 7700 39b6 0FBC     		pop {r0-r3}
 7701 39b8 EB46     		mov r11, sp
 7702 39ba D546     		mov sp, r10
 7703 39bc 10BC     		pop {r4}
 7704 39be EA46     		mov r10, sp
 7705 39c0 2546     		mov r5, r4
 7706 39c2 2404     		lsls r4, r4, # 16
 7707 39c4 240C     		lsrs r4, r4, # 16
 7708 39c6 2D0C     		lsrs r5, r5, # 16
 7709 39c8 6043     		muls r0, r0, r4		@R
 7710 39ca 6143     		muls r1, r1, r4		@I
 7711 39cc 6A43     		muls r2, r2, r5		@R
 7712 39ce 6B43     		muls r3, r3, r5		@I
 7713 39d0 8011     		asrs r0, r0, # 6
 7714 39d2 8911     		asrs r1, r1, # 6
 7715 39d4 9211     		asrs r2, r2, # 6
 7716 39d6 9B11     		asrs r3, r3, # 6
 7717 39d8 8018     		adds r0, r0, r2	 @r
 7718 39da C918     		adds r1, r1, r3	 @i
 7719 39dc 3618     		adds r6, r6, r0
 7720 39de 7F18     		adds r7, r7, r1
 7721              	
 7722 39e0 DD46     		mov sp, r11
 7723 39e2 0FBC     		pop {r0-r3}
 7724 39e4 EB46     		mov r11, sp
 7725 39e6 D546     		mov sp, r10
 7726 39e8 10BC     		pop {r4}
 7727 39ea EA46     		mov r10, sp
 7728 39ec 2546     		mov r5, r4
 7729 39ee 2404     		lsls r4, r4, # 16
 7730 39f0 240C     		lsrs r4, r4, # 16
 7731 39f2 2D0C     		lsrs r5, r5, # 16
 7732 39f4 6043     		muls r0, r0, r4
 7733 39f6 6143     		muls r1, r1, r4
 7734 39f8 6A43     		muls r2, r2, r5
 7735 39fa 6B43     		muls r3, r3, r5
 7736 39fc 8011     		asrs r0, r0, # 6
ARM GAS  1.s 			page 137


 7737 39fe 8911     		asrs r1, r1, # 6
 7738 3a00 9211     		asrs r2, r2, # 6
 7739 3a02 9B11     		asrs r3, r3, # 6
 7740 3a04 8018     		adds r0, r0, r2         @r
 7741 3a06 C918     		adds r1, r1, r3         @i
 7742 3a08 3618     		adds r6, r6, r0
 7743 3a0a 7F18     		adds r7, r7, r1
 7744              	
 7745 3a0c DD46     		mov sp, r11
 7746 3a0e 0FBC     		pop {r0-r3}
 7747 3a10 EB46     		mov r11, sp
 7748 3a12 D546     		mov sp, r10
 7749 3a14 10BC     		pop {r4}
 7750 3a16 EA46     		mov r10, sp
 7751 3a18 2546     		mov r5, r4
 7752 3a1a 2404     		lsls r4, r4, # 16
 7753 3a1c 240C     		lsrs r4, r4, # 16
 7754 3a1e 2D0C     		lsrs r5, r5, # 16
 7755 3a20 6043     		muls r0, r0, r4
 7756 3a22 6143     		muls r1, r1, r4
 7757 3a24 6A43     		muls r2, r2, r5
 7758 3a26 6B43     		muls r3, r3, r5
 7759 3a28 8011     		asrs r0, r0, # 6
 7760 3a2a 8911     		asrs r1, r1, # 6
 7761 3a2c 9211     		asrs r2, r2, # 6
 7762 3a2e 9B11     		asrs r3, r3, # 6
 7763 3a30 8018     		adds r0, r0, r2  @r
 7764 3a32 C918     		adds r1, r1, r3  @i
 7765 3a34 3618     		adds r6, r6, r0
 7766 3a36 7F18     		adds r7, r7, r1
 7767              	
 7768 3a38 DD46     		mov sp, r11
 7769 3a3a 0FBC     		pop {r0-r3}
 7770 3a3c EB46     		mov r11, sp
 7771 3a3e D546     		mov sp, r10
 7772 3a40 10BC     		pop {r4}
 7773 3a42 EA46     		mov r10, sp
 7774 3a44 2546     		mov r5, r4
 7775 3a46 2404     		lsls r4, r4, # 16
 7776 3a48 240C     		lsrs r4, r4, # 16
 7777 3a4a 2D0C     		lsrs r5, r5, # 16
 7778 3a4c 6043     		muls r0, r0, r4
 7779 3a4e 6143     		muls r1, r1, r4
 7780 3a50 6A43     		muls r2, r2, r5
 7781 3a52 6B43     		muls r3, r3, r5
 7782 3a54 8011     		asrs r0, r0, # 6
 7783 3a56 8911     		asrs r1, r1, # 6
 7784 3a58 9211     		asrs r2, r2, # 6
 7785 3a5a 9B11     		asrs r3, r3, # 6
 7786 3a5c 8018     		adds r0, r0, r2         @r
 7787 3a5e C918     		adds r1, r1, r3         @i
 7788 3a60 3618     		adds r6, r6, r0
 7789 3a62 7F18     		adds r7, r7, r1
 7790              	
 7791              		@2
 7792 3a64 DD46     		mov sp, r11
 7793 3a66 0FBC     		pop {r0-r3}
ARM GAS  1.s 			page 138


 7794 3a68 EB46     		mov r11, sp
 7795 3a6a D546     		mov sp, r10
 7796 3a6c 10BC     		pop {r4}
 7797 3a6e EA46     		mov r10, sp
 7798 3a70 2546     		mov r5, r4
 7799 3a72 2404     		lsls r4, r4, # 16
 7800 3a74 240C     		lsrs r4, r4, # 16
 7801 3a76 2D0C     		lsrs r5, r5, # 16
 7802 3a78 6043     		muls r0, r0, r4		@R
 7803 3a7a 6143     		muls r1, r1, r4		@I
 7804 3a7c 6A43     		muls r2, r2, r5		@R
 7805 3a7e 6B43     		muls r3, r3, r5		@I
 7806 3a80 8011     		asrs r0, r0, # 6
 7807 3a82 8911     		asrs r1, r1, # 6
 7808 3a84 9211     		asrs r2, r2, # 6
 7809 3a86 9B11     		asrs r3, r3, # 6
 7810 3a88 8018     		adds r0, r0, r2	 @r
 7811 3a8a C918     		adds r1, r1, r3	 @i
 7812 3a8c 3618     		adds r6, r6, r0
 7813 3a8e 7F18     		adds r7, r7, r1
 7814              	
 7815 3a90 DD46     		mov sp, r11
 7816 3a92 0FBC     		pop {r0-r3}
 7817 3a94 EB46     		mov r11, sp
 7818 3a96 D546     		mov sp, r10
 7819 3a98 10BC     		pop {r4}
 7820 3a9a EA46     		mov r10, sp
 7821 3a9c 2546     		mov r5, r4
 7822 3a9e 2404     		lsls r4, r4, # 16
 7823 3aa0 240C     		lsrs r4, r4, # 16
 7824 3aa2 2D0C     		lsrs r5, r5, # 16
 7825 3aa4 6043     		muls r0, r0, r4
 7826 3aa6 6143     		muls r1, r1, r4
 7827 3aa8 6A43     		muls r2, r2, r5
 7828 3aaa 6B43     		muls r3, r3, r5
 7829 3aac 8011     		asrs r0, r0, # 6
 7830 3aae 8911     		asrs r1, r1, # 6
 7831 3ab0 9211     		asrs r2, r2, # 6
 7832 3ab2 9B11     		asrs r3, r3, # 6
 7833 3ab4 8018     		adds r0, r0, r2         @r
 7834 3ab6 C918     		adds r1, r1, r3         @i
 7835 3ab8 3618     		adds r6, r6, r0
 7836 3aba 7F18     		adds r7, r7, r1
 7837              	
 7838 3abc DD46     		mov sp, r11
 7839 3abe 0FBC     		pop {r0-r3}
 7840 3ac0 EB46     		mov r11, sp
 7841 3ac2 D546     		mov sp, r10
 7842 3ac4 10BC     		pop {r4}
 7843 3ac6 EA46     		mov r10, sp
 7844 3ac8 2546     		mov r5, r4
 7845 3aca 2404     		lsls r4, r4, # 16
 7846 3acc 240C     		lsrs r4, r4, # 16
 7847 3ace 2D0C     		lsrs r5, r5, # 16
 7848 3ad0 6043     		muls r0, r0, r4
 7849 3ad2 6143     		muls r1, r1, r4
 7850 3ad4 6A43     		muls r2, r2, r5
ARM GAS  1.s 			page 139


 7851 3ad6 6B43     		muls r3, r3, r5
 7852 3ad8 8011     		asrs r0, r0, # 6
 7853 3ada 8911     		asrs r1, r1, # 6
 7854 3adc 9211     		asrs r2, r2, # 6
 7855 3ade 9B11     		asrs r3, r3, # 6
 7856 3ae0 8018     		adds r0, r0, r2  @r
 7857 3ae2 C918     		adds r1, r1, r3  @i
 7858 3ae4 3618     		adds r6, r6, r0
 7859 3ae6 7F18     		adds r7, r7, r1
 7860              	
 7861 3ae8 DD46     		mov sp, r11
 7862 3aea 0FBC     		pop {r0-r3}
 7863 3aec EB46     		mov r11, sp
 7864 3aee D546     		mov sp, r10
 7865 3af0 10BC     		pop {r4}
 7866 3af2 EA46     		mov r10, sp
 7867 3af4 2546     		mov r5, r4
 7868 3af6 2404     		lsls r4, r4, # 16
 7869 3af8 240C     		lsrs r4, r4, # 16
 7870 3afa 2D0C     		lsrs r5, r5, # 16
 7871 3afc 6043     		muls r0, r0, r4
 7872 3afe 6143     		muls r1, r1, r4
 7873 3b00 6A43     		muls r2, r2, r5
 7874 3b02 6B43     		muls r3, r3, r5
 7875 3b04 8011     		asrs r0, r0, # 6
 7876 3b06 8911     		asrs r1, r1, # 6
 7877 3b08 9211     		asrs r2, r2, # 6
 7878 3b0a 9B11     		asrs r3, r3, # 6
 7879 3b0c 8018     		adds r0, r0, r2         @r
 7880 3b0e C918     		adds r1, r1, r3         @i
 7881 3b10 3618     		adds r6, r6, r0
 7882 3b12 7F18     		adds r7, r7, r1
 7883              	
 7884              		@3
 7885 3b14 DD46     		mov sp, r11
 7886 3b16 0FBC     		pop {r0-r3}
 7887 3b18 EB46     		mov r11, sp
 7888 3b1a D546     		mov sp, r10
 7889 3b1c 10BC     		pop {r4}
 7890 3b1e EA46     		mov r10, sp
 7891 3b20 2546     		mov r5, r4
 7892 3b22 2404     		lsls r4, r4, # 16
 7893 3b24 240C     		lsrs r4, r4, # 16
 7894 3b26 2D0C     		lsrs r5, r5, # 16
 7895 3b28 6043     		muls r0, r0, r4		@R
 7896 3b2a 6143     		muls r1, r1, r4		@I
 7897 3b2c 6A43     		muls r2, r2, r5		@R
 7898 3b2e 6B43     		muls r3, r3, r5		@I
 7899 3b30 8011     		asrs r0, r0, # 6
 7900 3b32 8911     		asrs r1, r1, # 6
 7901 3b34 9211     		asrs r2, r2, # 6
 7902 3b36 9B11     		asrs r3, r3, # 6
 7903 3b38 8018     		adds r0, r0, r2	 @r
 7904 3b3a C918     		adds r1, r1, r3	 @i
 7905 3b3c 3618     		adds r6, r6, r0
 7906 3b3e 7F18     		adds r7, r7, r1
 7907              	
ARM GAS  1.s 			page 140


 7908 3b40 DD46     		mov sp, r11
 7909 3b42 0FBC     		pop {r0-r3}
 7910 3b44 EB46     		mov r11, sp
 7911 3b46 D546     		mov sp, r10
 7912 3b48 10BC     		pop {r4}
 7913 3b4a EA46     		mov r10, sp
 7914 3b4c 2546     		mov r5, r4
 7915 3b4e 2404     		lsls r4, r4, # 16
 7916 3b50 240C     		lsrs r4, r4, # 16
 7917 3b52 2D0C     		lsrs r5, r5, # 16
 7918 3b54 6043     		muls r0, r0, r4
 7919 3b56 6143     		muls r1, r1, r4
 7920 3b58 6A43     		muls r2, r2, r5
 7921 3b5a 6B43     		muls r3, r3, r5
 7922 3b5c 8011     		asrs r0, r0, # 6
 7923 3b5e 8911     		asrs r1, r1, # 6
 7924 3b60 9211     		asrs r2, r2, # 6
 7925 3b62 9B11     		asrs r3, r3, # 6
 7926 3b64 8018     		adds r0, r0, r2         @r
 7927 3b66 C918     		adds r1, r1, r3         @i
 7928 3b68 3618     		adds r6, r6, r0
 7929 3b6a 7F18     		adds r7, r7, r1
 7930              	
 7931 3b6c DD46     		mov sp, r11
 7932 3b6e 0FBC     		pop {r0-r3}
 7933 3b70 EB46     		mov r11, sp
 7934 3b72 D546     		mov sp, r10
 7935 3b74 10BC     		pop {r4}
 7936 3b76 EA46     		mov r10, sp
 7937 3b78 2546     		mov r5, r4
 7938 3b7a 2404     		lsls r4, r4, # 16
 7939 3b7c 240C     		lsrs r4, r4, # 16
 7940 3b7e 2D0C     		lsrs r5, r5, # 16
 7941 3b80 6043     		muls r0, r0, r4
 7942 3b82 6143     		muls r1, r1, r4
 7943 3b84 6A43     		muls r2, r2, r5
 7944 3b86 6B43     		muls r3, r3, r5
 7945 3b88 8011     		asrs r0, r0, # 6
 7946 3b8a 8911     		asrs r1, r1, # 6
 7947 3b8c 9211     		asrs r2, r2, # 6
 7948 3b8e 9B11     		asrs r3, r3, # 6
 7949 3b90 8018     		adds r0, r0, r2  @r
 7950 3b92 C918     		adds r1, r1, r3  @i
 7951 3b94 3618     		adds r6, r6, r0
 7952 3b96 7F18     		adds r7, r7, r1
 7953              	
 7954 3b98 DD46     		mov sp, r11
 7955 3b9a 0FBC     		pop {r0-r3}
 7956 3b9c EB46     		mov r11, sp
 7957 3b9e D546     		mov sp, r10
 7958 3ba0 10BC     		pop {r4}
 7959 3ba2 EA46     		mov r10, sp
 7960 3ba4 2546     		mov r5, r4
 7961 3ba6 2404     		lsls r4, r4, # 16
 7962 3ba8 240C     		lsrs r4, r4, # 16
 7963 3baa 2D0C     		lsrs r5, r5, # 16
 7964 3bac 6043     		muls r0, r0, r4
ARM GAS  1.s 			page 141


 7965 3bae 6143     		muls r1, r1, r4
 7966 3bb0 6A43     		muls r2, r2, r5
 7967 3bb2 6B43     		muls r3, r3, r5
 7968 3bb4 8011     		asrs r0, r0, # 6
 7969 3bb6 8911     		asrs r1, r1, # 6
 7970 3bb8 9211     		asrs r2, r2, # 6
 7971 3bba 9B11     		asrs r3, r3, # 6
 7972 3bbc 8018     		adds r0, r0, r2         @r
 7973 3bbe C918     		adds r1, r1, r3         @i
 7974 3bc0 3618     		adds r6, r6, r0
 7975 3bc2 7F18     		adds r7, r7, r1
 7976              	
 7977              		@4
 7978 3bc4 DD46     		mov sp, r11
 7979 3bc6 0FBC     		pop {r0-r3}
 7980 3bc8 EB46     		mov r11, sp
 7981 3bca D546     		mov sp, r10
 7982 3bcc 10BC     		pop {r4}
 7983 3bce EA46     		mov r10, sp
 7984 3bd0 2546     		mov r5, r4
 7985 3bd2 2404     		lsls r4, r4, # 16
 7986 3bd4 240C     		lsrs r4, r4, # 16
 7987 3bd6 2D0C     		lsrs r5, r5, # 16
 7988 3bd8 6043     		muls r0, r0, r4		@R
 7989 3bda 6143     		muls r1, r1, r4		@I
 7990 3bdc 6A43     		muls r2, r2, r5		@R
 7991 3bde 6B43     		muls r3, r3, r5		@I
 7992 3be0 8011     		asrs r0, r0, # 6
 7993 3be2 8911     		asrs r1, r1, # 6
 7994 3be4 9211     		asrs r2, r2, # 6
 7995 3be6 9B11     		asrs r3, r3, # 6
 7996 3be8 8018     		adds r0, r0, r2	 @r
 7997 3bea C918     		adds r1, r1, r3	 @i
 7998 3bec 3618     		adds r6, r6, r0
 7999 3bee 7F18     		adds r7, r7, r1
 8000              	
 8001 3bf0 DD46     		mov sp, r11
 8002 3bf2 0FBC     		pop {r0-r3}
 8003 3bf4 EB46     		mov r11, sp
 8004 3bf6 D546     		mov sp, r10
 8005 3bf8 10BC     		pop {r4}
 8006 3bfa EA46     		mov r10, sp
 8007 3bfc 2546     		mov r5, r4
 8008 3bfe 2404     		lsls r4, r4, # 16
 8009 3c00 240C     		lsrs r4, r4, # 16
 8010 3c02 2D0C     		lsrs r5, r5, # 16
 8011 3c04 6043     		muls r0, r0, r4
 8012 3c06 6143     		muls r1, r1, r4
 8013 3c08 6A43     		muls r2, r2, r5
 8014 3c0a 6B43     		muls r3, r3, r5
 8015 3c0c 8011     		asrs r0, r0, # 6
 8016 3c0e 8911     		asrs r1, r1, # 6
 8017 3c10 9211     		asrs r2, r2, # 6
 8018 3c12 9B11     		asrs r3, r3, # 6
 8019 3c14 8018     		adds r0, r0, r2         @r
 8020 3c16 C918     		adds r1, r1, r3         @i
 8021 3c18 3618     		adds r6, r6, r0
ARM GAS  1.s 			page 142


 8022 3c1a 7F18     		adds r7, r7, r1
 8023              	
 8024 3c1c DD46     		mov sp, r11
 8025 3c1e 0FBC     		pop {r0-r3}
 8026 3c20 EB46     		mov r11, sp
 8027 3c22 D546     		mov sp, r10
 8028 3c24 10BC     		pop {r4}
 8029 3c26 EA46     		mov r10, sp
 8030 3c28 2546     		mov r5, r4
 8031 3c2a 2404     		lsls r4, r4, # 16
 8032 3c2c 240C     		lsrs r4, r4, # 16
 8033 3c2e 2D0C     		lsrs r5, r5, # 16
 8034 3c30 6043     		muls r0, r0, r4
 8035 3c32 6143     		muls r1, r1, r4
 8036 3c34 6A43     		muls r2, r2, r5
 8037 3c36 6B43     		muls r3, r3, r5
 8038 3c38 8011     		asrs r0, r0, # 6
 8039 3c3a 8911     		asrs r1, r1, # 6
 8040 3c3c 9211     		asrs r2, r2, # 6
 8041 3c3e 9B11     		asrs r3, r3, # 6
 8042 3c40 8018     		adds r0, r0, r2  @r
 8043 3c42 C918     		adds r1, r1, r3  @i
 8044 3c44 3618     		adds r6, r6, r0
 8045 3c46 7F18     		adds r7, r7, r1
 8046              	
 8047 3c48 DD46     		mov sp, r11
 8048 3c4a 0FBC     		pop {r0-r3}
 8049 3c4c EB46     		mov r11, sp
 8050 3c4e D546     		mov sp, r10
 8051 3c50 10BC     		pop {r4}
 8052 3c52 EA46     		mov r10, sp
 8053 3c54 2546     		mov r5, r4
 8054 3c56 2404     		lsls r4, r4, # 16
 8055 3c58 240C     		lsrs r4, r4, # 16
 8056 3c5a 2D0C     		lsrs r5, r5, # 16
 8057 3c5c 6043     		muls r0, r0, r4
 8058 3c5e 6143     		muls r1, r1, r4
 8059 3c60 6A43     		muls r2, r2, r5
 8060 3c62 6B43     		muls r3, r3, r5
 8061 3c64 8011     		asrs r0, r0, # 6
 8062 3c66 8911     		asrs r1, r1, # 6
 8063 3c68 9211     		asrs r2, r2, # 6
 8064 3c6a 9B11     		asrs r3, r3, # 6
 8065 3c6c 8018     		adds r0, r0, r2         @r
 8066 3c6e C918     		adds r1, r1, r3         @i
 8067 3c70 3618     		adds r6, r6, r0
 8068 3c72 7F18     		adds r7, r7, r1
 8069              	
 8070              		@5
 8071 3c74 DD46     		mov sp, r11
 8072 3c76 0FBC     		pop {r0-r3}
 8073 3c78 EB46     		mov r11, sp
 8074 3c7a D546     		mov sp, r10
 8075 3c7c 10BC     		pop {r4}
 8076 3c7e EA46     		mov r10, sp
 8077 3c80 2546     		mov r5, r4
 8078 3c82 2404     		lsls r4, r4, # 16
ARM GAS  1.s 			page 143


 8079 3c84 240C     		lsrs r4, r4, # 16
 8080 3c86 2D0C     		lsrs r5, r5, # 16
 8081 3c88 6043     		muls r0, r0, r4		@R
 8082 3c8a 6143     		muls r1, r1, r4		@I
 8083 3c8c 6A43     		muls r2, r2, r5		@R
 8084 3c8e 6B43     		muls r3, r3, r5		@I
 8085 3c90 8011     		asrs r0, r0, # 6
 8086 3c92 8911     		asrs r1, r1, # 6
 8087 3c94 9211     		asrs r2, r2, # 6
 8088 3c96 9B11     		asrs r3, r3, # 6
 8089 3c98 8018     		adds r0, r0, r2	 @r
 8090 3c9a C918     		adds r1, r1, r3	 @i
 8091 3c9c 3618     		adds r6, r6, r0
 8092 3c9e 7F18     		adds r7, r7, r1
 8093              	
 8094 3ca0 DD46     		mov sp, r11
 8095 3ca2 0FBC     		pop {r0-r3}
 8096 3ca4 EB46     		mov r11, sp
 8097 3ca6 D546     		mov sp, r10
 8098 3ca8 10BC     		pop {r4}
 8099 3caa EA46     		mov r10, sp
 8100 3cac 2546     		mov r5, r4
 8101 3cae 2404     		lsls r4, r4, # 16
 8102 3cb0 240C     		lsrs r4, r4, # 16
 8103 3cb2 2D0C     		lsrs r5, r5, # 16
 8104 3cb4 6043     		muls r0, r0, r4
 8105 3cb6 6143     		muls r1, r1, r4
 8106 3cb8 6A43     		muls r2, r2, r5
 8107 3cba 6B43     		muls r3, r3, r5
 8108 3cbc 8011     		asrs r0, r0, # 6
 8109 3cbe 8911     		asrs r1, r1, # 6
 8110 3cc0 9211     		asrs r2, r2, # 6
 8111 3cc2 9B11     		asrs r3, r3, # 6
 8112 3cc4 8018     		adds r0, r0, r2         @r
 8113 3cc6 C918     		adds r1, r1, r3         @i
 8114 3cc8 3618     		adds r6, r6, r0
 8115 3cca 7F18     		adds r7, r7, r1
 8116              	
 8117 3ccc DD46     		mov sp, r11
 8118 3cce 0FBC     		pop {r0-r3}
 8119 3cd0 EB46     		mov r11, sp
 8120 3cd2 D546     		mov sp, r10
 8121 3cd4 10BC     		pop {r4}
 8122 3cd6 EA46     		mov r10, sp
 8123 3cd8 2546     		mov r5, r4
 8124 3cda 2404     		lsls r4, r4, # 16
 8125 3cdc 240C     		lsrs r4, r4, # 16
 8126 3cde 2D0C     		lsrs r5, r5, # 16
 8127 3ce0 6043     		muls r0, r0, r4
 8128 3ce2 6143     		muls r1, r1, r4
 8129 3ce4 6A43     		muls r2, r2, r5
 8130 3ce6 6B43     		muls r3, r3, r5
 8131 3ce8 8011     		asrs r0, r0, # 6
 8132 3cea 8911     		asrs r1, r1, # 6
 8133 3cec 9211     		asrs r2, r2, # 6
 8134 3cee 9B11     		asrs r3, r3, # 6
 8135 3cf0 8018     		adds r0, r0, r2  @r
ARM GAS  1.s 			page 144


 8136 3cf2 C918     		adds r1, r1, r3  @i
 8137 3cf4 3618     		adds r6, r6, r0
 8138 3cf6 7F18     		adds r7, r7, r1
 8139              	
 8140 3cf8 DD46     		mov sp, r11
 8141 3cfa 0FBC     		pop {r0-r3}
 8142 3cfc EB46     		mov r11, sp
 8143 3cfe D546     		mov sp, r10
 8144 3d00 10BC     		pop {r4}
 8145 3d02 EA46     		mov r10, sp
 8146 3d04 2546     		mov r5, r4
 8147 3d06 2404     		lsls r4, r4, # 16
 8148 3d08 240C     		lsrs r4, r4, # 16
 8149 3d0a 2D0C     		lsrs r5, r5, # 16
 8150 3d0c 6043     		muls r0, r0, r4
 8151 3d0e 6143     		muls r1, r1, r4
 8152 3d10 6A43     		muls r2, r2, r5
 8153 3d12 6B43     		muls r3, r3, r5
 8154 3d14 8011     		asrs r0, r0, # 6
 8155 3d16 8911     		asrs r1, r1, # 6
 8156 3d18 9211     		asrs r2, r2, # 6
 8157 3d1a 9B11     		asrs r3, r3, # 6
 8158 3d1c 8018     		adds r0, r0, r2         @r
 8159 3d1e C918     		adds r1, r1, r3         @i
 8160 3d20 3618     		adds r6, r6, r0
 8161 3d22 7F18     		adds r7, r7, r1
 8162              	
 8163              		@6
 8164 3d24 DD46     		mov sp, r11
 8165 3d26 0FBC     		pop {r0-r3}
 8166 3d28 EB46     		mov r11, sp
 8167 3d2a D546     		mov sp, r10
 8168 3d2c 10BC     		pop {r4}
 8169 3d2e EA46     		mov r10, sp
 8170 3d30 2546     		mov r5, r4
 8171 3d32 2404     		lsls r4, r4, # 16
 8172 3d34 240C     		lsrs r4, r4, # 16
 8173 3d36 2D0C     		lsrs r5, r5, # 16
 8174 3d38 6043     		muls r0, r0, r4		@R
 8175 3d3a 6143     		muls r1, r1, r4		@I
 8176 3d3c 6A43     		muls r2, r2, r5		@R
 8177 3d3e 6B43     		muls r3, r3, r5		@I
 8178 3d40 8011     		asrs r0, r0, # 6
 8179 3d42 8911     		asrs r1, r1, # 6
 8180 3d44 9211     		asrs r2, r2, # 6
 8181 3d46 9B11     		asrs r3, r3, # 6
 8182 3d48 8018     		adds r0, r0, r2	 @r
 8183 3d4a C918     		adds r1, r1, r3	 @i
 8184 3d4c 3618     		adds r6, r6, r0
 8185 3d4e 7F18     		adds r7, r7, r1
 8186              	
 8187 3d50 DD46     		mov sp, r11
 8188 3d52 0FBC     		pop {r0-r3}
 8189 3d54 EB46     		mov r11, sp
 8190 3d56 D546     		mov sp, r10
 8191 3d58 10BC     		pop {r4}
 8192 3d5a EA46     		mov r10, sp
ARM GAS  1.s 			page 145


 8193 3d5c 2546     		mov r5, r4
 8194 3d5e 2404     		lsls r4, r4, # 16
 8195 3d60 240C     		lsrs r4, r4, # 16
 8196 3d62 2D0C     		lsrs r5, r5, # 16
 8197 3d64 6043     		muls r0, r0, r4
 8198 3d66 6143     		muls r1, r1, r4
 8199 3d68 6A43     		muls r2, r2, r5
 8200 3d6a 6B43     		muls r3, r3, r5
 8201 3d6c 8011     		asrs r0, r0, # 6
 8202 3d6e 8911     		asrs r1, r1, # 6
 8203 3d70 9211     		asrs r2, r2, # 6
 8204 3d72 9B11     		asrs r3, r3, # 6
 8205 3d74 8018     		adds r0, r0, r2         @r
 8206 3d76 C918     		adds r1, r1, r3         @i
 8207 3d78 3618     		adds r6, r6, r0
 8208 3d7a 7F18     		adds r7, r7, r1
 8209              	
 8210 3d7c DD46     		mov sp, r11
 8211 3d7e 0FBC     		pop {r0-r3}
 8212 3d80 EB46     		mov r11, sp
 8213 3d82 D546     		mov sp, r10
 8214 3d84 10BC     		pop {r4}
 8215 3d86 EA46     		mov r10, sp
 8216 3d88 2546     		mov r5, r4
 8217 3d8a 2404     		lsls r4, r4, # 16
 8218 3d8c 240C     		lsrs r4, r4, # 16
 8219 3d8e 2D0C     		lsrs r5, r5, # 16
 8220 3d90 6043     		muls r0, r0, r4
 8221 3d92 6143     		muls r1, r1, r4
 8222 3d94 6A43     		muls r2, r2, r5
 8223 3d96 6B43     		muls r3, r3, r5
 8224 3d98 8011     		asrs r0, r0, # 6
 8225 3d9a 8911     		asrs r1, r1, # 6
 8226 3d9c 9211     		asrs r2, r2, # 6
 8227 3d9e 9B11     		asrs r3, r3, # 6
 8228 3da0 8018     		adds r0, r0, r2  @r
 8229 3da2 C918     		adds r1, r1, r3  @i
 8230 3da4 3618     		adds r6, r6, r0
 8231 3da6 7F18     		adds r7, r7, r1
 8232              	
 8233 3da8 DD46     		mov sp, r11
 8234 3daa 0FBC     		pop {r0-r3}
 8235 3dac EB46     		mov r11, sp
 8236 3dae D546     		mov sp, r10
 8237 3db0 10BC     		pop {r4}
 8238 3db2 EA46     		mov r10, sp
 8239 3db4 2546     		mov r5, r4
 8240 3db6 2404     		lsls r4, r4, # 16
 8241 3db8 240C     		lsrs r4, r4, # 16
 8242 3dba 2D0C     		lsrs r5, r5, # 16
 8243 3dbc 6043     		muls r0, r0, r4
 8244 3dbe 6143     		muls r1, r1, r4
 8245 3dc0 6A43     		muls r2, r2, r5
 8246 3dc2 6B43     		muls r3, r3, r5
 8247 3dc4 8011     		asrs r0, r0, # 6
 8248 3dc6 8911     		asrs r1, r1, # 6
 8249 3dc8 9211     		asrs r2, r2, # 6
ARM GAS  1.s 			page 146


 8250 3dca 9B11     		asrs r3, r3, # 6
 8251 3dcc 8018     		adds r0, r0, r2         @r
 8252 3dce C918     		adds r1, r1, r3         @i
 8253 3dd0 3618     		adds r6, r6, r0
 8254 3dd2 7F18     		adds r7, r7, r1
 8255              	
 8256              		@7
 8257 3dd4 DD46     		mov sp, r11
 8258 3dd6 0FBC     		pop {r0-r3}
 8259 3dd8 EB46     		mov r11, sp
 8260 3dda D546     		mov sp, r10
 8261 3ddc 10BC     		pop {r4}
 8262 3dde EA46     		mov r10, sp
 8263 3de0 2546     		mov r5, r4
 8264 3de2 2404     		lsls r4, r4, # 16
 8265 3de4 240C     		lsrs r4, r4, # 16
 8266 3de6 2D0C     		lsrs r5, r5, # 16
 8267 3de8 6043     		muls r0, r0, r4		@R
 8268 3dea 6143     		muls r1, r1, r4		@I
 8269 3dec 6A43     		muls r2, r2, r5		@R
 8270 3dee 6B43     		muls r3, r3, r5		@I
 8271 3df0 8011     		asrs r0, r0, # 6
 8272 3df2 8911     		asrs r1, r1, # 6
 8273 3df4 9211     		asrs r2, r2, # 6
 8274 3df6 9B11     		asrs r3, r3, # 6
 8275 3df8 8018     		adds r0, r0, r2	 @r
 8276 3dfa C918     		adds r1, r1, r3	 @i
 8277 3dfc 3618     		adds r6, r6, r0
 8278 3dfe 7F18     		adds r7, r7, r1
 8279              	
 8280 3e00 DD46     		mov sp, r11
 8281 3e02 0FBC     		pop {r0-r3}
 8282 3e04 EB46     		mov r11, sp
 8283 3e06 D546     		mov sp, r10
 8284 3e08 10BC     		pop {r4}
 8285 3e0a EA46     		mov r10, sp
 8286 3e0c 2546     		mov r5, r4
 8287 3e0e 2404     		lsls r4, r4, # 16
 8288 3e10 240C     		lsrs r4, r4, # 16
 8289 3e12 2D0C     		lsrs r5, r5, # 16
 8290 3e14 6043     		muls r0, r0, r4
 8291 3e16 6143     		muls r1, r1, r4
 8292 3e18 6A43     		muls r2, r2, r5
 8293 3e1a 6B43     		muls r3, r3, r5
 8294 3e1c 8011     		asrs r0, r0, # 6
 8295 3e1e 8911     		asrs r1, r1, # 6
 8296 3e20 9211     		asrs r2, r2, # 6
 8297 3e22 9B11     		asrs r3, r3, # 6
 8298 3e24 8018     		adds r0, r0, r2         @r
 8299 3e26 C918     		adds r1, r1, r3         @i
 8300 3e28 3618     		adds r6, r6, r0
 8301 3e2a 7F18     		adds r7, r7, r1
 8302              	
 8303 3e2c DD46     		mov sp, r11
 8304 3e2e 0FBC     		pop {r0-r3}
 8305 3e30 EB46     		mov r11, sp
 8306 3e32 D546     		mov sp, r10
ARM GAS  1.s 			page 147


 8307 3e34 10BC     		pop {r4}
 8308 3e36 EA46     		mov r10, sp
 8309 3e38 2546     		mov r5, r4
 8310 3e3a 2404     		lsls r4, r4, # 16
 8311 3e3c 240C     		lsrs r4, r4, # 16
 8312 3e3e 2D0C     		lsrs r5, r5, # 16
 8313 3e40 6043     		muls r0, r0, r4
 8314 3e42 6143     		muls r1, r1, r4
 8315 3e44 6A43     		muls r2, r2, r5
 8316 3e46 6B43     		muls r3, r3, r5
 8317 3e48 8011     		asrs r0, r0, # 6
 8318 3e4a 8911     		asrs r1, r1, # 6
 8319 3e4c 9211     		asrs r2, r2, # 6
 8320 3e4e 9B11     		asrs r3, r3, # 6
 8321 3e50 8018     		adds r0, r0, r2  @r
 8322 3e52 C918     		adds r1, r1, r3  @i
 8323 3e54 3618     		adds r6, r6, r0
 8324 3e56 7F18     		adds r7, r7, r1
 8325              	
 8326 3e58 DD46     		mov sp, r11
 8327 3e5a 0FBC     		pop {r0-r3}
 8328 3e5c EB46     		mov r11, sp
 8329 3e5e D546     		mov sp, r10
 8330 3e60 10BC     		pop {r4}
 8331 3e62 EA46     		mov r10, sp
 8332 3e64 2546     		mov r5, r4
 8333 3e66 2404     		lsls r4, r4, # 16
 8334 3e68 240C     		lsrs r4, r4, # 16
 8335 3e6a 2D0C     		lsrs r5, r5, # 16
 8336 3e6c 6043     		muls r0, r0, r4
 8337 3e6e 6143     		muls r1, r1, r4
 8338 3e70 6A43     		muls r2, r2, r5
 8339 3e72 6B43     		muls r3, r3, r5
 8340 3e74 8011     		asrs r0, r0, # 6
 8341 3e76 8911     		asrs r1, r1, # 6
 8342 3e78 9211     		asrs r2, r2, # 6
 8343 3e7a 9B11     		asrs r3, r3, # 6
 8344 3e7c 8018     		adds r0, r0, r2         @r
 8345 3e7e C918     		adds r1, r1, r3         @i
 8346 3e80 3618     		adds r6, r6, r0
 8347 3e82 7F18     		adds r7, r7, r1
 8348              	
 8349              		@8
 8350 3e84 DD46     		mov sp, r11
 8351 3e86 0FBC     		pop {r0-r3}
 8352 3e88 EB46     		mov r11, sp
 8353 3e8a D546     		mov sp, r10
 8354 3e8c 10BC     		pop {r4}
 8355 3e8e EA46     		mov r10, sp
 8356 3e90 2546     		mov r5, r4
 8357 3e92 2404     		lsls r4, r4, # 16
 8358 3e94 240C     		lsrs r4, r4, # 16
 8359 3e96 2D0C     		lsrs r5, r5, # 16
 8360 3e98 6043     		muls r0, r0, r4		@R
 8361 3e9a 6143     		muls r1, r1, r4		@I
 8362 3e9c 6A43     		muls r2, r2, r5		@R
 8363 3e9e 6B43     		muls r3, r3, r5		@I
ARM GAS  1.s 			page 148


 8364 3ea0 8011     		asrs r0, r0, # 6
 8365 3ea2 8911     		asrs r1, r1, # 6
 8366 3ea4 9211     		asrs r2, r2, # 6
 8367 3ea6 9B11     		asrs r3, r3, # 6
 8368 3ea8 8018     		adds r0, r0, r2	 @r
 8369 3eaa C918     		adds r1, r1, r3	 @i
 8370 3eac 3618     		adds r6, r6, r0
 8371 3eae 7F18     		adds r7, r7, r1
 8372              	
 8373 3eb0 DD46     		mov sp, r11
 8374 3eb2 0FBC     		pop {r0-r3}
 8375 3eb4 EB46     		mov r11, sp
 8376 3eb6 D546     		mov sp, r10
 8377 3eb8 10BC     		pop {r4}
 8378 3eba EA46     		mov r10, sp
 8379 3ebc 2546     		mov r5, r4
 8380 3ebe 2404     		lsls r4, r4, # 16
 8381 3ec0 240C     		lsrs r4, r4, # 16
 8382 3ec2 2D0C     		lsrs r5, r5, # 16
 8383 3ec4 6043     		muls r0, r0, r4
 8384 3ec6 6143     		muls r1, r1, r4
 8385 3ec8 6A43     		muls r2, r2, r5
 8386 3eca 6B43     		muls r3, r3, r5
 8387 3ecc 8011     		asrs r0, r0, # 6
 8388 3ece 8911     		asrs r1, r1, # 6
 8389 3ed0 9211     		asrs r2, r2, # 6
 8390 3ed2 9B11     		asrs r3, r3, # 6
 8391 3ed4 8018     		adds r0, r0, r2         @r
 8392 3ed6 C918     		adds r1, r1, r3         @i
 8393 3ed8 3618     		adds r6, r6, r0
 8394 3eda 7F18     		adds r7, r7, r1
 8395              	
 8396 3edc DD46     		mov sp, r11
 8397 3ede 0FBC     		pop {r0-r3}
 8398 3ee0 EB46     		mov r11, sp
 8399 3ee2 D546     		mov sp, r10
 8400 3ee4 10BC     		pop {r4}
 8401 3ee6 EA46     		mov r10, sp
 8402 3ee8 2546     		mov r5, r4
 8403 3eea 2404     		lsls r4, r4, # 16
 8404 3eec 240C     		lsrs r4, r4, # 16
 8405 3eee 2D0C     		lsrs r5, r5, # 16
 8406 3ef0 6043     		muls r0, r0, r4
 8407 3ef2 6143     		muls r1, r1, r4
 8408 3ef4 6A43     		muls r2, r2, r5
 8409 3ef6 6B43     		muls r3, r3, r5
 8410 3ef8 8011     		asrs r0, r0, # 6
 8411 3efa 8911     		asrs r1, r1, # 6
 8412 3efc 9211     		asrs r2, r2, # 6
 8413 3efe 9B11     		asrs r3, r3, # 6
 8414 3f00 8018     		adds r0, r0, r2  @r
 8415 3f02 C918     		adds r1, r1, r3  @i
 8416 3f04 3618     		adds r6, r6, r0
 8417 3f06 7F18     		adds r7, r7, r1
 8418              	
 8419 3f08 DD46     		mov sp, r11
 8420 3f0a 0FBC     		pop {r0-r3}
ARM GAS  1.s 			page 149


 8421 3f0c EB46     		mov r11, sp
 8422 3f0e D546     		mov sp, r10
 8423 3f10 10BC     		pop {r4}
 8424 3f12 EA46     		mov r10, sp
 8425 3f14 2546     		mov r5, r4
 8426 3f16 2404     		lsls r4, r4, # 16
 8427 3f18 240C     		lsrs r4, r4, # 16
 8428 3f1a 2D0C     		lsrs r5, r5, # 16
 8429 3f1c 6043     		muls r0, r0, r4
 8430 3f1e 6143     		muls r1, r1, r4
 8431 3f20 6A43     		muls r2, r2, r5
 8432 3f22 6B43     		muls r3, r3, r5
 8433 3f24 8011     		asrs r0, r0, # 6
 8434 3f26 8911     		asrs r1, r1, # 6
 8435 3f28 9211     		asrs r2, r2, # 6
 8436 3f2a 9B11     		asrs r3, r3, # 6
 8437 3f2c 8018     		adds r0, r0, r2         @r
 8438 3f2e C918     		adds r1, r1, r3         @i
 8439 3f30 3618     		adds r6, r6, r0
 8440 3f32 7F18     		adds r7, r7, r1
 8441              	
 8442              		@9
 8443 3f34 DD46     		mov sp, r11
 8444 3f36 0FBC     		pop {r0-r3}
 8445 3f38 EB46     		mov r11, sp
 8446 3f3a D546     		mov sp, r10
 8447 3f3c 10BC     		pop {r4}
 8448 3f3e EA46     		mov r10, sp
 8449 3f40 2546     		mov r5, r4
 8450 3f42 2404     		lsls r4, r4, # 16
 8451 3f44 240C     		lsrs r4, r4, # 16
 8452 3f46 2D0C     		lsrs r5, r5, # 16
 8453 3f48 6043     		muls r0, r0, r4		@R
 8454 3f4a 6143     		muls r1, r1, r4		@I
 8455 3f4c 6A43     		muls r2, r2, r5		@R
 8456 3f4e 6B43     		muls r3, r3, r5		@I
 8457 3f50 8011     		asrs r0, r0, # 6
 8458 3f52 8911     		asrs r1, r1, # 6
 8459 3f54 9211     		asrs r2, r2, # 6
 8460 3f56 9B11     		asrs r3, r3, # 6
 8461 3f58 8018     		adds r0, r0, r2	 @r
 8462 3f5a C918     		adds r1, r1, r3	 @i
 8463 3f5c 3618     		adds r6, r6, r0
 8464 3f5e 7F18     		adds r7, r7, r1
 8465              	
 8466 3f60 DD46     		mov sp, r11
 8467 3f62 0FBC     		pop {r0-r3}
 8468 3f64 EB46     		mov r11, sp
 8469 3f66 D546     		mov sp, r10
 8470 3f68 10BC     		pop {r4}
 8471 3f6a EA46     		mov r10, sp
 8472 3f6c 2546     		mov r5, r4
 8473 3f6e 2404     		lsls r4, r4, # 16
 8474 3f70 240C     		lsrs r4, r4, # 16
 8475 3f72 2D0C     		lsrs r5, r5, # 16
 8476 3f74 6043     		muls r0, r0, r4
 8477 3f76 6143     		muls r1, r1, r4
ARM GAS  1.s 			page 150


 8478 3f78 6A43     		muls r2, r2, r5
 8479 3f7a 6B43     		muls r3, r3, r5
 8480 3f7c 8011     		asrs r0, r0, # 6
 8481 3f7e 8911     		asrs r1, r1, # 6
 8482 3f80 9211     		asrs r2, r2, # 6
 8483 3f82 9B11     		asrs r3, r3, # 6
 8484 3f84 8018     		adds r0, r0, r2         @r
 8485 3f86 C918     		adds r1, r1, r3         @i
 8486 3f88 3618     		adds r6, r6, r0
 8487 3f8a 7F18     		adds r7, r7, r1
 8488              	
 8489 3f8c DD46     		mov sp, r11
 8490 3f8e 0FBC     		pop {r0-r3}
 8491 3f90 EB46     		mov r11, sp
 8492 3f92 D546     		mov sp, r10
 8493 3f94 10BC     		pop {r4}
 8494 3f96 EA46     		mov r10, sp
 8495 3f98 2546     		mov r5, r4
 8496 3f9a 2404     		lsls r4, r4, # 16
 8497 3f9c 240C     		lsrs r4, r4, # 16
 8498 3f9e 2D0C     		lsrs r5, r5, # 16
 8499 3fa0 6043     		muls r0, r0, r4
 8500 3fa2 6143     		muls r1, r1, r4
 8501 3fa4 6A43     		muls r2, r2, r5
 8502 3fa6 6B43     		muls r3, r3, r5
 8503 3fa8 8011     		asrs r0, r0, # 6
 8504 3faa 8911     		asrs r1, r1, # 6
 8505 3fac 9211     		asrs r2, r2, # 6
 8506 3fae 9B11     		asrs r3, r3, # 6
 8507 3fb0 8018     		adds r0, r0, r2  @r
 8508 3fb2 C918     		adds r1, r1, r3  @i
 8509 3fb4 3618     		adds r6, r6, r0
 8510 3fb6 7F18     		adds r7, r7, r1
 8511              	
 8512 3fb8 DD46     		mov sp, r11
 8513 3fba 0FBC     		pop {r0-r3}
 8514 3fbc EB46     		mov r11, sp
 8515 3fbe D546     		mov sp, r10
 8516 3fc0 10BC     		pop {r4}
 8517 3fc2 EA46     		mov r10, sp
 8518 3fc4 2546     		mov r5, r4
 8519 3fc6 2404     		lsls r4, r4, # 16
 8520 3fc8 240C     		lsrs r4, r4, # 16
 8521 3fca 2D0C     		lsrs r5, r5, # 16
 8522 3fcc 6043     		muls r0, r0, r4
 8523 3fce 6143     		muls r1, r1, r4
 8524 3fd0 6A43     		muls r2, r2, r5
 8525 3fd2 6B43     		muls r3, r3, r5
 8526 3fd4 8011     		asrs r0, r0, # 6
 8527 3fd6 8911     		asrs r1, r1, # 6
 8528 3fd8 9211     		asrs r2, r2, # 6
 8529 3fda 9B11     		asrs r3, r3, # 6
 8530 3fdc 8018     		adds r0, r0, r2         @r
 8531 3fde C918     		adds r1, r1, r3         @i
 8532 3fe0 3618     		adds r6, r6, r0
 8533 3fe2 7F18     		adds r7, r7, r1
 8534              	
ARM GAS  1.s 			page 151


 8535              	@yjm8
 8536              		@0
 8537 3fe4 DD46     		mov sp, r11
 8538 3fe6 0FBC     		pop {r0-r3}
 8539 3fe8 EB46     		mov r11, sp
 8540 3fea D546     		mov sp, r10
 8541 3fec 10BC     		pop {r4}
 8542 3fee EA46     		mov r10, sp
 8543 3ff0 2546     		mov r5, r4
 8544 3ff2 2404     		lsls r4, r4, # 16
 8545 3ff4 240C     		lsrs r4, r4, # 16
 8546 3ff6 2D0C     		lsrs r5, r5, # 16
 8547 3ff8 6043     		muls r0, r0, r4		@R
 8548 3ffa 6143     		muls r1, r1, r4		@I
 8549 3ffc 6A43     		muls r2, r2, r5		@R
 8550 3ffe 6B43     		muls r3, r3, r5		@I
 8551 4000 8011     		asrs r0, r0, # 6
 8552 4002 8911     		asrs r1, r1, # 6
 8553 4004 9211     		asrs r2, r2, # 6
 8554 4006 9B11     		asrs r3, r3, # 6
 8555 4008 8018     		adds r0, r0, r2	 @r
 8556 400a C918     		adds r1, r1, r3	 @i
 8557 400c 3618     		adds r6, r6, r0
 8558 400e 7F18     		adds r7, r7, r1
 8559              	
 8560 4010 DD46     		mov sp, r11
 8561 4012 0FBC     		pop {r0-r3}
 8562 4014 EB46     		mov r11, sp
 8563 4016 D546     		mov sp, r10
 8564 4018 10BC     		pop {r4}
 8565 401a EA46     		mov r10, sp
 8566 401c 2546     		mov r5, r4
 8567 401e 2404     		lsls r4, r4, # 16
 8568 4020 240C     		lsrs r4, r4, # 16
 8569 4022 2D0C     		lsrs r5, r5, # 16
 8570 4024 6043     		muls r0, r0, r4
 8571 4026 6143     		muls r1, r1, r4
 8572 4028 6A43     		muls r2, r2, r5
 8573 402a 6B43     		muls r3, r3, r5
 8574 402c 8011     		asrs r0, r0, # 6
 8575 402e 8911     		asrs r1, r1, # 6
 8576 4030 9211     		asrs r2, r2, # 6
 8577 4032 9B11     		asrs r3, r3, # 6
 8578 4034 8018     		adds r0, r0, r2         @r
 8579 4036 C918     		adds r1, r1, r3         @i
 8580 4038 3618     		adds r6, r6, r0
 8581 403a 7F18     		adds r7, r7, r1
 8582              	
 8583 403c DD46     		mov sp, r11
 8584 403e 0FBC     		pop {r0-r3}
 8585 4040 EB46     		mov r11, sp
 8586 4042 D546     		mov sp, r10
 8587 4044 10BC     		pop {r4}
 8588 4046 EA46     		mov r10, sp
 8589 4048 2546     		mov r5, r4
 8590 404a 2404     		lsls r4, r4, # 16
 8591 404c 240C     		lsrs r4, r4, # 16
ARM GAS  1.s 			page 152


 8592 404e 2D0C     		lsrs r5, r5, # 16
 8593 4050 6043     		muls r0, r0, r4
 8594 4052 6143     		muls r1, r1, r4
 8595 4054 6A43     		muls r2, r2, r5
 8596 4056 6B43     		muls r3, r3, r5
 8597 4058 8011     		asrs r0, r0, # 6
 8598 405a 8911     		asrs r1, r1, # 6
 8599 405c 9211     		asrs r2, r2, # 6
 8600 405e 9B11     		asrs r3, r3, # 6
 8601 4060 8018     		adds r0, r0, r2  @r
 8602 4062 C918     		adds r1, r1, r3  @i
 8603 4064 3618     		adds r6, r6, r0
 8604 4066 7F18     		adds r7, r7, r1
 8605              	
 8606 4068 DD46     		mov sp, r11
 8607 406a 0FBC     		pop {r0-r3}
 8608 406c EB46     		mov r11, sp
 8609 406e D546     		mov sp, r10
 8610 4070 10BC     		pop {r4}
 8611 4072 EA46     		mov r10, sp
 8612 4074 2546     		mov r5, r4
 8613 4076 2404     		lsls r4, r4, # 16
 8614 4078 240C     		lsrs r4, r4, # 16
 8615 407a 2D0C     		lsrs r5, r5, # 16
 8616 407c 6043     		muls r0, r0, r4
 8617 407e 6143     		muls r1, r1, r4
 8618 4080 6A43     		muls r2, r2, r5
 8619 4082 6B43     		muls r3, r3, r5
 8620 4084 8011     		asrs r0, r0, # 6
 8621 4086 8911     		asrs r1, r1, # 6
 8622 4088 9211     		asrs r2, r2, # 6
 8623 408a 9B11     		asrs r3, r3, # 6
 8624 408c 8018     		adds r0, r0, r2         @r
 8625 408e C918     		adds r1, r1, r3         @i
 8626 4090 3618     		adds r6, r6, r0
 8627 4092 7F18     		adds r7, r7, r1
 8628              	
 8629              		@1
 8630 4094 DD46     		mov sp, r11
 8631 4096 0FBC     		pop {r0-r3}
 8632 4098 EB46     		mov r11, sp
 8633 409a D546     		mov sp, r10
 8634 409c 10BC     		pop {r4}
 8635 409e EA46     		mov r10, sp
 8636 40a0 2546     		mov r5, r4
 8637 40a2 2404     		lsls r4, r4, # 16
 8638 40a4 240C     		lsrs r4, r4, # 16
 8639 40a6 2D0C     		lsrs r5, r5, # 16
 8640 40a8 6043     		muls r0, r0, r4		@R
 8641 40aa 6143     		muls r1, r1, r4		@I
 8642 40ac 6A43     		muls r2, r2, r5		@R
 8643 40ae 6B43     		muls r3, r3, r5		@I
 8644 40b0 8011     		asrs r0, r0, # 6
 8645 40b2 8911     		asrs r1, r1, # 6
 8646 40b4 9211     		asrs r2, r2, # 6
 8647 40b6 9B11     		asrs r3, r3, # 6
 8648 40b8 8018     		adds r0, r0, r2	 @r
ARM GAS  1.s 			page 153


 8649 40ba C918     		adds r1, r1, r3	 @i
 8650 40bc 3618     		adds r6, r6, r0
 8651 40be 7F18     		adds r7, r7, r1
 8652              	
 8653 40c0 DD46     		mov sp, r11
 8654 40c2 0FBC     		pop {r0-r3}
 8655 40c4 EB46     		mov r11, sp
 8656 40c6 D546     		mov sp, r10
 8657 40c8 10BC     		pop {r4}
 8658 40ca EA46     		mov r10, sp
 8659 40cc 2546     		mov r5, r4
 8660 40ce 2404     		lsls r4, r4, # 16
 8661 40d0 240C     		lsrs r4, r4, # 16
 8662 40d2 2D0C     		lsrs r5, r5, # 16
 8663 40d4 6043     		muls r0, r0, r4
 8664 40d6 6143     		muls r1, r1, r4
 8665 40d8 6A43     		muls r2, r2, r5
 8666 40da 6B43     		muls r3, r3, r5
 8667 40dc 8011     		asrs r0, r0, # 6
 8668 40de 8911     		asrs r1, r1, # 6
 8669 40e0 9211     		asrs r2, r2, # 6
 8670 40e2 9B11     		asrs r3, r3, # 6
 8671 40e4 8018     		adds r0, r0, r2         @r
 8672 40e6 C918     		adds r1, r1, r3         @i
 8673 40e8 3618     		adds r6, r6, r0
 8674 40ea 7F18     		adds r7, r7, r1
 8675              	
 8676 40ec DD46     		mov sp, r11
 8677 40ee 0FBC     		pop {r0-r3}
 8678 40f0 EB46     		mov r11, sp
 8679 40f2 D546     		mov sp, r10
 8680 40f4 10BC     		pop {r4}
 8681 40f6 EA46     		mov r10, sp
 8682 40f8 2546     		mov r5, r4
 8683 40fa 2404     		lsls r4, r4, # 16
 8684 40fc 240C     		lsrs r4, r4, # 16
 8685 40fe 2D0C     		lsrs r5, r5, # 16
 8686 4100 6043     		muls r0, r0, r4
 8687 4102 6143     		muls r1, r1, r4
 8688 4104 6A43     		muls r2, r2, r5
 8689 4106 6B43     		muls r3, r3, r5
 8690 4108 8011     		asrs r0, r0, # 6
 8691 410a 8911     		asrs r1, r1, # 6
 8692 410c 9211     		asrs r2, r2, # 6
 8693 410e 9B11     		asrs r3, r3, # 6
 8694 4110 8018     		adds r0, r0, r2  @r
 8695 4112 C918     		adds r1, r1, r3  @i
 8696 4114 3618     		adds r6, r6, r0
 8697 4116 7F18     		adds r7, r7, r1
 8698              	
 8699 4118 DD46     		mov sp, r11
 8700 411a 0FBC     		pop {r0-r3}
 8701 411c EB46     		mov r11, sp
 8702 411e D546     		mov sp, r10
 8703 4120 10BC     		pop {r4}
 8704 4122 EA46     		mov r10, sp
 8705 4124 2546     		mov r5, r4
ARM GAS  1.s 			page 154


 8706 4126 2404     		lsls r4, r4, # 16
 8707 4128 240C     		lsrs r4, r4, # 16
 8708 412a 2D0C     		lsrs r5, r5, # 16
 8709 412c 6043     		muls r0, r0, r4
 8710 412e 6143     		muls r1, r1, r4
 8711 4130 6A43     		muls r2, r2, r5
 8712 4132 6B43     		muls r3, r3, r5
 8713 4134 8011     		asrs r0, r0, # 6
 8714 4136 8911     		asrs r1, r1, # 6
 8715 4138 9211     		asrs r2, r2, # 6
 8716 413a 9B11     		asrs r3, r3, # 6
 8717 413c 8018     		adds r0, r0, r2         @r
 8718 413e C918     		adds r1, r1, r3         @i
 8719 4140 3618     		adds r6, r6, r0
 8720 4142 7F18     		adds r7, r7, r1
 8721              	
 8722              		@2
 8723 4144 DD46     		mov sp, r11
 8724 4146 0FBC     		pop {r0-r3}
 8725 4148 EB46     		mov r11, sp
 8726 414a D546     		mov sp, r10
 8727 414c 10BC     		pop {r4}
 8728 414e EA46     		mov r10, sp
 8729 4150 2546     		mov r5, r4
 8730 4152 2404     		lsls r4, r4, # 16
 8731 4154 240C     		lsrs r4, r4, # 16
 8732 4156 2D0C     		lsrs r5, r5, # 16
 8733 4158 6043     		muls r0, r0, r4		@R
 8734 415a 6143     		muls r1, r1, r4		@I
 8735 415c 6A43     		muls r2, r2, r5		@R
 8736 415e 6B43     		muls r3, r3, r5		@I
 8737 4160 8011     		asrs r0, r0, # 6
 8738 4162 8911     		asrs r1, r1, # 6
 8739 4164 9211     		asrs r2, r2, # 6
 8740 4166 9B11     		asrs r3, r3, # 6
 8741 4168 8018     		adds r0, r0, r2	 @r
 8742 416a C918     		adds r1, r1, r3	 @i
 8743 416c 3618     		adds r6, r6, r0
 8744 416e 7F18     		adds r7, r7, r1
 8745              	
 8746 4170 DD46     		mov sp, r11
 8747 4172 0FBC     		pop {r0-r3}
 8748 4174 EB46     		mov r11, sp
 8749 4176 D546     		mov sp, r10
 8750 4178 10BC     		pop {r4}
 8751 417a EA46     		mov r10, sp
 8752 417c 2546     		mov r5, r4
 8753 417e 2404     		lsls r4, r4, # 16
 8754 4180 240C     		lsrs r4, r4, # 16
 8755 4182 2D0C     		lsrs r5, r5, # 16
 8756 4184 6043     		muls r0, r0, r4
 8757 4186 6143     		muls r1, r1, r4
 8758 4188 6A43     		muls r2, r2, r5
 8759 418a 6B43     		muls r3, r3, r5
 8760 418c 8011     		asrs r0, r0, # 6
 8761 418e 8911     		asrs r1, r1, # 6
 8762 4190 9211     		asrs r2, r2, # 6
ARM GAS  1.s 			page 155


 8763 4192 9B11     		asrs r3, r3, # 6
 8764 4194 8018     		adds r0, r0, r2         @r
 8765 4196 C918     		adds r1, r1, r3         @i
 8766 4198 3618     		adds r6, r6, r0
 8767 419a 7F18     		adds r7, r7, r1
 8768              	
 8769 419c DD46     		mov sp, r11
 8770 419e 0FBC     		pop {r0-r3}
 8771 41a0 EB46     		mov r11, sp
 8772 41a2 D546     		mov sp, r10
 8773 41a4 10BC     		pop {r4}
 8774 41a6 EA46     		mov r10, sp
 8775 41a8 2546     		mov r5, r4
 8776 41aa 2404     		lsls r4, r4, # 16
 8777 41ac 240C     		lsrs r4, r4, # 16
 8778 41ae 2D0C     		lsrs r5, r5, # 16
 8779 41b0 6043     		muls r0, r0, r4
 8780 41b2 6143     		muls r1, r1, r4
 8781 41b4 6A43     		muls r2, r2, r5
 8782 41b6 6B43     		muls r3, r3, r5
 8783 41b8 8011     		asrs r0, r0, # 6
 8784 41ba 8911     		asrs r1, r1, # 6
 8785 41bc 9211     		asrs r2, r2, # 6
 8786 41be 9B11     		asrs r3, r3, # 6
 8787 41c0 8018     		adds r0, r0, r2  @r
 8788 41c2 C918     		adds r1, r1, r3  @i
 8789 41c4 3618     		adds r6, r6, r0
 8790 41c6 7F18     		adds r7, r7, r1
 8791              	
 8792 41c8 DD46     		mov sp, r11
 8793 41ca 0FBC     		pop {r0-r3}
 8794 41cc EB46     		mov r11, sp
 8795 41ce D546     		mov sp, r10
 8796 41d0 10BC     		pop {r4}
 8797 41d2 EA46     		mov r10, sp
 8798 41d4 2546     		mov r5, r4
 8799 41d6 2404     		lsls r4, r4, # 16
 8800 41d8 240C     		lsrs r4, r4, # 16
 8801 41da 2D0C     		lsrs r5, r5, # 16
 8802 41dc 6043     		muls r0, r0, r4
 8803 41de 6143     		muls r1, r1, r4
 8804 41e0 6A43     		muls r2, r2, r5
 8805 41e2 6B43     		muls r3, r3, r5
 8806 41e4 8011     		asrs r0, r0, # 6
 8807 41e6 8911     		asrs r1, r1, # 6
 8808 41e8 9211     		asrs r2, r2, # 6
 8809 41ea 9B11     		asrs r3, r3, # 6
 8810 41ec 8018     		adds r0, r0, r2         @r
 8811 41ee C918     		adds r1, r1, r3         @i
 8812 41f0 3618     		adds r6, r6, r0
 8813 41f2 7F18     		adds r7, r7, r1
 8814              	
 8815              		@3
 8816 41f4 DD46     		mov sp, r11
 8817 41f6 0FBC     		pop {r0-r3}
 8818 41f8 EB46     		mov r11, sp
 8819 41fa D546     		mov sp, r10
ARM GAS  1.s 			page 156


 8820 41fc 10BC     		pop {r4}
 8821 41fe EA46     		mov r10, sp
 8822 4200 2546     		mov r5, r4
 8823 4202 2404     		lsls r4, r4, # 16
 8824 4204 240C     		lsrs r4, r4, # 16
 8825 4206 2D0C     		lsrs r5, r5, # 16
 8826 4208 6043     		muls r0, r0, r4		@R
 8827 420a 6143     		muls r1, r1, r4		@I
 8828 420c 6A43     		muls r2, r2, r5		@R
 8829 420e 6B43     		muls r3, r3, r5		@I
 8830 4210 8011     		asrs r0, r0, # 6
 8831 4212 8911     		asrs r1, r1, # 6
 8832 4214 9211     		asrs r2, r2, # 6
 8833 4216 9B11     		asrs r3, r3, # 6
 8834 4218 8018     		adds r0, r0, r2	 @r
 8835 421a C918     		adds r1, r1, r3	 @i
 8836 421c 3618     		adds r6, r6, r0
 8837 421e 7F18     		adds r7, r7, r1
 8838              	
 8839 4220 DD46     		mov sp, r11
 8840 4222 0FBC     		pop {r0-r3}
 8841 4224 EB46     		mov r11, sp
 8842 4226 D546     		mov sp, r10
 8843 4228 10BC     		pop {r4}
 8844 422a EA46     		mov r10, sp
 8845 422c 2546     		mov r5, r4
 8846 422e 2404     		lsls r4, r4, # 16
 8847 4230 240C     		lsrs r4, r4, # 16
 8848 4232 2D0C     		lsrs r5, r5, # 16
 8849 4234 6043     		muls r0, r0, r4
 8850 4236 6143     		muls r1, r1, r4
 8851 4238 6A43     		muls r2, r2, r5
 8852 423a 6B43     		muls r3, r3, r5
 8853 423c 8011     		asrs r0, r0, # 6
 8854 423e 8911     		asrs r1, r1, # 6
 8855 4240 9211     		asrs r2, r2, # 6
 8856 4242 9B11     		asrs r3, r3, # 6
 8857 4244 8018     		adds r0, r0, r2         @r
 8858 4246 C918     		adds r1, r1, r3         @i
 8859 4248 3618     		adds r6, r6, r0
 8860 424a 7F18     		adds r7, r7, r1
 8861              	
 8862 424c DD46     		mov sp, r11
 8863 424e 0FBC     		pop {r0-r3}
 8864 4250 EB46     		mov r11, sp
 8865 4252 D546     		mov sp, r10
 8866 4254 10BC     		pop {r4}
 8867 4256 EA46     		mov r10, sp
 8868 4258 2546     		mov r5, r4
 8869 425a 2404     		lsls r4, r4, # 16
 8870 425c 240C     		lsrs r4, r4, # 16
 8871 425e 2D0C     		lsrs r5, r5, # 16
 8872 4260 6043     		muls r0, r0, r4
 8873 4262 6143     		muls r1, r1, r4
 8874 4264 6A43     		muls r2, r2, r5
 8875 4266 6B43     		muls r3, r3, r5
 8876 4268 8011     		asrs r0, r0, # 6
ARM GAS  1.s 			page 157


 8877 426a 8911     		asrs r1, r1, # 6
 8878 426c 9211     		asrs r2, r2, # 6
 8879 426e 9B11     		asrs r3, r3, # 6
 8880 4270 8018     		adds r0, r0, r2  @r
 8881 4272 C918     		adds r1, r1, r3  @i
 8882 4274 3618     		adds r6, r6, r0
 8883 4276 7F18     		adds r7, r7, r1
 8884              	
 8885 4278 DD46     		mov sp, r11
 8886 427a 0FBC     		pop {r0-r3}
 8887 427c EB46     		mov r11, sp
 8888 427e D546     		mov sp, r10
 8889 4280 10BC     		pop {r4}
 8890 4282 EA46     		mov r10, sp
 8891 4284 2546     		mov r5, r4
 8892 4286 2404     		lsls r4, r4, # 16
 8893 4288 240C     		lsrs r4, r4, # 16
 8894 428a 2D0C     		lsrs r5, r5, # 16
 8895 428c 6043     		muls r0, r0, r4
 8896 428e 6143     		muls r1, r1, r4
 8897 4290 6A43     		muls r2, r2, r5
 8898 4292 6B43     		muls r3, r3, r5
 8899 4294 8011     		asrs r0, r0, # 6
 8900 4296 8911     		asrs r1, r1, # 6
 8901 4298 9211     		asrs r2, r2, # 6
 8902 429a 9B11     		asrs r3, r3, # 6
 8903 429c 8018     		adds r0, r0, r2         @r
 8904 429e C918     		adds r1, r1, r3         @i
 8905 42a0 3618     		adds r6, r6, r0
 8906 42a2 7F18     		adds r7, r7, r1
 8907              	
 8908              		@4
 8909 42a4 DD46     		mov sp, r11
 8910 42a6 0FBC     		pop {r0-r3}
 8911 42a8 EB46     		mov r11, sp
 8912 42aa D546     		mov sp, r10
 8913 42ac 10BC     		pop {r4}
 8914 42ae EA46     		mov r10, sp
 8915 42b0 2546     		mov r5, r4
 8916 42b2 2404     		lsls r4, r4, # 16
 8917 42b4 240C     		lsrs r4, r4, # 16
 8918 42b6 2D0C     		lsrs r5, r5, # 16
 8919 42b8 6043     		muls r0, r0, r4		@R
 8920 42ba 6143     		muls r1, r1, r4		@I
 8921 42bc 6A43     		muls r2, r2, r5		@R
 8922 42be 6B43     		muls r3, r3, r5		@I
 8923 42c0 8011     		asrs r0, r0, # 6
 8924 42c2 8911     		asrs r1, r1, # 6
 8925 42c4 9211     		asrs r2, r2, # 6
 8926 42c6 9B11     		asrs r3, r3, # 6
 8927 42c8 8018     		adds r0, r0, r2	 @r
 8928 42ca C918     		adds r1, r1, r3	 @i
 8929 42cc 3618     		adds r6, r6, r0
 8930 42ce 7F18     		adds r7, r7, r1
 8931              	
 8932 42d0 DD46     		mov sp, r11
 8933 42d2 0FBC     		pop {r0-r3}
ARM GAS  1.s 			page 158


 8934 42d4 EB46     		mov r11, sp
 8935 42d6 D546     		mov sp, r10
 8936 42d8 10BC     		pop {r4}
 8937 42da EA46     		mov r10, sp
 8938 42dc 2546     		mov r5, r4
 8939 42de 2404     		lsls r4, r4, # 16
 8940 42e0 240C     		lsrs r4, r4, # 16
 8941 42e2 2D0C     		lsrs r5, r5, # 16
 8942 42e4 6043     		muls r0, r0, r4
 8943 42e6 6143     		muls r1, r1, r4
 8944 42e8 6A43     		muls r2, r2, r5
 8945 42ea 6B43     		muls r3, r3, r5
 8946 42ec 8011     		asrs r0, r0, # 6
 8947 42ee 8911     		asrs r1, r1, # 6
 8948 42f0 9211     		asrs r2, r2, # 6
 8949 42f2 9B11     		asrs r3, r3, # 6
 8950 42f4 8018     		adds r0, r0, r2         @r
 8951 42f6 C918     		adds r1, r1, r3         @i
 8952 42f8 3618     		adds r6, r6, r0
 8953 42fa 7F18     		adds r7, r7, r1
 8954              	
 8955 42fc DD46     		mov sp, r11
 8956 42fe 0FBC     		pop {r0-r3}
 8957 4300 EB46     		mov r11, sp
 8958 4302 D546     		mov sp, r10
 8959 4304 10BC     		pop {r4}
 8960 4306 EA46     		mov r10, sp
 8961 4308 2546     		mov r5, r4
 8962 430a 2404     		lsls r4, r4, # 16
 8963 430c 240C     		lsrs r4, r4, # 16
 8964 430e 2D0C     		lsrs r5, r5, # 16
 8965 4310 6043     		muls r0, r0, r4
 8966 4312 6143     		muls r1, r1, r4
 8967 4314 6A43     		muls r2, r2, r5
 8968 4316 6B43     		muls r3, r3, r5
 8969 4318 8011     		asrs r0, r0, # 6
 8970 431a 8911     		asrs r1, r1, # 6
 8971 431c 9211     		asrs r2, r2, # 6
 8972 431e 9B11     		asrs r3, r3, # 6
 8973 4320 8018     		adds r0, r0, r2  @r
 8974 4322 C918     		adds r1, r1, r3  @i
 8975 4324 3618     		adds r6, r6, r0
 8976 4326 7F18     		adds r7, r7, r1
 8977              	
 8978 4328 DD46     		mov sp, r11
 8979 432a 0FBC     		pop {r0-r3}
 8980 432c EB46     		mov r11, sp
 8981 432e D546     		mov sp, r10
 8982 4330 10BC     		pop {r4}
 8983 4332 EA46     		mov r10, sp
 8984 4334 2546     		mov r5, r4
 8985 4336 2404     		lsls r4, r4, # 16
 8986 4338 240C     		lsrs r4, r4, # 16
 8987 433a 2D0C     		lsrs r5, r5, # 16
 8988 433c 6043     		muls r0, r0, r4
 8989 433e 6143     		muls r1, r1, r4
 8990 4340 6A43     		muls r2, r2, r5
ARM GAS  1.s 			page 159


 8991 4342 6B43     		muls r3, r3, r5
 8992 4344 8011     		asrs r0, r0, # 6
 8993 4346 8911     		asrs r1, r1, # 6
 8994 4348 9211     		asrs r2, r2, # 6
 8995 434a 9B11     		asrs r3, r3, # 6
 8996 434c 8018     		adds r0, r0, r2         @r
 8997 434e C918     		adds r1, r1, r3         @i
 8998 4350 3618     		adds r6, r6, r0
 8999 4352 7F18     		adds r7, r7, r1
 9000              	
 9001              		@5
 9002 4354 DD46     		mov sp, r11
 9003 4356 0FBC     		pop {r0-r3}
 9004 4358 EB46     		mov r11, sp
 9005 435a D546     		mov sp, r10
 9006 435c 10BC     		pop {r4}
 9007 435e EA46     		mov r10, sp
 9008 4360 2546     		mov r5, r4
 9009 4362 2404     		lsls r4, r4, # 16
 9010 4364 240C     		lsrs r4, r4, # 16
 9011 4366 2D0C     		lsrs r5, r5, # 16
 9012 4368 6043     		muls r0, r0, r4		@R
 9013 436a 6143     		muls r1, r1, r4		@I
 9014 436c 6A43     		muls r2, r2, r5		@R
 9015 436e 6B43     		muls r3, r3, r5		@I
 9016 4370 8011     		asrs r0, r0, # 6
 9017 4372 8911     		asrs r1, r1, # 6
 9018 4374 9211     		asrs r2, r2, # 6
 9019 4376 9B11     		asrs r3, r3, # 6
 9020 4378 8018     		adds r0, r0, r2	 @r
 9021 437a C918     		adds r1, r1, r3	 @i
 9022 437c 3618     		adds r6, r6, r0
 9023 437e 7F18     		adds r7, r7, r1
 9024              	
 9025 4380 DD46     		mov sp, r11
 9026 4382 0FBC     		pop {r0-r3}
 9027 4384 EB46     		mov r11, sp
 9028 4386 D546     		mov sp, r10
 9029 4388 10BC     		pop {r4}
 9030 438a EA46     		mov r10, sp
 9031 438c 2546     		mov r5, r4
 9032 438e 2404     		lsls r4, r4, # 16
 9033 4390 240C     		lsrs r4, r4, # 16
 9034 4392 2D0C     		lsrs r5, r5, # 16
 9035 4394 6043     		muls r0, r0, r4
 9036 4396 6143     		muls r1, r1, r4
 9037 4398 6A43     		muls r2, r2, r5
 9038 439a 6B43     		muls r3, r3, r5
 9039 439c 8011     		asrs r0, r0, # 6
 9040 439e 8911     		asrs r1, r1, # 6
 9041 43a0 9211     		asrs r2, r2, # 6
 9042 43a2 9B11     		asrs r3, r3, # 6
 9043 43a4 8018     		adds r0, r0, r2         @r
 9044 43a6 C918     		adds r1, r1, r3         @i
 9045 43a8 3618     		adds r6, r6, r0
 9046 43aa 7F18     		adds r7, r7, r1
 9047              	
ARM GAS  1.s 			page 160


 9048 43ac DD46     		mov sp, r11
 9049 43ae 0FBC     		pop {r0-r3}
 9050 43b0 EB46     		mov r11, sp
 9051 43b2 D546     		mov sp, r10
 9052 43b4 10BC     		pop {r4}
 9053 43b6 EA46     		mov r10, sp
 9054 43b8 2546     		mov r5, r4
 9055 43ba 2404     		lsls r4, r4, # 16
 9056 43bc 240C     		lsrs r4, r4, # 16
 9057 43be 2D0C     		lsrs r5, r5, # 16
 9058 43c0 6043     		muls r0, r0, r4
 9059 43c2 6143     		muls r1, r1, r4
 9060 43c4 6A43     		muls r2, r2, r5
 9061 43c6 6B43     		muls r3, r3, r5
 9062 43c8 8011     		asrs r0, r0, # 6
 9063 43ca 8911     		asrs r1, r1, # 6
 9064 43cc 9211     		asrs r2, r2, # 6
 9065 43ce 9B11     		asrs r3, r3, # 6
 9066 43d0 8018     		adds r0, r0, r2  @r
 9067 43d2 C918     		adds r1, r1, r3  @i
 9068 43d4 3618     		adds r6, r6, r0
 9069 43d6 7F18     		adds r7, r7, r1
 9070              	
 9071 43d8 DD46     		mov sp, r11
 9072 43da 0FBC     		pop {r0-r3}
 9073 43dc EB46     		mov r11, sp
 9074 43de D546     		mov sp, r10
 9075 43e0 10BC     		pop {r4}
 9076 43e2 EA46     		mov r10, sp
 9077 43e4 2546     		mov r5, r4
 9078 43e6 2404     		lsls r4, r4, # 16
 9079 43e8 240C     		lsrs r4, r4, # 16
 9080 43ea 2D0C     		lsrs r5, r5, # 16
 9081 43ec 6043     		muls r0, r0, r4
 9082 43ee 6143     		muls r1, r1, r4
 9083 43f0 6A43     		muls r2, r2, r5
 9084 43f2 6B43     		muls r3, r3, r5
 9085 43f4 8011     		asrs r0, r0, # 6
 9086 43f6 8911     		asrs r1, r1, # 6
 9087 43f8 9211     		asrs r2, r2, # 6
 9088 43fa 9B11     		asrs r3, r3, # 6
 9089 43fc 8018     		adds r0, r0, r2         @r
 9090 43fe C918     		adds r1, r1, r3         @i
 9091 4400 3618     		adds r6, r6, r0
 9092 4402 7F18     		adds r7, r7, r1
 9093              	
 9094              		@6
 9095 4404 DD46     		mov sp, r11
 9096 4406 0FBC     		pop {r0-r3}
 9097 4408 EB46     		mov r11, sp
 9098 440a D546     		mov sp, r10
 9099 440c 10BC     		pop {r4}
 9100 440e EA46     		mov r10, sp
 9101 4410 2546     		mov r5, r4
 9102 4412 2404     		lsls r4, r4, # 16
 9103 4414 240C     		lsrs r4, r4, # 16
 9104 4416 2D0C     		lsrs r5, r5, # 16
ARM GAS  1.s 			page 161


 9105 4418 6043     		muls r0, r0, r4		@R
 9106 441a 6143     		muls r1, r1, r4		@I
 9107 441c 6A43     		muls r2, r2, r5		@R
 9108 441e 6B43     		muls r3, r3, r5		@I
 9109 4420 8011     		asrs r0, r0, # 6
 9110 4422 8911     		asrs r1, r1, # 6
 9111 4424 9211     		asrs r2, r2, # 6
 9112 4426 9B11     		asrs r3, r3, # 6
 9113 4428 8018     		adds r0, r0, r2	 @r
 9114 442a C918     		adds r1, r1, r3	 @i
 9115 442c 3618     		adds r6, r6, r0
 9116 442e 7F18     		adds r7, r7, r1
 9117              	
 9118 4430 DD46     		mov sp, r11
 9119 4432 0FBC     		pop {r0-r3}
 9120 4434 EB46     		mov r11, sp
 9121 4436 D546     		mov sp, r10
 9122 4438 10BC     		pop {r4}
 9123 443a EA46     		mov r10, sp
 9124 443c 2546     		mov r5, r4
 9125 443e 2404     		lsls r4, r4, # 16
 9126 4440 240C     		lsrs r4, r4, # 16
 9127 4442 2D0C     		lsrs r5, r5, # 16
 9128 4444 6043     		muls r0, r0, r4
 9129 4446 6143     		muls r1, r1, r4
 9130 4448 6A43     		muls r2, r2, r5
 9131 444a 6B43     		muls r3, r3, r5
 9132 444c 8011     		asrs r0, r0, # 6
 9133 444e 8911     		asrs r1, r1, # 6
 9134 4450 9211     		asrs r2, r2, # 6
 9135 4452 9B11     		asrs r3, r3, # 6
 9136 4454 8018     		adds r0, r0, r2         @r
 9137 4456 C918     		adds r1, r1, r3         @i
 9138 4458 3618     		adds r6, r6, r0
 9139 445a 7F18     		adds r7, r7, r1
 9140              	
 9141 445c DD46     		mov sp, r11
 9142 445e 0FBC     		pop {r0-r3}
 9143 4460 EB46     		mov r11, sp
 9144 4462 D546     		mov sp, r10
 9145 4464 10BC     		pop {r4}
 9146 4466 EA46     		mov r10, sp
 9147 4468 2546     		mov r5, r4
 9148 446a 2404     		lsls r4, r4, # 16
 9149 446c 240C     		lsrs r4, r4, # 16
 9150 446e 2D0C     		lsrs r5, r5, # 16
 9151 4470 6043     		muls r0, r0, r4
 9152 4472 6143     		muls r1, r1, r4
 9153 4474 6A43     		muls r2, r2, r5
 9154 4476 6B43     		muls r3, r3, r5
 9155 4478 8011     		asrs r0, r0, # 6
 9156 447a 8911     		asrs r1, r1, # 6
 9157 447c 9211     		asrs r2, r2, # 6
 9158 447e 9B11     		asrs r3, r3, # 6
 9159 4480 8018     		adds r0, r0, r2  @r
 9160 4482 C918     		adds r1, r1, r3  @i
 9161 4484 3618     		adds r6, r6, r0
ARM GAS  1.s 			page 162


 9162 4486 7F18     		adds r7, r7, r1
 9163              	
 9164 4488 DD46     		mov sp, r11
 9165 448a 0FBC     		pop {r0-r3}
 9166 448c EB46     		mov r11, sp
 9167 448e D546     		mov sp, r10
 9168 4490 10BC     		pop {r4}
 9169 4492 EA46     		mov r10, sp
 9170 4494 2546     		mov r5, r4
 9171 4496 2404     		lsls r4, r4, # 16
 9172 4498 240C     		lsrs r4, r4, # 16
 9173 449a 2D0C     		lsrs r5, r5, # 16
 9174 449c 6043     		muls r0, r0, r4
 9175 449e 6143     		muls r1, r1, r4
 9176 44a0 6A43     		muls r2, r2, r5
 9177 44a2 6B43     		muls r3, r3, r5
 9178 44a4 8011     		asrs r0, r0, # 6
 9179 44a6 8911     		asrs r1, r1, # 6
 9180 44a8 9211     		asrs r2, r2, # 6
 9181 44aa 9B11     		asrs r3, r3, # 6
 9182 44ac 8018     		adds r0, r0, r2         @r
 9183 44ae C918     		adds r1, r1, r3         @i
 9184 44b0 3618     		adds r6, r6, r0
 9185 44b2 7F18     		adds r7, r7, r1
 9186              	
 9187              		@7
 9188 44b4 DD46     		mov sp, r11
 9189 44b6 0FBC     		pop {r0-r3}
 9190 44b8 EB46     		mov r11, sp
 9191 44ba D546     		mov sp, r10
 9192 44bc 10BC     		pop {r4}
 9193 44be EA46     		mov r10, sp
 9194 44c0 2546     		mov r5, r4
 9195 44c2 2404     		lsls r4, r4, # 16
 9196 44c4 240C     		lsrs r4, r4, # 16
 9197 44c6 2D0C     		lsrs r5, r5, # 16
 9198 44c8 6043     		muls r0, r0, r4		@R
 9199 44ca 6143     		muls r1, r1, r4		@I
 9200 44cc 6A43     		muls r2, r2, r5		@R
 9201 44ce 6B43     		muls r3, r3, r5		@I
 9202 44d0 8011     		asrs r0, r0, # 6
 9203 44d2 8911     		asrs r1, r1, # 6
 9204 44d4 9211     		asrs r2, r2, # 6
 9205 44d6 9B11     		asrs r3, r3, # 6
 9206 44d8 8018     		adds r0, r0, r2	 @r
 9207 44da C918     		adds r1, r1, r3	 @i
 9208 44dc 3618     		adds r6, r6, r0
 9209 44de 7F18     		adds r7, r7, r1
 9210              	
 9211 44e0 DD46     		mov sp, r11
 9212 44e2 0FBC     		pop {r0-r3}
 9213 44e4 EB46     		mov r11, sp
 9214 44e6 D546     		mov sp, r10
 9215 44e8 10BC     		pop {r4}
 9216 44ea EA46     		mov r10, sp
 9217 44ec 2546     		mov r5, r4
 9218 44ee 2404     		lsls r4, r4, # 16
ARM GAS  1.s 			page 163


 9219 44f0 240C     		lsrs r4, r4, # 16
 9220 44f2 2D0C     		lsrs r5, r5, # 16
 9221 44f4 6043     		muls r0, r0, r4
 9222 44f6 6143     		muls r1, r1, r4
 9223 44f8 6A43     		muls r2, r2, r5
 9224 44fa 6B43     		muls r3, r3, r5
 9225 44fc 8011     		asrs r0, r0, # 6
 9226 44fe 8911     		asrs r1, r1, # 6
 9227 4500 9211     		asrs r2, r2, # 6
 9228 4502 9B11     		asrs r3, r3, # 6
 9229 4504 8018     		adds r0, r0, r2         @r
 9230 4506 C918     		adds r1, r1, r3         @i
 9231 4508 3618     		adds r6, r6, r0
 9232 450a 7F18     		adds r7, r7, r1
 9233              	
 9234 450c DD46     		mov sp, r11
 9235 450e 0FBC     		pop {r0-r3}
 9236 4510 EB46     		mov r11, sp
 9237 4512 D546     		mov sp, r10
 9238 4514 10BC     		pop {r4}
 9239 4516 EA46     		mov r10, sp
 9240 4518 2546     		mov r5, r4
 9241 451a 2404     		lsls r4, r4, # 16
 9242 451c 240C     		lsrs r4, r4, # 16
 9243 451e 2D0C     		lsrs r5, r5, # 16
 9244 4520 6043     		muls r0, r0, r4
 9245 4522 6143     		muls r1, r1, r4
 9246 4524 6A43     		muls r2, r2, r5
 9247 4526 6B43     		muls r3, r3, r5
 9248 4528 8011     		asrs r0, r0, # 6
 9249 452a 8911     		asrs r1, r1, # 6
 9250 452c 9211     		asrs r2, r2, # 6
 9251 452e 9B11     		asrs r3, r3, # 6
 9252 4530 8018     		adds r0, r0, r2  @r
 9253 4532 C918     		adds r1, r1, r3  @i
 9254 4534 3618     		adds r6, r6, r0
 9255 4536 7F18     		adds r7, r7, r1
 9256              	
 9257 4538 DD46     		mov sp, r11
 9258 453a 0FBC     		pop {r0-r3}
 9259 453c EB46     		mov r11, sp
 9260 453e D546     		mov sp, r10
 9261 4540 10BC     		pop {r4}
 9262 4542 EA46     		mov r10, sp
 9263 4544 2546     		mov r5, r4
 9264 4546 2404     		lsls r4, r4, # 16
 9265 4548 240C     		lsrs r4, r4, # 16
 9266 454a 2D0C     		lsrs r5, r5, # 16
 9267 454c 6043     		muls r0, r0, r4
 9268 454e 6143     		muls r1, r1, r4
 9269 4550 6A43     		muls r2, r2, r5
 9270 4552 6B43     		muls r3, r3, r5
 9271 4554 8011     		asrs r0, r0, # 6
 9272 4556 8911     		asrs r1, r1, # 6
 9273 4558 9211     		asrs r2, r2, # 6
 9274 455a 9B11     		asrs r3, r3, # 6
 9275 455c 8018     		adds r0, r0, r2         @r
ARM GAS  1.s 			page 164


 9276 455e C918     		adds r1, r1, r3         @i
 9277 4560 3618     		adds r6, r6, r0
 9278 4562 7F18     		adds r7, r7, r1
 9279              	
 9280              		@8
 9281 4564 DD46     		mov sp, r11
 9282 4566 0FBC     		pop {r0-r3}
 9283 4568 EB46     		mov r11, sp
 9284 456a D546     		mov sp, r10
 9285 456c 10BC     		pop {r4}
 9286 456e EA46     		mov r10, sp
 9287 4570 2546     		mov r5, r4
 9288 4572 2404     		lsls r4, r4, # 16
 9289 4574 240C     		lsrs r4, r4, # 16
 9290 4576 2D0C     		lsrs r5, r5, # 16
 9291 4578 6043     		muls r0, r0, r4		@R
 9292 457a 6143     		muls r1, r1, r4		@I
 9293 457c 6A43     		muls r2, r2, r5		@R
 9294 457e 6B43     		muls r3, r3, r5		@I
 9295 4580 8011     		asrs r0, r0, # 6
 9296 4582 8911     		asrs r1, r1, # 6
 9297 4584 9211     		asrs r2, r2, # 6
 9298 4586 9B11     		asrs r3, r3, # 6
 9299 4588 8018     		adds r0, r0, r2	 @r
 9300 458a C918     		adds r1, r1, r3	 @i
 9301 458c 3618     		adds r6, r6, r0
 9302 458e 7F18     		adds r7, r7, r1
 9303              	
 9304 4590 DD46     		mov sp, r11
 9305 4592 0FBC     		pop {r0-r3}
 9306 4594 EB46     		mov r11, sp
 9307 4596 D546     		mov sp, r10
 9308 4598 10BC     		pop {r4}
 9309 459a EA46     		mov r10, sp
 9310 459c 2546     		mov r5, r4
 9311 459e 2404     		lsls r4, r4, # 16
 9312 45a0 240C     		lsrs r4, r4, # 16
 9313 45a2 2D0C     		lsrs r5, r5, # 16
 9314 45a4 6043     		muls r0, r0, r4
 9315 45a6 6143     		muls r1, r1, r4
 9316 45a8 6A43     		muls r2, r2, r5
 9317 45aa 6B43     		muls r3, r3, r5
 9318 45ac 8011     		asrs r0, r0, # 6
 9319 45ae 8911     		asrs r1, r1, # 6
 9320 45b0 9211     		asrs r2, r2, # 6
 9321 45b2 9B11     		asrs r3, r3, # 6
 9322 45b4 8018     		adds r0, r0, r2         @r
 9323 45b6 C918     		adds r1, r1, r3         @i
 9324 45b8 3618     		adds r6, r6, r0
 9325 45ba 7F18     		adds r7, r7, r1
 9326              	
 9327 45bc DD46     		mov sp, r11
 9328 45be 0FBC     		pop {r0-r3}
 9329 45c0 EB46     		mov r11, sp
 9330 45c2 D546     		mov sp, r10
 9331 45c4 10BC     		pop {r4}
 9332 45c6 EA46     		mov r10, sp
ARM GAS  1.s 			page 165


 9333 45c8 2546     		mov r5, r4
 9334 45ca 2404     		lsls r4, r4, # 16
 9335 45cc 240C     		lsrs r4, r4, # 16
 9336 45ce 2D0C     		lsrs r5, r5, # 16
 9337 45d0 6043     		muls r0, r0, r4
 9338 45d2 6143     		muls r1, r1, r4
 9339 45d4 6A43     		muls r2, r2, r5
 9340 45d6 6B43     		muls r3, r3, r5
 9341 45d8 8011     		asrs r0, r0, # 6
 9342 45da 8911     		asrs r1, r1, # 6
 9343 45dc 9211     		asrs r2, r2, # 6
 9344 45de 9B11     		asrs r3, r3, # 6
 9345 45e0 8018     		adds r0, r0, r2  @r
 9346 45e2 C918     		adds r1, r1, r3  @i
 9347 45e4 3618     		adds r6, r6, r0
 9348 45e6 7F18     		adds r7, r7, r1
 9349              	
 9350 45e8 DD46     		mov sp, r11
 9351 45ea 0FBC     		pop {r0-r3}
 9352 45ec EB46     		mov r11, sp
 9353 45ee D546     		mov sp, r10
 9354 45f0 10BC     		pop {r4}
 9355 45f2 EA46     		mov r10, sp
 9356 45f4 2546     		mov r5, r4
 9357 45f6 2404     		lsls r4, r4, # 16
 9358 45f8 240C     		lsrs r4, r4, # 16
 9359 45fa 2D0C     		lsrs r5, r5, # 16
 9360 45fc 6043     		muls r0, r0, r4
 9361 45fe 6143     		muls r1, r1, r4
 9362 4600 6A43     		muls r2, r2, r5
 9363 4602 6B43     		muls r3, r3, r5
 9364 4604 8011     		asrs r0, r0, # 6
 9365 4606 8911     		asrs r1, r1, # 6
 9366 4608 9211     		asrs r2, r2, # 6
 9367 460a 9B11     		asrs r3, r3, # 6
 9368 460c 8018     		adds r0, r0, r2         @r
 9369 460e C918     		adds r1, r1, r3         @i
 9370 4610 3618     		adds r6, r6, r0
 9371 4612 7F18     		adds r7, r7, r1
 9372              	
 9373              		@9
 9374 4614 DD46     		mov sp, r11
 9375 4616 0FBC     		pop {r0-r3}
 9376 4618 EB46     		mov r11, sp
 9377 461a D546     		mov sp, r10
 9378 461c 10BC     		pop {r4}
 9379 461e EA46     		mov r10, sp
 9380 4620 2546     		mov r5, r4
 9381 4622 2404     		lsls r4, r4, # 16
 9382 4624 240C     		lsrs r4, r4, # 16
 9383 4626 2D0C     		lsrs r5, r5, # 16
 9384 4628 6043     		muls r0, r0, r4		@R
 9385 462a 6143     		muls r1, r1, r4		@I
 9386 462c 6A43     		muls r2, r2, r5		@R
 9387 462e 6B43     		muls r3, r3, r5		@I
 9388 4630 8011     		asrs r0, r0, # 6
 9389 4632 8911     		asrs r1, r1, # 6
ARM GAS  1.s 			page 166


 9390 4634 9211     		asrs r2, r2, # 6
 9391 4636 9B11     		asrs r3, r3, # 6
 9392 4638 8018     		adds r0, r0, r2	 @r
 9393 463a C918     		adds r1, r1, r3	 @i
 9394 463c 3618     		adds r6, r6, r0
 9395 463e 7F18     		adds r7, r7, r1
 9396              	
 9397 4640 DD46     		mov sp, r11
 9398 4642 0FBC     		pop {r0-r3}
 9399 4644 EB46     		mov r11, sp
 9400 4646 D546     		mov sp, r10
 9401 4648 10BC     		pop {r4}
 9402 464a EA46     		mov r10, sp
 9403 464c 2546     		mov r5, r4
 9404 464e 2404     		lsls r4, r4, # 16
 9405 4650 240C     		lsrs r4, r4, # 16
 9406 4652 2D0C     		lsrs r5, r5, # 16
 9407 4654 6043     		muls r0, r0, r4
 9408 4656 6143     		muls r1, r1, r4
 9409 4658 6A43     		muls r2, r2, r5
 9410 465a 6B43     		muls r3, r3, r5
 9411 465c 8011     		asrs r0, r0, # 6
 9412 465e 8911     		asrs r1, r1, # 6
 9413 4660 9211     		asrs r2, r2, # 6
 9414 4662 9B11     		asrs r3, r3, # 6
 9415 4664 8018     		adds r0, r0, r2         @r
 9416 4666 C918     		adds r1, r1, r3         @i
 9417 4668 3618     		adds r6, r6, r0
 9418 466a 7F18     		adds r7, r7, r1
 9419              	
 9420 466c DD46     		mov sp, r11
 9421 466e 0FBC     		pop {r0-r3}
 9422 4670 EB46     		mov r11, sp
 9423 4672 D546     		mov sp, r10
 9424 4674 10BC     		pop {r4}
 9425 4676 EA46     		mov r10, sp
 9426 4678 2546     		mov r5, r4
 9427 467a 2404     		lsls r4, r4, # 16
 9428 467c 240C     		lsrs r4, r4, # 16
 9429 467e 2D0C     		lsrs r5, r5, # 16
 9430 4680 6043     		muls r0, r0, r4
 9431 4682 6143     		muls r1, r1, r4
 9432 4684 6A43     		muls r2, r2, r5
 9433 4686 6B43     		muls r3, r3, r5
 9434 4688 8011     		asrs r0, r0, # 6
 9435 468a 8911     		asrs r1, r1, # 6
 9436 468c 9211     		asrs r2, r2, # 6
 9437 468e 9B11     		asrs r3, r3, # 6
 9438 4690 8018     		adds r0, r0, r2  @r
 9439 4692 C918     		adds r1, r1, r3  @i
 9440 4694 3618     		adds r6, r6, r0
 9441 4696 7F18     		adds r7, r7, r1
 9442              	
 9443 4698 DD46     		mov sp, r11
 9444 469a 0FBC     		pop {r0-r3}
 9445 469c EB46     		mov r11, sp
 9446 469e D546     		mov sp, r10
ARM GAS  1.s 			page 167


 9447 46a0 10BC     		pop {r4}
 9448 46a2 EA46     		mov r10, sp
 9449 46a4 2546     		mov r5, r4
 9450 46a6 2404     		lsls r4, r4, # 16
 9451 46a8 240C     		lsrs r4, r4, # 16
 9452 46aa 2D0C     		lsrs r5, r5, # 16
 9453 46ac 6043     		muls r0, r0, r4
 9454 46ae 6143     		muls r1, r1, r4
 9455 46b0 6A43     		muls r2, r2, r5
 9456 46b2 6B43     		muls r3, r3, r5
 9457 46b4 8011     		asrs r0, r0, # 6
 9458 46b6 8911     		asrs r1, r1, # 6
 9459 46b8 9211     		asrs r2, r2, # 6
 9460 46ba 9B11     		asrs r3, r3, # 6
 9461 46bc 8018     		adds r0, r0, r2         @r
 9462 46be C918     		adds r1, r1, r3         @i
 9463 46c0 3618     		adds r6, r6, r0
 9464 46c2 7F18     		adds r7, r7, r1
 9465              	
 9466              	@yjm9
 9467              		@0
 9468 46c4 DD46     		mov sp, r11
 9469 46c6 0FBC     		pop {r0-r3}
 9470 46c8 EB46     		mov r11, sp
 9471 46ca D546     		mov sp, r10
 9472 46cc 10BC     		pop {r4}
 9473 46ce EA46     		mov r10, sp
 9474 46d0 2546     		mov r5, r4
 9475 46d2 2404     		lsls r4, r4, # 16
 9476 46d4 240C     		lsrs r4, r4, # 16
 9477 46d6 2D0C     		lsrs r5, r5, # 16
 9478 46d8 6043     		muls r0, r0, r4		@R
 9479 46da 6143     		muls r1, r1, r4		@I
 9480 46dc 6A43     		muls r2, r2, r5		@R
 9481 46de 6B43     		muls r3, r3, r5		@I
 9482 46e0 8011     		asrs r0, r0, # 6
 9483 46e2 8911     		asrs r1, r1, # 6
 9484 46e4 9211     		asrs r2, r2, # 6
 9485 46e6 9B11     		asrs r3, r3, # 6
 9486 46e8 8018     		adds r0, r0, r2	 @r
 9487 46ea C918     		adds r1, r1, r3	 @i
 9488 46ec 3618     		adds r6, r6, r0
 9489 46ee 7F18     		adds r7, r7, r1
 9490              	
 9491 46f0 DD46     		mov sp, r11
 9492 46f2 0FBC     		pop {r0-r3}
 9493 46f4 EB46     		mov r11, sp
 9494 46f6 D546     		mov sp, r10
 9495 46f8 10BC     		pop {r4}
 9496 46fa EA46     		mov r10, sp
 9497 46fc 2546     		mov r5, r4
 9498 46fe 2404     		lsls r4, r4, # 16
 9499 4700 240C     		lsrs r4, r4, # 16
 9500 4702 2D0C     		lsrs r5, r5, # 16
 9501 4704 6043     		muls r0, r0, r4
 9502 4706 6143     		muls r1, r1, r4
 9503 4708 6A43     		muls r2, r2, r5
ARM GAS  1.s 			page 168


 9504 470a 6B43     		muls r3, r3, r5
 9505 470c 8011     		asrs r0, r0, # 6
 9506 470e 8911     		asrs r1, r1, # 6
 9507 4710 9211     		asrs r2, r2, # 6
 9508 4712 9B11     		asrs r3, r3, # 6
 9509 4714 8018     		adds r0, r0, r2         @r
 9510 4716 C918     		adds r1, r1, r3         @i
 9511 4718 3618     		adds r6, r6, r0
 9512 471a 7F18     		adds r7, r7, r1
 9513              	
 9514 471c DD46     		mov sp, r11
 9515 471e 0FBC     		pop {r0-r3}
 9516 4720 EB46     		mov r11, sp
 9517 4722 D546     		mov sp, r10
 9518 4724 10BC     		pop {r4}
 9519 4726 EA46     		mov r10, sp
 9520 4728 2546     		mov r5, r4
 9521 472a 2404     		lsls r4, r4, # 16
 9522 472c 240C     		lsrs r4, r4, # 16
 9523 472e 2D0C     		lsrs r5, r5, # 16
 9524 4730 6043     		muls r0, r0, r4
 9525 4732 6143     		muls r1, r1, r4
 9526 4734 6A43     		muls r2, r2, r5
 9527 4736 6B43     		muls r3, r3, r5
 9528 4738 8011     		asrs r0, r0, # 6
 9529 473a 8911     		asrs r1, r1, # 6
 9530 473c 9211     		asrs r2, r2, # 6
 9531 473e 9B11     		asrs r3, r3, # 6
 9532 4740 8018     		adds r0, r0, r2  @r
 9533 4742 C918     		adds r1, r1, r3  @i
 9534 4744 3618     		adds r6, r6, r0
 9535 4746 7F18     		adds r7, r7, r1
 9536              	
 9537 4748 DD46     		mov sp, r11
 9538 474a 0FBC     		pop {r0-r3}
 9539 474c EB46     		mov r11, sp
 9540 474e D546     		mov sp, r10
 9541 4750 10BC     		pop {r4}
 9542 4752 EA46     		mov r10, sp
 9543 4754 2546     		mov r5, r4
 9544 4756 2404     		lsls r4, r4, # 16
 9545 4758 240C     		lsrs r4, r4, # 16
 9546 475a 2D0C     		lsrs r5, r5, # 16
 9547 475c 6043     		muls r0, r0, r4
 9548 475e 6143     		muls r1, r1, r4
 9549 4760 6A43     		muls r2, r2, r5
 9550 4762 6B43     		muls r3, r3, r5
 9551 4764 8011     		asrs r0, r0, # 6
 9552 4766 8911     		asrs r1, r1, # 6
 9553 4768 9211     		asrs r2, r2, # 6
 9554 476a 9B11     		asrs r3, r3, # 6
 9555 476c 8018     		adds r0, r0, r2         @r
 9556 476e C918     		adds r1, r1, r3         @i
 9557 4770 3618     		adds r6, r6, r0
 9558 4772 7F18     		adds r7, r7, r1
 9559              	
 9560              		@1
ARM GAS  1.s 			page 169


 9561 4774 DD46     		mov sp, r11
 9562 4776 0FBC     		pop {r0-r3}
 9563 4778 EB46     		mov r11, sp
 9564 477a D546     		mov sp, r10
 9565 477c 10BC     		pop {r4}
 9566 477e EA46     		mov r10, sp
 9567 4780 2546     		mov r5, r4
 9568 4782 2404     		lsls r4, r4, # 16
 9569 4784 240C     		lsrs r4, r4, # 16
 9570 4786 2D0C     		lsrs r5, r5, # 16
 9571 4788 6043     		muls r0, r0, r4		@R
 9572 478a 6143     		muls r1, r1, r4		@I
 9573 478c 6A43     		muls r2, r2, r5		@R
 9574 478e 6B43     		muls r3, r3, r5		@I
 9575 4790 8011     		asrs r0, r0, # 6
 9576 4792 8911     		asrs r1, r1, # 6
 9577 4794 9211     		asrs r2, r2, # 6
 9578 4796 9B11     		asrs r3, r3, # 6
 9579 4798 8018     		adds r0, r0, r2	 @r
 9580 479a C918     		adds r1, r1, r3	 @i
 9581 479c 3618     		adds r6, r6, r0
 9582 479e 7F18     		adds r7, r7, r1
 9583              	
 9584 47a0 DD46     		mov sp, r11
 9585 47a2 0FBC     		pop {r0-r3}
 9586 47a4 EB46     		mov r11, sp
 9587 47a6 D546     		mov sp, r10
 9588 47a8 10BC     		pop {r4}
 9589 47aa EA46     		mov r10, sp
 9590 47ac 2546     		mov r5, r4
 9591 47ae 2404     		lsls r4, r4, # 16
 9592 47b0 240C     		lsrs r4, r4, # 16
 9593 47b2 2D0C     		lsrs r5, r5, # 16
 9594 47b4 6043     		muls r0, r0, r4
 9595 47b6 6143     		muls r1, r1, r4
 9596 47b8 6A43     		muls r2, r2, r5
 9597 47ba 6B43     		muls r3, r3, r5
 9598 47bc 8011     		asrs r0, r0, # 6
 9599 47be 8911     		asrs r1, r1, # 6
 9600 47c0 9211     		asrs r2, r2, # 6
 9601 47c2 9B11     		asrs r3, r3, # 6
 9602 47c4 8018     		adds r0, r0, r2         @r
 9603 47c6 C918     		adds r1, r1, r3         @i
 9604 47c8 3618     		adds r6, r6, r0
 9605 47ca 7F18     		adds r7, r7, r1
 9606              	
 9607 47cc DD46     		mov sp, r11
 9608 47ce 0FBC     		pop {r0-r3}
 9609 47d0 EB46     		mov r11, sp
 9610 47d2 D546     		mov sp, r10
 9611 47d4 10BC     		pop {r4}
 9612 47d6 EA46     		mov r10, sp
 9613 47d8 2546     		mov r5, r4
 9614 47da 2404     		lsls r4, r4, # 16
 9615 47dc 240C     		lsrs r4, r4, # 16
 9616 47de 2D0C     		lsrs r5, r5, # 16
 9617 47e0 6043     		muls r0, r0, r4
ARM GAS  1.s 			page 170


 9618 47e2 6143     		muls r1, r1, r4
 9619 47e4 6A43     		muls r2, r2, r5
 9620 47e6 6B43     		muls r3, r3, r5
 9621 47e8 8011     		asrs r0, r0, # 6
 9622 47ea 8911     		asrs r1, r1, # 6
 9623 47ec 9211     		asrs r2, r2, # 6
 9624 47ee 9B11     		asrs r3, r3, # 6
 9625 47f0 8018     		adds r0, r0, r2  @r
 9626 47f2 C918     		adds r1, r1, r3  @i
 9627 47f4 3618     		adds r6, r6, r0
 9628 47f6 7F18     		adds r7, r7, r1
 9629              	
 9630 47f8 DD46     		mov sp, r11
 9631 47fa 0FBC     		pop {r0-r3}
 9632 47fc EB46     		mov r11, sp
 9633 47fe D546     		mov sp, r10
 9634 4800 10BC     		pop {r4}
 9635 4802 EA46     		mov r10, sp
 9636 4804 2546     		mov r5, r4
 9637 4806 2404     		lsls r4, r4, # 16
 9638 4808 240C     		lsrs r4, r4, # 16
 9639 480a 2D0C     		lsrs r5, r5, # 16
 9640 480c 6043     		muls r0, r0, r4
 9641 480e 6143     		muls r1, r1, r4
 9642 4810 6A43     		muls r2, r2, r5
 9643 4812 6B43     		muls r3, r3, r5
 9644 4814 8011     		asrs r0, r0, # 6
 9645 4816 8911     		asrs r1, r1, # 6
 9646 4818 9211     		asrs r2, r2, # 6
 9647 481a 9B11     		asrs r3, r3, # 6
 9648 481c 8018     		adds r0, r0, r2         @r
 9649 481e C918     		adds r1, r1, r3         @i
 9650 4820 3618     		adds r6, r6, r0
 9651 4822 7F18     		adds r7, r7, r1
 9652              	
 9653              		@2
 9654 4824 DD46     		mov sp, r11
 9655 4826 0FBC     		pop {r0-r3}
 9656 4828 EB46     		mov r11, sp
 9657 482a D546     		mov sp, r10
 9658 482c 10BC     		pop {r4}
 9659 482e EA46     		mov r10, sp
 9660 4830 2546     		mov r5, r4
 9661 4832 2404     		lsls r4, r4, # 16
 9662 4834 240C     		lsrs r4, r4, # 16
 9663 4836 2D0C     		lsrs r5, r5, # 16
 9664 4838 6043     		muls r0, r0, r4		@R
 9665 483a 6143     		muls r1, r1, r4		@I
 9666 483c 6A43     		muls r2, r2, r5		@R
 9667 483e 6B43     		muls r3, r3, r5		@I
 9668 4840 8011     		asrs r0, r0, # 6
 9669 4842 8911     		asrs r1, r1, # 6
 9670 4844 9211     		asrs r2, r2, # 6
 9671 4846 9B11     		asrs r3, r3, # 6
 9672 4848 8018     		adds r0, r0, r2	 @r
 9673 484a C918     		adds r1, r1, r3	 @i
 9674 484c 3618     		adds r6, r6, r0
ARM GAS  1.s 			page 171


 9675 484e 7F18     		adds r7, r7, r1
 9676              	
 9677 4850 DD46     		mov sp, r11
 9678 4852 0FBC     		pop {r0-r3}
 9679 4854 EB46     		mov r11, sp
 9680 4856 D546     		mov sp, r10
 9681 4858 10BC     		pop {r4}
 9682 485a EA46     		mov r10, sp
 9683 485c 2546     		mov r5, r4
 9684 485e 2404     		lsls r4, r4, # 16
 9685 4860 240C     		lsrs r4, r4, # 16
 9686 4862 2D0C     		lsrs r5, r5, # 16
 9687 4864 6043     		muls r0, r0, r4
 9688 4866 6143     		muls r1, r1, r4
 9689 4868 6A43     		muls r2, r2, r5
 9690 486a 6B43     		muls r3, r3, r5
 9691 486c 8011     		asrs r0, r0, # 6
 9692 486e 8911     		asrs r1, r1, # 6
 9693 4870 9211     		asrs r2, r2, # 6
 9694 4872 9B11     		asrs r3, r3, # 6
 9695 4874 8018     		adds r0, r0, r2         @r
 9696 4876 C918     		adds r1, r1, r3         @i
 9697 4878 3618     		adds r6, r6, r0
 9698 487a 7F18     		adds r7, r7, r1
 9699              	
 9700 487c DD46     		mov sp, r11
 9701 487e 0FBC     		pop {r0-r3}
 9702 4880 EB46     		mov r11, sp
 9703 4882 D546     		mov sp, r10
 9704 4884 10BC     		pop {r4}
 9705 4886 EA46     		mov r10, sp
 9706 4888 2546     		mov r5, r4
 9707 488a 2404     		lsls r4, r4, # 16
 9708 488c 240C     		lsrs r4, r4, # 16
 9709 488e 2D0C     		lsrs r5, r5, # 16
 9710 4890 6043     		muls r0, r0, r4
 9711 4892 6143     		muls r1, r1, r4
 9712 4894 6A43     		muls r2, r2, r5
 9713 4896 6B43     		muls r3, r3, r5
 9714 4898 8011     		asrs r0, r0, # 6
 9715 489a 8911     		asrs r1, r1, # 6
 9716 489c 9211     		asrs r2, r2, # 6
 9717 489e 9B11     		asrs r3, r3, # 6
 9718 48a0 8018     		adds r0, r0, r2  @r
 9719 48a2 C918     		adds r1, r1, r3  @i
 9720 48a4 3618     		adds r6, r6, r0
 9721 48a6 7F18     		adds r7, r7, r1
 9722              	
 9723 48a8 DD46     		mov sp, r11
 9724 48aa 0FBC     		pop {r0-r3}
 9725 48ac EB46     		mov r11, sp
 9726 48ae D546     		mov sp, r10
 9727 48b0 10BC     		pop {r4}
 9728 48b2 EA46     		mov r10, sp
 9729 48b4 2546     		mov r5, r4
 9730 48b6 2404     		lsls r4, r4, # 16
 9731 48b8 240C     		lsrs r4, r4, # 16
ARM GAS  1.s 			page 172


 9732 48ba 2D0C     		lsrs r5, r5, # 16
 9733 48bc 6043     		muls r0, r0, r4
 9734 48be 6143     		muls r1, r1, r4
 9735 48c0 6A43     		muls r2, r2, r5
 9736 48c2 6B43     		muls r3, r3, r5
 9737 48c4 8011     		asrs r0, r0, # 6
 9738 48c6 8911     		asrs r1, r1, # 6
 9739 48c8 9211     		asrs r2, r2, # 6
 9740 48ca 9B11     		asrs r3, r3, # 6
 9741 48cc 8018     		adds r0, r0, r2         @r
 9742 48ce C918     		adds r1, r1, r3         @i
 9743 48d0 3618     		adds r6, r6, r0
 9744 48d2 7F18     		adds r7, r7, r1
 9745              	
 9746              		@3
 9747 48d4 DD46     		mov sp, r11
 9748 48d6 0FBC     		pop {r0-r3}
 9749 48d8 EB46     		mov r11, sp
 9750 48da D546     		mov sp, r10
 9751 48dc 10BC     		pop {r4}
 9752 48de EA46     		mov r10, sp
 9753 48e0 2546     		mov r5, r4
 9754 48e2 2404     		lsls r4, r4, # 16
 9755 48e4 240C     		lsrs r4, r4, # 16
 9756 48e6 2D0C     		lsrs r5, r5, # 16
 9757 48e8 6043     		muls r0, r0, r4		@R
 9758 48ea 6143     		muls r1, r1, r4		@I
 9759 48ec 6A43     		muls r2, r2, r5		@R
 9760 48ee 6B43     		muls r3, r3, r5		@I
 9761 48f0 8011     		asrs r0, r0, # 6
 9762 48f2 8911     		asrs r1, r1, # 6
 9763 48f4 9211     		asrs r2, r2, # 6
 9764 48f6 9B11     		asrs r3, r3, # 6
 9765 48f8 8018     		adds r0, r0, r2	 @r
 9766 48fa C918     		adds r1, r1, r3	 @i
 9767 48fc 3618     		adds r6, r6, r0
 9768 48fe 7F18     		adds r7, r7, r1
 9769              	
 9770 4900 DD46     		mov sp, r11
 9771 4902 0FBC     		pop {r0-r3}
 9772 4904 EB46     		mov r11, sp
 9773 4906 D546     		mov sp, r10
 9774 4908 10BC     		pop {r4}
 9775 490a EA46     		mov r10, sp
 9776 490c 2546     		mov r5, r4
 9777 490e 2404     		lsls r4, r4, # 16
 9778 4910 240C     		lsrs r4, r4, # 16
 9779 4912 2D0C     		lsrs r5, r5, # 16
 9780 4914 6043     		muls r0, r0, r4
 9781 4916 6143     		muls r1, r1, r4
 9782 4918 6A43     		muls r2, r2, r5
 9783 491a 6B43     		muls r3, r3, r5
 9784 491c 8011     		asrs r0, r0, # 6
 9785 491e 8911     		asrs r1, r1, # 6
 9786 4920 9211     		asrs r2, r2, # 6
 9787 4922 9B11     		asrs r3, r3, # 6
 9788 4924 8018     		adds r0, r0, r2         @r
ARM GAS  1.s 			page 173


 9789 4926 C918     		adds r1, r1, r3         @i
 9790 4928 3618     		adds r6, r6, r0
 9791 492a 7F18     		adds r7, r7, r1
 9792              	
 9793 492c DD46     		mov sp, r11
 9794 492e 0FBC     		pop {r0-r3}
 9795 4930 EB46     		mov r11, sp
 9796 4932 D546     		mov sp, r10
 9797 4934 10BC     		pop {r4}
 9798 4936 EA46     		mov r10, sp
 9799 4938 2546     		mov r5, r4
 9800 493a 2404     		lsls r4, r4, # 16
 9801 493c 240C     		lsrs r4, r4, # 16
 9802 493e 2D0C     		lsrs r5, r5, # 16
 9803 4940 6043     		muls r0, r0, r4
 9804 4942 6143     		muls r1, r1, r4
 9805 4944 6A43     		muls r2, r2, r5
 9806 4946 6B43     		muls r3, r3, r5
 9807 4948 8011     		asrs r0, r0, # 6
 9808 494a 8911     		asrs r1, r1, # 6
 9809 494c 9211     		asrs r2, r2, # 6
 9810 494e 9B11     		asrs r3, r3, # 6
 9811 4950 8018     		adds r0, r0, r2  @r
 9812 4952 C918     		adds r1, r1, r3  @i
 9813 4954 3618     		adds r6, r6, r0
 9814 4956 7F18     		adds r7, r7, r1
 9815              	
 9816 4958 DD46     		mov sp, r11
 9817 495a 0FBC     		pop {r0-r3}
 9818 495c EB46     		mov r11, sp
 9819 495e D546     		mov sp, r10
 9820 4960 10BC     		pop {r4}
 9821 4962 EA46     		mov r10, sp
 9822 4964 2546     		mov r5, r4
 9823 4966 2404     		lsls r4, r4, # 16
 9824 4968 240C     		lsrs r4, r4, # 16
 9825 496a 2D0C     		lsrs r5, r5, # 16
 9826 496c 6043     		muls r0, r0, r4
 9827 496e 6143     		muls r1, r1, r4
 9828 4970 6A43     		muls r2, r2, r5
 9829 4972 6B43     		muls r3, r3, r5
 9830 4974 8011     		asrs r0, r0, # 6
 9831 4976 8911     		asrs r1, r1, # 6
 9832 4978 9211     		asrs r2, r2, # 6
 9833 497a 9B11     		asrs r3, r3, # 6
 9834 497c 8018     		adds r0, r0, r2         @r
 9835 497e C918     		adds r1, r1, r3         @i
 9836 4980 3618     		adds r6, r6, r0
 9837 4982 7F18     		adds r7, r7, r1
 9838              	
 9839              		@4
 9840 4984 DD46     		mov sp, r11
 9841 4986 0FBC     		pop {r0-r3}
 9842 4988 EB46     		mov r11, sp
 9843 498a D546     		mov sp, r10
 9844 498c 10BC     		pop {r4}
 9845 498e EA46     		mov r10, sp
ARM GAS  1.s 			page 174


 9846 4990 2546     		mov r5, r4
 9847 4992 2404     		lsls r4, r4, # 16
 9848 4994 240C     		lsrs r4, r4, # 16
 9849 4996 2D0C     		lsrs r5, r5, # 16
 9850 4998 6043     		muls r0, r0, r4		@R
 9851 499a 6143     		muls r1, r1, r4		@I
 9852 499c 6A43     		muls r2, r2, r5		@R
 9853 499e 6B43     		muls r3, r3, r5		@I
 9854 49a0 8011     		asrs r0, r0, # 6
 9855 49a2 8911     		asrs r1, r1, # 6
 9856 49a4 9211     		asrs r2, r2, # 6
 9857 49a6 9B11     		asrs r3, r3, # 6
 9858 49a8 8018     		adds r0, r0, r2	 @r
 9859 49aa C918     		adds r1, r1, r3	 @i
 9860 49ac 3618     		adds r6, r6, r0
 9861 49ae 7F18     		adds r7, r7, r1
 9862              	
 9863 49b0 DD46     		mov sp, r11
 9864 49b2 0FBC     		pop {r0-r3}
 9865 49b4 EB46     		mov r11, sp
 9866 49b6 D546     		mov sp, r10
 9867 49b8 10BC     		pop {r4}
 9868 49ba EA46     		mov r10, sp
 9869 49bc 2546     		mov r5, r4
 9870 49be 2404     		lsls r4, r4, # 16
 9871 49c0 240C     		lsrs r4, r4, # 16
 9872 49c2 2D0C     		lsrs r5, r5, # 16
 9873 49c4 6043     		muls r0, r0, r4
 9874 49c6 6143     		muls r1, r1, r4
 9875 49c8 6A43     		muls r2, r2, r5
 9876 49ca 6B43     		muls r3, r3, r5
 9877 49cc 8011     		asrs r0, r0, # 6
 9878 49ce 8911     		asrs r1, r1, # 6
 9879 49d0 9211     		asrs r2, r2, # 6
 9880 49d2 9B11     		asrs r3, r3, # 6
 9881 49d4 8018     		adds r0, r0, r2         @r
 9882 49d6 C918     		adds r1, r1, r3         @i
 9883 49d8 3618     		adds r6, r6, r0
 9884 49da 7F18     		adds r7, r7, r1
 9885              	
 9886 49dc DD46     		mov sp, r11
 9887 49de 0FBC     		pop {r0-r3}
 9888 49e0 EB46     		mov r11, sp
 9889 49e2 D546     		mov sp, r10
 9890 49e4 10BC     		pop {r4}
 9891 49e6 EA46     		mov r10, sp
 9892 49e8 2546     		mov r5, r4
 9893 49ea 2404     		lsls r4, r4, # 16
 9894 49ec 240C     		lsrs r4, r4, # 16
 9895 49ee 2D0C     		lsrs r5, r5, # 16
 9896 49f0 6043     		muls r0, r0, r4
 9897 49f2 6143     		muls r1, r1, r4
 9898 49f4 6A43     		muls r2, r2, r5
 9899 49f6 6B43     		muls r3, r3, r5
 9900 49f8 8011     		asrs r0, r0, # 6
 9901 49fa 8911     		asrs r1, r1, # 6
 9902 49fc 9211     		asrs r2, r2, # 6
ARM GAS  1.s 			page 175


 9903 49fe 9B11     		asrs r3, r3, # 6
 9904 4a00 8018     		adds r0, r0, r2  @r
 9905 4a02 C918     		adds r1, r1, r3  @i
 9906 4a04 3618     		adds r6, r6, r0
 9907 4a06 7F18     		adds r7, r7, r1
 9908              	
 9909 4a08 DD46     		mov sp, r11
 9910 4a0a 0FBC     		pop {r0-r3}
 9911 4a0c EB46     		mov r11, sp
 9912 4a0e D546     		mov sp, r10
 9913 4a10 10BC     		pop {r4}
 9914 4a12 EA46     		mov r10, sp
 9915 4a14 2546     		mov r5, r4
 9916 4a16 2404     		lsls r4, r4, # 16
 9917 4a18 240C     		lsrs r4, r4, # 16
 9918 4a1a 2D0C     		lsrs r5, r5, # 16
 9919 4a1c 6043     		muls r0, r0, r4
 9920 4a1e 6143     		muls r1, r1, r4
 9921 4a20 6A43     		muls r2, r2, r5
 9922 4a22 6B43     		muls r3, r3, r5
 9923 4a24 8011     		asrs r0, r0, # 6
 9924 4a26 8911     		asrs r1, r1, # 6
 9925 4a28 9211     		asrs r2, r2, # 6
 9926 4a2a 9B11     		asrs r3, r3, # 6
 9927 4a2c 8018     		adds r0, r0, r2         @r
 9928 4a2e C918     		adds r1, r1, r3         @i
 9929 4a30 3618     		adds r6, r6, r0
 9930 4a32 7F18     		adds r7, r7, r1
 9931              	
 9932              		@5
 9933 4a34 DD46     		mov sp, r11
 9934 4a36 0FBC     		pop {r0-r3}
 9935 4a38 EB46     		mov r11, sp
 9936 4a3a D546     		mov sp, r10
 9937 4a3c 10BC     		pop {r4}
 9938 4a3e EA46     		mov r10, sp
 9939 4a40 2546     		mov r5, r4
 9940 4a42 2404     		lsls r4, r4, # 16
 9941 4a44 240C     		lsrs r4, r4, # 16
 9942 4a46 2D0C     		lsrs r5, r5, # 16
 9943 4a48 6043     		muls r0, r0, r4		@R
 9944 4a4a 6143     		muls r1, r1, r4		@I
 9945 4a4c 6A43     		muls r2, r2, r5		@R
 9946 4a4e 6B43     		muls r3, r3, r5		@I
 9947 4a50 8011     		asrs r0, r0, # 6
 9948 4a52 8911     		asrs r1, r1, # 6
 9949 4a54 9211     		asrs r2, r2, # 6
 9950 4a56 9B11     		asrs r3, r3, # 6
 9951 4a58 8018     		adds r0, r0, r2	 @r
 9952 4a5a C918     		adds r1, r1, r3	 @i
 9953 4a5c 3618     		adds r6, r6, r0
 9954 4a5e 7F18     		adds r7, r7, r1
 9955              	
 9956 4a60 DD46     		mov sp, r11
 9957 4a62 0FBC     		pop {r0-r3}
 9958 4a64 EB46     		mov r11, sp
 9959 4a66 D546     		mov sp, r10
ARM GAS  1.s 			page 176


 9960 4a68 10BC     		pop {r4}
 9961 4a6a EA46     		mov r10, sp
 9962 4a6c 2546     		mov r5, r4
 9963 4a6e 2404     		lsls r4, r4, # 16
 9964 4a70 240C     		lsrs r4, r4, # 16
 9965 4a72 2D0C     		lsrs r5, r5, # 16
 9966 4a74 6043     		muls r0, r0, r4
 9967 4a76 6143     		muls r1, r1, r4
 9968 4a78 6A43     		muls r2, r2, r5
 9969 4a7a 6B43     		muls r3, r3, r5
 9970 4a7c 8011     		asrs r0, r0, # 6
 9971 4a7e 8911     		asrs r1, r1, # 6
 9972 4a80 9211     		asrs r2, r2, # 6
 9973 4a82 9B11     		asrs r3, r3, # 6
 9974 4a84 8018     		adds r0, r0, r2         @r
 9975 4a86 C918     		adds r1, r1, r3         @i
 9976 4a88 3618     		adds r6, r6, r0
 9977 4a8a 7F18     		adds r7, r7, r1
 9978              	
 9979 4a8c DD46     		mov sp, r11
 9980 4a8e 0FBC     		pop {r0-r3}
 9981 4a90 EB46     		mov r11, sp
 9982 4a92 D546     		mov sp, r10
 9983 4a94 10BC     		pop {r4}
 9984 4a96 EA46     		mov r10, sp
 9985 4a98 2546     		mov r5, r4
 9986 4a9a 2404     		lsls r4, r4, # 16
 9987 4a9c 240C     		lsrs r4, r4, # 16
 9988 4a9e 2D0C     		lsrs r5, r5, # 16
 9989 4aa0 6043     		muls r0, r0, r4
 9990 4aa2 6143     		muls r1, r1, r4
 9991 4aa4 6A43     		muls r2, r2, r5
 9992 4aa6 6B43     		muls r3, r3, r5
 9993 4aa8 8011     		asrs r0, r0, # 6
 9994 4aaa 8911     		asrs r1, r1, # 6
 9995 4aac 9211     		asrs r2, r2, # 6
 9996 4aae 9B11     		asrs r3, r3, # 6
 9997 4ab0 8018     		adds r0, r0, r2  @r
 9998 4ab2 C918     		adds r1, r1, r3  @i
 9999 4ab4 3618     		adds r6, r6, r0
 10000 4ab6 7F18     		adds r7, r7, r1
 10001              	
 10002 4ab8 DD46     		mov sp, r11
 10003 4aba 0FBC     		pop {r0-r3}
 10004 4abc EB46     		mov r11, sp
 10005 4abe D546     		mov sp, r10
 10006 4ac0 10BC     		pop {r4}
 10007 4ac2 EA46     		mov r10, sp
 10008 4ac4 2546     		mov r5, r4
 10009 4ac6 2404     		lsls r4, r4, # 16
 10010 4ac8 240C     		lsrs r4, r4, # 16
 10011 4aca 2D0C     		lsrs r5, r5, # 16
 10012 4acc 6043     		muls r0, r0, r4
 10013 4ace 6143     		muls r1, r1, r4
 10014 4ad0 6A43     		muls r2, r2, r5
 10015 4ad2 6B43     		muls r3, r3, r5
 10016 4ad4 8011     		asrs r0, r0, # 6
ARM GAS  1.s 			page 177


 10017 4ad6 8911     		asrs r1, r1, # 6
 10018 4ad8 9211     		asrs r2, r2, # 6
 10019 4ada 9B11     		asrs r3, r3, # 6
 10020 4adc 8018     		adds r0, r0, r2         @r
 10021 4ade C918     		adds r1, r1, r3         @i
 10022 4ae0 3618     		adds r6, r6, r0
 10023 4ae2 7F18     		adds r7, r7, r1
 10024              	
 10025              		@6
 10026 4ae4 DD46     		mov sp, r11
 10027 4ae6 0FBC     		pop {r0-r3}
 10028 4ae8 EB46     		mov r11, sp
 10029 4aea D546     		mov sp, r10
 10030 4aec 10BC     		pop {r4}
 10031 4aee EA46     		mov r10, sp
 10032 4af0 2546     		mov r5, r4
 10033 4af2 2404     		lsls r4, r4, # 16
 10034 4af4 240C     		lsrs r4, r4, # 16
 10035 4af6 2D0C     		lsrs r5, r5, # 16
 10036 4af8 6043     		muls r0, r0, r4		@R
 10037 4afa 6143     		muls r1, r1, r4		@I
 10038 4afc 6A43     		muls r2, r2, r5		@R
 10039 4afe 6B43     		muls r3, r3, r5		@I
 10040 4b00 8011     		asrs r0, r0, # 6
 10041 4b02 8911     		asrs r1, r1, # 6
 10042 4b04 9211     		asrs r2, r2, # 6
 10043 4b06 9B11     		asrs r3, r3, # 6
 10044 4b08 8018     		adds r0, r0, r2	 @r
 10045 4b0a C918     		adds r1, r1, r3	 @i
 10046 4b0c 3618     		adds r6, r6, r0
 10047 4b0e 7F18     		adds r7, r7, r1
 10048              	
 10049 4b10 DD46     		mov sp, r11
 10050 4b12 0FBC     		pop {r0-r3}
 10051 4b14 EB46     		mov r11, sp
 10052 4b16 D546     		mov sp, r10
 10053 4b18 10BC     		pop {r4}
 10054 4b1a EA46     		mov r10, sp
 10055 4b1c 2546     		mov r5, r4
 10056 4b1e 2404     		lsls r4, r4, # 16
 10057 4b20 240C     		lsrs r4, r4, # 16
 10058 4b22 2D0C     		lsrs r5, r5, # 16
 10059 4b24 6043     		muls r0, r0, r4
 10060 4b26 6143     		muls r1, r1, r4
 10061 4b28 6A43     		muls r2, r2, r5
 10062 4b2a 6B43     		muls r3, r3, r5
 10063 4b2c 8011     		asrs r0, r0, # 6
 10064 4b2e 8911     		asrs r1, r1, # 6
 10065 4b30 9211     		asrs r2, r2, # 6
 10066 4b32 9B11     		asrs r3, r3, # 6
 10067 4b34 8018     		adds r0, r0, r2         @r
 10068 4b36 C918     		adds r1, r1, r3         @i
 10069 4b38 3618     		adds r6, r6, r0
 10070 4b3a 7F18     		adds r7, r7, r1
 10071              	
 10072 4b3c DD46     		mov sp, r11
 10073 4b3e 0FBC     		pop {r0-r3}
ARM GAS  1.s 			page 178


 10074 4b40 EB46     		mov r11, sp
 10075 4b42 D546     		mov sp, r10
 10076 4b44 10BC     		pop {r4}
 10077 4b46 EA46     		mov r10, sp
 10078 4b48 2546     		mov r5, r4
 10079 4b4a 2404     		lsls r4, r4, # 16
 10080 4b4c 240C     		lsrs r4, r4, # 16
 10081 4b4e 2D0C     		lsrs r5, r5, # 16
 10082 4b50 6043     		muls r0, r0, r4
 10083 4b52 6143     		muls r1, r1, r4
 10084 4b54 6A43     		muls r2, r2, r5
 10085 4b56 6B43     		muls r3, r3, r5
 10086 4b58 8011     		asrs r0, r0, # 6
 10087 4b5a 8911     		asrs r1, r1, # 6
 10088 4b5c 9211     		asrs r2, r2, # 6
 10089 4b5e 9B11     		asrs r3, r3, # 6
 10090 4b60 8018     		adds r0, r0, r2  @r
 10091 4b62 C918     		adds r1, r1, r3  @i
 10092 4b64 3618     		adds r6, r6, r0
 10093 4b66 7F18     		adds r7, r7, r1
 10094              	
 10095 4b68 DD46     		mov sp, r11
 10096 4b6a 0FBC     		pop {r0-r3}
 10097 4b6c EB46     		mov r11, sp
 10098 4b6e D546     		mov sp, r10
 10099 4b70 10BC     		pop {r4}
 10100 4b72 EA46     		mov r10, sp
 10101 4b74 2546     		mov r5, r4
 10102 4b76 2404     		lsls r4, r4, # 16
 10103 4b78 240C     		lsrs r4, r4, # 16
 10104 4b7a 2D0C     		lsrs r5, r5, # 16
 10105 4b7c 6043     		muls r0, r0, r4
 10106 4b7e 6143     		muls r1, r1, r4
 10107 4b80 6A43     		muls r2, r2, r5
 10108 4b82 6B43     		muls r3, r3, r5
 10109 4b84 8011     		asrs r0, r0, # 6
 10110 4b86 8911     		asrs r1, r1, # 6
 10111 4b88 9211     		asrs r2, r2, # 6
 10112 4b8a 9B11     		asrs r3, r3, # 6
 10113 4b8c 8018     		adds r0, r0, r2         @r
 10114 4b8e C918     		adds r1, r1, r3         @i
 10115 4b90 3618     		adds r6, r6, r0
 10116 4b92 7F18     		adds r7, r7, r1
 10117              	
 10118              		@7
 10119 4b94 DD46     		mov sp, r11
 10120 4b96 0FBC     		pop {r0-r3}
 10121 4b98 EB46     		mov r11, sp
 10122 4b9a D546     		mov sp, r10
 10123 4b9c 10BC     		pop {r4}
 10124 4b9e EA46     		mov r10, sp
 10125 4ba0 2546     		mov r5, r4
 10126 4ba2 2404     		lsls r4, r4, # 16
 10127 4ba4 240C     		lsrs r4, r4, # 16
 10128 4ba6 2D0C     		lsrs r5, r5, # 16
 10129 4ba8 6043     		muls r0, r0, r4		@R
 10130 4baa 6143     		muls r1, r1, r4		@I
ARM GAS  1.s 			page 179


 10131 4bac 6A43     		muls r2, r2, r5		@R
 10132 4bae 6B43     		muls r3, r3, r5		@I
 10133 4bb0 8011     		asrs r0, r0, # 6
 10134 4bb2 8911     		asrs r1, r1, # 6
 10135 4bb4 9211     		asrs r2, r2, # 6
 10136 4bb6 9B11     		asrs r3, r3, # 6
 10137 4bb8 8018     		adds r0, r0, r2	 @r
 10138 4bba C918     		adds r1, r1, r3	 @i
 10139 4bbc 3618     		adds r6, r6, r0
 10140 4bbe 7F18     		adds r7, r7, r1
 10141              	
 10142 4bc0 DD46     		mov sp, r11
 10143 4bc2 0FBC     		pop {r0-r3}
 10144 4bc4 EB46     		mov r11, sp
 10145 4bc6 D546     		mov sp, r10
 10146 4bc8 10BC     		pop {r4}
 10147 4bca EA46     		mov r10, sp
 10148 4bcc 2546     		mov r5, r4
 10149 4bce 2404     		lsls r4, r4, # 16
 10150 4bd0 240C     		lsrs r4, r4, # 16
 10151 4bd2 2D0C     		lsrs r5, r5, # 16
 10152 4bd4 6043     		muls r0, r0, r4
 10153 4bd6 6143     		muls r1, r1, r4
 10154 4bd8 6A43     		muls r2, r2, r5
 10155 4bda 6B43     		muls r3, r3, r5
 10156 4bdc 8011     		asrs r0, r0, # 6
 10157 4bde 8911     		asrs r1, r1, # 6
 10158 4be0 9211     		asrs r2, r2, # 6
 10159 4be2 9B11     		asrs r3, r3, # 6
 10160 4be4 8018     		adds r0, r0, r2         @r
 10161 4be6 C918     		adds r1, r1, r3         @i
 10162 4be8 3618     		adds r6, r6, r0
 10163 4bea 7F18     		adds r7, r7, r1
 10164              	
 10165 4bec DD46     		mov sp, r11
 10166 4bee 0FBC     		pop {r0-r3}
 10167 4bf0 EB46     		mov r11, sp
 10168 4bf2 D546     		mov sp, r10
 10169 4bf4 10BC     		pop {r4}
 10170 4bf6 EA46     		mov r10, sp
 10171 4bf8 2546     		mov r5, r4
 10172 4bfa 2404     		lsls r4, r4, # 16
 10173 4bfc 240C     		lsrs r4, r4, # 16
 10174 4bfe 2D0C     		lsrs r5, r5, # 16
 10175 4c00 6043     		muls r0, r0, r4
 10176 4c02 6143     		muls r1, r1, r4
 10177 4c04 6A43     		muls r2, r2, r5
 10178 4c06 6B43     		muls r3, r3, r5
 10179 4c08 8011     		asrs r0, r0, # 6
 10180 4c0a 8911     		asrs r1, r1, # 6
 10181 4c0c 9211     		asrs r2, r2, # 6
 10182 4c0e 9B11     		asrs r3, r3, # 6
 10183 4c10 8018     		adds r0, r0, r2  @r
 10184 4c12 C918     		adds r1, r1, r3  @i
 10185 4c14 3618     		adds r6, r6, r0
 10186 4c16 7F18     		adds r7, r7, r1
 10187              	
ARM GAS  1.s 			page 180


 10188 4c18 DD46     		mov sp, r11
 10189 4c1a 0FBC     		pop {r0-r3}
 10190 4c1c EB46     		mov r11, sp
 10191 4c1e D546     		mov sp, r10
 10192 4c20 10BC     		pop {r4}
 10193 4c22 EA46     		mov r10, sp
 10194 4c24 2546     		mov r5, r4
 10195 4c26 2404     		lsls r4, r4, # 16
 10196 4c28 240C     		lsrs r4, r4, # 16
 10197 4c2a 2D0C     		lsrs r5, r5, # 16
 10198 4c2c 6043     		muls r0, r0, r4
 10199 4c2e 6143     		muls r1, r1, r4
 10200 4c30 6A43     		muls r2, r2, r5
 10201 4c32 6B43     		muls r3, r3, r5
 10202 4c34 8011     		asrs r0, r0, # 6
 10203 4c36 8911     		asrs r1, r1, # 6
 10204 4c38 9211     		asrs r2, r2, # 6
 10205 4c3a 9B11     		asrs r3, r3, # 6
 10206 4c3c 8018     		adds r0, r0, r2         @r
 10207 4c3e C918     		adds r1, r1, r3         @i
 10208 4c40 3618     		adds r6, r6, r0
 10209 4c42 7F18     		adds r7, r7, r1
 10210              	
 10211              		@8
 10212 4c44 DD46     		mov sp, r11
 10213 4c46 0FBC     		pop {r0-r3}
 10214 4c48 EB46     		mov r11, sp
 10215 4c4a D546     		mov sp, r10
 10216 4c4c 10BC     		pop {r4}
 10217 4c4e EA46     		mov r10, sp
 10218 4c50 2546     		mov r5, r4
 10219 4c52 2404     		lsls r4, r4, # 16
 10220 4c54 240C     		lsrs r4, r4, # 16
 10221 4c56 2D0C     		lsrs r5, r5, # 16
 10222 4c58 6043     		muls r0, r0, r4		@R
 10223 4c5a 6143     		muls r1, r1, r4		@I
 10224 4c5c 6A43     		muls r2, r2, r5		@R
 10225 4c5e 6B43     		muls r3, r3, r5		@I
 10226 4c60 8011     		asrs r0, r0, # 6
 10227 4c62 8911     		asrs r1, r1, # 6
 10228 4c64 9211     		asrs r2, r2, # 6
 10229 4c66 9B11     		asrs r3, r3, # 6
 10230 4c68 8018     		adds r0, r0, r2	 @r
 10231 4c6a C918     		adds r1, r1, r3	 @i
 10232 4c6c 3618     		adds r6, r6, r0
 10233 4c6e 7F18     		adds r7, r7, r1
 10234              	
 10235 4c70 DD46     		mov sp, r11
 10236 4c72 0FBC     		pop {r0-r3}
 10237 4c74 EB46     		mov r11, sp
 10238 4c76 D546     		mov sp, r10
 10239 4c78 10BC     		pop {r4}
 10240 4c7a EA46     		mov r10, sp
 10241 4c7c 2546     		mov r5, r4
 10242 4c7e 2404     		lsls r4, r4, # 16
 10243 4c80 240C     		lsrs r4, r4, # 16
 10244 4c82 2D0C     		lsrs r5, r5, # 16
ARM GAS  1.s 			page 181


 10245 4c84 6043     		muls r0, r0, r4
 10246 4c86 6143     		muls r1, r1, r4
 10247 4c88 6A43     		muls r2, r2, r5
 10248 4c8a 6B43     		muls r3, r3, r5
 10249 4c8c 8011     		asrs r0, r0, # 6
 10250 4c8e 8911     		asrs r1, r1, # 6
 10251 4c90 9211     		asrs r2, r2, # 6
 10252 4c92 9B11     		asrs r3, r3, # 6
 10253 4c94 8018     		adds r0, r0, r2         @r
 10254 4c96 C918     		adds r1, r1, r3         @i
 10255 4c98 3618     		adds r6, r6, r0
 10256 4c9a 7F18     		adds r7, r7, r1
 10257              	
 10258 4c9c DD46     		mov sp, r11
 10259 4c9e 0FBC     		pop {r0-r3}
 10260 4ca0 EB46     		mov r11, sp
 10261 4ca2 D546     		mov sp, r10
 10262 4ca4 10BC     		pop {r4}
 10263 4ca6 EA46     		mov r10, sp
 10264 4ca8 2546     		mov r5, r4
 10265 4caa 2404     		lsls r4, r4, # 16
 10266 4cac 240C     		lsrs r4, r4, # 16
 10267 4cae 2D0C     		lsrs r5, r5, # 16
 10268 4cb0 6043     		muls r0, r0, r4
 10269 4cb2 6143     		muls r1, r1, r4
 10270 4cb4 6A43     		muls r2, r2, r5
 10271 4cb6 6B43     		muls r3, r3, r5
 10272 4cb8 8011     		asrs r0, r0, # 6
 10273 4cba 8911     		asrs r1, r1, # 6
 10274 4cbc 9211     		asrs r2, r2, # 6
 10275 4cbe 9B11     		asrs r3, r3, # 6
 10276 4cc0 8018     		adds r0, r0, r2  @r
 10277 4cc2 C918     		adds r1, r1, r3  @i
 10278 4cc4 3618     		adds r6, r6, r0
 10279 4cc6 7F18     		adds r7, r7, r1
 10280              	
 10281 4cc8 DD46     		mov sp, r11
 10282 4cca 0FBC     		pop {r0-r3}
 10283 4ccc EB46     		mov r11, sp
 10284 4cce D546     		mov sp, r10
 10285 4cd0 10BC     		pop {r4}
 10286 4cd2 EA46     		mov r10, sp
 10287 4cd4 2546     		mov r5, r4
 10288 4cd6 2404     		lsls r4, r4, # 16
 10289 4cd8 240C     		lsrs r4, r4, # 16
 10290 4cda 2D0C     		lsrs r5, r5, # 16
 10291 4cdc 6043     		muls r0, r0, r4
 10292 4cde 6143     		muls r1, r1, r4
 10293 4ce0 6A43     		muls r2, r2, r5
 10294 4ce2 6B43     		muls r3, r3, r5
 10295 4ce4 8011     		asrs r0, r0, # 6
 10296 4ce6 8911     		asrs r1, r1, # 6
 10297 4ce8 9211     		asrs r2, r2, # 6
 10298 4cea 9B11     		asrs r3, r3, # 6
 10299 4cec 8018     		adds r0, r0, r2         @r
 10300 4cee C918     		adds r1, r1, r3         @i
 10301 4cf0 3618     		adds r6, r6, r0
ARM GAS  1.s 			page 182


 10302 4cf2 7F18     		adds r7, r7, r1
 10303              	
 10304              		@9
 10305 4cf4 DD46     		mov sp, r11
 10306 4cf6 0FBC     		pop {r0-r3}
 10307 4cf8 EB46     		mov r11, sp
 10308 4cfa D546     		mov sp, r10
 10309 4cfc 10BC     		pop {r4}
 10310 4cfe EA46     		mov r10, sp
 10311 4d00 2546     		mov r5, r4
 10312 4d02 2404     		lsls r4, r4, # 16
 10313 4d04 240C     		lsrs r4, r4, # 16
 10314 4d06 2D0C     		lsrs r5, r5, # 16
 10315 4d08 6043     		muls r0, r0, r4		@R
 10316 4d0a 6143     		muls r1, r1, r4		@I
 10317 4d0c 6A43     		muls r2, r2, r5		@R
 10318 4d0e 6B43     		muls r3, r3, r5		@I
 10319 4d10 8011     		asrs r0, r0, # 6
 10320 4d12 8911     		asrs r1, r1, # 6
 10321 4d14 9211     		asrs r2, r2, # 6
 10322 4d16 9B11     		asrs r3, r3, # 6
 10323 4d18 8018     		adds r0, r0, r2	 @r
 10324 4d1a C918     		adds r1, r1, r3	 @i
 10325 4d1c 3618     		adds r6, r6, r0
 10326 4d1e 7F18     		adds r7, r7, r1
 10327              	
 10328 4d20 DD46     		mov sp, r11
 10329 4d22 0FBC     		pop {r0-r3}
 10330 4d24 EB46     		mov r11, sp
 10331 4d26 D546     		mov sp, r10
 10332 4d28 10BC     		pop {r4}
 10333 4d2a EA46     		mov r10, sp
 10334 4d2c 2546     		mov r5, r4
 10335 4d2e 2404     		lsls r4, r4, # 16
 10336 4d30 240C     		lsrs r4, r4, # 16
 10337 4d32 2D0C     		lsrs r5, r5, # 16
 10338 4d34 6043     		muls r0, r0, r4
 10339 4d36 6143     		muls r1, r1, r4
 10340 4d38 6A43     		muls r2, r2, r5
 10341 4d3a 6B43     		muls r3, r3, r5
 10342 4d3c 8011     		asrs r0, r0, # 6
 10343 4d3e 8911     		asrs r1, r1, # 6
 10344 4d40 9211     		asrs r2, r2, # 6
 10345 4d42 9B11     		asrs r3, r3, # 6
 10346 4d44 8018     		adds r0, r0, r2         @r
 10347 4d46 C918     		adds r1, r1, r3         @i
 10348 4d48 3618     		adds r6, r6, r0
 10349 4d4a 7F18     		adds r7, r7, r1
 10350              	
 10351 4d4c DD46     		mov sp, r11
 10352 4d4e 0FBC     		pop {r0-r3}
 10353 4d50 EB46     		mov r11, sp
 10354 4d52 D546     		mov sp, r10
 10355 4d54 10BC     		pop {r4}
 10356 4d56 EA46     		mov r10, sp
 10357 4d58 2546     		mov r5, r4
 10358 4d5a 2404     		lsls r4, r4, # 16
ARM GAS  1.s 			page 183


 10359 4d5c 240C     		lsrs r4, r4, # 16
 10360 4d5e 2D0C     		lsrs r5, r5, # 16
 10361 4d60 6043     		muls r0, r0, r4
 10362 4d62 6143     		muls r1, r1, r4
 10363 4d64 6A43     		muls r2, r2, r5
 10364 4d66 6B43     		muls r3, r3, r5
 10365 4d68 8011     		asrs r0, r0, # 6
 10366 4d6a 8911     		asrs r1, r1, # 6
 10367 4d6c 9211     		asrs r2, r2, # 6
 10368 4d6e 9B11     		asrs r3, r3, # 6
 10369 4d70 8018     		adds r0, r0, r2  @r
 10370 4d72 C918     		adds r1, r1, r3  @i
 10371 4d74 3618     		adds r6, r6, r0
 10372 4d76 7F18     		adds r7, r7, r1
 10373              	
 10374 4d78 DD46     		mov sp, r11
 10375 4d7a 0FBC     		pop {r0-r3}
 10376 4d7c EB46     		mov r11, sp
 10377 4d7e D546     		mov sp, r10
 10378 4d80 10BC     		pop {r4}
 10379 4d82 EA46     		mov r10, sp
 10380 4d84 2546     		mov r5, r4
 10381 4d86 2404     		lsls r4, r4, # 16
 10382 4d88 240C     		lsrs r4, r4, # 16
 10383 4d8a 2D0C     		lsrs r5, r5, # 16
 10384 4d8c 6043     		muls r0, r0, r4
 10385 4d8e 6143     		muls r1, r1, r4
 10386 4d90 6A43     		muls r2, r2, r5
 10387 4d92 6B43     		muls r3, r3, r5
 10388 4d94 8011     		asrs r0, r0, # 6
 10389 4d96 8911     		asrs r1, r1, # 6
 10390 4d98 9211     		asrs r2, r2, # 6
 10391 4d9a 9B11     		asrs r3, r3, # 6
 10392 4d9c 8018     		adds r0, r0, r2         @r
 10393 4d9e C918     		adds r1, r1, r3         @i
 10394 4da0 3618     		adds r6, r6, r0
 10395 4da2 7F18     		adds r7, r7, r1
 10396              	
 10397              	@yjm10
 10398              		@0
 10399 4da4 DD46     		mov sp, r11
 10400 4da6 0FBC     		pop {r0-r3}
 10401 4da8 EB46     		mov r11, sp
 10402 4daa D546     		mov sp, r10
 10403 4dac 10BC     		pop {r4}
 10404 4dae EA46     		mov r10, sp
 10405 4db0 2546     		mov r5, r4
 10406 4db2 2404     		lsls r4, r4, # 16
 10407 4db4 240C     		lsrs r4, r4, # 16
 10408 4db6 2D0C     		lsrs r5, r5, # 16
 10409 4db8 6043     		muls r0, r0, r4		@R
 10410 4dba 6143     		muls r1, r1, r4		@I
 10411 4dbc 6A43     		muls r2, r2, r5		@R
 10412 4dbe 6B43     		muls r3, r3, r5		@I
 10413 4dc0 8011     		asrs r0, r0, # 6
 10414 4dc2 8911     		asrs r1, r1, # 6
 10415 4dc4 9211     		asrs r2, r2, # 6
ARM GAS  1.s 			page 184


 10416 4dc6 9B11     		asrs r3, r3, # 6
 10417 4dc8 8018     		adds r0, r0, r2	 @r
 10418 4dca C918     		adds r1, r1, r3	 @i
 10419 4dcc 3618     		adds r6, r6, r0
 10420 4dce 7F18     		adds r7, r7, r1
 10421              	
 10422 4dd0 DD46     		mov sp, r11
 10423 4dd2 0FBC     		pop {r0-r3}
 10424 4dd4 EB46     		mov r11, sp
 10425 4dd6 D546     		mov sp, r10
 10426 4dd8 10BC     		pop {r4}
 10427 4dda EA46     		mov r10, sp
 10428 4ddc 2546     		mov r5, r4
 10429 4dde 2404     		lsls r4, r4, # 16
 10430 4de0 240C     		lsrs r4, r4, # 16
 10431 4de2 2D0C     		lsrs r5, r5, # 16
 10432 4de4 6043     		muls r0, r0, r4
 10433 4de6 6143     		muls r1, r1, r4
 10434 4de8 6A43     		muls r2, r2, r5
 10435 4dea 6B43     		muls r3, r3, r5
 10436 4dec 8011     		asrs r0, r0, # 6
 10437 4dee 8911     		asrs r1, r1, # 6
 10438 4df0 9211     		asrs r2, r2, # 6
 10439 4df2 9B11     		asrs r3, r3, # 6
 10440 4df4 8018     		adds r0, r0, r2         @r
 10441 4df6 C918     		adds r1, r1, r3         @i
 10442 4df8 3618     		adds r6, r6, r0
 10443 4dfa 7F18     		adds r7, r7, r1
 10444              	
 10445 4dfc DD46     		mov sp, r11
 10446 4dfe 0FBC     		pop {r0-r3}
 10447 4e00 EB46     		mov r11, sp
 10448 4e02 D546     		mov sp, r10
 10449 4e04 10BC     		pop {r4}
 10450 4e06 EA46     		mov r10, sp
 10451 4e08 2546     		mov r5, r4
 10452 4e0a 2404     		lsls r4, r4, # 16
 10453 4e0c 240C     		lsrs r4, r4, # 16
 10454 4e0e 2D0C     		lsrs r5, r5, # 16
 10455 4e10 6043     		muls r0, r0, r4
 10456 4e12 6143     		muls r1, r1, r4
 10457 4e14 6A43     		muls r2, r2, r5
 10458 4e16 6B43     		muls r3, r3, r5
 10459 4e18 8011     		asrs r0, r0, # 6
 10460 4e1a 8911     		asrs r1, r1, # 6
 10461 4e1c 9211     		asrs r2, r2, # 6
 10462 4e1e 9B11     		asrs r3, r3, # 6
 10463 4e20 8018     		adds r0, r0, r2  @r
 10464 4e22 C918     		adds r1, r1, r3  @i
 10465 4e24 3618     		adds r6, r6, r0
 10466 4e26 7F18     		adds r7, r7, r1
 10467              	
 10468 4e28 DD46     		mov sp, r11
 10469 4e2a 0FBC     		pop {r0-r3}
 10470 4e2c EB46     		mov r11, sp
 10471 4e2e D546     		mov sp, r10
 10472 4e30 10BC     		pop {r4}
ARM GAS  1.s 			page 185


 10473 4e32 EA46     		mov r10, sp
 10474 4e34 2546     		mov r5, r4
 10475 4e36 2404     		lsls r4, r4, # 16
 10476 4e38 240C     		lsrs r4, r4, # 16
 10477 4e3a 2D0C     		lsrs r5, r5, # 16
 10478 4e3c 6043     		muls r0, r0, r4
 10479 4e3e 6143     		muls r1, r1, r4
 10480 4e40 6A43     		muls r2, r2, r5
 10481 4e42 6B43     		muls r3, r3, r5
 10482 4e44 8011     		asrs r0, r0, # 6
 10483 4e46 8911     		asrs r1, r1, # 6
 10484 4e48 9211     		asrs r2, r2, # 6
 10485 4e4a 9B11     		asrs r3, r3, # 6
 10486 4e4c 8018     		adds r0, r0, r2         @r
 10487 4e4e C918     		adds r1, r1, r3         @i
 10488 4e50 3618     		adds r6, r6, r0
 10489 4e52 7F18     		adds r7, r7, r1
 10490              	
 10491              		@1
 10492 4e54 DD46     		mov sp, r11
 10493 4e56 0FBC     		pop {r0-r3}
 10494 4e58 EB46     		mov r11, sp
 10495 4e5a D546     		mov sp, r10
 10496 4e5c 10BC     		pop {r4}
 10497 4e5e EA46     		mov r10, sp
 10498 4e60 2546     		mov r5, r4
 10499 4e62 2404     		lsls r4, r4, # 16
 10500 4e64 240C     		lsrs r4, r4, # 16
 10501 4e66 2D0C     		lsrs r5, r5, # 16
 10502 4e68 6043     		muls r0, r0, r4		@R
 10503 4e6a 6143     		muls r1, r1, r4		@I
 10504 4e6c 6A43     		muls r2, r2, r5		@R
 10505 4e6e 6B43     		muls r3, r3, r5		@I
 10506 4e70 8011     		asrs r0, r0, # 6
 10507 4e72 8911     		asrs r1, r1, # 6
 10508 4e74 9211     		asrs r2, r2, # 6
 10509 4e76 9B11     		asrs r3, r3, # 6
 10510 4e78 8018     		adds r0, r0, r2	 @r
 10511 4e7a C918     		adds r1, r1, r3	 @i
 10512 4e7c 3618     		adds r6, r6, r0
 10513 4e7e 7F18     		adds r7, r7, r1
 10514              	
 10515 4e80 DD46     		mov sp, r11
 10516 4e82 0FBC     		pop {r0-r3}
 10517 4e84 EB46     		mov r11, sp
 10518 4e86 D546     		mov sp, r10
 10519 4e88 10BC     		pop {r4}
 10520 4e8a EA46     		mov r10, sp
 10521 4e8c 2546     		mov r5, r4
 10522 4e8e 2404     		lsls r4, r4, # 16
 10523 4e90 240C     		lsrs r4, r4, # 16
 10524 4e92 2D0C     		lsrs r5, r5, # 16
 10525 4e94 6043     		muls r0, r0, r4
 10526 4e96 6143     		muls r1, r1, r4
 10527 4e98 6A43     		muls r2, r2, r5
 10528 4e9a 6B43     		muls r3, r3, r5
 10529 4e9c 8011     		asrs r0, r0, # 6
ARM GAS  1.s 			page 186


 10530 4e9e 8911     		asrs r1, r1, # 6
 10531 4ea0 9211     		asrs r2, r2, # 6
 10532 4ea2 9B11     		asrs r3, r3, # 6
 10533 4ea4 8018     		adds r0, r0, r2         @r
 10534 4ea6 C918     		adds r1, r1, r3         @i
 10535 4ea8 3618     		adds r6, r6, r0
 10536 4eaa 7F18     		adds r7, r7, r1
 10537              	
 10538 4eac DD46     		mov sp, r11
 10539 4eae 0FBC     		pop {r0-r3}
 10540 4eb0 EB46     		mov r11, sp
 10541 4eb2 D546     		mov sp, r10
 10542 4eb4 10BC     		pop {r4}
 10543 4eb6 EA46     		mov r10, sp
 10544 4eb8 2546     		mov r5, r4
 10545 4eba 2404     		lsls r4, r4, # 16
 10546 4ebc 240C     		lsrs r4, r4, # 16
 10547 4ebe 2D0C     		lsrs r5, r5, # 16
 10548 4ec0 6043     		muls r0, r0, r4
 10549 4ec2 6143     		muls r1, r1, r4
 10550 4ec4 6A43     		muls r2, r2, r5
 10551 4ec6 6B43     		muls r3, r3, r5
 10552 4ec8 8011     		asrs r0, r0, # 6
 10553 4eca 8911     		asrs r1, r1, # 6
 10554 4ecc 9211     		asrs r2, r2, # 6
 10555 4ece 9B11     		asrs r3, r3, # 6
 10556 4ed0 8018     		adds r0, r0, r2  @r
 10557 4ed2 C918     		adds r1, r1, r3  @i
 10558 4ed4 3618     		adds r6, r6, r0
 10559 4ed6 7F18     		adds r7, r7, r1
 10560              	
 10561 4ed8 DD46     		mov sp, r11
 10562 4eda 0FBC     		pop {r0-r3}
 10563 4edc EB46     		mov r11, sp
 10564 4ede D546     		mov sp, r10
 10565 4ee0 10BC     		pop {r4}
 10566 4ee2 EA46     		mov r10, sp
 10567 4ee4 2546     		mov r5, r4
 10568 4ee6 2404     		lsls r4, r4, # 16
 10569 4ee8 240C     		lsrs r4, r4, # 16
 10570 4eea 2D0C     		lsrs r5, r5, # 16
 10571 4eec 6043     		muls r0, r0, r4
 10572 4eee 6143     		muls r1, r1, r4
 10573 4ef0 6A43     		muls r2, r2, r5
 10574 4ef2 6B43     		muls r3, r3, r5
 10575 4ef4 8011     		asrs r0, r0, # 6
 10576 4ef6 8911     		asrs r1, r1, # 6
 10577 4ef8 9211     		asrs r2, r2, # 6
 10578 4efa 9B11     		asrs r3, r3, # 6
 10579 4efc 8018     		adds r0, r0, r2         @r
 10580 4efe C918     		adds r1, r1, r3         @i
 10581 4f00 3618     		adds r6, r6, r0
 10582 4f02 7F18     		adds r7, r7, r1
 10583              	
 10584              		@2
 10585 4f04 DD46     		mov sp, r11
 10586 4f06 0FBC     		pop {r0-r3}
ARM GAS  1.s 			page 187


 10587 4f08 EB46     		mov r11, sp
 10588 4f0a D546     		mov sp, r10
 10589 4f0c 10BC     		pop {r4}
 10590 4f0e EA46     		mov r10, sp
 10591 4f10 2546     		mov r5, r4
 10592 4f12 2404     		lsls r4, r4, # 16
 10593 4f14 240C     		lsrs r4, r4, # 16
 10594 4f16 2D0C     		lsrs r5, r5, # 16
 10595 4f18 6043     		muls r0, r0, r4		@R
 10596 4f1a 6143     		muls r1, r1, r4		@I
 10597 4f1c 6A43     		muls r2, r2, r5		@R
 10598 4f1e 6B43     		muls r3, r3, r5		@I
 10599 4f20 8011     		asrs r0, r0, # 6
 10600 4f22 8911     		asrs r1, r1, # 6
 10601 4f24 9211     		asrs r2, r2, # 6
 10602 4f26 9B11     		asrs r3, r3, # 6
 10603 4f28 8018     		adds r0, r0, r2	 @r
 10604 4f2a C918     		adds r1, r1, r3	 @i
 10605 4f2c 3618     		adds r6, r6, r0
 10606 4f2e 7F18     		adds r7, r7, r1
 10607              	
 10608 4f30 DD46     		mov sp, r11
 10609 4f32 0FBC     		pop {r0-r3}
 10610 4f34 EB46     		mov r11, sp
 10611 4f36 D546     		mov sp, r10
 10612 4f38 10BC     		pop {r4}
 10613 4f3a EA46     		mov r10, sp
 10614 4f3c 2546     		mov r5, r4
 10615 4f3e 2404     		lsls r4, r4, # 16
 10616 4f40 240C     		lsrs r4, r4, # 16
 10617 4f42 2D0C     		lsrs r5, r5, # 16
 10618 4f44 6043     		muls r0, r0, r4
 10619 4f46 6143     		muls r1, r1, r4
 10620 4f48 6A43     		muls r2, r2, r5
 10621 4f4a 6B43     		muls r3, r3, r5
 10622 4f4c 8011     		asrs r0, r0, # 6
 10623 4f4e 8911     		asrs r1, r1, # 6
 10624 4f50 9211     		asrs r2, r2, # 6
 10625 4f52 9B11     		asrs r3, r3, # 6
 10626 4f54 8018     		adds r0, r0, r2         @r
 10627 4f56 C918     		adds r1, r1, r3         @i
 10628 4f58 3618     		adds r6, r6, r0
 10629 4f5a 7F18     		adds r7, r7, r1
 10630              	
 10631 4f5c DD46     		mov sp, r11
 10632 4f5e 0FBC     		pop {r0-r3}
 10633 4f60 EB46     		mov r11, sp
 10634 4f62 D546     		mov sp, r10
 10635 4f64 10BC     		pop {r4}
 10636 4f66 EA46     		mov r10, sp
 10637 4f68 2546     		mov r5, r4
 10638 4f6a 2404     		lsls r4, r4, # 16
 10639 4f6c 240C     		lsrs r4, r4, # 16
 10640 4f6e 2D0C     		lsrs r5, r5, # 16
 10641 4f70 6043     		muls r0, r0, r4
 10642 4f72 6143     		muls r1, r1, r4
 10643 4f74 6A43     		muls r2, r2, r5
ARM GAS  1.s 			page 188


 10644 4f76 6B43     		muls r3, r3, r5
 10645 4f78 8011     		asrs r0, r0, # 6
 10646 4f7a 8911     		asrs r1, r1, # 6
 10647 4f7c 9211     		asrs r2, r2, # 6
 10648 4f7e 9B11     		asrs r3, r3, # 6
 10649 4f80 8018     		adds r0, r0, r2  @r
 10650 4f82 C918     		adds r1, r1, r3  @i
 10651 4f84 3618     		adds r6, r6, r0
 10652 4f86 7F18     		adds r7, r7, r1
 10653              	
 10654 4f88 DD46     		mov sp, r11
 10655 4f8a 0FBC     		pop {r0-r3}
 10656 4f8c EB46     		mov r11, sp
 10657 4f8e D546     		mov sp, r10
 10658 4f90 10BC     		pop {r4}
 10659 4f92 EA46     		mov r10, sp
 10660 4f94 2546     		mov r5, r4
 10661 4f96 2404     		lsls r4, r4, # 16
 10662 4f98 240C     		lsrs r4, r4, # 16
 10663 4f9a 2D0C     		lsrs r5, r5, # 16
 10664 4f9c 6043     		muls r0, r0, r4
 10665 4f9e 6143     		muls r1, r1, r4
 10666 4fa0 6A43     		muls r2, r2, r5
 10667 4fa2 6B43     		muls r3, r3, r5
 10668 4fa4 8011     		asrs r0, r0, # 6
 10669 4fa6 8911     		asrs r1, r1, # 6
 10670 4fa8 9211     		asrs r2, r2, # 6
 10671 4faa 9B11     		asrs r3, r3, # 6
 10672 4fac 8018     		adds r0, r0, r2         @r
 10673 4fae C918     		adds r1, r1, r3         @i
 10674 4fb0 3618     		adds r6, r6, r0
 10675 4fb2 7F18     		adds r7, r7, r1
 10676              	
 10677              		@3
 10678 4fb4 DD46     		mov sp, r11
 10679 4fb6 0FBC     		pop {r0-r3}
 10680 4fb8 EB46     		mov r11, sp
 10681 4fba D546     		mov sp, r10
 10682 4fbc 10BC     		pop {r4}
 10683 4fbe EA46     		mov r10, sp
 10684 4fc0 2546     		mov r5, r4
 10685 4fc2 2404     		lsls r4, r4, # 16
 10686 4fc4 240C     		lsrs r4, r4, # 16
 10687 4fc6 2D0C     		lsrs r5, r5, # 16
 10688 4fc8 6043     		muls r0, r0, r4		@R
 10689 4fca 6143     		muls r1, r1, r4		@I
 10690 4fcc 6A43     		muls r2, r2, r5		@R
 10691 4fce 6B43     		muls r3, r3, r5		@I
 10692 4fd0 8011     		asrs r0, r0, # 6
 10693 4fd2 8911     		asrs r1, r1, # 6
 10694 4fd4 9211     		asrs r2, r2, # 6
 10695 4fd6 9B11     		asrs r3, r3, # 6
 10696 4fd8 8018     		adds r0, r0, r2	 @r
 10697 4fda C918     		adds r1, r1, r3	 @i
 10698 4fdc 3618     		adds r6, r6, r0
 10699 4fde 7F18     		adds r7, r7, r1
 10700              	
ARM GAS  1.s 			page 189


 10701 4fe0 DD46     		mov sp, r11
 10702 4fe2 0FBC     		pop {r0-r3}
 10703 4fe4 EB46     		mov r11, sp
 10704 4fe6 D546     		mov sp, r10
 10705 4fe8 10BC     		pop {r4}
 10706 4fea EA46     		mov r10, sp
 10707 4fec 2546     		mov r5, r4
 10708 4fee 2404     		lsls r4, r4, # 16
 10709 4ff0 240C     		lsrs r4, r4, # 16
 10710 4ff2 2D0C     		lsrs r5, r5, # 16
 10711 4ff4 6043     		muls r0, r0, r4
 10712 4ff6 6143     		muls r1, r1, r4
 10713 4ff8 6A43     		muls r2, r2, r5
 10714 4ffa 6B43     		muls r3, r3, r5
 10715 4ffc 8011     		asrs r0, r0, # 6
 10716 4ffe 8911     		asrs r1, r1, # 6
 10717 5000 9211     		asrs r2, r2, # 6
 10718 5002 9B11     		asrs r3, r3, # 6
 10719 5004 8018     		adds r0, r0, r2         @r
 10720 5006 C918     		adds r1, r1, r3         @i
 10721 5008 3618     		adds r6, r6, r0
 10722 500a 7F18     		adds r7, r7, r1
 10723              	
 10724 500c DD46     		mov sp, r11
 10725 500e 0FBC     		pop {r0-r3}
 10726 5010 EB46     		mov r11, sp
 10727 5012 D546     		mov sp, r10
 10728 5014 10BC     		pop {r4}
 10729 5016 EA46     		mov r10, sp
 10730 5018 2546     		mov r5, r4
 10731 501a 2404     		lsls r4, r4, # 16
 10732 501c 240C     		lsrs r4, r4, # 16
 10733 501e 2D0C     		lsrs r5, r5, # 16
 10734 5020 6043     		muls r0, r0, r4
 10735 5022 6143     		muls r1, r1, r4
 10736 5024 6A43     		muls r2, r2, r5
 10737 5026 6B43     		muls r3, r3, r5
 10738 5028 8011     		asrs r0, r0, # 6
 10739 502a 8911     		asrs r1, r1, # 6
 10740 502c 9211     		asrs r2, r2, # 6
 10741 502e 9B11     		asrs r3, r3, # 6
 10742 5030 8018     		adds r0, r0, r2  @r
 10743 5032 C918     		adds r1, r1, r3  @i
 10744 5034 3618     		adds r6, r6, r0
 10745 5036 7F18     		adds r7, r7, r1
 10746              	
 10747 5038 DD46     		mov sp, r11
 10748 503a 0FBC     		pop {r0-r3}
 10749 503c EB46     		mov r11, sp
 10750 503e D546     		mov sp, r10
 10751 5040 10BC     		pop {r4}
 10752 5042 EA46     		mov r10, sp
 10753 5044 2546     		mov r5, r4
 10754 5046 2404     		lsls r4, r4, # 16
 10755 5048 240C     		lsrs r4, r4, # 16
 10756 504a 2D0C     		lsrs r5, r5, # 16
 10757 504c 6043     		muls r0, r0, r4
ARM GAS  1.s 			page 190


 10758 504e 6143     		muls r1, r1, r4
 10759 5050 6A43     		muls r2, r2, r5
 10760 5052 6B43     		muls r3, r3, r5
 10761 5054 8011     		asrs r0, r0, # 6
 10762 5056 8911     		asrs r1, r1, # 6
 10763 5058 9211     		asrs r2, r2, # 6
 10764 505a 9B11     		asrs r3, r3, # 6
 10765 505c 8018     		adds r0, r0, r2         @r
 10766 505e C918     		adds r1, r1, r3         @i
 10767 5060 3618     		adds r6, r6, r0
 10768 5062 7F18     		adds r7, r7, r1
 10769              	
 10770              		@4
 10771 5064 DD46     		mov sp, r11
 10772 5066 0FBC     		pop {r0-r3}
 10773 5068 EB46     		mov r11, sp
 10774 506a D546     		mov sp, r10
 10775 506c 10BC     		pop {r4}
 10776 506e EA46     		mov r10, sp
 10777 5070 2546     		mov r5, r4
 10778 5072 2404     		lsls r4, r4, # 16
 10779 5074 240C     		lsrs r4, r4, # 16
 10780 5076 2D0C     		lsrs r5, r5, # 16
 10781 5078 6043     		muls r0, r0, r4		@R
 10782 507a 6143     		muls r1, r1, r4		@I
 10783 507c 6A43     		muls r2, r2, r5		@R
 10784 507e 6B43     		muls r3, r3, r5		@I
 10785 5080 8011     		asrs r0, r0, # 6
 10786 5082 8911     		asrs r1, r1, # 6
 10787 5084 9211     		asrs r2, r2, # 6
 10788 5086 9B11     		asrs r3, r3, # 6
 10789 5088 8018     		adds r0, r0, r2	 @r
 10790 508a C918     		adds r1, r1, r3	 @i
 10791 508c 3618     		adds r6, r6, r0
 10792 508e 7F18     		adds r7, r7, r1
 10793              	
 10794 5090 DD46     		mov sp, r11
 10795 5092 0FBC     		pop {r0-r3}
 10796 5094 EB46     		mov r11, sp
 10797 5096 D546     		mov sp, r10
 10798 5098 10BC     		pop {r4}
 10799 509a EA46     		mov r10, sp
 10800 509c 2546     		mov r5, r4
 10801 509e 2404     		lsls r4, r4, # 16
 10802 50a0 240C     		lsrs r4, r4, # 16
 10803 50a2 2D0C     		lsrs r5, r5, # 16
 10804 50a4 6043     		muls r0, r0, r4
 10805 50a6 6143     		muls r1, r1, r4
 10806 50a8 6A43     		muls r2, r2, r5
 10807 50aa 6B43     		muls r3, r3, r5
 10808 50ac 8011     		asrs r0, r0, # 6
 10809 50ae 8911     		asrs r1, r1, # 6
 10810 50b0 9211     		asrs r2, r2, # 6
 10811 50b2 9B11     		asrs r3, r3, # 6
 10812 50b4 8018     		adds r0, r0, r2         @r
 10813 50b6 C918     		adds r1, r1, r3         @i
 10814 50b8 3618     		adds r6, r6, r0
ARM GAS  1.s 			page 191


 10815 50ba 7F18     		adds r7, r7, r1
 10816              	
 10817 50bc DD46     		mov sp, r11
 10818 50be 0FBC     		pop {r0-r3}
 10819 50c0 EB46     		mov r11, sp
 10820 50c2 D546     		mov sp, r10
 10821 50c4 10BC     		pop {r4}
 10822 50c6 EA46     		mov r10, sp
 10823 50c8 2546     		mov r5, r4
 10824 50ca 2404     		lsls r4, r4, # 16
 10825 50cc 240C     		lsrs r4, r4, # 16
 10826 50ce 2D0C     		lsrs r5, r5, # 16
 10827 50d0 6043     		muls r0, r0, r4
 10828 50d2 6143     		muls r1, r1, r4
 10829 50d4 6A43     		muls r2, r2, r5
 10830 50d6 6B43     		muls r3, r3, r5
 10831 50d8 8011     		asrs r0, r0, # 6
 10832 50da 8911     		asrs r1, r1, # 6
 10833 50dc 9211     		asrs r2, r2, # 6
 10834 50de 9B11     		asrs r3, r3, # 6
 10835 50e0 8018     		adds r0, r0, r2  @r
 10836 50e2 C918     		adds r1, r1, r3  @i
 10837 50e4 3618     		adds r6, r6, r0
 10838 50e6 7F18     		adds r7, r7, r1
 10839              	
 10840 50e8 DD46     		mov sp, r11
 10841 50ea 0FBC     		pop {r0-r3}
 10842 50ec EB46     		mov r11, sp
 10843 50ee D546     		mov sp, r10
 10844 50f0 10BC     		pop {r4}
 10845 50f2 EA46     		mov r10, sp
 10846 50f4 2546     		mov r5, r4
 10847 50f6 2404     		lsls r4, r4, # 16
 10848 50f8 240C     		lsrs r4, r4, # 16
 10849 50fa 2D0C     		lsrs r5, r5, # 16
 10850 50fc 6043     		muls r0, r0, r4
 10851 50fe 6143     		muls r1, r1, r4
 10852 5100 6A43     		muls r2, r2, r5
 10853 5102 6B43     		muls r3, r3, r5
 10854 5104 8011     		asrs r0, r0, # 6
 10855 5106 8911     		asrs r1, r1, # 6
 10856 5108 9211     		asrs r2, r2, # 6
 10857 510a 9B11     		asrs r3, r3, # 6
 10858 510c 8018     		adds r0, r0, r2         @r
 10859 510e C918     		adds r1, r1, r3         @i
 10860 5110 3618     		adds r6, r6, r0
 10861 5112 7F18     		adds r7, r7, r1
 10862              	
 10863              		@5
 10864 5114 DD46     		mov sp, r11
 10865 5116 0FBC     		pop {r0-r3}
 10866 5118 EB46     		mov r11, sp
 10867 511a D546     		mov sp, r10
 10868 511c 10BC     		pop {r4}
 10869 511e EA46     		mov r10, sp
 10870 5120 2546     		mov r5, r4
 10871 5122 2404     		lsls r4, r4, # 16
ARM GAS  1.s 			page 192


 10872 5124 240C     		lsrs r4, r4, # 16
 10873 5126 2D0C     		lsrs r5, r5, # 16
 10874 5128 6043     		muls r0, r0, r4		@R
 10875 512a 6143     		muls r1, r1, r4		@I
 10876 512c 6A43     		muls r2, r2, r5		@R
 10877 512e 6B43     		muls r3, r3, r5		@I
 10878 5130 8011     		asrs r0, r0, # 6
 10879 5132 8911     		asrs r1, r1, # 6
 10880 5134 9211     		asrs r2, r2, # 6
 10881 5136 9B11     		asrs r3, r3, # 6
 10882 5138 8018     		adds r0, r0, r2	 @r
 10883 513a C918     		adds r1, r1, r3	 @i
 10884 513c 3618     		adds r6, r6, r0
 10885 513e 7F18     		adds r7, r7, r1
 10886              	
 10887 5140 DD46     		mov sp, r11
 10888 5142 0FBC     		pop {r0-r3}
 10889 5144 EB46     		mov r11, sp
 10890 5146 D546     		mov sp, r10
 10891 5148 10BC     		pop {r4}
 10892 514a EA46     		mov r10, sp
 10893 514c 2546     		mov r5, r4
 10894 514e 2404     		lsls r4, r4, # 16
 10895 5150 240C     		lsrs r4, r4, # 16
 10896 5152 2D0C     		lsrs r5, r5, # 16
 10897 5154 6043     		muls r0, r0, r4
 10898 5156 6143     		muls r1, r1, r4
 10899 5158 6A43     		muls r2, r2, r5
 10900 515a 6B43     		muls r3, r3, r5
 10901 515c 8011     		asrs r0, r0, # 6
 10902 515e 8911     		asrs r1, r1, # 6
 10903 5160 9211     		asrs r2, r2, # 6
 10904 5162 9B11     		asrs r3, r3, # 6
 10905 5164 8018     		adds r0, r0, r2         @r
 10906 5166 C918     		adds r1, r1, r3         @i
 10907 5168 3618     		adds r6, r6, r0
 10908 516a 7F18     		adds r7, r7, r1
 10909              	
 10910 516c DD46     		mov sp, r11
 10911 516e 0FBC     		pop {r0-r3}
 10912 5170 EB46     		mov r11, sp
 10913 5172 D546     		mov sp, r10
 10914 5174 10BC     		pop {r4}
 10915 5176 EA46     		mov r10, sp
 10916 5178 2546     		mov r5, r4
 10917 517a 2404     		lsls r4, r4, # 16
 10918 517c 240C     		lsrs r4, r4, # 16
 10919 517e 2D0C     		lsrs r5, r5, # 16
 10920 5180 6043     		muls r0, r0, r4
 10921 5182 6143     		muls r1, r1, r4
 10922 5184 6A43     		muls r2, r2, r5
 10923 5186 6B43     		muls r3, r3, r5
 10924 5188 8011     		asrs r0, r0, # 6
 10925 518a 8911     		asrs r1, r1, # 6
 10926 518c 9211     		asrs r2, r2, # 6
 10927 518e 9B11     		asrs r3, r3, # 6
 10928 5190 8018     		adds r0, r0, r2  @r
ARM GAS  1.s 			page 193


 10929 5192 C918     		adds r1, r1, r3  @i
 10930 5194 3618     		adds r6, r6, r0
 10931 5196 7F18     		adds r7, r7, r1
 10932              	
 10933 5198 DD46     		mov sp, r11
 10934 519a 0FBC     		pop {r0-r3}
 10935 519c EB46     		mov r11, sp
 10936 519e D546     		mov sp, r10
 10937 51a0 10BC     		pop {r4}
 10938 51a2 EA46     		mov r10, sp
 10939 51a4 2546     		mov r5, r4
 10940 51a6 2404     		lsls r4, r4, # 16
 10941 51a8 240C     		lsrs r4, r4, # 16
 10942 51aa 2D0C     		lsrs r5, r5, # 16
 10943 51ac 6043     		muls r0, r0, r4
 10944 51ae 6143     		muls r1, r1, r4
 10945 51b0 6A43     		muls r2, r2, r5
 10946 51b2 6B43     		muls r3, r3, r5
 10947 51b4 8011     		asrs r0, r0, # 6
 10948 51b6 8911     		asrs r1, r1, # 6
 10949 51b8 9211     		asrs r2, r2, # 6
 10950 51ba 9B11     		asrs r3, r3, # 6
 10951 51bc 8018     		adds r0, r0, r2         @r
 10952 51be C918     		adds r1, r1, r3         @i
 10953 51c0 3618     		adds r6, r6, r0
 10954 51c2 7F18     		adds r7, r7, r1
 10955              	
 10956              		@6
 10957 51c4 DD46     		mov sp, r11
 10958 51c6 0FBC     		pop {r0-r3}
 10959 51c8 EB46     		mov r11, sp
 10960 51ca D546     		mov sp, r10
 10961 51cc 10BC     		pop {r4}
 10962 51ce EA46     		mov r10, sp
 10963 51d0 2546     		mov r5, r4
 10964 51d2 2404     		lsls r4, r4, # 16
 10965 51d4 240C     		lsrs r4, r4, # 16
 10966 51d6 2D0C     		lsrs r5, r5, # 16
 10967 51d8 6043     		muls r0, r0, r4		@R
 10968 51da 6143     		muls r1, r1, r4		@I
 10969 51dc 6A43     		muls r2, r2, r5		@R
 10970 51de 6B43     		muls r3, r3, r5		@I
 10971 51e0 8011     		asrs r0, r0, # 6
 10972 51e2 8911     		asrs r1, r1, # 6
 10973 51e4 9211     		asrs r2, r2, # 6
 10974 51e6 9B11     		asrs r3, r3, # 6
 10975 51e8 8018     		adds r0, r0, r2	 @r
 10976 51ea C918     		adds r1, r1, r3	 @i
 10977 51ec 3618     		adds r6, r6, r0
 10978 51ee 7F18     		adds r7, r7, r1
 10979              	
 10980 51f0 DD46     		mov sp, r11
 10981 51f2 0FBC     		pop {r0-r3}
 10982 51f4 EB46     		mov r11, sp
 10983 51f6 D546     		mov sp, r10
 10984 51f8 10BC     		pop {r4}
 10985 51fa EA46     		mov r10, sp
ARM GAS  1.s 			page 194


 10986 51fc 2546     		mov r5, r4
 10987 51fe 2404     		lsls r4, r4, # 16
 10988 5200 240C     		lsrs r4, r4, # 16
 10989 5202 2D0C     		lsrs r5, r5, # 16
 10990 5204 6043     		muls r0, r0, r4
 10991 5206 6143     		muls r1, r1, r4
 10992 5208 6A43     		muls r2, r2, r5
 10993 520a 6B43     		muls r3, r3, r5
 10994 520c 8011     		asrs r0, r0, # 6
 10995 520e 8911     		asrs r1, r1, # 6
 10996 5210 9211     		asrs r2, r2, # 6
 10997 5212 9B11     		asrs r3, r3, # 6
 10998 5214 8018     		adds r0, r0, r2         @r
 10999 5216 C918     		adds r1, r1, r3         @i
 11000 5218 3618     		adds r6, r6, r0
 11001 521a 7F18     		adds r7, r7, r1
 11002              	
 11003 521c DD46     		mov sp, r11
 11004 521e 0FBC     		pop {r0-r3}
 11005 5220 EB46     		mov r11, sp
 11006 5222 D546     		mov sp, r10
 11007 5224 10BC     		pop {r4}
 11008 5226 EA46     		mov r10, sp
 11009 5228 2546     		mov r5, r4
 11010 522a 2404     		lsls r4, r4, # 16
 11011 522c 240C     		lsrs r4, r4, # 16
 11012 522e 2D0C     		lsrs r5, r5, # 16
 11013 5230 6043     		muls r0, r0, r4
 11014 5232 6143     		muls r1, r1, r4
 11015 5234 6A43     		muls r2, r2, r5
 11016 5236 6B43     		muls r3, r3, r5
 11017 5238 8011     		asrs r0, r0, # 6
 11018 523a 8911     		asrs r1, r1, # 6
 11019 523c 9211     		asrs r2, r2, # 6
 11020 523e 9B11     		asrs r3, r3, # 6
 11021 5240 8018     		adds r0, r0, r2  @r
 11022 5242 C918     		adds r1, r1, r3  @i
 11023 5244 3618     		adds r6, r6, r0
 11024 5246 7F18     		adds r7, r7, r1
 11025              	
 11026 5248 DD46     		mov sp, r11
 11027 524a 0FBC     		pop {r0-r3}
 11028 524c EB46     		mov r11, sp
 11029 524e D546     		mov sp, r10
 11030 5250 10BC     		pop {r4}
 11031 5252 EA46     		mov r10, sp
 11032 5254 2546     		mov r5, r4
 11033 5256 2404     		lsls r4, r4, # 16
 11034 5258 240C     		lsrs r4, r4, # 16
 11035 525a 2D0C     		lsrs r5, r5, # 16
 11036 525c 6043     		muls r0, r0, r4
 11037 525e 6143     		muls r1, r1, r4
 11038 5260 6A43     		muls r2, r2, r5
 11039 5262 6B43     		muls r3, r3, r5
 11040 5264 8011     		asrs r0, r0, # 6
 11041 5266 8911     		asrs r1, r1, # 6
 11042 5268 9211     		asrs r2, r2, # 6
ARM GAS  1.s 			page 195


 11043 526a 9B11     		asrs r3, r3, # 6
 11044 526c 8018     		adds r0, r0, r2         @r
 11045 526e C918     		adds r1, r1, r3         @i
 11046 5270 3618     		adds r6, r6, r0
 11047 5272 7F18     		adds r7, r7, r1
 11048              	
 11049              		@7
 11050 5274 DD46     		mov sp, r11
 11051 5276 0FBC     		pop {r0-r3}
 11052 5278 EB46     		mov r11, sp
 11053 527a D546     		mov sp, r10
 11054 527c 10BC     		pop {r4}
 11055 527e EA46     		mov r10, sp
 11056 5280 2546     		mov r5, r4
 11057 5282 2404     		lsls r4, r4, # 16
 11058 5284 240C     		lsrs r4, r4, # 16
 11059 5286 2D0C     		lsrs r5, r5, # 16
 11060 5288 6043     		muls r0, r0, r4		@R
 11061 528a 6143     		muls r1, r1, r4		@I
 11062 528c 6A43     		muls r2, r2, r5		@R
 11063 528e 6B43     		muls r3, r3, r5		@I
 11064 5290 8011     		asrs r0, r0, # 6
 11065 5292 8911     		asrs r1, r1, # 6
 11066 5294 9211     		asrs r2, r2, # 6
 11067 5296 9B11     		asrs r3, r3, # 6
 11068 5298 8018     		adds r0, r0, r2	 @r
 11069 529a C918     		adds r1, r1, r3	 @i
 11070 529c 3618     		adds r6, r6, r0
 11071 529e 7F18     		adds r7, r7, r1
 11072              	
 11073 52a0 DD46     		mov sp, r11
 11074 52a2 0FBC     		pop {r0-r3}
 11075 52a4 EB46     		mov r11, sp
 11076 52a6 D546     		mov sp, r10
 11077 52a8 10BC     		pop {r4}
 11078 52aa EA46     		mov r10, sp
 11079 52ac 2546     		mov r5, r4
 11080 52ae 2404     		lsls r4, r4, # 16
 11081 52b0 240C     		lsrs r4, r4, # 16
 11082 52b2 2D0C     		lsrs r5, r5, # 16
 11083 52b4 6043     		muls r0, r0, r4
 11084 52b6 6143     		muls r1, r1, r4
 11085 52b8 6A43     		muls r2, r2, r5
 11086 52ba 6B43     		muls r3, r3, r5
 11087 52bc 8011     		asrs r0, r0, # 6
 11088 52be 8911     		asrs r1, r1, # 6
 11089 52c0 9211     		asrs r2, r2, # 6
 11090 52c2 9B11     		asrs r3, r3, # 6
 11091 52c4 8018     		adds r0, r0, r2         @r
 11092 52c6 C918     		adds r1, r1, r3         @i
 11093 52c8 3618     		adds r6, r6, r0
 11094 52ca 7F18     		adds r7, r7, r1
 11095              	
 11096 52cc DD46     		mov sp, r11
 11097 52ce 0FBC     		pop {r0-r3}
 11098 52d0 EB46     		mov r11, sp
 11099 52d2 D546     		mov sp, r10
ARM GAS  1.s 			page 196


 11100 52d4 10BC     		pop {r4}
 11101 52d6 EA46     		mov r10, sp
 11102 52d8 2546     		mov r5, r4
 11103 52da 2404     		lsls r4, r4, # 16
 11104 52dc 240C     		lsrs r4, r4, # 16
 11105 52de 2D0C     		lsrs r5, r5, # 16
 11106 52e0 6043     		muls r0, r0, r4
 11107 52e2 6143     		muls r1, r1, r4
 11108 52e4 6A43     		muls r2, r2, r5
 11109 52e6 6B43     		muls r3, r3, r5
 11110 52e8 8011     		asrs r0, r0, # 6
 11111 52ea 8911     		asrs r1, r1, # 6
 11112 52ec 9211     		asrs r2, r2, # 6
 11113 52ee 9B11     		asrs r3, r3, # 6
 11114 52f0 8018     		adds r0, r0, r2  @r
 11115 52f2 C918     		adds r1, r1, r3  @i
 11116 52f4 3618     		adds r6, r6, r0
 11117 52f6 7F18     		adds r7, r7, r1
 11118              	
 11119 52f8 DD46     		mov sp, r11
 11120 52fa 0FBC     		pop {r0-r3}
 11121 52fc EB46     		mov r11, sp
 11122 52fe D546     		mov sp, r10
 11123 5300 10BC     		pop {r4}
 11124 5302 EA46     		mov r10, sp
 11125 5304 2546     		mov r5, r4
 11126 5306 2404     		lsls r4, r4, # 16
 11127 5308 240C     		lsrs r4, r4, # 16
 11128 530a 2D0C     		lsrs r5, r5, # 16
 11129 530c 6043     		muls r0, r0, r4
 11130 530e 6143     		muls r1, r1, r4
 11131 5310 6A43     		muls r2, r2, r5
 11132 5312 6B43     		muls r3, r3, r5
 11133 5314 8011     		asrs r0, r0, # 6
 11134 5316 8911     		asrs r1, r1, # 6
 11135 5318 9211     		asrs r2, r2, # 6
 11136 531a 9B11     		asrs r3, r3, # 6
 11137 531c 8018     		adds r0, r0, r2         @r
 11138 531e C918     		adds r1, r1, r3         @i
 11139 5320 3618     		adds r6, r6, r0
 11140 5322 7F18     		adds r7, r7, r1
 11141              	
 11142              		@8
 11143 5324 DD46     		mov sp, r11
 11144 5326 0FBC     		pop {r0-r3}
 11145 5328 EB46     		mov r11, sp
 11146 532a D546     		mov sp, r10
 11147 532c 10BC     		pop {r4}
 11148 532e EA46     		mov r10, sp
 11149 5330 2546     		mov r5, r4
 11150 5332 2404     		lsls r4, r4, # 16
 11151 5334 240C     		lsrs r4, r4, # 16
 11152 5336 2D0C     		lsrs r5, r5, # 16
 11153 5338 6043     		muls r0, r0, r4		@R
 11154 533a 6143     		muls r1, r1, r4		@I
 11155 533c 6A43     		muls r2, r2, r5		@R
 11156 533e 6B43     		muls r3, r3, r5		@I
ARM GAS  1.s 			page 197


 11157 5340 8011     		asrs r0, r0, # 6
 11158 5342 8911     		asrs r1, r1, # 6
 11159 5344 9211     		asrs r2, r2, # 6
 11160 5346 9B11     		asrs r3, r3, # 6
 11161 5348 8018     		adds r0, r0, r2	 @r
 11162 534a C918     		adds r1, r1, r3	 @i
 11163 534c 3618     		adds r6, r6, r0
 11164 534e 7F18     		adds r7, r7, r1
 11165              	
 11166 5350 DD46     		mov sp, r11
 11167 5352 0FBC     		pop {r0-r3}
 11168 5354 EB46     		mov r11, sp
 11169 5356 D546     		mov sp, r10
 11170 5358 10BC     		pop {r4}
 11171 535a EA46     		mov r10, sp
 11172 535c 2546     		mov r5, r4
 11173 535e 2404     		lsls r4, r4, # 16
 11174 5360 240C     		lsrs r4, r4, # 16
 11175 5362 2D0C     		lsrs r5, r5, # 16
 11176 5364 6043     		muls r0, r0, r4
 11177 5366 6143     		muls r1, r1, r4
 11178 5368 6A43     		muls r2, r2, r5
 11179 536a 6B43     		muls r3, r3, r5
 11180 536c 8011     		asrs r0, r0, # 6
 11181 536e 8911     		asrs r1, r1, # 6
 11182 5370 9211     		asrs r2, r2, # 6
 11183 5372 9B11     		asrs r3, r3, # 6
 11184 5374 8018     		adds r0, r0, r2         @r
 11185 5376 C918     		adds r1, r1, r3         @i
 11186 5378 3618     		adds r6, r6, r0
 11187 537a 7F18     		adds r7, r7, r1
 11188              	
 11189 537c DD46     		mov sp, r11
 11190 537e 0FBC     		pop {r0-r3}
 11191 5380 EB46     		mov r11, sp
 11192 5382 D546     		mov sp, r10
 11193 5384 10BC     		pop {r4}
 11194 5386 EA46     		mov r10, sp
 11195 5388 2546     		mov r5, r4
 11196 538a 2404     		lsls r4, r4, # 16
 11197 538c 240C     		lsrs r4, r4, # 16
 11198 538e 2D0C     		lsrs r5, r5, # 16
 11199 5390 6043     		muls r0, r0, r4
 11200 5392 6143     		muls r1, r1, r4
 11201 5394 6A43     		muls r2, r2, r5
 11202 5396 6B43     		muls r3, r3, r5
 11203 5398 8011     		asrs r0, r0, # 6
 11204 539a 8911     		asrs r1, r1, # 6
 11205 539c 9211     		asrs r2, r2, # 6
 11206 539e 9B11     		asrs r3, r3, # 6
 11207 53a0 8018     		adds r0, r0, r2  @r
 11208 53a2 C918     		adds r1, r1, r3  @i
 11209 53a4 3618     		adds r6, r6, r0
 11210 53a6 7F18     		adds r7, r7, r1
 11211              	
 11212 53a8 DD46     		mov sp, r11
 11213 53aa 0FBC     		pop {r0-r3}
ARM GAS  1.s 			page 198


 11214 53ac EB46     		mov r11, sp
 11215 53ae D546     		mov sp, r10
 11216 53b0 10BC     		pop {r4}
 11217 53b2 EA46     		mov r10, sp
 11218 53b4 2546     		mov r5, r4
 11219 53b6 2404     		lsls r4, r4, # 16
 11220 53b8 240C     		lsrs r4, r4, # 16
 11221 53ba 2D0C     		lsrs r5, r5, # 16
 11222 53bc 6043     		muls r0, r0, r4
 11223 53be 6143     		muls r1, r1, r4
 11224 53c0 6A43     		muls r2, r2, r5
 11225 53c2 6B43     		muls r3, r3, r5
 11226 53c4 8011     		asrs r0, r0, # 6
 11227 53c6 8911     		asrs r1, r1, # 6
 11228 53c8 9211     		asrs r2, r2, # 6
 11229 53ca 9B11     		asrs r3, r3, # 6
 11230 53cc 8018     		adds r0, r0, r2         @r
 11231 53ce C918     		adds r1, r1, r3         @i
 11232 53d0 3618     		adds r6, r6, r0
 11233 53d2 7F18     		adds r7, r7, r1
 11234              	
 11235              		@9
 11236 53d4 DD46     		mov sp, r11
 11237 53d6 0FBC     		pop {r0-r3}
 11238 53d8 EB46     		mov r11, sp
 11239 53da D546     		mov sp, r10
 11240 53dc 10BC     		pop {r4}
 11241 53de EA46     		mov r10, sp
 11242 53e0 2546     		mov r5, r4
 11243 53e2 2404     		lsls r4, r4, # 16
 11244 53e4 240C     		lsrs r4, r4, # 16
 11245 53e6 2D0C     		lsrs r5, r5, # 16
 11246 53e8 6043     		muls r0, r0, r4		@R
 11247 53ea 6143     		muls r1, r1, r4		@I
 11248 53ec 6A43     		muls r2, r2, r5		@R
 11249 53ee 6B43     		muls r3, r3, r5		@I
 11250 53f0 8011     		asrs r0, r0, # 6
 11251 53f2 8911     		asrs r1, r1, # 6
 11252 53f4 9211     		asrs r2, r2, # 6
 11253 53f6 9B11     		asrs r3, r3, # 6
 11254 53f8 8018     		adds r0, r0, r2	 @r
 11255 53fa C918     		adds r1, r1, r3	 @i
 11256 53fc 3618     		adds r6, r6, r0
 11257 53fe 7F18     		adds r7, r7, r1
 11258              	
 11259 5400 DD46     		mov sp, r11
 11260 5402 0FBC     		pop {r0-r3}
 11261 5404 EB46     		mov r11, sp
 11262 5406 D546     		mov sp, r10
 11263 5408 10BC     		pop {r4}
 11264 540a EA46     		mov r10, sp
 11265 540c 2546     		mov r5, r4
 11266 540e 2404     		lsls r4, r4, # 16
 11267 5410 240C     		lsrs r4, r4, # 16
 11268 5412 2D0C     		lsrs r5, r5, # 16
 11269 5414 6043     		muls r0, r0, r4
 11270 5416 6143     		muls r1, r1, r4
ARM GAS  1.s 			page 199


 11271 5418 6A43     		muls r2, r2, r5
 11272 541a 6B43     		muls r3, r3, r5
 11273 541c 8011     		asrs r0, r0, # 6
 11274 541e 8911     		asrs r1, r1, # 6
 11275 5420 9211     		asrs r2, r2, # 6
 11276 5422 9B11     		asrs r3, r3, # 6
 11277 5424 8018     		adds r0, r0, r2         @r
 11278 5426 C918     		adds r1, r1, r3         @i
 11279 5428 3618     		adds r6, r6, r0
 11280 542a 7F18     		adds r7, r7, r1
 11281              	
 11282 542c DD46     		mov sp, r11
 11283 542e 0FBC     		pop {r0-r3}
 11284 5430 EB46     		mov r11, sp
 11285 5432 D546     		mov sp, r10
 11286 5434 10BC     		pop {r4}
 11287 5436 EA46     		mov r10, sp
 11288 5438 2546     		mov r5, r4
 11289 543a 2404     		lsls r4, r4, # 16
 11290 543c 240C     		lsrs r4, r4, # 16
 11291 543e 2D0C     		lsrs r5, r5, # 16
 11292 5440 6043     		muls r0, r0, r4
 11293 5442 6143     		muls r1, r1, r4
 11294 5444 6A43     		muls r2, r2, r5
 11295 5446 6B43     		muls r3, r3, r5
 11296 5448 8011     		asrs r0, r0, # 6
 11297 544a 8911     		asrs r1, r1, # 6
 11298 544c 9211     		asrs r2, r2, # 6
 11299 544e 9B11     		asrs r3, r3, # 6
 11300 5450 8018     		adds r0, r0, r2  @r
 11301 5452 C918     		adds r1, r1, r3  @i
 11302 5454 3618     		adds r6, r6, r0
 11303 5456 7F18     		adds r7, r7, r1
 11304              	
 11305 5458 DD46     		mov sp, r11
 11306 545a 0FBC     		pop {r0-r3}
 11307 545c EB46     		mov r11, sp
 11308 545e D546     		mov sp, r10
 11309 5460 10BC     		pop {r4}
 11310 5462 EA46     		mov r10, sp
 11311 5464 2546     		mov r5, r4
 11312 5466 2404     		lsls r4, r4, # 16
 11313 5468 240C     		lsrs r4, r4, # 16
 11314 546a 2D0C     		lsrs r5, r5, # 16
 11315 546c 6043     		muls r0, r0, r4
 11316 546e 6143     		muls r1, r1, r4
 11317 5470 6A43     		muls r2, r2, r5
 11318 5472 6B43     		muls r3, r3, r5
 11319 5474 8011     		asrs r0, r0, # 6
 11320 5476 8911     		asrs r1, r1, # 6
 11321 5478 9211     		asrs r2, r2, # 6
 11322 547a 9B11     		asrs r3, r3, # 6
 11323 547c 8018     		adds r0, r0, r2         @r
 11324 547e C918     		adds r1, r1, r3         @i
 11325 5480 3618     		adds r6, r6, r0
 11326 5482 7F18     		adds r7, r7, r1
 11327              	@yjm11
ARM GAS  1.s 			page 200


 11328              		@0
 11329 5484 DD46     		mov sp, r11
 11330 5486 0FBC     		pop {r0-r3}
 11331 5488 EB46     		mov r11, sp
 11332 548a D546     		mov sp, r10
 11333 548c 10BC     		pop {r4}
 11334 548e EA46     		mov r10, sp
 11335 5490 2546     		mov r5, r4
 11336 5492 2404     		lsls r4, r4, # 16
 11337 5494 240C     		lsrs r4, r4, # 16
 11338 5496 2D0C     		lsrs r5, r5, # 16
 11339 5498 6043     		muls r0, r0, r4		@R
 11340 549a 6143     		muls r1, r1, r4		@I
 11341 549c 6A43     		muls r2, r2, r5		@R
 11342 549e 6B43     		muls r3, r3, r5		@I
 11343 54a0 8011     		asrs r0, r0, # 6
 11344 54a2 8911     		asrs r1, r1, # 6
 11345 54a4 9211     		asrs r2, r2, # 6
 11346 54a6 9B11     		asrs r3, r3, # 6
 11347 54a8 8018     		adds r0, r0, r2	 @r
 11348 54aa C918     		adds r1, r1, r3	 @i
 11349 54ac 3618     		adds r6, r6, r0
 11350 54ae 7F18     		adds r7, r7, r1
 11351              	
 11352 54b0 DD46     		mov sp, r11
 11353 54b2 0FBC     		pop {r0-r3}
 11354 54b4 EB46     		mov r11, sp
 11355 54b6 D546     		mov sp, r10
 11356 54b8 10BC     		pop {r4}
 11357 54ba EA46     		mov r10, sp
 11358 54bc 2546     		mov r5, r4
 11359 54be 2404     		lsls r4, r4, # 16
 11360 54c0 240C     		lsrs r4, r4, # 16
 11361 54c2 2D0C     		lsrs r5, r5, # 16
 11362 54c4 6043     		muls r0, r0, r4
 11363 54c6 6143     		muls r1, r1, r4
 11364 54c8 6A43     		muls r2, r2, r5
 11365 54ca 6B43     		muls r3, r3, r5
 11366 54cc 8011     		asrs r0, r0, # 6
 11367 54ce 8911     		asrs r1, r1, # 6
 11368 54d0 9211     		asrs r2, r2, # 6
 11369 54d2 9B11     		asrs r3, r3, # 6
 11370 54d4 8018     		adds r0, r0, r2         @r
 11371 54d6 C918     		adds r1, r1, r3         @i
 11372 54d8 3618     		adds r6, r6, r0
 11373 54da 7F18     		adds r7, r7, r1
 11374              	
 11375 54dc DD46     		mov sp, r11
 11376 54de 0FBC     		pop {r0-r3}
 11377 54e0 EB46     		mov r11, sp
 11378 54e2 D546     		mov sp, r10
 11379 54e4 10BC     		pop {r4}
 11380 54e6 EA46     		mov r10, sp
 11381 54e8 2546     		mov r5, r4
 11382 54ea 2404     		lsls r4, r4, # 16
 11383 54ec 240C     		lsrs r4, r4, # 16
 11384 54ee 2D0C     		lsrs r5, r5, # 16
ARM GAS  1.s 			page 201


 11385 54f0 6043     		muls r0, r0, r4
 11386 54f2 6143     		muls r1, r1, r4
 11387 54f4 6A43     		muls r2, r2, r5
 11388 54f6 6B43     		muls r3, r3, r5
 11389 54f8 8011     		asrs r0, r0, # 6
 11390 54fa 8911     		asrs r1, r1, # 6
 11391 54fc 9211     		asrs r2, r2, # 6
 11392 54fe 9B11     		asrs r3, r3, # 6
 11393 5500 8018     		adds r0, r0, r2  @r
 11394 5502 C918     		adds r1, r1, r3  @i
 11395 5504 3618     		adds r6, r6, r0
 11396 5506 7F18     		adds r7, r7, r1
 11397              	
 11398 5508 DD46     		mov sp, r11
 11399 550a 0FBC     		pop {r0-r3}
 11400 550c EB46     		mov r11, sp
 11401 550e D546     		mov sp, r10
 11402 5510 10BC     		pop {r4}
 11403 5512 EA46     		mov r10, sp
 11404 5514 2546     		mov r5, r4
 11405 5516 2404     		lsls r4, r4, # 16
 11406 5518 240C     		lsrs r4, r4, # 16
 11407 551a 2D0C     		lsrs r5, r5, # 16
 11408 551c 6043     		muls r0, r0, r4
 11409 551e 6143     		muls r1, r1, r4
 11410 5520 6A43     		muls r2, r2, r5
 11411 5522 6B43     		muls r3, r3, r5
 11412 5524 8011     		asrs r0, r0, # 6
 11413 5526 8911     		asrs r1, r1, # 6
 11414 5528 9211     		asrs r2, r2, # 6
 11415 552a 9B11     		asrs r3, r3, # 6
 11416 552c 8018     		adds r0, r0, r2         @r
 11417 552e C918     		adds r1, r1, r3         @i
 11418 5530 3618     		adds r6, r6, r0
 11419 5532 7F18     		adds r7, r7, r1
 11420              	
 11421              		@1
 11422 5534 DD46     		mov sp, r11
 11423 5536 0FBC     		pop {r0-r3}
 11424 5538 EB46     		mov r11, sp
 11425 553a D546     		mov sp, r10
 11426 553c 10BC     		pop {r4}
 11427 553e EA46     		mov r10, sp
 11428 5540 2546     		mov r5, r4
 11429 5542 2404     		lsls r4, r4, # 16
 11430 5544 240C     		lsrs r4, r4, # 16
 11431 5546 2D0C     		lsrs r5, r5, # 16
 11432 5548 6043     		muls r0, r0, r4		@R
 11433 554a 6143     		muls r1, r1, r4		@I
 11434 554c 6A43     		muls r2, r2, r5		@R
 11435 554e 6B43     		muls r3, r3, r5		@I
 11436 5550 8011     		asrs r0, r0, # 6
 11437 5552 8911     		asrs r1, r1, # 6
 11438 5554 9211     		asrs r2, r2, # 6
 11439 5556 9B11     		asrs r3, r3, # 6
 11440 5558 8018     		adds r0, r0, r2	 @r
 11441 555a C918     		adds r1, r1, r3	 @i
ARM GAS  1.s 			page 202


 11442 555c 3618     		adds r6, r6, r0
 11443 555e 7F18     		adds r7, r7, r1
 11444              	
 11445 5560 DD46     		mov sp, r11
 11446 5562 0FBC     		pop {r0-r3}
 11447 5564 EB46     		mov r11, sp
 11448 5566 D546     		mov sp, r10
 11449 5568 10BC     		pop {r4}
 11450 556a EA46     		mov r10, sp
 11451 556c 2546     		mov r5, r4
 11452 556e 2404     		lsls r4, r4, # 16
 11453 5570 240C     		lsrs r4, r4, # 16
 11454 5572 2D0C     		lsrs r5, r5, # 16
 11455 5574 6043     		muls r0, r0, r4
 11456 5576 6143     		muls r1, r1, r4
 11457 5578 6A43     		muls r2, r2, r5
 11458 557a 6B43     		muls r3, r3, r5
 11459 557c 8011     		asrs r0, r0, # 6
 11460 557e 8911     		asrs r1, r1, # 6
 11461 5580 9211     		asrs r2, r2, # 6
 11462 5582 9B11     		asrs r3, r3, # 6
 11463 5584 8018     		adds r0, r0, r2         @r
 11464 5586 C918     		adds r1, r1, r3         @i
 11465 5588 3618     		adds r6, r6, r0
 11466 558a 7F18     		adds r7, r7, r1
 11467              	
 11468 558c DD46     		mov sp, r11
 11469 558e 0FBC     		pop {r0-r3}
 11470 5590 EB46     		mov r11, sp
 11471 5592 D546     		mov sp, r10
 11472 5594 10BC     		pop {r4}
 11473 5596 EA46     		mov r10, sp
 11474 5598 2546     		mov r5, r4
 11475 559a 2404     		lsls r4, r4, # 16
 11476 559c 240C     		lsrs r4, r4, # 16
 11477 559e 2D0C     		lsrs r5, r5, # 16
 11478 55a0 6043     		muls r0, r0, r4
 11479 55a2 6143     		muls r1, r1, r4
 11480 55a4 6A43     		muls r2, r2, r5
 11481 55a6 6B43     		muls r3, r3, r5
 11482 55a8 8011     		asrs r0, r0, # 6
 11483 55aa 8911     		asrs r1, r1, # 6
 11484 55ac 9211     		asrs r2, r2, # 6
 11485 55ae 9B11     		asrs r3, r3, # 6
 11486 55b0 8018     		adds r0, r0, r2  @r
 11487 55b2 C918     		adds r1, r1, r3  @i
 11488 55b4 3618     		adds r6, r6, r0
 11489 55b6 7F18     		adds r7, r7, r1
 11490              	
 11491 55b8 DD46     		mov sp, r11
 11492 55ba 0FBC     		pop {r0-r3}
 11493 55bc EB46     		mov r11, sp
 11494 55be D546     		mov sp, r10
 11495 55c0 10BC     		pop {r4}
 11496 55c2 EA46     		mov r10, sp
 11497 55c4 2546     		mov r5, r4
 11498 55c6 2404     		lsls r4, r4, # 16
ARM GAS  1.s 			page 203


 11499 55c8 240C     		lsrs r4, r4, # 16
 11500 55ca 2D0C     		lsrs r5, r5, # 16
 11501 55cc 6043     		muls r0, r0, r4
 11502 55ce 6143     		muls r1, r1, r4
 11503 55d0 6A43     		muls r2, r2, r5
 11504 55d2 6B43     		muls r3, r3, r5
 11505 55d4 8011     		asrs r0, r0, # 6
 11506 55d6 8911     		asrs r1, r1, # 6
 11507 55d8 9211     		asrs r2, r2, # 6
 11508 55da 9B11     		asrs r3, r3, # 6
 11509 55dc 8018     		adds r0, r0, r2         @r
 11510 55de C918     		adds r1, r1, r3         @i
 11511 55e0 3618     		adds r6, r6, r0
 11512 55e2 7F18     		adds r7, r7, r1
 11513              	
 11514              		@2
 11515 55e4 DD46     		mov sp, r11
 11516 55e6 0FBC     		pop {r0-r3}
 11517 55e8 EB46     		mov r11, sp
 11518 55ea D546     		mov sp, r10
 11519 55ec 10BC     		pop {r4}
 11520 55ee EA46     		mov r10, sp
 11521 55f0 2546     		mov r5, r4
 11522 55f2 2404     		lsls r4, r4, # 16
 11523 55f4 240C     		lsrs r4, r4, # 16
 11524 55f6 2D0C     		lsrs r5, r5, # 16
 11525 55f8 6043     		muls r0, r0, r4		@R
 11526 55fa 6143     		muls r1, r1, r4		@I
 11527 55fc 6A43     		muls r2, r2, r5		@R
 11528 55fe 6B43     		muls r3, r3, r5		@I
 11529 5600 8011     		asrs r0, r0, # 6
 11530 5602 8911     		asrs r1, r1, # 6
 11531 5604 9211     		asrs r2, r2, # 6
 11532 5606 9B11     		asrs r3, r3, # 6
 11533 5608 8018     		adds r0, r0, r2	 @r
 11534 560a C918     		adds r1, r1, r3	 @i
 11535 560c 3618     		adds r6, r6, r0
 11536 560e 7F18     		adds r7, r7, r1
 11537              	
 11538 5610 DD46     		mov sp, r11
 11539 5612 0FBC     		pop {r0-r3}
 11540 5614 EB46     		mov r11, sp
 11541 5616 D546     		mov sp, r10
 11542 5618 10BC     		pop {r4}
 11543 561a EA46     		mov r10, sp
 11544 561c 2546     		mov r5, r4
 11545 561e 2404     		lsls r4, r4, # 16
 11546 5620 240C     		lsrs r4, r4, # 16
 11547 5622 2D0C     		lsrs r5, r5, # 16
 11548 5624 6043     		muls r0, r0, r4
 11549 5626 6143     		muls r1, r1, r4
 11550 5628 6A43     		muls r2, r2, r5
 11551 562a 6B43     		muls r3, r3, r5
 11552 562c 8011     		asrs r0, r0, # 6
 11553 562e 8911     		asrs r1, r1, # 6
 11554 5630 9211     		asrs r2, r2, # 6
 11555 5632 9B11     		asrs r3, r3, # 6
ARM GAS  1.s 			page 204


 11556 5634 8018     		adds r0, r0, r2         @r
 11557 5636 C918     		adds r1, r1, r3         @i
 11558 5638 3618     		adds r6, r6, r0
 11559 563a 7F18     		adds r7, r7, r1
 11560              	
 11561 563c DD46     		mov sp, r11
 11562 563e 0FBC     		pop {r0-r3}
 11563 5640 EB46     		mov r11, sp
 11564 5642 D546     		mov sp, r10
 11565 5644 10BC     		pop {r4}
 11566 5646 EA46     		mov r10, sp
 11567 5648 2546     		mov r5, r4
 11568 564a 2404     		lsls r4, r4, # 16
 11569 564c 240C     		lsrs r4, r4, # 16
 11570 564e 2D0C     		lsrs r5, r5, # 16
 11571 5650 6043     		muls r0, r0, r4
 11572 5652 6143     		muls r1, r1, r4
 11573 5654 6A43     		muls r2, r2, r5
 11574 5656 6B43     		muls r3, r3, r5
 11575 5658 8011     		asrs r0, r0, # 6
 11576 565a 8911     		asrs r1, r1, # 6
 11577 565c 9211     		asrs r2, r2, # 6
 11578 565e 9B11     		asrs r3, r3, # 6
 11579 5660 8018     		adds r0, r0, r2  @r
 11580 5662 C918     		adds r1, r1, r3  @i
 11581 5664 3618     		adds r6, r6, r0
 11582 5666 7F18     		adds r7, r7, r1
 11583              	
 11584 5668 DD46     		mov sp, r11
 11585 566a 0FBC     		pop {r0-r3}
 11586 566c EB46     		mov r11, sp
 11587 566e D546     		mov sp, r10
 11588 5670 10BC     		pop {r4}
 11589 5672 EA46     		mov r10, sp
 11590 5674 2546     		mov r5, r4
 11591 5676 2404     		lsls r4, r4, # 16
 11592 5678 240C     		lsrs r4, r4, # 16
 11593 567a 2D0C     		lsrs r5, r5, # 16
 11594 567c 6043     		muls r0, r0, r4
 11595 567e 6143     		muls r1, r1, r4
 11596 5680 6A43     		muls r2, r2, r5
 11597 5682 6B43     		muls r3, r3, r5
 11598 5684 8011     		asrs r0, r0, # 6
 11599 5686 8911     		asrs r1, r1, # 6
 11600 5688 9211     		asrs r2, r2, # 6
 11601 568a 9B11     		asrs r3, r3, # 6
 11602 568c 8018     		adds r0, r0, r2         @r
 11603 568e C918     		adds r1, r1, r3         @i
 11604 5690 3618     		adds r6, r6, r0
 11605 5692 7F18     		adds r7, r7, r1
 11606              	
 11607              		@3
 11608 5694 DD46     		mov sp, r11
 11609 5696 0FBC     		pop {r0-r3}
 11610 5698 EB46     		mov r11, sp
 11611 569a D546     		mov sp, r10
 11612 569c 10BC     		pop {r4}
ARM GAS  1.s 			page 205


 11613 569e EA46     		mov r10, sp
 11614 56a0 2546     		mov r5, r4
 11615 56a2 2404     		lsls r4, r4, # 16
 11616 56a4 240C     		lsrs r4, r4, # 16
 11617 56a6 2D0C     		lsrs r5, r5, # 16
 11618 56a8 6043     		muls r0, r0, r4		@R
 11619 56aa 6143     		muls r1, r1, r4		@I
 11620 56ac 6A43     		muls r2, r2, r5		@R
 11621 56ae 6B43     		muls r3, r3, r5		@I
 11622 56b0 8011     		asrs r0, r0, # 6
 11623 56b2 8911     		asrs r1, r1, # 6
 11624 56b4 9211     		asrs r2, r2, # 6
 11625 56b6 9B11     		asrs r3, r3, # 6
 11626 56b8 8018     		adds r0, r0, r2	 @r
 11627 56ba C918     		adds r1, r1, r3	 @i
 11628 56bc 3618     		adds r6, r6, r0
 11629 56be 7F18     		adds r7, r7, r1
 11630              	
 11631 56c0 DD46     		mov sp, r11
 11632 56c2 0FBC     		pop {r0-r3}
 11633 56c4 EB46     		mov r11, sp
 11634 56c6 D546     		mov sp, r10
 11635 56c8 10BC     		pop {r4}
 11636 56ca EA46     		mov r10, sp
 11637 56cc 2546     		mov r5, r4
 11638 56ce 2404     		lsls r4, r4, # 16
 11639 56d0 240C     		lsrs r4, r4, # 16
 11640 56d2 2D0C     		lsrs r5, r5, # 16
 11641 56d4 6043     		muls r0, r0, r4
 11642 56d6 6143     		muls r1, r1, r4
 11643 56d8 6A43     		muls r2, r2, r5
 11644 56da 6B43     		muls r3, r3, r5
 11645 56dc 8011     		asrs r0, r0, # 6
 11646 56de 8911     		asrs r1, r1, # 6
 11647 56e0 9211     		asrs r2, r2, # 6
 11648 56e2 9B11     		asrs r3, r3, # 6
 11649 56e4 8018     		adds r0, r0, r2         @r
 11650 56e6 C918     		adds r1, r1, r3         @i
 11651 56e8 3618     		adds r6, r6, r0
 11652 56ea 7F18     		adds r7, r7, r1
 11653              	
 11654 56ec DD46     		mov sp, r11
 11655 56ee 0FBC     		pop {r0-r3}
 11656 56f0 EB46     		mov r11, sp
 11657 56f2 D546     		mov sp, r10
 11658 56f4 10BC     		pop {r4}
 11659 56f6 EA46     		mov r10, sp
 11660 56f8 2546     		mov r5, r4
 11661 56fa 2404     		lsls r4, r4, # 16
 11662 56fc 240C     		lsrs r4, r4, # 16
 11663 56fe 2D0C     		lsrs r5, r5, # 16
 11664 5700 6043     		muls r0, r0, r4
 11665 5702 6143     		muls r1, r1, r4
 11666 5704 6A43     		muls r2, r2, r5
 11667 5706 6B43     		muls r3, r3, r5
 11668 5708 8011     		asrs r0, r0, # 6
 11669 570a 8911     		asrs r1, r1, # 6
ARM GAS  1.s 			page 206


 11670 570c 9211     		asrs r2, r2, # 6
 11671 570e 9B11     		asrs r3, r3, # 6
 11672 5710 8018     		adds r0, r0, r2  @r
 11673 5712 C918     		adds r1, r1, r3  @i
 11674 5714 3618     		adds r6, r6, r0
 11675 5716 7F18     		adds r7, r7, r1
 11676              	
 11677 5718 DD46     		mov sp, r11
 11678 571a 0FBC     		pop {r0-r3}
 11679 571c EB46     		mov r11, sp
 11680 571e D546     		mov sp, r10
 11681 5720 10BC     		pop {r4}
 11682 5722 EA46     		mov r10, sp
 11683 5724 2546     		mov r5, r4
 11684 5726 2404     		lsls r4, r4, # 16
 11685 5728 240C     		lsrs r4, r4, # 16
 11686 572a 2D0C     		lsrs r5, r5, # 16
 11687 572c 6043     		muls r0, r0, r4
 11688 572e 6143     		muls r1, r1, r4
 11689 5730 6A43     		muls r2, r2, r5
 11690 5732 6B43     		muls r3, r3, r5
 11691 5734 8011     		asrs r0, r0, # 6
 11692 5736 8911     		asrs r1, r1, # 6
 11693 5738 9211     		asrs r2, r2, # 6
 11694 573a 9B11     		asrs r3, r3, # 6
 11695 573c 8018     		adds r0, r0, r2         @r
 11696 573e C918     		adds r1, r1, r3         @i
 11697 5740 3618     		adds r6, r6, r0
 11698 5742 7F18     		adds r7, r7, r1
 11699              	
 11700              		@4
 11701 5744 DD46     		mov sp, r11
 11702 5746 0FBC     		pop {r0-r3}
 11703 5748 EB46     		mov r11, sp
 11704 574a D546     		mov sp, r10
 11705 574c 10BC     		pop {r4}
 11706 574e EA46     		mov r10, sp
 11707 5750 2546     		mov r5, r4
 11708 5752 2404     		lsls r4, r4, # 16
 11709 5754 240C     		lsrs r4, r4, # 16
 11710 5756 2D0C     		lsrs r5, r5, # 16
 11711 5758 6043     		muls r0, r0, r4		@R
 11712 575a 6143     		muls r1, r1, r4		@I
 11713 575c 6A43     		muls r2, r2, r5		@R
 11714 575e 6B43     		muls r3, r3, r5		@I
 11715 5760 8011     		asrs r0, r0, # 6
 11716 5762 8911     		asrs r1, r1, # 6
 11717 5764 9211     		asrs r2, r2, # 6
 11718 5766 9B11     		asrs r3, r3, # 6
 11719 5768 8018     		adds r0, r0, r2	 @r
 11720 576a C918     		adds r1, r1, r3	 @i
 11721 576c 3618     		adds r6, r6, r0
 11722 576e 7F18     		adds r7, r7, r1
 11723              	
 11724 5770 DD46     		mov sp, r11
 11725 5772 0FBC     		pop {r0-r3}
 11726 5774 EB46     		mov r11, sp
ARM GAS  1.s 			page 207


 11727 5776 D546     		mov sp, r10
 11728 5778 10BC     		pop {r4}
 11729 577a EA46     		mov r10, sp
 11730 577c 2546     		mov r5, r4
 11731 577e 2404     		lsls r4, r4, # 16
 11732 5780 240C     		lsrs r4, r4, # 16
 11733 5782 2D0C     		lsrs r5, r5, # 16
 11734 5784 6043     		muls r0, r0, r4
 11735 5786 6143     		muls r1, r1, r4
 11736 5788 6A43     		muls r2, r2, r5
 11737 578a 6B43     		muls r3, r3, r5
 11738 578c 8011     		asrs r0, r0, # 6
 11739 578e 8911     		asrs r1, r1, # 6
 11740 5790 9211     		asrs r2, r2, # 6
 11741 5792 9B11     		asrs r3, r3, # 6
 11742 5794 8018     		adds r0, r0, r2         @r
 11743 5796 C918     		adds r1, r1, r3         @i
 11744 5798 3618     		adds r6, r6, r0
 11745 579a 7F18     		adds r7, r7, r1
 11746              	
 11747 579c DD46     		mov sp, r11
 11748 579e 0FBC     		pop {r0-r3}
 11749 57a0 EB46     		mov r11, sp
 11750 57a2 D546     		mov sp, r10
 11751 57a4 10BC     		pop {r4}
 11752 57a6 EA46     		mov r10, sp
 11753 57a8 2546     		mov r5, r4
 11754 57aa 2404     		lsls r4, r4, # 16
 11755 57ac 240C     		lsrs r4, r4, # 16
 11756 57ae 2D0C     		lsrs r5, r5, # 16
 11757 57b0 6043     		muls r0, r0, r4
 11758 57b2 6143     		muls r1, r1, r4
 11759 57b4 6A43     		muls r2, r2, r5
 11760 57b6 6B43     		muls r3, r3, r5
 11761 57b8 8011     		asrs r0, r0, # 6
 11762 57ba 8911     		asrs r1, r1, # 6
 11763 57bc 9211     		asrs r2, r2, # 6
 11764 57be 9B11     		asrs r3, r3, # 6
 11765 57c0 8018     		adds r0, r0, r2  @r
 11766 57c2 C918     		adds r1, r1, r3  @i
 11767 57c4 3618     		adds r6, r6, r0
 11768 57c6 7F18     		adds r7, r7, r1
 11769              	
 11770 57c8 DD46     		mov sp, r11
 11771 57ca 0FBC     		pop {r0-r3}
 11772 57cc EB46     		mov r11, sp
 11773 57ce D546     		mov sp, r10
 11774 57d0 10BC     		pop {r4}
 11775 57d2 EA46     		mov r10, sp
 11776 57d4 2546     		mov r5, r4
 11777 57d6 2404     		lsls r4, r4, # 16
 11778 57d8 240C     		lsrs r4, r4, # 16
 11779 57da 2D0C     		lsrs r5, r5, # 16
 11780 57dc 6043     		muls r0, r0, r4
 11781 57de 6143     		muls r1, r1, r4
 11782 57e0 6A43     		muls r2, r2, r5
 11783 57e2 6B43     		muls r3, r3, r5
ARM GAS  1.s 			page 208


 11784 57e4 8011     		asrs r0, r0, # 6
 11785 57e6 8911     		asrs r1, r1, # 6
 11786 57e8 9211     		asrs r2, r2, # 6
 11787 57ea 9B11     		asrs r3, r3, # 6
 11788 57ec 8018     		adds r0, r0, r2         @r
 11789 57ee C918     		adds r1, r1, r3         @i
 11790 57f0 3618     		adds r6, r6, r0
 11791 57f2 7F18     		adds r7, r7, r1
 11792              	
 11793              		@5
 11794 57f4 DD46     		mov sp, r11
 11795 57f6 0FBC     		pop {r0-r3}
 11796 57f8 EB46     		mov r11, sp
 11797 57fa D546     		mov sp, r10
 11798 57fc 10BC     		pop {r4}
 11799 57fe EA46     		mov r10, sp
 11800 5800 2546     		mov r5, r4
 11801 5802 2404     		lsls r4, r4, # 16
 11802 5804 240C     		lsrs r4, r4, # 16
 11803 5806 2D0C     		lsrs r5, r5, # 16
 11804 5808 6043     		muls r0, r0, r4		@R
 11805 580a 6143     		muls r1, r1, r4		@I
 11806 580c 6A43     		muls r2, r2, r5		@R
 11807 580e 6B43     		muls r3, r3, r5		@I
 11808 5810 8011     		asrs r0, r0, # 6
 11809 5812 8911     		asrs r1, r1, # 6
 11810 5814 9211     		asrs r2, r2, # 6
 11811 5816 9B11     		asrs r3, r3, # 6
 11812 5818 8018     		adds r0, r0, r2	 @r
 11813 581a C918     		adds r1, r1, r3	 @i
 11814 581c 3618     		adds r6, r6, r0
 11815 581e 7F18     		adds r7, r7, r1
 11816              	
 11817 5820 DD46     		mov sp, r11
 11818 5822 0FBC     		pop {r0-r3}
 11819 5824 EB46     		mov r11, sp
 11820 5826 D546     		mov sp, r10
 11821 5828 10BC     		pop {r4}
 11822 582a EA46     		mov r10, sp
 11823 582c 2546     		mov r5, r4
 11824 582e 2404     		lsls r4, r4, # 16
 11825 5830 240C     		lsrs r4, r4, # 16
 11826 5832 2D0C     		lsrs r5, r5, # 16
 11827 5834 6043     		muls r0, r0, r4
 11828 5836 6143     		muls r1, r1, r4
 11829 5838 6A43     		muls r2, r2, r5
 11830 583a 6B43     		muls r3, r3, r5
 11831 583c 8011     		asrs r0, r0, # 6
 11832 583e 8911     		asrs r1, r1, # 6
 11833 5840 9211     		asrs r2, r2, # 6
 11834 5842 9B11     		asrs r3, r3, # 6
 11835 5844 8018     		adds r0, r0, r2         @r
 11836 5846 C918     		adds r1, r1, r3         @i
 11837 5848 3618     		adds r6, r6, r0
 11838 584a 7F18     		adds r7, r7, r1
 11839              	
 11840 584c DD46     		mov sp, r11
ARM GAS  1.s 			page 209


 11841 584e 0FBC     		pop {r0-r3}
 11842 5850 EB46     		mov r11, sp
 11843 5852 D546     		mov sp, r10
 11844 5854 10BC     		pop {r4}
 11845 5856 EA46     		mov r10, sp
 11846 5858 2546     		mov r5, r4
 11847 585a 2404     		lsls r4, r4, # 16
 11848 585c 240C     		lsrs r4, r4, # 16
 11849 585e 2D0C     		lsrs r5, r5, # 16
 11850 5860 6043     		muls r0, r0, r4
 11851 5862 6143     		muls r1, r1, r4
 11852 5864 6A43     		muls r2, r2, r5
 11853 5866 6B43     		muls r3, r3, r5
 11854 5868 8011     		asrs r0, r0, # 6
 11855 586a 8911     		asrs r1, r1, # 6
 11856 586c 9211     		asrs r2, r2, # 6
 11857 586e 9B11     		asrs r3, r3, # 6
 11858 5870 8018     		adds r0, r0, r2  @r
 11859 5872 C918     		adds r1, r1, r3  @i
 11860 5874 3618     		adds r6, r6, r0
 11861 5876 7F18     		adds r7, r7, r1
 11862              	
 11863 5878 DD46     		mov sp, r11
 11864 587a 0FBC     		pop {r0-r3}
 11865 587c EB46     		mov r11, sp
 11866 587e D546     		mov sp, r10
 11867 5880 10BC     		pop {r4}
 11868 5882 EA46     		mov r10, sp
 11869 5884 2546     		mov r5, r4
 11870 5886 2404     		lsls r4, r4, # 16
 11871 5888 240C     		lsrs r4, r4, # 16
 11872 588a 2D0C     		lsrs r5, r5, # 16
 11873 588c 6043     		muls r0, r0, r4
 11874 588e 6143     		muls r1, r1, r4
 11875 5890 6A43     		muls r2, r2, r5
 11876 5892 6B43     		muls r3, r3, r5
 11877 5894 8011     		asrs r0, r0, # 6
 11878 5896 8911     		asrs r1, r1, # 6
 11879 5898 9211     		asrs r2, r2, # 6
 11880 589a 9B11     		asrs r3, r3, # 6
 11881 589c 8018     		adds r0, r0, r2         @r
 11882 589e C918     		adds r1, r1, r3         @i
 11883 58a0 3618     		adds r6, r6, r0
 11884 58a2 7F18     		adds r7, r7, r1
 11885              	
 11886              		@6
 11887 58a4 DD46     		mov sp, r11
 11888 58a6 0FBC     		pop {r0-r3}
 11889 58a8 EB46     		mov r11, sp
 11890 58aa D546     		mov sp, r10
 11891 58ac 10BC     		pop {r4}
 11892 58ae EA46     		mov r10, sp
 11893 58b0 2546     		mov r5, r4
 11894 58b2 2404     		lsls r4, r4, # 16
 11895 58b4 240C     		lsrs r4, r4, # 16
 11896 58b6 2D0C     		lsrs r5, r5, # 16
 11897 58b8 6043     		muls r0, r0, r4		@R
ARM GAS  1.s 			page 210


 11898 58ba 6143     		muls r1, r1, r4		@I
 11899 58bc 6A43     		muls r2, r2, r5		@R
 11900 58be 6B43     		muls r3, r3, r5		@I
 11901 58c0 8011     		asrs r0, r0, # 6
 11902 58c2 8911     		asrs r1, r1, # 6
 11903 58c4 9211     		asrs r2, r2, # 6
 11904 58c6 9B11     		asrs r3, r3, # 6
 11905 58c8 8018     		adds r0, r0, r2	 @r
 11906 58ca C918     		adds r1, r1, r3	 @i
 11907 58cc 3618     		adds r6, r6, r0
 11908 58ce 7F18     		adds r7, r7, r1
 11909              	
 11910 58d0 DD46     		mov sp, r11
 11911 58d2 0FBC     		pop {r0-r3}
 11912 58d4 EB46     		mov r11, sp
 11913 58d6 D546     		mov sp, r10
 11914 58d8 10BC     		pop {r4}
 11915 58da EA46     		mov r10, sp
 11916 58dc 2546     		mov r5, r4
 11917 58de 2404     		lsls r4, r4, # 16
 11918 58e0 240C     		lsrs r4, r4, # 16
 11919 58e2 2D0C     		lsrs r5, r5, # 16
 11920 58e4 6043     		muls r0, r0, r4
 11921 58e6 6143     		muls r1, r1, r4
 11922 58e8 6A43     		muls r2, r2, r5
 11923 58ea 6B43     		muls r3, r3, r5
 11924 58ec 8011     		asrs r0, r0, # 6
 11925 58ee 8911     		asrs r1, r1, # 6
 11926 58f0 9211     		asrs r2, r2, # 6
 11927 58f2 9B11     		asrs r3, r3, # 6
 11928 58f4 8018     		adds r0, r0, r2         @r
 11929 58f6 C918     		adds r1, r1, r3         @i
 11930 58f8 3618     		adds r6, r6, r0
 11931 58fa 7F18     		adds r7, r7, r1
 11932              	
 11933 58fc DD46     		mov sp, r11
 11934 58fe 0FBC     		pop {r0-r3}
 11935 5900 EB46     		mov r11, sp
 11936 5902 D546     		mov sp, r10
 11937 5904 10BC     		pop {r4}
 11938 5906 EA46     		mov r10, sp
 11939 5908 2546     		mov r5, r4
 11940 590a 2404     		lsls r4, r4, # 16
 11941 590c 240C     		lsrs r4, r4, # 16
 11942 590e 2D0C     		lsrs r5, r5, # 16
 11943 5910 6043     		muls r0, r0, r4
 11944 5912 6143     		muls r1, r1, r4
 11945 5914 6A43     		muls r2, r2, r5
 11946 5916 6B43     		muls r3, r3, r5
 11947 5918 8011     		asrs r0, r0, # 6
 11948 591a 8911     		asrs r1, r1, # 6
 11949 591c 9211     		asrs r2, r2, # 6
 11950 591e 9B11     		asrs r3, r3, # 6
 11951 5920 8018     		adds r0, r0, r2  @r
 11952 5922 C918     		adds r1, r1, r3  @i
 11953 5924 3618     		adds r6, r6, r0
 11954 5926 7F18     		adds r7, r7, r1
ARM GAS  1.s 			page 211


 11955              	
 11956 5928 DD46     		mov sp, r11
 11957 592a 0FBC     		pop {r0-r3}
 11958 592c EB46     		mov r11, sp
 11959 592e D546     		mov sp, r10
 11960 5930 10BC     		pop {r4}
 11961 5932 EA46     		mov r10, sp
 11962 5934 2546     		mov r5, r4
 11963 5936 2404     		lsls r4, r4, # 16
 11964 5938 240C     		lsrs r4, r4, # 16
 11965 593a 2D0C     		lsrs r5, r5, # 16
 11966 593c 6043     		muls r0, r0, r4
 11967 593e 6143     		muls r1, r1, r4
 11968 5940 6A43     		muls r2, r2, r5
 11969 5942 6B43     		muls r3, r3, r5
 11970 5944 8011     		asrs r0, r0, # 6
 11971 5946 8911     		asrs r1, r1, # 6
 11972 5948 9211     		asrs r2, r2, # 6
 11973 594a 9B11     		asrs r3, r3, # 6
 11974 594c 8018     		adds r0, r0, r2         @r
 11975 594e C918     		adds r1, r1, r3         @i
 11976 5950 3618     		adds r6, r6, r0
 11977 5952 7F18     		adds r7, r7, r1
 11978              	
 11979              		@7
 11980 5954 DD46     		mov sp, r11
 11981 5956 0FBC     		pop {r0-r3}
 11982 5958 EB46     		mov r11, sp
 11983 595a D546     		mov sp, r10
 11984 595c 10BC     		pop {r4}
 11985 595e EA46     		mov r10, sp
 11986 5960 2546     		mov r5, r4
 11987 5962 2404     		lsls r4, r4, # 16
 11988 5964 240C     		lsrs r4, r4, # 16
 11989 5966 2D0C     		lsrs r5, r5, # 16
 11990 5968 6043     		muls r0, r0, r4		@R
 11991 596a 6143     		muls r1, r1, r4		@I
 11992 596c 6A43     		muls r2, r2, r5		@R
 11993 596e 6B43     		muls r3, r3, r5		@I
 11994 5970 8011     		asrs r0, r0, # 6
 11995 5972 8911     		asrs r1, r1, # 6
 11996 5974 9211     		asrs r2, r2, # 6
 11997 5976 9B11     		asrs r3, r3, # 6
 11998 5978 8018     		adds r0, r0, r2	 @r
 11999 597a C918     		adds r1, r1, r3	 @i
 12000 597c 3618     		adds r6, r6, r0
 12001 597e 7F18     		adds r7, r7, r1
 12002              	
 12003 5980 DD46     		mov sp, r11
 12004 5982 0FBC     		pop {r0-r3}
 12005 5984 EB46     		mov r11, sp
 12006 5986 D546     		mov sp, r10
 12007 5988 10BC     		pop {r4}
 12008 598a EA46     		mov r10, sp
 12009 598c 2546     		mov r5, r4
 12010 598e 2404     		lsls r4, r4, # 16
 12011 5990 240C     		lsrs r4, r4, # 16
ARM GAS  1.s 			page 212


 12012 5992 2D0C     		lsrs r5, r5, # 16
 12013 5994 6043     		muls r0, r0, r4
 12014 5996 6143     		muls r1, r1, r4
 12015 5998 6A43     		muls r2, r2, r5
 12016 599a 6B43     		muls r3, r3, r5
 12017 599c 8011     		asrs r0, r0, # 6
 12018 599e 8911     		asrs r1, r1, # 6
 12019 59a0 9211     		asrs r2, r2, # 6
 12020 59a2 9B11     		asrs r3, r3, # 6
 12021 59a4 8018     		adds r0, r0, r2         @r
 12022 59a6 C918     		adds r1, r1, r3         @i
 12023 59a8 3618     		adds r6, r6, r0
 12024 59aa 7F18     		adds r7, r7, r1
 12025              	
 12026 59ac DD46     		mov sp, r11
 12027 59ae 0FBC     		pop {r0-r3}
 12028 59b0 EB46     		mov r11, sp
 12029 59b2 D546     		mov sp, r10
 12030 59b4 10BC     		pop {r4}
 12031 59b6 EA46     		mov r10, sp
 12032 59b8 2546     		mov r5, r4
 12033 59ba 2404     		lsls r4, r4, # 16
 12034 59bc 240C     		lsrs r4, r4, # 16
 12035 59be 2D0C     		lsrs r5, r5, # 16
 12036 59c0 6043     		muls r0, r0, r4
 12037 59c2 6143     		muls r1, r1, r4
 12038 59c4 6A43     		muls r2, r2, r5
 12039 59c6 6B43     		muls r3, r3, r5
 12040 59c8 8011     		asrs r0, r0, # 6
 12041 59ca 8911     		asrs r1, r1, # 6
 12042 59cc 9211     		asrs r2, r2, # 6
 12043 59ce 9B11     		asrs r3, r3, # 6
 12044 59d0 8018     		adds r0, r0, r2  @r
 12045 59d2 C918     		adds r1, r1, r3  @i
 12046 59d4 3618     		adds r6, r6, r0
 12047 59d6 7F18     		adds r7, r7, r1
 12048              	
 12049 59d8 DD46     		mov sp, r11
 12050 59da 0FBC     		pop {r0-r3}
 12051 59dc EB46     		mov r11, sp
 12052 59de D546     		mov sp, r10
 12053 59e0 10BC     		pop {r4}
 12054 59e2 EA46     		mov r10, sp
 12055 59e4 2546     		mov r5, r4
 12056 59e6 2404     		lsls r4, r4, # 16
 12057 59e8 240C     		lsrs r4, r4, # 16
 12058 59ea 2D0C     		lsrs r5, r5, # 16
 12059 59ec 6043     		muls r0, r0, r4
 12060 59ee 6143     		muls r1, r1, r4
 12061 59f0 6A43     		muls r2, r2, r5
 12062 59f2 6B43     		muls r3, r3, r5
 12063 59f4 8011     		asrs r0, r0, # 6
 12064 59f6 8911     		asrs r1, r1, # 6
 12065 59f8 9211     		asrs r2, r2, # 6
 12066 59fa 9B11     		asrs r3, r3, # 6
 12067 59fc 8018     		adds r0, r0, r2         @r
 12068 59fe C918     		adds r1, r1, r3         @i
ARM GAS  1.s 			page 213


 12069 5a00 3618     		adds r6, r6, r0
 12070 5a02 7F18     		adds r7, r7, r1
 12071              	
 12072              		@8
 12073 5a04 DD46     		mov sp, r11
 12074 5a06 0FBC     		pop {r0-r3}
 12075 5a08 EB46     		mov r11, sp
 12076 5a0a D546     		mov sp, r10
 12077 5a0c 10BC     		pop {r4}
 12078 5a0e EA46     		mov r10, sp
 12079 5a10 2546     		mov r5, r4
 12080 5a12 2404     		lsls r4, r4, # 16
 12081 5a14 240C     		lsrs r4, r4, # 16
 12082 5a16 2D0C     		lsrs r5, r5, # 16
 12083 5a18 6043     		muls r0, r0, r4		@R
 12084 5a1a 6143     		muls r1, r1, r4		@I
 12085 5a1c 6A43     		muls r2, r2, r5		@R
 12086 5a1e 6B43     		muls r3, r3, r5		@I
 12087 5a20 8011     		asrs r0, r0, # 6
 12088 5a22 8911     		asrs r1, r1, # 6
 12089 5a24 9211     		asrs r2, r2, # 6
 12090 5a26 9B11     		asrs r3, r3, # 6
 12091 5a28 8018     		adds r0, r0, r2	 @r
 12092 5a2a C918     		adds r1, r1, r3	 @i
 12093 5a2c 3618     		adds r6, r6, r0
 12094 5a2e 7F18     		adds r7, r7, r1
 12095              	
 12096 5a30 DD46     		mov sp, r11
 12097 5a32 0FBC     		pop {r0-r3}
 12098 5a34 EB46     		mov r11, sp
 12099 5a36 D546     		mov sp, r10
 12100 5a38 10BC     		pop {r4}
 12101 5a3a EA46     		mov r10, sp
 12102 5a3c 2546     		mov r5, r4
 12103 5a3e 2404     		lsls r4, r4, # 16
 12104 5a40 240C     		lsrs r4, r4, # 16
 12105 5a42 2D0C     		lsrs r5, r5, # 16
 12106 5a44 6043     		muls r0, r0, r4
 12107 5a46 6143     		muls r1, r1, r4
 12108 5a48 6A43     		muls r2, r2, r5
 12109 5a4a 6B43     		muls r3, r3, r5
 12110 5a4c 8011     		asrs r0, r0, # 6
 12111 5a4e 8911     		asrs r1, r1, # 6
 12112 5a50 9211     		asrs r2, r2, # 6
 12113 5a52 9B11     		asrs r3, r3, # 6
 12114 5a54 8018     		adds r0, r0, r2         @r
 12115 5a56 C918     		adds r1, r1, r3         @i
 12116 5a58 3618     		adds r6, r6, r0
 12117 5a5a 7F18     		adds r7, r7, r1
 12118              	
 12119 5a5c DD46     		mov sp, r11
 12120 5a5e 0FBC     		pop {r0-r3}
 12121 5a60 EB46     		mov r11, sp
 12122 5a62 D546     		mov sp, r10
 12123 5a64 10BC     		pop {r4}
 12124 5a66 EA46     		mov r10, sp
 12125 5a68 2546     		mov r5, r4
ARM GAS  1.s 			page 214


 12126 5a6a 2404     		lsls r4, r4, # 16
 12127 5a6c 240C     		lsrs r4, r4, # 16
 12128 5a6e 2D0C     		lsrs r5, r5, # 16
 12129 5a70 6043     		muls r0, r0, r4
 12130 5a72 6143     		muls r1, r1, r4
 12131 5a74 6A43     		muls r2, r2, r5
 12132 5a76 6B43     		muls r3, r3, r5
 12133 5a78 8011     		asrs r0, r0, # 6
 12134 5a7a 8911     		asrs r1, r1, # 6
 12135 5a7c 9211     		asrs r2, r2, # 6
 12136 5a7e 9B11     		asrs r3, r3, # 6
 12137 5a80 8018     		adds r0, r0, r2  @r
 12138 5a82 C918     		adds r1, r1, r3  @i
 12139 5a84 3618     		adds r6, r6, r0
 12140 5a86 7F18     		adds r7, r7, r1
 12141              	
 12142 5a88 DD46     		mov sp, r11
 12143 5a8a 0FBC     		pop {r0-r3}
 12144 5a8c EB46     		mov r11, sp
 12145 5a8e D546     		mov sp, r10
 12146 5a90 10BC     		pop {r4}
 12147 5a92 EA46     		mov r10, sp
 12148 5a94 2546     		mov r5, r4
 12149 5a96 2404     		lsls r4, r4, # 16
 12150 5a98 240C     		lsrs r4, r4, # 16
 12151 5a9a 2D0C     		lsrs r5, r5, # 16
 12152 5a9c 6043     		muls r0, r0, r4
 12153 5a9e 6143     		muls r1, r1, r4
 12154 5aa0 6A43     		muls r2, r2, r5
 12155 5aa2 6B43     		muls r3, r3, r5
 12156 5aa4 8011     		asrs r0, r0, # 6
 12157 5aa6 8911     		asrs r1, r1, # 6
 12158 5aa8 9211     		asrs r2, r2, # 6
 12159 5aaa 9B11     		asrs r3, r3, # 6
 12160 5aac 8018     		adds r0, r0, r2         @r
 12161 5aae C918     		adds r1, r1, r3         @i
 12162 5ab0 3618     		adds r6, r6, r0
 12163 5ab2 7F18     		adds r7, r7, r1
 12164              	
 12165              		@9
 12166 5ab4 DD46     		mov sp, r11
 12167 5ab6 0FBC     		pop {r0-r3}
 12168 5ab8 EB46     		mov r11, sp
 12169 5aba D546     		mov sp, r10
 12170 5abc 10BC     		pop {r4}
 12171 5abe EA46     		mov r10, sp
 12172 5ac0 2546     		mov r5, r4
 12173 5ac2 2404     		lsls r4, r4, # 16
 12174 5ac4 240C     		lsrs r4, r4, # 16
 12175 5ac6 2D0C     		lsrs r5, r5, # 16
 12176 5ac8 6043     		muls r0, r0, r4		@R
 12177 5aca 6143     		muls r1, r1, r4		@I
 12178 5acc 6A43     		muls r2, r2, r5		@R
 12179 5ace 6B43     		muls r3, r3, r5		@I
 12180 5ad0 8011     		asrs r0, r0, # 6
 12181 5ad2 8911     		asrs r1, r1, # 6
 12182 5ad4 9211     		asrs r2, r2, # 6
ARM GAS  1.s 			page 215


 12183 5ad6 9B11     		asrs r3, r3, # 6
 12184 5ad8 8018     		adds r0, r0, r2	 @r
 12185 5ada C918     		adds r1, r1, r3	 @i
 12186 5adc 3618     		adds r6, r6, r0
 12187 5ade 7F18     		adds r7, r7, r1
 12188              	
 12189 5ae0 DD46     		mov sp, r11
 12190 5ae2 0FBC     		pop {r0-r3}
 12191 5ae4 EB46     		mov r11, sp
 12192 5ae6 D546     		mov sp, r10
 12193 5ae8 10BC     		pop {r4}
 12194 5aea EA46     		mov r10, sp
 12195 5aec 2546     		mov r5, r4
 12196 5aee 2404     		lsls r4, r4, # 16
 12197 5af0 240C     		lsrs r4, r4, # 16
 12198 5af2 2D0C     		lsrs r5, r5, # 16
 12199 5af4 6043     		muls r0, r0, r4
 12200 5af6 6143     		muls r1, r1, r4
 12201 5af8 6A43     		muls r2, r2, r5
 12202 5afa 6B43     		muls r3, r3, r5
 12203 5afc 8011     		asrs r0, r0, # 6
 12204 5afe 8911     		asrs r1, r1, # 6
 12205 5b00 9211     		asrs r2, r2, # 6
 12206 5b02 9B11     		asrs r3, r3, # 6
 12207 5b04 8018     		adds r0, r0, r2         @r
 12208 5b06 C918     		adds r1, r1, r3         @i
 12209 5b08 3618     		adds r6, r6, r0
 12210 5b0a 7F18     		adds r7, r7, r1
 12211              	
 12212 5b0c DD46     		mov sp, r11
 12213 5b0e 0FBC     		pop {r0-r3}
 12214 5b10 EB46     		mov r11, sp
 12215 5b12 D546     		mov sp, r10
 12216 5b14 10BC     		pop {r4}
 12217 5b16 EA46     		mov r10, sp
 12218 5b18 2546     		mov r5, r4
 12219 5b1a 2404     		lsls r4, r4, # 16
 12220 5b1c 240C     		lsrs r4, r4, # 16
 12221 5b1e 2D0C     		lsrs r5, r5, # 16
 12222 5b20 6043     		muls r0, r0, r4
 12223 5b22 6143     		muls r1, r1, r4
 12224 5b24 6A43     		muls r2, r2, r5
 12225 5b26 6B43     		muls r3, r3, r5
 12226 5b28 8011     		asrs r0, r0, # 6
 12227 5b2a 8911     		asrs r1, r1, # 6
 12228 5b2c 9211     		asrs r2, r2, # 6
 12229 5b2e 9B11     		asrs r3, r3, # 6
 12230 5b30 8018     		adds r0, r0, r2  @r
 12231 5b32 C918     		adds r1, r1, r3  @i
 12232 5b34 3618     		adds r6, r6, r0
 12233 5b36 7F18     		adds r7, r7, r1
 12234              	
 12235 5b38 DD46     		mov sp, r11
 12236 5b3a 0FBC     		pop {r0-r3}
 12237 5b3c EB46     		mov r11, sp
 12238 5b3e D546     		mov sp, r10
 12239 5b40 10BC     		pop {r4}
ARM GAS  1.s 			page 216


 12240 5b42 EA46     		mov r10, sp
 12241 5b44 2546     		mov r5, r4
 12242 5b46 2404     		lsls r4, r4, # 16
 12243 5b48 240C     		lsrs r4, r4, # 16
 12244 5b4a 2D0C     		lsrs r5, r5, # 16
 12245 5b4c 6043     		muls r0, r0, r4
 12246 5b4e 6143     		muls r1, r1, r4
 12247 5b50 6A43     		muls r2, r2, r5
 12248 5b52 6B43     		muls r3, r3, r5
 12249 5b54 8011     		asrs r0, r0, # 6
 12250 5b56 8911     		asrs r1, r1, # 6
 12251 5b58 9211     		asrs r2, r2, # 6
 12252 5b5a 9B11     		asrs r3, r3, # 6
 12253 5b5c 8018     		adds r0, r0, r2         @r
 12254 5b5e C918     		adds r1, r1, r3         @i
 12255 5b60 3618     		adds r6, r6, r0
 12256 5b62 7F18     		adds r7, r7, r1
 12257              		@yjm12
 12258              		@0
 12259 5b64 DD46     		mov sp, r11
 12260 5b66 0FBC     		pop {r0-r3}
 12261 5b68 EB46     		mov r11, sp
 12262 5b6a D546     		mov sp, r10
 12263 5b6c 10BC     		pop {r4}
 12264 5b6e EA46     		mov r10, sp
 12265 5b70 2546     		mov r5, r4
 12266 5b72 2404     		lsls r4, r4, # 16
 12267 5b74 240C     		lsrs r4, r4, # 16
 12268 5b76 2D0C     		lsrs r5, r5, # 16
 12269 5b78 6043     		muls r0, r0, r4		@R
 12270 5b7a 6143     		muls r1, r1, r4		@I
 12271 5b7c 6A43     		muls r2, r2, r5		@R
 12272 5b7e 6B43     		muls r3, r3, r5		@I
 12273 5b80 8011     		asrs r0, r0, # 6
 12274 5b82 8911     		asrs r1, r1, # 6
 12275 5b84 9211     		asrs r2, r2, # 6
 12276 5b86 9B11     		asrs r3, r3, # 6
 12277 5b88 8018     		adds r0, r0, r2	 @r
 12278 5b8a C918     		adds r1, r1, r3	 @i
 12279 5b8c 3618     		adds r6, r6, r0
 12280 5b8e 7F18     		adds r7, r7, r1
 12281              	
 12282 5b90 DD46     		mov sp, r11
 12283 5b92 0FBC     		pop {r0-r3}
 12284 5b94 EB46     		mov r11, sp
 12285 5b96 D546     		mov sp, r10
 12286 5b98 10BC     		pop {r4}
 12287 5b9a EA46     		mov r10, sp
 12288 5b9c 2546     		mov r5, r4
 12289 5b9e 2404     		lsls r4, r4, # 16
 12290 5ba0 240C     		lsrs r4, r4, # 16
 12291 5ba2 2D0C     		lsrs r5, r5, # 16
 12292 5ba4 6043     		muls r0, r0, r4
 12293 5ba6 6143     		muls r1, r1, r4
 12294 5ba8 6A43     		muls r2, r2, r5
 12295 5baa 6B43     		muls r3, r3, r5
 12296 5bac 8011     		asrs r0, r0, # 6
ARM GAS  1.s 			page 217


 12297 5bae 8911     		asrs r1, r1, # 6
 12298 5bb0 9211     		asrs r2, r2, # 6
 12299 5bb2 9B11     		asrs r3, r3, # 6
 12300 5bb4 8018     		adds r0, r0, r2         @r
 12301 5bb6 C918     		adds r1, r1, r3         @i
 12302 5bb8 3618     		adds r6, r6, r0
 12303 5bba 7F18     		adds r7, r7, r1
 12304              	
 12305 5bbc DD46     		mov sp, r11
 12306 5bbe 0FBC     		pop {r0-r3}
 12307 5bc0 EB46     		mov r11, sp
 12308 5bc2 D546     		mov sp, r10
 12309 5bc4 10BC     		pop {r4}
 12310 5bc6 EA46     		mov r10, sp
 12311 5bc8 2546     		mov r5, r4
 12312 5bca 2404     		lsls r4, r4, # 16
 12313 5bcc 240C     		lsrs r4, r4, # 16
 12314 5bce 2D0C     		lsrs r5, r5, # 16
 12315 5bd0 6043     		muls r0, r0, r4
 12316 5bd2 6143     		muls r1, r1, r4
 12317 5bd4 6A43     		muls r2, r2, r5
 12318 5bd6 6B43     		muls r3, r3, r5
 12319 5bd8 8011     		asrs r0, r0, # 6
 12320 5bda 8911     		asrs r1, r1, # 6
 12321 5bdc 9211     		asrs r2, r2, # 6
 12322 5bde 9B11     		asrs r3, r3, # 6
 12323 5be0 8018     		adds r0, r0, r2  @r
 12324 5be2 C918     		adds r1, r1, r3  @i
 12325 5be4 3618     		adds r6, r6, r0
 12326 5be6 7F18     		adds r7, r7, r1
 12327              	
 12328 5be8 DD46     		mov sp, r11
 12329 5bea 0FBC     		pop {r0-r3}
 12330 5bec EB46     		mov r11, sp
 12331 5bee D546     		mov sp, r10
 12332 5bf0 10BC     		pop {r4}
 12333 5bf2 EA46     		mov r10, sp
 12334 5bf4 2546     		mov r5, r4
 12335 5bf6 2404     		lsls r4, r4, # 16
 12336 5bf8 240C     		lsrs r4, r4, # 16
 12337 5bfa 2D0C     		lsrs r5, r5, # 16
 12338 5bfc 6043     		muls r0, r0, r4
 12339 5bfe 6143     		muls r1, r1, r4
 12340 5c00 6A43     		muls r2, r2, r5
 12341 5c02 6B43     		muls r3, r3, r5
 12342 5c04 8011     		asrs r0, r0, # 6
 12343 5c06 8911     		asrs r1, r1, # 6
 12344 5c08 9211     		asrs r2, r2, # 6
 12345 5c0a 9B11     		asrs r3, r3, # 6
 12346 5c0c 8018     		adds r0, r0, r2         @r
 12347 5c0e C918     		adds r1, r1, r3         @i
 12348 5c10 3618     		adds r6, r6, r0
 12349 5c12 7F18     		adds r7, r7, r1
 12350              	
 12351              		@1
 12352 5c14 DD46     		mov sp, r11
 12353 5c16 0FBC     		pop {r0-r3}
ARM GAS  1.s 			page 218


 12354 5c18 EB46     		mov r11, sp
 12355 5c1a D546     		mov sp, r10
 12356 5c1c 10BC     		pop {r4}
 12357 5c1e EA46     		mov r10, sp
 12358 5c20 2546     		mov r5, r4
 12359 5c22 2404     		lsls r4, r4, # 16
 12360 5c24 240C     		lsrs r4, r4, # 16
 12361 5c26 2D0C     		lsrs r5, r5, # 16
 12362 5c28 6043     		muls r0, r0, r4		@R
 12363 5c2a 6143     		muls r1, r1, r4		@I
 12364 5c2c 6A43     		muls r2, r2, r5		@R
 12365 5c2e 6B43     		muls r3, r3, r5		@I
 12366 5c30 8011     		asrs r0, r0, # 6
 12367 5c32 8911     		asrs r1, r1, # 6
 12368 5c34 9211     		asrs r2, r2, # 6
 12369 5c36 9B11     		asrs r3, r3, # 6
 12370 5c38 8018     		adds r0, r0, r2	 @r
 12371 5c3a C918     		adds r1, r1, r3	 @i
 12372 5c3c 3618     		adds r6, r6, r0
 12373 5c3e 7F18     		adds r7, r7, r1
 12374              	
 12375 5c40 DD46     		mov sp, r11
 12376 5c42 0FBC     		pop {r0-r3}
 12377 5c44 EB46     		mov r11, sp
 12378 5c46 D546     		mov sp, r10
 12379 5c48 10BC     		pop {r4}
 12380 5c4a EA46     		mov r10, sp
 12381 5c4c 2546     		mov r5, r4
 12382 5c4e 2404     		lsls r4, r4, # 16
 12383 5c50 240C     		lsrs r4, r4, # 16
 12384 5c52 2D0C     		lsrs r5, r5, # 16
 12385 5c54 6043     		muls r0, r0, r4
 12386 5c56 6143     		muls r1, r1, r4
 12387 5c58 6A43     		muls r2, r2, r5
 12388 5c5a 6B43     		muls r3, r3, r5
 12389 5c5c 8011     		asrs r0, r0, # 6
 12390 5c5e 8911     		asrs r1, r1, # 6
 12391 5c60 9211     		asrs r2, r2, # 6
 12392 5c62 9B11     		asrs r3, r3, # 6
 12393 5c64 8018     		adds r0, r0, r2         @r
 12394 5c66 C918     		adds r1, r1, r3         @i
 12395 5c68 3618     		adds r6, r6, r0
 12396 5c6a 7F18     		adds r7, r7, r1
 12397              	
 12398 5c6c DD46     		mov sp, r11
 12399 5c6e 0FBC     		pop {r0-r3}
 12400 5c70 EB46     		mov r11, sp
 12401 5c72 D546     		mov sp, r10
 12402 5c74 10BC     		pop {r4}
 12403 5c76 EA46     		mov r10, sp
 12404 5c78 2546     		mov r5, r4
 12405 5c7a 2404     		lsls r4, r4, # 16
 12406 5c7c 240C     		lsrs r4, r4, # 16
 12407 5c7e 2D0C     		lsrs r5, r5, # 16
 12408 5c80 6043     		muls r0, r0, r4
 12409 5c82 6143     		muls r1, r1, r4
 12410 5c84 6A43     		muls r2, r2, r5
ARM GAS  1.s 			page 219


 12411 5c86 6B43     		muls r3, r3, r5
 12412 5c88 8011     		asrs r0, r0, # 6
 12413 5c8a 8911     		asrs r1, r1, # 6
 12414 5c8c 9211     		asrs r2, r2, # 6
 12415 5c8e 9B11     		asrs r3, r3, # 6
 12416 5c90 8018     		adds r0, r0, r2  @r
 12417 5c92 C918     		adds r1, r1, r3  @i
 12418 5c94 3618     		adds r6, r6, r0
 12419 5c96 7F18     		adds r7, r7, r1
 12420              	
 12421 5c98 DD46     		mov sp, r11
 12422 5c9a 0FBC     		pop {r0-r3}
 12423 5c9c EB46     		mov r11, sp
 12424 5c9e D546     		mov sp, r10
 12425 5ca0 10BC     		pop {r4}
 12426 5ca2 EA46     		mov r10, sp
 12427 5ca4 2546     		mov r5, r4
 12428 5ca6 2404     		lsls r4, r4, # 16
 12429 5ca8 240C     		lsrs r4, r4, # 16
 12430 5caa 2D0C     		lsrs r5, r5, # 16
 12431 5cac 6043     		muls r0, r0, r4
 12432 5cae 6143     		muls r1, r1, r4
 12433 5cb0 6A43     		muls r2, r2, r5
 12434 5cb2 6B43     		muls r3, r3, r5
 12435 5cb4 8011     		asrs r0, r0, # 6
 12436 5cb6 8911     		asrs r1, r1, # 6
 12437 5cb8 9211     		asrs r2, r2, # 6
 12438 5cba 9B11     		asrs r3, r3, # 6
 12439 5cbc 8018     		adds r0, r0, r2         @r
 12440 5cbe C918     		adds r1, r1, r3         @i
 12441 5cc0 3618     		adds r6, r6, r0
 12442 5cc2 7F18     		adds r7, r7, r1
 12443              	
 12444              		@2
 12445 5cc4 DD46     		mov sp, r11
 12446 5cc6 0FBC     		pop {r0-r3}
 12447 5cc8 EB46     		mov r11, sp
 12448 5cca D546     		mov sp, r10
 12449 5ccc 10BC     		pop {r4}
 12450 5cce EA46     		mov r10, sp
 12451 5cd0 2546     		mov r5, r4
 12452 5cd2 2404     		lsls r4, r4, # 16
 12453 5cd4 240C     		lsrs r4, r4, # 16
 12454 5cd6 2D0C     		lsrs r5, r5, # 16
 12455 5cd8 6043     		muls r0, r0, r4		@R
 12456 5cda 6143     		muls r1, r1, r4		@I
 12457 5cdc 6A43     		muls r2, r2, r5		@R
 12458 5cde 6B43     		muls r3, r3, r5		@I
 12459 5ce0 8011     		asrs r0, r0, # 6
 12460 5ce2 8911     		asrs r1, r1, # 6
 12461 5ce4 9211     		asrs r2, r2, # 6
 12462 5ce6 9B11     		asrs r3, r3, # 6
 12463 5ce8 8018     		adds r0, r0, r2	 @r
 12464 5cea C918     		adds r1, r1, r3	 @i
 12465 5cec 3618     		adds r6, r6, r0
 12466 5cee 7F18     		adds r7, r7, r1
 12467              	
ARM GAS  1.s 			page 220


 12468 5cf0 DD46     		mov sp, r11
 12469 5cf2 0FBC     		pop {r0-r3}
 12470 5cf4 EB46     		mov r11, sp
 12471 5cf6 D546     		mov sp, r10
 12472 5cf8 10BC     		pop {r4}
 12473 5cfa EA46     		mov r10, sp
 12474 5cfc 2546     		mov r5, r4
 12475 5cfe 2404     		lsls r4, r4, # 16
 12476 5d00 240C     		lsrs r4, r4, # 16
 12477 5d02 2D0C     		lsrs r5, r5, # 16
 12478 5d04 6043     		muls r0, r0, r4
 12479 5d06 6143     		muls r1, r1, r4
 12480 5d08 6A43     		muls r2, r2, r5
 12481 5d0a 6B43     		muls r3, r3, r5
 12482 5d0c 8011     		asrs r0, r0, # 6
 12483 5d0e 8911     		asrs r1, r1, # 6
 12484 5d10 9211     		asrs r2, r2, # 6
 12485 5d12 9B11     		asrs r3, r3, # 6
 12486 5d14 8018     		adds r0, r0, r2         @r
 12487 5d16 C918     		adds r1, r1, r3         @i
 12488 5d18 3618     		adds r6, r6, r0
 12489 5d1a 7F18     		adds r7, r7, r1
 12490              	
 12491 5d1c DD46     		mov sp, r11
 12492 5d1e 0FBC     		pop {r0-r3}
 12493 5d20 EB46     		mov r11, sp
 12494 5d22 D546     		mov sp, r10
 12495 5d24 10BC     		pop {r4}
 12496 5d26 EA46     		mov r10, sp
 12497 5d28 2546     		mov r5, r4
 12498 5d2a 2404     		lsls r4, r4, # 16
 12499 5d2c 240C     		lsrs r4, r4, # 16
 12500 5d2e 2D0C     		lsrs r5, r5, # 16
 12501 5d30 6043     		muls r0, r0, r4
 12502 5d32 6143     		muls r1, r1, r4
 12503 5d34 6A43     		muls r2, r2, r5
 12504 5d36 6B43     		muls r3, r3, r5
 12505 5d38 8011     		asrs r0, r0, # 6
 12506 5d3a 8911     		asrs r1, r1, # 6
 12507 5d3c 9211     		asrs r2, r2, # 6
 12508 5d3e 9B11     		asrs r3, r3, # 6
 12509 5d40 8018     		adds r0, r0, r2  @r
 12510 5d42 C918     		adds r1, r1, r3  @i
 12511 5d44 3618     		adds r6, r6, r0
 12512 5d46 7F18     		adds r7, r7, r1
 12513              	
 12514 5d48 DD46     		mov sp, r11
 12515 5d4a 0FBC     		pop {r0-r3}
 12516 5d4c EB46     		mov r11, sp
 12517 5d4e D546     		mov sp, r10
 12518 5d50 10BC     		pop {r4}
 12519 5d52 EA46     		mov r10, sp
 12520 5d54 2546     		mov r5, r4
 12521 5d56 2404     		lsls r4, r4, # 16
 12522 5d58 240C     		lsrs r4, r4, # 16
 12523 5d5a 2D0C     		lsrs r5, r5, # 16
 12524 5d5c 6043     		muls r0, r0, r4
ARM GAS  1.s 			page 221


 12525 5d5e 6143     		muls r1, r1, r4
 12526 5d60 6A43     		muls r2, r2, r5
 12527 5d62 6B43     		muls r3, r3, r5
 12528 5d64 8011     		asrs r0, r0, # 6
 12529 5d66 8911     		asrs r1, r1, # 6
 12530 5d68 9211     		asrs r2, r2, # 6
 12531 5d6a 9B11     		asrs r3, r3, # 6
 12532 5d6c 8018     		adds r0, r0, r2         @r
 12533 5d6e C918     		adds r1, r1, r3         @i
 12534 5d70 3618     		adds r6, r6, r0
 12535 5d72 7F18     		adds r7, r7, r1
 12536              	
 12537              		@3
 12538 5d74 DD46     		mov sp, r11
 12539 5d76 0FBC     		pop {r0-r3}
 12540 5d78 EB46     		mov r11, sp
 12541 5d7a D546     		mov sp, r10
 12542 5d7c 10BC     		pop {r4}
 12543 5d7e EA46     		mov r10, sp
 12544 5d80 2546     		mov r5, r4
 12545 5d82 2404     		lsls r4, r4, # 16
 12546 5d84 240C     		lsrs r4, r4, # 16
 12547 5d86 2D0C     		lsrs r5, r5, # 16
 12548 5d88 6043     		muls r0, r0, r4		@R
 12549 5d8a 6143     		muls r1, r1, r4		@I
 12550 5d8c 6A43     		muls r2, r2, r5		@R
 12551 5d8e 6B43     		muls r3, r3, r5		@I
 12552 5d90 8011     		asrs r0, r0, # 6
 12553 5d92 8911     		asrs r1, r1, # 6
 12554 5d94 9211     		asrs r2, r2, # 6
 12555 5d96 9B11     		asrs r3, r3, # 6
 12556 5d98 8018     		adds r0, r0, r2	 @r
 12557 5d9a C918     		adds r1, r1, r3	 @i
 12558 5d9c 3618     		adds r6, r6, r0
 12559 5d9e 7F18     		adds r7, r7, r1
 12560              	
 12561 5da0 DD46     		mov sp, r11
 12562 5da2 0FBC     		pop {r0-r3}
 12563 5da4 EB46     		mov r11, sp
 12564 5da6 D546     		mov sp, r10
 12565 5da8 10BC     		pop {r4}
 12566 5daa EA46     		mov r10, sp
 12567 5dac 2546     		mov r5, r4
 12568 5dae 2404     		lsls r4, r4, # 16
 12569 5db0 240C     		lsrs r4, r4, # 16
 12570 5db2 2D0C     		lsrs r5, r5, # 16
 12571 5db4 6043     		muls r0, r0, r4
 12572 5db6 6143     		muls r1, r1, r4
 12573 5db8 6A43     		muls r2, r2, r5
 12574 5dba 6B43     		muls r3, r3, r5
 12575 5dbc 8011     		asrs r0, r0, # 6
 12576 5dbe 8911     		asrs r1, r1, # 6
 12577 5dc0 9211     		asrs r2, r2, # 6
 12578 5dc2 9B11     		asrs r3, r3, # 6
 12579 5dc4 8018     		adds r0, r0, r2         @r
 12580 5dc6 C918     		adds r1, r1, r3         @i
 12581 5dc8 3618     		adds r6, r6, r0
ARM GAS  1.s 			page 222


 12582 5dca 7F18     		adds r7, r7, r1
 12583              	
 12584 5dcc DD46     		mov sp, r11
 12585 5dce 0FBC     		pop {r0-r3}
 12586 5dd0 EB46     		mov r11, sp
 12587 5dd2 D546     		mov sp, r10
 12588 5dd4 10BC     		pop {r4}
 12589 5dd6 EA46     		mov r10, sp
 12590 5dd8 2546     		mov r5, r4
 12591 5dda 2404     		lsls r4, r4, # 16
 12592 5ddc 240C     		lsrs r4, r4, # 16
 12593 5dde 2D0C     		lsrs r5, r5, # 16
 12594 5de0 6043     		muls r0, r0, r4
 12595 5de2 6143     		muls r1, r1, r4
 12596 5de4 6A43     		muls r2, r2, r5
 12597 5de6 6B43     		muls r3, r3, r5
 12598 5de8 8011     		asrs r0, r0, # 6
 12599 5dea 8911     		asrs r1, r1, # 6
 12600 5dec 9211     		asrs r2, r2, # 6
 12601 5dee 9B11     		asrs r3, r3, # 6
 12602 5df0 8018     		adds r0, r0, r2  @r
 12603 5df2 C918     		adds r1, r1, r3  @i
 12604 5df4 3618     		adds r6, r6, r0
 12605 5df6 7F18     		adds r7, r7, r1
 12606              	
 12607 5df8 DD46     		mov sp, r11
 12608 5dfa 0FBC     		pop {r0-r3}
 12609 5dfc EB46     		mov r11, sp
 12610 5dfe D546     		mov sp, r10
 12611 5e00 10BC     		pop {r4}
 12612 5e02 EA46     		mov r10, sp
 12613 5e04 2546     		mov r5, r4
 12614 5e06 2404     		lsls r4, r4, # 16
 12615 5e08 240C     		lsrs r4, r4, # 16
 12616 5e0a 2D0C     		lsrs r5, r5, # 16
 12617 5e0c 6043     		muls r0, r0, r4
 12618 5e0e 6143     		muls r1, r1, r4
 12619 5e10 6A43     		muls r2, r2, r5
 12620 5e12 6B43     		muls r3, r3, r5
 12621 5e14 8011     		asrs r0, r0, # 6
 12622 5e16 8911     		asrs r1, r1, # 6
 12623 5e18 9211     		asrs r2, r2, # 6
 12624 5e1a 9B11     		asrs r3, r3, # 6
 12625 5e1c 8018     		adds r0, r0, r2         @r
 12626 5e1e C918     		adds r1, r1, r3         @i
 12627 5e20 3618     		adds r6, r6, r0
 12628 5e22 7F18     		adds r7, r7, r1
 12629              	
 12630              		@4
 12631 5e24 DD46     		mov sp, r11
 12632 5e26 0FBC     		pop {r0-r3}
 12633 5e28 EB46     		mov r11, sp
 12634 5e2a D546     		mov sp, r10
 12635 5e2c 10BC     		pop {r4}
 12636 5e2e EA46     		mov r10, sp
 12637 5e30 2546     		mov r5, r4
 12638 5e32 2404     		lsls r4, r4, # 16
ARM GAS  1.s 			page 223


 12639 5e34 240C     		lsrs r4, r4, # 16
 12640 5e36 2D0C     		lsrs r5, r5, # 16
 12641 5e38 6043     		muls r0, r0, r4		@R
 12642 5e3a 6143     		muls r1, r1, r4		@I
 12643 5e3c 6A43     		muls r2, r2, r5		@R
 12644 5e3e 6B43     		muls r3, r3, r5		@I
 12645 5e40 8011     		asrs r0, r0, # 6
 12646 5e42 8911     		asrs r1, r1, # 6
 12647 5e44 9211     		asrs r2, r2, # 6
 12648 5e46 9B11     		asrs r3, r3, # 6
 12649 5e48 8018     		adds r0, r0, r2	 @r
 12650 5e4a C918     		adds r1, r1, r3	 @i
 12651 5e4c 3618     		adds r6, r6, r0
 12652 5e4e 7F18     		adds r7, r7, r1
 12653              	
 12654 5e50 DD46     		mov sp, r11
 12655 5e52 0FBC     		pop {r0-r3}
 12656 5e54 EB46     		mov r11, sp
 12657 5e56 D546     		mov sp, r10
 12658 5e58 10BC     		pop {r4}
 12659 5e5a EA46     		mov r10, sp
 12660 5e5c 2546     		mov r5, r4
 12661 5e5e 2404     		lsls r4, r4, # 16
 12662 5e60 240C     		lsrs r4, r4, # 16
 12663 5e62 2D0C     		lsrs r5, r5, # 16
 12664 5e64 6043     		muls r0, r0, r4
 12665 5e66 6143     		muls r1, r1, r4
 12666 5e68 6A43     		muls r2, r2, r5
 12667 5e6a 6B43     		muls r3, r3, r5
 12668 5e6c 8011     		asrs r0, r0, # 6
 12669 5e6e 8911     		asrs r1, r1, # 6
 12670 5e70 9211     		asrs r2, r2, # 6
 12671 5e72 9B11     		asrs r3, r3, # 6
 12672 5e74 8018     		adds r0, r0, r2         @r
 12673 5e76 C918     		adds r1, r1, r3         @i
 12674 5e78 3618     		adds r6, r6, r0
 12675 5e7a 7F18     		adds r7, r7, r1
 12676              	
 12677 5e7c DD46     		mov sp, r11
 12678 5e7e 0FBC     		pop {r0-r3}
 12679 5e80 EB46     		mov r11, sp
 12680 5e82 D546     		mov sp, r10
 12681 5e84 10BC     		pop {r4}
 12682 5e86 EA46     		mov r10, sp
 12683 5e88 2546     		mov r5, r4
 12684 5e8a 2404     		lsls r4, r4, # 16
 12685 5e8c 240C     		lsrs r4, r4, # 16
 12686 5e8e 2D0C     		lsrs r5, r5, # 16
 12687 5e90 6043     		muls r0, r0, r4
 12688 5e92 6143     		muls r1, r1, r4
 12689 5e94 6A43     		muls r2, r2, r5
 12690 5e96 6B43     		muls r3, r3, r5
 12691 5e98 8011     		asrs r0, r0, # 6
 12692 5e9a 8911     		asrs r1, r1, # 6
 12693 5e9c 9211     		asrs r2, r2, # 6
 12694 5e9e 9B11     		asrs r3, r3, # 6
 12695 5ea0 8018     		adds r0, r0, r2  @r
ARM GAS  1.s 			page 224


 12696 5ea2 C918     		adds r1, r1, r3  @i
 12697 5ea4 3618     		adds r6, r6, r0
 12698 5ea6 7F18     		adds r7, r7, r1
 12699              	
 12700 5ea8 DD46     		mov sp, r11
 12701 5eaa 0FBC     		pop {r0-r3}
 12702 5eac EB46     		mov r11, sp
 12703 5eae D546     		mov sp, r10
 12704 5eb0 10BC     		pop {r4}
 12705 5eb2 EA46     		mov r10, sp
 12706 5eb4 2546     		mov r5, r4
 12707 5eb6 2404     		lsls r4, r4, # 16
 12708 5eb8 240C     		lsrs r4, r4, # 16
 12709 5eba 2D0C     		lsrs r5, r5, # 16
 12710 5ebc 6043     		muls r0, r0, r4
 12711 5ebe 6143     		muls r1, r1, r4
 12712 5ec0 6A43     		muls r2, r2, r5
 12713 5ec2 6B43     		muls r3, r3, r5
 12714 5ec4 8011     		asrs r0, r0, # 6
 12715 5ec6 8911     		asrs r1, r1, # 6
 12716 5ec8 9211     		asrs r2, r2, # 6
 12717 5eca 9B11     		asrs r3, r3, # 6
 12718 5ecc 8018     		adds r0, r0, r2         @r
 12719 5ece C918     		adds r1, r1, r3         @i
 12720 5ed0 3618     		adds r6, r6, r0
 12721 5ed2 7F18     		adds r7, r7, r1
 12722              	
 12723              		@5
 12724              	@	bkpt # 4
 12725 5ed4 5846     		mov r0, r11
 12726 5ed6 7D21     		movs r1, # 125
 12727 5ed8 8901     		lsls r1, r1, # 6
 12728 5eda 401A     		subs r0, r0, r1
 12729 5edc 8346     		mov r11, r0
 12730 5ede DD46     		mov sp, r11
 12731 5ee0 0FBC     		pop {r0-r3}
 12732 5ee2 EB46     		mov r11, sp
 12733 5ee4 D546     		mov sp, r10
 12734 5ee6 10BC     		pop {r4}
 12735 5ee8 EA46     		mov r10, sp
 12736 5eea 2546     		mov r5, r4
 12737 5eec 2404     		lsls r4, r4, # 16
 12738 5eee 240C     		lsrs r4, r4, # 16
 12739 5ef0 2D0C     		lsrs r5, r5, # 16
 12740 5ef2 6043     		muls r0, r0, r4		@R
 12741 5ef4 6143     		muls r1, r1, r4		@I
 12742 5ef6 6A43     		muls r2, r2, r5		@R
 12743 5ef8 6B43     		muls r3, r3, r5		@I
 12744 5efa 8011     		asrs r0, r0, # 6
 12745 5efc 8911     		asrs r1, r1, # 6
 12746 5efe 9211     		asrs r2, r2, # 6
 12747 5f00 9B11     		asrs r3, r3, # 6
 12748 5f02 8018     		adds r0, r0, r2	 @r
 12749 5f04 C918     		adds r1, r1, r3	 @i
 12750 5f06 3618     		adds r6, r6, r0
 12751 5f08 7F18     		adds r7, r7, r1
 12752              	
ARM GAS  1.s 			page 225


 12753 5f0a DD46     		mov sp, r11
 12754 5f0c 0FBC     		pop {r0-r3}
 12755 5f0e EB46     		mov r11, sp
 12756 5f10 D546     		mov sp, r10
 12757 5f12 10BC     		pop {r4}
 12758 5f14 EA46     		mov r10, sp
 12759 5f16 2546     		mov r5, r4
 12760 5f18 2404     		lsls r4, r4, # 16
 12761 5f1a 240C     		lsrs r4, r4, # 16
 12762 5f1c 2D0C     		lsrs r5, r5, # 16
 12763 5f1e 6043     		muls r0, r0, r4
 12764 5f20 6143     		muls r1, r1, r4
 12765 5f22 6A43     		muls r2, r2, r5
 12766 5f24 6B43     		muls r3, r3, r5
 12767 5f26 8011     		asrs r0, r0, # 6
 12768 5f28 8911     		asrs r1, r1, # 6
 12769 5f2a 9211     		asrs r2, r2, # 6
 12770 5f2c 9B11     		asrs r3, r3, # 6
 12771 5f2e 8018     		adds r0, r0, r2         @r
 12772 5f30 C918     		adds r1, r1, r3         @i
 12773 5f32 3618     		adds r6, r6, r0
 12774 5f34 7F18     		adds r7, r7, r1
 12775              	
 12776 5f36 DD46     		mov sp, r11
 12777 5f38 0FBC     		pop {r0-r3}
 12778 5f3a EB46     		mov r11, sp
 12779 5f3c D546     		mov sp, r10
 12780 5f3e 10BC     		pop {r4}
 12781 5f40 EA46     		mov r10, sp
 12782 5f42 2546     		mov r5, r4
 12783 5f44 2404     		lsls r4, r4, # 16
 12784 5f46 240C     		lsrs r4, r4, # 16
 12785 5f48 2D0C     		lsrs r5, r5, # 16
 12786 5f4a 6043     		muls r0, r0, r4
 12787 5f4c 6143     		muls r1, r1, r4
 12788 5f4e 6A43     		muls r2, r2, r5
 12789 5f50 6B43     		muls r3, r3, r5
 12790 5f52 8011     		asrs r0, r0, # 6
 12791 5f54 8911     		asrs r1, r1, # 6
 12792 5f56 9211     		asrs r2, r2, # 6
 12793 5f58 9B11     		asrs r3, r3, # 6
 12794 5f5a 8018     		adds r0, r0, r2  @r
 12795 5f5c C918     		adds r1, r1, r3  @i
 12796 5f5e 3618     		adds r6, r6, r0
 12797 5f60 7F18     		adds r7, r7, r1
 12798              	
 12799 5f62 DD46     		mov sp, r11
 12800 5f64 0FBC     		pop {r0-r3}
 12801 5f66 EB46     		mov r11, sp
 12802 5f68 D546     		mov sp, r10
 12803 5f6a 10BC     		pop {r4}
 12804 5f6c EA46     		mov r10, sp
 12805 5f6e 2546     		mov r5, r4
 12806 5f70 2404     		lsls r4, r4, # 16
 12807 5f72 240C     		lsrs r4, r4, # 16
 12808 5f74 2D0C     		lsrs r5, r5, # 16
 12809 5f76 6043     		muls r0, r0, r4
ARM GAS  1.s 			page 226


 12810 5f78 6143     		muls r1, r1, r4
 12811 5f7a 6A43     		muls r2, r2, r5
 12812 5f7c 6B43     		muls r3, r3, r5
 12813 5f7e 8011     		asrs r0, r0, # 6
 12814 5f80 8911     		asrs r1, r1, # 6
 12815 5f82 9211     		asrs r2, r2, # 6
 12816 5f84 9B11     		asrs r3, r3, # 6
 12817 5f86 8018     		adds r0, r0, r2         @r
 12818 5f88 C918     		adds r1, r1, r3         @i
 12819 5f8a 3618     		adds r6, r6, r0
 12820 5f8c 7F18     		adds r7, r7, r1
 12821              	
 12822              		@6
 12823 5f8e DD46     		mov sp, r11
 12824 5f90 0FBC     		pop {r0-r3}
 12825 5f92 EB46     		mov r11, sp
 12826 5f94 D546     		mov sp, r10
 12827 5f96 10BC     		pop {r4}
 12828 5f98 EA46     		mov r10, sp
 12829 5f9a 2546     		mov r5, r4
 12830 5f9c 2404     		lsls r4, r4, # 16
 12831 5f9e 240C     		lsrs r4, r4, # 16
 12832 5fa0 2D0C     		lsrs r5, r5, # 16
 12833 5fa2 6043     		muls r0, r0, r4		@R
 12834 5fa4 6143     		muls r1, r1, r4		@I
 12835 5fa6 6A43     		muls r2, r2, r5		@R
 12836 5fa8 6B43     		muls r3, r3, r5		@I
 12837 5faa 8011     		asrs r0, r0, # 6
 12838 5fac 8911     		asrs r1, r1, # 6
 12839 5fae 9211     		asrs r2, r2, # 6
 12840 5fb0 9B11     		asrs r3, r3, # 6
 12841 5fb2 8018     		adds r0, r0, r2	 @r
 12842 5fb4 C918     		adds r1, r1, r3	 @i
 12843 5fb6 3618     		adds r6, r6, r0
 12844 5fb8 7F18     		adds r7, r7, r1
 12845              	
 12846 5fba DD46     		mov sp, r11
 12847 5fbc 0FBC     		pop {r0-r3}
 12848 5fbe EB46     		mov r11, sp
 12849 5fc0 D546     		mov sp, r10
 12850 5fc2 10BC     		pop {r4}
 12851 5fc4 EA46     		mov r10, sp
 12852 5fc6 2546     		mov r5, r4
 12853 5fc8 2404     		lsls r4, r4, # 16
 12854 5fca 240C     		lsrs r4, r4, # 16
 12855 5fcc 2D0C     		lsrs r5, r5, # 16
 12856 5fce 6043     		muls r0, r0, r4
 12857 5fd0 6143     		muls r1, r1, r4
 12858 5fd2 6A43     		muls r2, r2, r5
 12859 5fd4 6B43     		muls r3, r3, r5
 12860 5fd6 8011     		asrs r0, r0, # 6
 12861 5fd8 8911     		asrs r1, r1, # 6
 12862 5fda 9211     		asrs r2, r2, # 6
 12863 5fdc 9B11     		asrs r3, r3, # 6
 12864 5fde 8018     		adds r0, r0, r2         @r
 12865 5fe0 C918     		adds r1, r1, r3         @i
 12866 5fe2 3618     		adds r6, r6, r0
ARM GAS  1.s 			page 227


 12867 5fe4 7F18     		adds r7, r7, r1
 12868              	
 12869 5fe6 DD46     		mov sp, r11
 12870 5fe8 0FBC     		pop {r0-r3}
 12871 5fea EB46     		mov r11, sp
 12872 5fec D546     		mov sp, r10
 12873 5fee 10BC     		pop {r4}
 12874 5ff0 EA46     		mov r10, sp
 12875 5ff2 2546     		mov r5, r4
 12876 5ff4 2404     		lsls r4, r4, # 16
 12877 5ff6 240C     		lsrs r4, r4, # 16
 12878 5ff8 2D0C     		lsrs r5, r5, # 16
 12879 5ffa 6043     		muls r0, r0, r4
 12880 5ffc 6143     		muls r1, r1, r4
 12881 5ffe 6A43     		muls r2, r2, r5
 12882 6000 6B43     		muls r3, r3, r5
 12883 6002 8011     		asrs r0, r0, # 6
 12884 6004 8911     		asrs r1, r1, # 6
 12885 6006 9211     		asrs r2, r2, # 6
 12886 6008 9B11     		asrs r3, r3, # 6
 12887 600a 8018     		adds r0, r0, r2  @r
 12888 600c C918     		adds r1, r1, r3  @i
 12889 600e 3618     		adds r6, r6, r0
 12890 6010 7F18     		adds r7, r7, r1
 12891              	
 12892 6012 DD46     		mov sp, r11
 12893 6014 0FBC     		pop {r0-r3}
 12894 6016 EB46     		mov r11, sp
 12895 6018 D546     		mov sp, r10
 12896 601a 10BC     		pop {r4}
 12897 601c EA46     		mov r10, sp
 12898 601e 2546     		mov r5, r4
 12899 6020 2404     		lsls r4, r4, # 16
 12900 6022 240C     		lsrs r4, r4, # 16
 12901 6024 2D0C     		lsrs r5, r5, # 16
 12902 6026 6043     		muls r0, r0, r4
 12903 6028 6143     		muls r1, r1, r4
 12904 602a 6A43     		muls r2, r2, r5
 12905 602c 6B43     		muls r3, r3, r5
 12906 602e 8011     		asrs r0, r0, # 6
 12907 6030 8911     		asrs r1, r1, # 6
 12908 6032 9211     		asrs r2, r2, # 6
 12909 6034 9B11     		asrs r3, r3, # 6
 12910 6036 8018     		adds r0, r0, r2         @r
 12911 6038 C918     		adds r1, r1, r3         @i
 12912 603a 3618     		adds r6, r6, r0
 12913 603c 7F18     		adds r7, r7, r1
 12914              	
 12915              		@7
 12916 603e DD46     		mov sp, r11
 12917 6040 0FBC     		pop {r0-r3}
 12918 6042 EB46     		mov r11, sp
 12919 6044 D546     		mov sp, r10
 12920 6046 10BC     		pop {r4}
 12921 6048 EA46     		mov r10, sp
 12922 604a 2546     		mov r5, r4
 12923 604c 2404     		lsls r4, r4, # 16
ARM GAS  1.s 			page 228


 12924 604e 240C     		lsrs r4, r4, # 16
 12925 6050 2D0C     		lsrs r5, r5, # 16
 12926 6052 6043     		muls r0, r0, r4		@R
 12927 6054 6143     		muls r1, r1, r4		@I
 12928 6056 6A43     		muls r2, r2, r5		@R
 12929 6058 6B43     		muls r3, r3, r5		@I
 12930 605a 8011     		asrs r0, r0, # 6
 12931 605c 8911     		asrs r1, r1, # 6
 12932 605e 9211     		asrs r2, r2, # 6
 12933 6060 9B11     		asrs r3, r3, # 6
 12934 6062 8018     		adds r0, r0, r2	 @r
 12935 6064 C918     		adds r1, r1, r3	 @i
 12936 6066 3618     		adds r6, r6, r0
 12937 6068 7F18     		adds r7, r7, r1
 12938              	
 12939 606a DD46     		mov sp, r11
 12940 606c 0FBC     		pop {r0-r3}
 12941 606e EB46     		mov r11, sp
 12942 6070 D546     		mov sp, r10
 12943 6072 10BC     		pop {r4}
 12944 6074 EA46     		mov r10, sp
 12945 6076 2546     		mov r5, r4
 12946 6078 2404     		lsls r4, r4, # 16
 12947 607a 240C     		lsrs r4, r4, # 16
 12948 607c 2D0C     		lsrs r5, r5, # 16
 12949 607e 6043     		muls r0, r0, r4
 12950 6080 6143     		muls r1, r1, r4
 12951 6082 6A43     		muls r2, r2, r5
 12952 6084 6B43     		muls r3, r3, r5
 12953 6086 8011     		asrs r0, r0, # 6
 12954 6088 8911     		asrs r1, r1, # 6
 12955 608a 9211     		asrs r2, r2, # 6
 12956 608c 9B11     		asrs r3, r3, # 6
 12957 608e 8018     		adds r0, r0, r2         @r
 12958 6090 C918     		adds r1, r1, r3         @i
 12959 6092 3618     		adds r6, r6, r0
 12960 6094 7F18     		adds r7, r7, r1
 12961              	
 12962 6096 DD46     		mov sp, r11
 12963 6098 0FBC     		pop {r0-r3}
 12964 609a EB46     		mov r11, sp
 12965 609c D546     		mov sp, r10
 12966 609e 10BC     		pop {r4}
 12967 60a0 EA46     		mov r10, sp
 12968 60a2 2546     		mov r5, r4
 12969 60a4 2404     		lsls r4, r4, # 16
 12970 60a6 240C     		lsrs r4, r4, # 16
 12971 60a8 2D0C     		lsrs r5, r5, # 16
 12972 60aa 6043     		muls r0, r0, r4
 12973 60ac 6143     		muls r1, r1, r4
 12974 60ae 6A43     		muls r2, r2, r5
 12975 60b0 6B43     		muls r3, r3, r5
 12976 60b2 8011     		asrs r0, r0, # 6
 12977 60b4 8911     		asrs r1, r1, # 6
 12978 60b6 9211     		asrs r2, r2, # 6
 12979 60b8 9B11     		asrs r3, r3, # 6
 12980 60ba 8018     		adds r0, r0, r2  @r
ARM GAS  1.s 			page 229


 12981 60bc C918     		adds r1, r1, r3  @i
 12982 60be 3618     		adds r6, r6, r0
 12983 60c0 7F18     		adds r7, r7, r1
 12984              	
 12985 60c2 DD46     		mov sp, r11
 12986 60c4 0FBC     		pop {r0-r3}
 12987 60c6 EB46     		mov r11, sp
 12988 60c8 D546     		mov sp, r10
 12989 60ca 10BC     		pop {r4}
 12990 60cc EA46     		mov r10, sp
 12991 60ce 2546     		mov r5, r4
 12992 60d0 2404     		lsls r4, r4, # 16
 12993 60d2 240C     		lsrs r4, r4, # 16
 12994 60d4 2D0C     		lsrs r5, r5, # 16
 12995 60d6 6043     		muls r0, r0, r4
 12996 60d8 6143     		muls r1, r1, r4
 12997 60da 6A43     		muls r2, r2, r5
 12998 60dc 6B43     		muls r3, r3, r5
 12999 60de 8011     		asrs r0, r0, # 6
 13000 60e0 8911     		asrs r1, r1, # 6
 13001 60e2 9211     		asrs r2, r2, # 6
 13002 60e4 9B11     		asrs r3, r3, # 6
 13003 60e6 8018     		adds r0, r0, r2         @r
 13004 60e8 C918     		adds r1, r1, r3         @i
 13005 60ea 3618     		adds r6, r6, r0
 13006 60ec 7F18     		adds r7, r7, r1
 13007              	
 13008              		@8
 13009 60ee DD46     		mov sp, r11
 13010 60f0 0FBC     		pop {r0-r3}
 13011 60f2 EB46     		mov r11, sp
 13012 60f4 D546     		mov sp, r10
 13013 60f6 10BC     		pop {r4}
 13014 60f8 EA46     		mov r10, sp
 13015 60fa 2546     		mov r5, r4
 13016 60fc 2404     		lsls r4, r4, # 16
 13017 60fe 240C     		lsrs r4, r4, # 16
 13018 6100 2D0C     		lsrs r5, r5, # 16
 13019 6102 6043     		muls r0, r0, r4		@R
 13020 6104 6143     		muls r1, r1, r4		@I
 13021 6106 6A43     		muls r2, r2, r5		@R
 13022 6108 6B43     		muls r3, r3, r5		@I
 13023 610a 8011     		asrs r0, r0, # 6
 13024 610c 8911     		asrs r1, r1, # 6
 13025 610e 9211     		asrs r2, r2, # 6
 13026 6110 9B11     		asrs r3, r3, # 6
 13027 6112 8018     		adds r0, r0, r2	 @r
 13028 6114 C918     		adds r1, r1, r3	 @i
 13029 6116 3618     		adds r6, r6, r0
 13030 6118 7F18     		adds r7, r7, r1
 13031              	
 13032 611a DD46     		mov sp, r11
 13033 611c 0FBC     		pop {r0-r3}
 13034 611e EB46     		mov r11, sp
 13035 6120 D546     		mov sp, r10
 13036 6122 10BC     		pop {r4}
 13037 6124 EA46     		mov r10, sp
ARM GAS  1.s 			page 230


 13038 6126 2546     		mov r5, r4
 13039 6128 2404     		lsls r4, r4, # 16
 13040 612a 240C     		lsrs r4, r4, # 16
 13041 612c 2D0C     		lsrs r5, r5, # 16
 13042 612e 6043     		muls r0, r0, r4
 13043 6130 6143     		muls r1, r1, r4
 13044 6132 6A43     		muls r2, r2, r5
 13045 6134 6B43     		muls r3, r3, r5
 13046 6136 8011     		asrs r0, r0, # 6
 13047 6138 8911     		asrs r1, r1, # 6
 13048 613a 9211     		asrs r2, r2, # 6
 13049 613c 9B11     		asrs r3, r3, # 6
 13050 613e 8018     		adds r0, r0, r2         @r
 13051 6140 C918     		adds r1, r1, r3         @i
 13052 6142 3618     		adds r6, r6, r0
 13053 6144 7F18     		adds r7, r7, r1
 13054              	
 13055 6146 DD46     		mov sp, r11
 13056 6148 0FBC     		pop {r0-r3}
 13057 614a EB46     		mov r11, sp
 13058 614c D546     		mov sp, r10
 13059 614e 10BC     		pop {r4}
 13060 6150 EA46     		mov r10, sp
 13061 6152 2546     		mov r5, r4
 13062 6154 2404     		lsls r4, r4, # 16
 13063 6156 240C     		lsrs r4, r4, # 16
 13064 6158 2D0C     		lsrs r5, r5, # 16
 13065 615a 6043     		muls r0, r0, r4
 13066 615c 6143     		muls r1, r1, r4
 13067 615e 6A43     		muls r2, r2, r5
 13068 6160 6B43     		muls r3, r3, r5
 13069 6162 8011     		asrs r0, r0, # 6
 13070 6164 8911     		asrs r1, r1, # 6
 13071 6166 9211     		asrs r2, r2, # 6
 13072 6168 9B11     		asrs r3, r3, # 6
 13073 616a 8018     		adds r0, r0, r2  @r
 13074 616c C918     		adds r1, r1, r3  @i
 13075 616e 3618     		adds r6, r6, r0
 13076 6170 7F18     		adds r7, r7, r1
 13077              	
 13078 6172 DD46     		mov sp, r11
 13079 6174 0FBC     		pop {r0-r3}
 13080 6176 EB46     		mov r11, sp
 13081 6178 D546     		mov sp, r10
 13082 617a 10BC     		pop {r4}
 13083 617c EA46     		mov r10, sp
 13084 617e 2546     		mov r5, r4
 13085 6180 2404     		lsls r4, r4, # 16
 13086 6182 240C     		lsrs r4, r4, # 16
 13087 6184 2D0C     		lsrs r5, r5, # 16
 13088 6186 6043     		muls r0, r0, r4
 13089 6188 6143     		muls r1, r1, r4
 13090 618a 6A43     		muls r2, r2, r5
 13091 618c 6B43     		muls r3, r3, r5
 13092 618e 8011     		asrs r0, r0, # 6
 13093 6190 8911     		asrs r1, r1, # 6
 13094 6192 9211     		asrs r2, r2, # 6
ARM GAS  1.s 			page 231


 13095 6194 9B11     		asrs r3, r3, # 6
 13096 6196 8018     		adds r0, r0, r2         @r
 13097 6198 C918     		adds r1, r1, r3         @i
 13098 619a 3618     		adds r6, r6, r0
 13099 619c 7F18     		adds r7, r7, r1
 13100              	
 13101              		@9
 13102 619e DD46     		mov sp, r11
 13103 61a0 0FBC     		pop {r0-r3}
 13104 61a2 EB46     		mov r11, sp
 13105 61a4 D546     		mov sp, r10
 13106 61a6 10BC     		pop {r4}
 13107 61a8 EA46     		mov r10, sp
 13108 61aa 2546     		mov r5, r4
 13109 61ac 2404     		lsls r4, r4, # 16
 13110 61ae 240C     		lsrs r4, r4, # 16
 13111 61b0 2D0C     		lsrs r5, r5, # 16
 13112 61b2 6043     		muls r0, r0, r4		@R
 13113 61b4 6143     		muls r1, r1, r4		@I
 13114 61b6 6A43     		muls r2, r2, r5		@R
 13115 61b8 6B43     		muls r3, r3, r5		@I
 13116 61ba 8011     		asrs r0, r0, # 6
 13117 61bc 8911     		asrs r1, r1, # 6
 13118 61be 9211     		asrs r2, r2, # 6
 13119 61c0 9B11     		asrs r3, r3, # 6
 13120 61c2 8018     		adds r0, r0, r2	 @r
 13121 61c4 C918     		adds r1, r1, r3	 @i
 13122 61c6 3618     		adds r6, r6, r0
 13123 61c8 7F18     		adds r7, r7, r1
 13124              	
 13125 61ca DD46     		mov sp, r11
 13126 61cc 0FBC     		pop {r0-r3}
 13127 61ce EB46     		mov r11, sp
 13128 61d0 D546     		mov sp, r10
 13129 61d2 10BC     		pop {r4}
 13130 61d4 EA46     		mov r10, sp
 13131 61d6 2546     		mov r5, r4
 13132 61d8 2404     		lsls r4, r4, # 16
 13133 61da 240C     		lsrs r4, r4, # 16
 13134 61dc 2D0C     		lsrs r5, r5, # 16
 13135 61de 6043     		muls r0, r0, r4
 13136 61e0 6143     		muls r1, r1, r4
 13137 61e2 6A43     		muls r2, r2, r5
 13138 61e4 6B43     		muls r3, r3, r5
 13139 61e6 8011     		asrs r0, r0, # 6
 13140 61e8 8911     		asrs r1, r1, # 6
 13141 61ea 9211     		asrs r2, r2, # 6
 13142 61ec 9B11     		asrs r3, r3, # 6
 13143 61ee 8018     		adds r0, r0, r2         @r
 13144 61f0 C918     		adds r1, r1, r3         @i
 13145 61f2 3618     		adds r6, r6, r0
 13146 61f4 7F18     		adds r7, r7, r1
 13147              	
 13148 61f6 DD46     		mov sp, r11
 13149 61f8 0FBC     		pop {r0-r3}
 13150 61fa EB46     		mov r11, sp
 13151 61fc D546     		mov sp, r10
ARM GAS  1.s 			page 232


 13152 61fe 10BC     		pop {r4}
 13153 6200 EA46     		mov r10, sp
 13154 6202 2546     		mov r5, r4
 13155 6204 2404     		lsls r4, r4, # 16
 13156 6206 240C     		lsrs r4, r4, # 16
 13157 6208 2D0C     		lsrs r5, r5, # 16
 13158 620a 6043     		muls r0, r0, r4
 13159 620c 6143     		muls r1, r1, r4
 13160 620e 6A43     		muls r2, r2, r5
 13161 6210 6B43     		muls r3, r3, r5
 13162 6212 8011     		asrs r0, r0, # 6
 13163 6214 8911     		asrs r1, r1, # 6
 13164 6216 9211     		asrs r2, r2, # 6
 13165 6218 9B11     		asrs r3, r3, # 6
 13166 621a 8018     		adds r0, r0, r2  @r
 13167 621c C918     		adds r1, r1, r3  @i
 13168 621e 3618     		adds r6, r6, r0
 13169 6220 7F18     		adds r7, r7, r1
 13170              	
 13171 6222 DD46     		mov sp, r11
 13172 6224 0FBC     		pop {r0-r3}
 13173 6226 EB46     		mov r11, sp
 13174 6228 D546     		mov sp, r10
 13175 622a 10BC     		pop {r4}
 13176 622c EA46     		mov r10, sp
 13177 622e 2546     		mov r5, r4
 13178 6230 2404     		lsls r4, r4, # 16
 13179 6232 240C     		lsrs r4, r4, # 16
 13180 6234 2D0C     		lsrs r5, r5, # 16
 13181 6236 6043     		muls r0, r0, r4
 13182 6238 6143     		muls r1, r1, r4
 13183 623a 6A43     		muls r2, r2, r5
 13184 623c 6B43     		muls r3, r3, r5
 13185 623e 8011     		asrs r0, r0, # 6
 13186 6240 8911     		asrs r1, r1, # 6
 13187 6242 9211     		asrs r2, r2, # 6
 13188 6244 9B11     		asrs r3, r3, # 6
 13189 6246 8018     		adds r0, r0, r2         @r
 13190 6248 C918     		adds r1, r1, r3         @i
 13191 624a 3618     		adds r6, r6, r0
 13192 624c 7F18     		adds r7, r7, r1
 13193              	
 13194              		@yjm13
 13195              		@0
 13196 624e DD46     		mov sp, r11
 13197 6250 0FBC     		pop {r0-r3}
 13198 6252 EB46     		mov r11, sp
 13199 6254 D546     		mov sp, r10
 13200 6256 10BC     		pop {r4}
 13201 6258 EA46     		mov r10, sp
 13202 625a 2546     		mov r5, r4
 13203 625c 2404     		lsls r4, r4, # 16
 13204 625e 240C     		lsrs r4, r4, # 16
 13205 6260 2D0C     		lsrs r5, r5, # 16
 13206 6262 6043     		muls r0, r0, r4		@R
 13207 6264 6143     		muls r1, r1, r4		@I
 13208 6266 6A43     		muls r2, r2, r5		@R
ARM GAS  1.s 			page 233


 13209 6268 6B43     		muls r3, r3, r5		@I
 13210 626a 8011     		asrs r0, r0, # 6
 13211 626c 8911     		asrs r1, r1, # 6
 13212 626e 9211     		asrs r2, r2, # 6
 13213 6270 9B11     		asrs r3, r3, # 6
 13214 6272 8018     		adds r0, r0, r2	 @r
 13215 6274 C918     		adds r1, r1, r3	 @i
 13216 6276 3618     		adds r6, r6, r0
 13217 6278 7F18     		adds r7, r7, r1
 13218              	
 13219 627a DD46     		mov sp, r11
 13220 627c 0FBC     		pop {r0-r3}
 13221 627e EB46     		mov r11, sp
 13222 6280 D546     		mov sp, r10
 13223 6282 10BC     		pop {r4}
 13224 6284 EA46     		mov r10, sp
 13225 6286 2546     		mov r5, r4
 13226 6288 2404     		lsls r4, r4, # 16
 13227 628a 240C     		lsrs r4, r4, # 16
 13228 628c 2D0C     		lsrs r5, r5, # 16
 13229 628e 6043     		muls r0, r0, r4
 13230 6290 6143     		muls r1, r1, r4
 13231 6292 6A43     		muls r2, r2, r5
 13232 6294 6B43     		muls r3, r3, r5
 13233 6296 8011     		asrs r0, r0, # 6
 13234 6298 8911     		asrs r1, r1, # 6
 13235 629a 9211     		asrs r2, r2, # 6
 13236 629c 9B11     		asrs r3, r3, # 6
 13237 629e 8018     		adds r0, r0, r2         @r
 13238 62a0 C918     		adds r1, r1, r3         @i
 13239 62a2 3618     		adds r6, r6, r0
 13240 62a4 7F18     		adds r7, r7, r1
 13241              	
 13242 62a6 DD46     		mov sp, r11
 13243 62a8 0FBC     		pop {r0-r3}
 13244 62aa EB46     		mov r11, sp
 13245 62ac D546     		mov sp, r10
 13246 62ae 10BC     		pop {r4}
 13247 62b0 EA46     		mov r10, sp
 13248 62b2 2546     		mov r5, r4
 13249 62b4 2404     		lsls r4, r4, # 16
 13250 62b6 240C     		lsrs r4, r4, # 16
 13251 62b8 2D0C     		lsrs r5, r5, # 16
 13252 62ba 6043     		muls r0, r0, r4
 13253 62bc 6143     		muls r1, r1, r4
 13254 62be 6A43     		muls r2, r2, r5
 13255 62c0 6B43     		muls r3, r3, r5
 13256 62c2 8011     		asrs r0, r0, # 6
 13257 62c4 8911     		asrs r1, r1, # 6
 13258 62c6 9211     		asrs r2, r2, # 6
 13259 62c8 9B11     		asrs r3, r3, # 6
 13260 62ca 8018     		adds r0, r0, r2  @r
 13261 62cc C918     		adds r1, r1, r3  @i
 13262 62ce 3618     		adds r6, r6, r0
 13263 62d0 7F18     		adds r7, r7, r1
 13264              	
 13265 62d2 DD46     		mov sp, r11
ARM GAS  1.s 			page 234


 13266 62d4 0FBC     		pop {r0-r3}
 13267 62d6 EB46     		mov r11, sp
 13268 62d8 D546     		mov sp, r10
 13269 62da 10BC     		pop {r4}
 13270 62dc EA46     		mov r10, sp
 13271 62de 2546     		mov r5, r4
 13272 62e0 2404     		lsls r4, r4, # 16
 13273 62e2 240C     		lsrs r4, r4, # 16
 13274 62e4 2D0C     		lsrs r5, r5, # 16
 13275 62e6 6043     		muls r0, r0, r4
 13276 62e8 6143     		muls r1, r1, r4
 13277 62ea 6A43     		muls r2, r2, r5
 13278 62ec 6B43     		muls r3, r3, r5
 13279 62ee 8011     		asrs r0, r0, # 6
 13280 62f0 8911     		asrs r1, r1, # 6
 13281 62f2 9211     		asrs r2, r2, # 6
 13282 62f4 9B11     		asrs r3, r3, # 6
 13283 62f6 8018     		adds r0, r0, r2         @r
 13284 62f8 C918     		adds r1, r1, r3         @i
 13285 62fa 3618     		adds r6, r6, r0
 13286 62fc 7F18     		adds r7, r7, r1
 13287              	
 13288              		@1
 13289 62fe DD46     		mov sp, r11
 13290 6300 0FBC     		pop {r0-r3}
 13291 6302 EB46     		mov r11, sp
 13292 6304 D546     		mov sp, r10
 13293 6306 10BC     		pop {r4}
 13294 6308 EA46     		mov r10, sp
 13295 630a 2546     		mov r5, r4
 13296 630c 2404     		lsls r4, r4, # 16
 13297 630e 240C     		lsrs r4, r4, # 16
 13298 6310 2D0C     		lsrs r5, r5, # 16
 13299 6312 6043     		muls r0, r0, r4		@R
 13300 6314 6143     		muls r1, r1, r4		@I
 13301 6316 6A43     		muls r2, r2, r5		@R
 13302 6318 6B43     		muls r3, r3, r5		@I
 13303 631a 8011     		asrs r0, r0, # 6
 13304 631c 8911     		asrs r1, r1, # 6
 13305 631e 9211     		asrs r2, r2, # 6
 13306 6320 9B11     		asrs r3, r3, # 6
 13307 6322 8018     		adds r0, r0, r2	 @r
 13308 6324 C918     		adds r1, r1, r3	 @i
 13309 6326 3618     		adds r6, r6, r0
 13310 6328 7F18     		adds r7, r7, r1
 13311              	
 13312 632a DD46     		mov sp, r11
 13313 632c 0FBC     		pop {r0-r3}
 13314 632e EB46     		mov r11, sp
 13315 6330 D546     		mov sp, r10
 13316 6332 10BC     		pop {r4}
 13317 6334 EA46     		mov r10, sp
 13318 6336 2546     		mov r5, r4
 13319 6338 2404     		lsls r4, r4, # 16
 13320 633a 240C     		lsrs r4, r4, # 16
 13321 633c 2D0C     		lsrs r5, r5, # 16
 13322 633e 6043     		muls r0, r0, r4
ARM GAS  1.s 			page 235


 13323 6340 6143     		muls r1, r1, r4
 13324 6342 6A43     		muls r2, r2, r5
 13325 6344 6B43     		muls r3, r3, r5
 13326 6346 8011     		asrs r0, r0, # 6
 13327 6348 8911     		asrs r1, r1, # 6
 13328 634a 9211     		asrs r2, r2, # 6
 13329 634c 9B11     		asrs r3, r3, # 6
 13330 634e 8018     		adds r0, r0, r2         @r
 13331 6350 C918     		adds r1, r1, r3         @i
 13332 6352 3618     		adds r6, r6, r0
 13333 6354 7F18     		adds r7, r7, r1
 13334              	
 13335 6356 DD46     		mov sp, r11
 13336 6358 0FBC     		pop {r0-r3}
 13337 635a EB46     		mov r11, sp
 13338 635c D546     		mov sp, r10
 13339 635e 10BC     		pop {r4}
 13340 6360 EA46     		mov r10, sp
 13341 6362 2546     		mov r5, r4
 13342 6364 2404     		lsls r4, r4, # 16
 13343 6366 240C     		lsrs r4, r4, # 16
 13344 6368 2D0C     		lsrs r5, r5, # 16
 13345 636a 6043     		muls r0, r0, r4
 13346 636c 6143     		muls r1, r1, r4
 13347 636e 6A43     		muls r2, r2, r5
 13348 6370 6B43     		muls r3, r3, r5
 13349 6372 8011     		asrs r0, r0, # 6
 13350 6374 8911     		asrs r1, r1, # 6
 13351 6376 9211     		asrs r2, r2, # 6
 13352 6378 9B11     		asrs r3, r3, # 6
 13353 637a 8018     		adds r0, r0, r2  @r
 13354 637c C918     		adds r1, r1, r3  @i
 13355 637e 3618     		adds r6, r6, r0
 13356 6380 7F18     		adds r7, r7, r1
 13357              	
 13358 6382 DD46     		mov sp, r11
 13359 6384 0FBC     		pop {r0-r3}
 13360 6386 EB46     		mov r11, sp
 13361 6388 D546     		mov sp, r10
 13362 638a 10BC     		pop {r4}
 13363 638c EA46     		mov r10, sp
 13364 638e 2546     		mov r5, r4
 13365 6390 2404     		lsls r4, r4, # 16
 13366 6392 240C     		lsrs r4, r4, # 16
 13367 6394 2D0C     		lsrs r5, r5, # 16
 13368 6396 6043     		muls r0, r0, r4
 13369 6398 6143     		muls r1, r1, r4
 13370 639a 6A43     		muls r2, r2, r5
 13371 639c 6B43     		muls r3, r3, r5
 13372 639e 8011     		asrs r0, r0, # 6
 13373 63a0 8911     		asrs r1, r1, # 6
 13374 63a2 9211     		asrs r2, r2, # 6
 13375 63a4 9B11     		asrs r3, r3, # 6
 13376 63a6 8018     		adds r0, r0, r2         @r
 13377 63a8 C918     		adds r1, r1, r3         @i
 13378 63aa 3618     		adds r6, r6, r0
 13379 63ac 7F18     		adds r7, r7, r1
ARM GAS  1.s 			page 236


 13380              	
 13381              		@2
 13382 63ae DD46     		mov sp, r11
 13383 63b0 0FBC     		pop {r0-r3}
 13384 63b2 EB46     		mov r11, sp
 13385 63b4 D546     		mov sp, r10
 13386 63b6 10BC     		pop {r4}
 13387 63b8 EA46     		mov r10, sp
 13388 63ba 2546     		mov r5, r4
 13389 63bc 2404     		lsls r4, r4, # 16
 13390 63be 240C     		lsrs r4, r4, # 16
 13391 63c0 2D0C     		lsrs r5, r5, # 16
 13392 63c2 6043     		muls r0, r0, r4		@R
 13393 63c4 6143     		muls r1, r1, r4		@I
 13394 63c6 6A43     		muls r2, r2, r5		@R
 13395 63c8 6B43     		muls r3, r3, r5		@I
 13396 63ca 8011     		asrs r0, r0, # 6
 13397 63cc 8911     		asrs r1, r1, # 6
 13398 63ce 9211     		asrs r2, r2, # 6
 13399 63d0 9B11     		asrs r3, r3, # 6
 13400 63d2 8018     		adds r0, r0, r2	 @r
 13401 63d4 C918     		adds r1, r1, r3	 @i
 13402 63d6 3618     		adds r6, r6, r0
 13403 63d8 7F18     		adds r7, r7, r1
 13404              	
 13405 63da DD46     		mov sp, r11
 13406 63dc 0FBC     		pop {r0-r3}
 13407 63de EB46     		mov r11, sp
 13408 63e0 D546     		mov sp, r10
 13409 63e2 10BC     		pop {r4}
 13410 63e4 EA46     		mov r10, sp
 13411 63e6 2546     		mov r5, r4
 13412 63e8 2404     		lsls r4, r4, # 16
 13413 63ea 240C     		lsrs r4, r4, # 16
 13414 63ec 2D0C     		lsrs r5, r5, # 16
 13415 63ee 6043     		muls r0, r0, r4
 13416 63f0 6143     		muls r1, r1, r4
 13417 63f2 6A43     		muls r2, r2, r5
 13418 63f4 6B43     		muls r3, r3, r5
 13419 63f6 8011     		asrs r0, r0, # 6
 13420 63f8 8911     		asrs r1, r1, # 6
 13421 63fa 9211     		asrs r2, r2, # 6
 13422 63fc 9B11     		asrs r3, r3, # 6
 13423 63fe 8018     		adds r0, r0, r2         @r
 13424 6400 C918     		adds r1, r1, r3         @i
 13425 6402 3618     		adds r6, r6, r0
 13426 6404 7F18     		adds r7, r7, r1
 13427              	
 13428 6406 DD46     		mov sp, r11
 13429 6408 0FBC     		pop {r0-r3}
 13430 640a EB46     		mov r11, sp
 13431 640c D546     		mov sp, r10
 13432 640e 10BC     		pop {r4}
 13433 6410 EA46     		mov r10, sp
 13434 6412 2546     		mov r5, r4
 13435 6414 2404     		lsls r4, r4, # 16
 13436 6416 240C     		lsrs r4, r4, # 16
ARM GAS  1.s 			page 237


 13437 6418 2D0C     		lsrs r5, r5, # 16
 13438 641a 6043     		muls r0, r0, r4
 13439 641c 6143     		muls r1, r1, r4
 13440 641e 6A43     		muls r2, r2, r5
 13441 6420 6B43     		muls r3, r3, r5
 13442 6422 8011     		asrs r0, r0, # 6
 13443 6424 8911     		asrs r1, r1, # 6
 13444 6426 9211     		asrs r2, r2, # 6
 13445 6428 9B11     		asrs r3, r3, # 6
 13446 642a 8018     		adds r0, r0, r2  @r
 13447 642c C918     		adds r1, r1, r3  @i
 13448 642e 3618     		adds r6, r6, r0
 13449 6430 7F18     		adds r7, r7, r1
 13450              	
 13451 6432 DD46     		mov sp, r11
 13452 6434 0FBC     		pop {r0-r3}
 13453 6436 EB46     		mov r11, sp
 13454 6438 D546     		mov sp, r10
 13455 643a 10BC     		pop {r4}
 13456 643c EA46     		mov r10, sp
 13457 643e 2546     		mov r5, r4
 13458 6440 2404     		lsls r4, r4, # 16
 13459 6442 240C     		lsrs r4, r4, # 16
 13460 6444 2D0C     		lsrs r5, r5, # 16
 13461 6446 6043     		muls r0, r0, r4
 13462 6448 6143     		muls r1, r1, r4
 13463 644a 6A43     		muls r2, r2, r5
 13464 644c 6B43     		muls r3, r3, r5
 13465 644e 8011     		asrs r0, r0, # 6
 13466 6450 8911     		asrs r1, r1, # 6
 13467 6452 9211     		asrs r2, r2, # 6
 13468 6454 9B11     		asrs r3, r3, # 6
 13469 6456 8018     		adds r0, r0, r2         @r
 13470 6458 C918     		adds r1, r1, r3         @i
 13471 645a 3618     		adds r6, r6, r0
 13472 645c 7F18     		adds r7, r7, r1
 13473              	
 13474              		@3
 13475 645e DD46     		mov sp, r11
 13476 6460 0FBC     		pop {r0-r3}
 13477 6462 EB46     		mov r11, sp
 13478 6464 D546     		mov sp, r10
 13479 6466 10BC     		pop {r4}
 13480 6468 EA46     		mov r10, sp
 13481 646a 2546     		mov r5, r4
 13482 646c 2404     		lsls r4, r4, # 16
 13483 646e 240C     		lsrs r4, r4, # 16
 13484 6470 2D0C     		lsrs r5, r5, # 16
 13485 6472 6043     		muls r0, r0, r4		@R
 13486 6474 6143     		muls r1, r1, r4		@I
 13487 6476 6A43     		muls r2, r2, r5		@R
 13488 6478 6B43     		muls r3, r3, r5		@I
 13489 647a 8011     		asrs r0, r0, # 6
 13490 647c 8911     		asrs r1, r1, # 6
 13491 647e 9211     		asrs r2, r2, # 6
 13492 6480 9B11     		asrs r3, r3, # 6
 13493 6482 8018     		adds r0, r0, r2	 @r
ARM GAS  1.s 			page 238


 13494 6484 C918     		adds r1, r1, r3	 @i
 13495 6486 3618     		adds r6, r6, r0
 13496 6488 7F18     		adds r7, r7, r1
 13497              	
 13498 648a DD46     		mov sp, r11
 13499 648c 0FBC     		pop {r0-r3}
 13500 648e EB46     		mov r11, sp
 13501 6490 D546     		mov sp, r10
 13502 6492 10BC     		pop {r4}
 13503 6494 EA46     		mov r10, sp
 13504 6496 2546     		mov r5, r4
 13505 6498 2404     		lsls r4, r4, # 16
 13506 649a 240C     		lsrs r4, r4, # 16
 13507 649c 2D0C     		lsrs r5, r5, # 16
 13508 649e 6043     		muls r0, r0, r4
 13509 64a0 6143     		muls r1, r1, r4
 13510 64a2 6A43     		muls r2, r2, r5
 13511 64a4 6B43     		muls r3, r3, r5
 13512 64a6 8011     		asrs r0, r0, # 6
 13513 64a8 8911     		asrs r1, r1, # 6
 13514 64aa 9211     		asrs r2, r2, # 6
 13515 64ac 9B11     		asrs r3, r3, # 6
 13516 64ae 8018     		adds r0, r0, r2         @r
 13517 64b0 C918     		adds r1, r1, r3         @i
 13518 64b2 3618     		adds r6, r6, r0
 13519 64b4 7F18     		adds r7, r7, r1
 13520              	
 13521 64b6 DD46     		mov sp, r11
 13522 64b8 0FBC     		pop {r0-r3}
 13523 64ba EB46     		mov r11, sp
 13524 64bc D546     		mov sp, r10
 13525 64be 10BC     		pop {r4}
 13526 64c0 EA46     		mov r10, sp
 13527 64c2 2546     		mov r5, r4
 13528 64c4 2404     		lsls r4, r4, # 16
 13529 64c6 240C     		lsrs r4, r4, # 16
 13530 64c8 2D0C     		lsrs r5, r5, # 16
 13531 64ca 6043     		muls r0, r0, r4
 13532 64cc 6143     		muls r1, r1, r4
 13533 64ce 6A43     		muls r2, r2, r5
 13534 64d0 6B43     		muls r3, r3, r5
 13535 64d2 8011     		asrs r0, r0, # 6
 13536 64d4 8911     		asrs r1, r1, # 6
 13537 64d6 9211     		asrs r2, r2, # 6
 13538 64d8 9B11     		asrs r3, r3, # 6
 13539 64da 8018     		adds r0, r0, r2  @r
 13540 64dc C918     		adds r1, r1, r3  @i
 13541 64de 3618     		adds r6, r6, r0
 13542 64e0 7F18     		adds r7, r7, r1
 13543              	
 13544 64e2 DD46     		mov sp, r11
 13545 64e4 0FBC     		pop {r0-r3}
 13546 64e6 EB46     		mov r11, sp
 13547 64e8 D546     		mov sp, r10
 13548 64ea 10BC     		pop {r4}
 13549 64ec EA46     		mov r10, sp
 13550 64ee 2546     		mov r5, r4
ARM GAS  1.s 			page 239


 13551 64f0 2404     		lsls r4, r4, # 16
 13552 64f2 240C     		lsrs r4, r4, # 16
 13553 64f4 2D0C     		lsrs r5, r5, # 16
 13554 64f6 6043     		muls r0, r0, r4
 13555 64f8 6143     		muls r1, r1, r4
 13556 64fa 6A43     		muls r2, r2, r5
 13557 64fc 6B43     		muls r3, r3, r5
 13558 64fe 8011     		asrs r0, r0, # 6
 13559 6500 8911     		asrs r1, r1, # 6
 13560 6502 9211     		asrs r2, r2, # 6
 13561 6504 9B11     		asrs r3, r3, # 6
 13562 6506 8018     		adds r0, r0, r2         @r
 13563 6508 C918     		adds r1, r1, r3         @i
 13564 650a 3618     		adds r6, r6, r0
 13565 650c 7F18     		adds r7, r7, r1
 13566              	
 13567              		@4
 13568 650e DD46     		mov sp, r11
 13569 6510 0FBC     		pop {r0-r3}
 13570 6512 EB46     		mov r11, sp
 13571 6514 D546     		mov sp, r10
 13572 6516 10BC     		pop {r4}
 13573 6518 EA46     		mov r10, sp
 13574 651a 2546     		mov r5, r4
 13575 651c 2404     		lsls r4, r4, # 16
 13576 651e 240C     		lsrs r4, r4, # 16
 13577 6520 2D0C     		lsrs r5, r5, # 16
 13578 6522 6043     		muls r0, r0, r4		@R
 13579 6524 6143     		muls r1, r1, r4		@I
 13580 6526 6A43     		muls r2, r2, r5		@R
 13581 6528 6B43     		muls r3, r3, r5		@I
 13582 652a 8011     		asrs r0, r0, # 6
 13583 652c 8911     		asrs r1, r1, # 6
 13584 652e 9211     		asrs r2, r2, # 6
 13585 6530 9B11     		asrs r3, r3, # 6
 13586 6532 8018     		adds r0, r0, r2	 @r
 13587 6534 C918     		adds r1, r1, r3	 @i
 13588 6536 3618     		adds r6, r6, r0
 13589 6538 7F18     		adds r7, r7, r1
 13590              	
 13591 653a DD46     		mov sp, r11
 13592 653c 0FBC     		pop {r0-r3}
 13593 653e EB46     		mov r11, sp
 13594 6540 D546     		mov sp, r10
 13595 6542 10BC     		pop {r4}
 13596 6544 EA46     		mov r10, sp
 13597 6546 2546     		mov r5, r4
 13598 6548 2404     		lsls r4, r4, # 16
 13599 654a 240C     		lsrs r4, r4, # 16
 13600 654c 2D0C     		lsrs r5, r5, # 16
 13601 654e 6043     		muls r0, r0, r4
 13602 6550 6143     		muls r1, r1, r4
 13603 6552 6A43     		muls r2, r2, r5
 13604 6554 6B43     		muls r3, r3, r5
 13605 6556 8011     		asrs r0, r0, # 6
 13606 6558 8911     		asrs r1, r1, # 6
 13607 655a 9211     		asrs r2, r2, # 6
ARM GAS  1.s 			page 240


 13608 655c 9B11     		asrs r3, r3, # 6
 13609 655e 8018     		adds r0, r0, r2         @r
 13610 6560 C918     		adds r1, r1, r3         @i
 13611 6562 3618     		adds r6, r6, r0
 13612 6564 7F18     		adds r7, r7, r1
 13613              	
 13614 6566 DD46     		mov sp, r11
 13615 6568 0FBC     		pop {r0-r3}
 13616 656a EB46     		mov r11, sp
 13617 656c D546     		mov sp, r10
 13618 656e 10BC     		pop {r4}
 13619 6570 EA46     		mov r10, sp
 13620 6572 2546     		mov r5, r4
 13621 6574 2404     		lsls r4, r4, # 16
 13622 6576 240C     		lsrs r4, r4, # 16
 13623 6578 2D0C     		lsrs r5, r5, # 16
 13624 657a 6043     		muls r0, r0, r4
 13625 657c 6143     		muls r1, r1, r4
 13626 657e 6A43     		muls r2, r2, r5
 13627 6580 6B43     		muls r3, r3, r5
 13628 6582 8011     		asrs r0, r0, # 6
 13629 6584 8911     		asrs r1, r1, # 6
 13630 6586 9211     		asrs r2, r2, # 6
 13631 6588 9B11     		asrs r3, r3, # 6
 13632 658a 8018     		adds r0, r0, r2  @r
 13633 658c C918     		adds r1, r1, r3  @i
 13634 658e 3618     		adds r6, r6, r0
 13635 6590 7F18     		adds r7, r7, r1
 13636              	
 13637 6592 DD46     		mov sp, r11
 13638 6594 0FBC     		pop {r0-r3}
 13639 6596 EB46     		mov r11, sp
 13640 6598 D546     		mov sp, r10
 13641 659a 10BC     		pop {r4}
 13642 659c EA46     		mov r10, sp
 13643 659e 2546     		mov r5, r4
 13644 65a0 2404     		lsls r4, r4, # 16
 13645 65a2 240C     		lsrs r4, r4, # 16
 13646 65a4 2D0C     		lsrs r5, r5, # 16
 13647 65a6 6043     		muls r0, r0, r4
 13648 65a8 6143     		muls r1, r1, r4
 13649 65aa 6A43     		muls r2, r2, r5
 13650 65ac 6B43     		muls r3, r3, r5
 13651 65ae 8011     		asrs r0, r0, # 6
 13652 65b0 8911     		asrs r1, r1, # 6
 13653 65b2 9211     		asrs r2, r2, # 6
 13654 65b4 9B11     		asrs r3, r3, # 6
 13655 65b6 8018     		adds r0, r0, r2         @r
 13656 65b8 C918     		adds r1, r1, r3         @i
 13657 65ba 3618     		adds r6, r6, r0
 13658 65bc 7F18     		adds r7, r7, r1
 13659              	
 13660              		@5
 13661 65be DD46     		mov sp, r11
 13662 65c0 0FBC     		pop {r0-r3}
 13663 65c2 EB46     		mov r11, sp
 13664 65c4 D546     		mov sp, r10
ARM GAS  1.s 			page 241


 13665 65c6 10BC     		pop {r4}
 13666 65c8 EA46     		mov r10, sp
 13667 65ca 2546     		mov r5, r4
 13668 65cc 2404     		lsls r4, r4, # 16
 13669 65ce 240C     		lsrs r4, r4, # 16
 13670 65d0 2D0C     		lsrs r5, r5, # 16
 13671 65d2 6043     		muls r0, r0, r4		@R
 13672 65d4 6143     		muls r1, r1, r4		@I
 13673 65d6 6A43     		muls r2, r2, r5		@R
 13674 65d8 6B43     		muls r3, r3, r5		@I
 13675 65da 8011     		asrs r0, r0, # 6
 13676 65dc 8911     		asrs r1, r1, # 6
 13677 65de 9211     		asrs r2, r2, # 6
 13678 65e0 9B11     		asrs r3, r3, # 6
 13679 65e2 8018     		adds r0, r0, r2	 @r
 13680 65e4 C918     		adds r1, r1, r3	 @i
 13681 65e6 3618     		adds r6, r6, r0
 13682 65e8 7F18     		adds r7, r7, r1
 13683              	
 13684 65ea DD46     		mov sp, r11
 13685 65ec 0FBC     		pop {r0-r3}
 13686 65ee EB46     		mov r11, sp
 13687 65f0 D546     		mov sp, r10
 13688 65f2 10BC     		pop {r4}
 13689 65f4 EA46     		mov r10, sp
 13690 65f6 2546     		mov r5, r4
 13691 65f8 2404     		lsls r4, r4, # 16
 13692 65fa 240C     		lsrs r4, r4, # 16
 13693 65fc 2D0C     		lsrs r5, r5, # 16
 13694 65fe 6043     		muls r0, r0, r4
 13695 6600 6143     		muls r1, r1, r4
 13696 6602 6A43     		muls r2, r2, r5
 13697 6604 6B43     		muls r3, r3, r5
 13698 6606 8011     		asrs r0, r0, # 6
 13699 6608 8911     		asrs r1, r1, # 6
 13700 660a 9211     		asrs r2, r2, # 6
 13701 660c 9B11     		asrs r3, r3, # 6
 13702 660e 8018     		adds r0, r0, r2         @r
 13703 6610 C918     		adds r1, r1, r3         @i
 13704 6612 3618     		adds r6, r6, r0
 13705 6614 7F18     		adds r7, r7, r1
 13706              	
 13707 6616 DD46     		mov sp, r11
 13708 6618 0FBC     		pop {r0-r3}
 13709 661a EB46     		mov r11, sp
 13710 661c D546     		mov sp, r10
 13711 661e 10BC     		pop {r4}
 13712 6620 EA46     		mov r10, sp
 13713 6622 2546     		mov r5, r4
 13714 6624 2404     		lsls r4, r4, # 16
 13715 6626 240C     		lsrs r4, r4, # 16
 13716 6628 2D0C     		lsrs r5, r5, # 16
 13717 662a 6043     		muls r0, r0, r4
 13718 662c 6143     		muls r1, r1, r4
 13719 662e 6A43     		muls r2, r2, r5
 13720 6630 6B43     		muls r3, r3, r5
 13721 6632 8011     		asrs r0, r0, # 6
ARM GAS  1.s 			page 242


 13722 6634 8911     		asrs r1, r1, # 6
 13723 6636 9211     		asrs r2, r2, # 6
 13724 6638 9B11     		asrs r3, r3, # 6
 13725 663a 8018     		adds r0, r0, r2  @r
 13726 663c C918     		adds r1, r1, r3  @i
 13727 663e 3618     		adds r6, r6, r0
 13728 6640 7F18     		adds r7, r7, r1
 13729              	
 13730 6642 DD46     		mov sp, r11
 13731 6644 0FBC     		pop {r0-r3}
 13732 6646 EB46     		mov r11, sp
 13733 6648 D546     		mov sp, r10
 13734 664a 10BC     		pop {r4}
 13735 664c EA46     		mov r10, sp
 13736 664e 2546     		mov r5, r4
 13737 6650 2404     		lsls r4, r4, # 16
 13738 6652 240C     		lsrs r4, r4, # 16
 13739 6654 2D0C     		lsrs r5, r5, # 16
 13740 6656 6043     		muls r0, r0, r4
 13741 6658 6143     		muls r1, r1, r4
 13742 665a 6A43     		muls r2, r2, r5
 13743 665c 6B43     		muls r3, r3, r5
 13744 665e 8011     		asrs r0, r0, # 6
 13745 6660 8911     		asrs r1, r1, # 6
 13746 6662 9211     		asrs r2, r2, # 6
 13747 6664 9B11     		asrs r3, r3, # 6
 13748 6666 8018     		adds r0, r0, r2         @r
 13749 6668 C918     		adds r1, r1, r3         @i
 13750 666a 3618     		adds r6, r6, r0
 13751 666c 7F18     		adds r7, r7, r1
 13752              	
 13753              		@6
 13754 666e DD46     		mov sp, r11
 13755 6670 0FBC     		pop {r0-r3}
 13756 6672 EB46     		mov r11, sp
 13757 6674 D546     		mov sp, r10
 13758 6676 10BC     		pop {r4}
 13759 6678 EA46     		mov r10, sp
 13760 667a 2546     		mov r5, r4
 13761 667c 2404     		lsls r4, r4, # 16
 13762 667e 240C     		lsrs r4, r4, # 16
 13763 6680 2D0C     		lsrs r5, r5, # 16
 13764 6682 6043     		muls r0, r0, r4		@R
 13765 6684 6143     		muls r1, r1, r4		@I
 13766 6686 6A43     		muls r2, r2, r5		@R
 13767 6688 6B43     		muls r3, r3, r5		@I
 13768 668a 8011     		asrs r0, r0, # 6
 13769 668c 8911     		asrs r1, r1, # 6
 13770 668e 9211     		asrs r2, r2, # 6
 13771 6690 9B11     		asrs r3, r3, # 6
 13772 6692 8018     		adds r0, r0, r2	 @r
 13773 6694 C918     		adds r1, r1, r3	 @i
 13774 6696 3618     		adds r6, r6, r0
 13775 6698 7F18     		adds r7, r7, r1
 13776              	
 13777 669a DD46     		mov sp, r11
 13778 669c 0FBC     		pop {r0-r3}
ARM GAS  1.s 			page 243


 13779 669e EB46     		mov r11, sp
 13780 66a0 D546     		mov sp, r10
 13781 66a2 10BC     		pop {r4}
 13782 66a4 EA46     		mov r10, sp
 13783 66a6 2546     		mov r5, r4
 13784 66a8 2404     		lsls r4, r4, # 16
 13785 66aa 240C     		lsrs r4, r4, # 16
 13786 66ac 2D0C     		lsrs r5, r5, # 16
 13787 66ae 6043     		muls r0, r0, r4
 13788 66b0 6143     		muls r1, r1, r4
 13789 66b2 6A43     		muls r2, r2, r5
 13790 66b4 6B43     		muls r3, r3, r5
 13791 66b6 8011     		asrs r0, r0, # 6
 13792 66b8 8911     		asrs r1, r1, # 6
 13793 66ba 9211     		asrs r2, r2, # 6
 13794 66bc 9B11     		asrs r3, r3, # 6
 13795 66be 8018     		adds r0, r0, r2         @r
 13796 66c0 C918     		adds r1, r1, r3         @i
 13797 66c2 3618     		adds r6, r6, r0
 13798 66c4 7F18     		adds r7, r7, r1
 13799              	
 13800 66c6 DD46     		mov sp, r11
 13801 66c8 0FBC     		pop {r0-r3}
 13802 66ca EB46     		mov r11, sp
 13803 66cc D546     		mov sp, r10
 13804 66ce 10BC     		pop {r4}
 13805 66d0 EA46     		mov r10, sp
 13806 66d2 2546     		mov r5, r4
 13807 66d4 2404     		lsls r4, r4, # 16
 13808 66d6 240C     		lsrs r4, r4, # 16
 13809 66d8 2D0C     		lsrs r5, r5, # 16
 13810 66da 6043     		muls r0, r0, r4
 13811 66dc 6143     		muls r1, r1, r4
 13812 66de 6A43     		muls r2, r2, r5
 13813 66e0 6B43     		muls r3, r3, r5
 13814 66e2 8011     		asrs r0, r0, # 6
 13815 66e4 8911     		asrs r1, r1, # 6
 13816 66e6 9211     		asrs r2, r2, # 6
 13817 66e8 9B11     		asrs r3, r3, # 6
 13818 66ea 8018     		adds r0, r0, r2  @r
 13819 66ec C918     		adds r1, r1, r3  @i
 13820 66ee 3618     		adds r6, r6, r0
 13821 66f0 7F18     		adds r7, r7, r1
 13822              	
 13823 66f2 DD46     		mov sp, r11
 13824 66f4 0FBC     		pop {r0-r3}
 13825 66f6 EB46     		mov r11, sp
 13826 66f8 D546     		mov sp, r10
 13827 66fa 10BC     		pop {r4}
 13828 66fc EA46     		mov r10, sp
 13829 66fe 2546     		mov r5, r4
 13830 6700 2404     		lsls r4, r4, # 16
 13831 6702 240C     		lsrs r4, r4, # 16
 13832 6704 2D0C     		lsrs r5, r5, # 16
 13833 6706 6043     		muls r0, r0, r4
 13834 6708 6143     		muls r1, r1, r4
 13835 670a 6A43     		muls r2, r2, r5
ARM GAS  1.s 			page 244


 13836 670c 6B43     		muls r3, r3, r5
 13837 670e 8011     		asrs r0, r0, # 6
 13838 6710 8911     		asrs r1, r1, # 6
 13839 6712 9211     		asrs r2, r2, # 6
 13840 6714 9B11     		asrs r3, r3, # 6
 13841 6716 8018     		adds r0, r0, r2         @r
 13842 6718 C918     		adds r1, r1, r3         @i
 13843 671a 3618     		adds r6, r6, r0
 13844 671c 7F18     		adds r7, r7, r1
 13845              	
 13846              		@7
 13847 671e DD46     		mov sp, r11
 13848 6720 0FBC     		pop {r0-r3}
 13849 6722 EB46     		mov r11, sp
 13850 6724 D546     		mov sp, r10
 13851 6726 10BC     		pop {r4}
 13852 6728 EA46     		mov r10, sp
 13853 672a 2546     		mov r5, r4
 13854 672c 2404     		lsls r4, r4, # 16
 13855 672e 240C     		lsrs r4, r4, # 16
 13856 6730 2D0C     		lsrs r5, r5, # 16
 13857 6732 6043     		muls r0, r0, r4		@R
 13858 6734 6143     		muls r1, r1, r4		@I
 13859 6736 6A43     		muls r2, r2, r5		@R
 13860 6738 6B43     		muls r3, r3, r5		@I
 13861 673a 8011     		asrs r0, r0, # 6
 13862 673c 8911     		asrs r1, r1, # 6
 13863 673e 9211     		asrs r2, r2, # 6
 13864 6740 9B11     		asrs r3, r3, # 6
 13865 6742 8018     		adds r0, r0, r2	 @r
 13866 6744 C918     		adds r1, r1, r3	 @i
 13867 6746 3618     		adds r6, r6, r0
 13868 6748 7F18     		adds r7, r7, r1
 13869              	
 13870 674a DD46     		mov sp, r11
 13871 674c 0FBC     		pop {r0-r3}
 13872 674e EB46     		mov r11, sp
 13873 6750 D546     		mov sp, r10
 13874 6752 10BC     		pop {r4}
 13875 6754 EA46     		mov r10, sp
 13876 6756 2546     		mov r5, r4
 13877 6758 2404     		lsls r4, r4, # 16
 13878 675a 240C     		lsrs r4, r4, # 16
 13879 675c 2D0C     		lsrs r5, r5, # 16
 13880 675e 6043     		muls r0, r0, r4
 13881 6760 6143     		muls r1, r1, r4
 13882 6762 6A43     		muls r2, r2, r5
 13883 6764 6B43     		muls r3, r3, r5
 13884 6766 8011     		asrs r0, r0, # 6
 13885 6768 8911     		asrs r1, r1, # 6
 13886 676a 9211     		asrs r2, r2, # 6
 13887 676c 9B11     		asrs r3, r3, # 6
 13888 676e 8018     		adds r0, r0, r2         @r
 13889 6770 C918     		adds r1, r1, r3         @i
 13890 6772 3618     		adds r6, r6, r0
 13891 6774 7F18     		adds r7, r7, r1
 13892              	
ARM GAS  1.s 			page 245


 13893 6776 DD46     		mov sp, r11
 13894 6778 0FBC     		pop {r0-r3}
 13895 677a EB46     		mov r11, sp
 13896 677c D546     		mov sp, r10
 13897 677e 10BC     		pop {r4}
 13898 6780 EA46     		mov r10, sp
 13899 6782 2546     		mov r5, r4
 13900 6784 2404     		lsls r4, r4, # 16
 13901 6786 240C     		lsrs r4, r4, # 16
 13902 6788 2D0C     		lsrs r5, r5, # 16
 13903 678a 6043     		muls r0, r0, r4
 13904 678c 6143     		muls r1, r1, r4
 13905 678e 6A43     		muls r2, r2, r5
 13906 6790 6B43     		muls r3, r3, r5
 13907 6792 8011     		asrs r0, r0, # 6
 13908 6794 8911     		asrs r1, r1, # 6
 13909 6796 9211     		asrs r2, r2, # 6
 13910 6798 9B11     		asrs r3, r3, # 6
 13911 679a 8018     		adds r0, r0, r2  @r
 13912 679c C918     		adds r1, r1, r3  @i
 13913 679e 3618     		adds r6, r6, r0
 13914 67a0 7F18     		adds r7, r7, r1
 13915              	
 13916 67a2 DD46     		mov sp, r11
 13917 67a4 0FBC     		pop {r0-r3}
 13918 67a6 EB46     		mov r11, sp
 13919 67a8 D546     		mov sp, r10
 13920 67aa 10BC     		pop {r4}
 13921 67ac EA46     		mov r10, sp
 13922 67ae 2546     		mov r5, r4
 13923 67b0 2404     		lsls r4, r4, # 16
 13924 67b2 240C     		lsrs r4, r4, # 16
 13925 67b4 2D0C     		lsrs r5, r5, # 16
 13926 67b6 6043     		muls r0, r0, r4
 13927 67b8 6143     		muls r1, r1, r4
 13928 67ba 6A43     		muls r2, r2, r5
 13929 67bc 6B43     		muls r3, r3, r5
 13930 67be 8011     		asrs r0, r0, # 6
 13931 67c0 8911     		asrs r1, r1, # 6
 13932 67c2 9211     		asrs r2, r2, # 6
 13933 67c4 9B11     		asrs r3, r3, # 6
 13934 67c6 8018     		adds r0, r0, r2         @r
 13935 67c8 C918     		adds r1, r1, r3         @i
 13936 67ca 3618     		adds r6, r6, r0
 13937 67cc 7F18     		adds r7, r7, r1
 13938              	
 13939              		@8
 13940 67ce DD46     		mov sp, r11
 13941 67d0 0FBC     		pop {r0-r3}
 13942 67d2 EB46     		mov r11, sp
 13943 67d4 D546     		mov sp, r10
 13944 67d6 10BC     		pop {r4}
 13945 67d8 EA46     		mov r10, sp
 13946 67da 2546     		mov r5, r4
 13947 67dc 2404     		lsls r4, r4, # 16
 13948 67de 240C     		lsrs r4, r4, # 16
 13949 67e0 2D0C     		lsrs r5, r5, # 16
ARM GAS  1.s 			page 246


 13950 67e2 6043     		muls r0, r0, r4		@R
 13951 67e4 6143     		muls r1, r1, r4		@I
 13952 67e6 6A43     		muls r2, r2, r5		@R
 13953 67e8 6B43     		muls r3, r3, r5		@I
 13954 67ea 8011     		asrs r0, r0, # 6
 13955 67ec 8911     		asrs r1, r1, # 6
 13956 67ee 9211     		asrs r2, r2, # 6
 13957 67f0 9B11     		asrs r3, r3, # 6
 13958 67f2 8018     		adds r0, r0, r2	 @r
 13959 67f4 C918     		adds r1, r1, r3	 @i
 13960 67f6 3618     		adds r6, r6, r0
 13961 67f8 7F18     		adds r7, r7, r1
 13962              	
 13963 67fa DD46     		mov sp, r11
 13964 67fc 0FBC     		pop {r0-r3}
 13965 67fe EB46     		mov r11, sp
 13966 6800 D546     		mov sp, r10
 13967 6802 10BC     		pop {r4}
 13968 6804 EA46     		mov r10, sp
 13969 6806 2546     		mov r5, r4
 13970 6808 2404     		lsls r4, r4, # 16
 13971 680a 240C     		lsrs r4, r4, # 16
 13972 680c 2D0C     		lsrs r5, r5, # 16
 13973 680e 6043     		muls r0, r0, r4
 13974 6810 6143     		muls r1, r1, r4
 13975 6812 6A43     		muls r2, r2, r5
 13976 6814 6B43     		muls r3, r3, r5
 13977 6816 8011     		asrs r0, r0, # 6
 13978 6818 8911     		asrs r1, r1, # 6
 13979 681a 9211     		asrs r2, r2, # 6
 13980 681c 9B11     		asrs r3, r3, # 6
 13981 681e 8018     		adds r0, r0, r2         @r
 13982 6820 C918     		adds r1, r1, r3         @i
 13983 6822 3618     		adds r6, r6, r0
 13984 6824 7F18     		adds r7, r7, r1
 13985              	
 13986 6826 DD46     		mov sp, r11
 13987 6828 0FBC     		pop {r0-r3}
 13988 682a EB46     		mov r11, sp
 13989 682c D546     		mov sp, r10
 13990 682e 10BC     		pop {r4}
 13991 6830 EA46     		mov r10, sp
 13992 6832 2546     		mov r5, r4
 13993 6834 2404     		lsls r4, r4, # 16
 13994 6836 240C     		lsrs r4, r4, # 16
 13995 6838 2D0C     		lsrs r5, r5, # 16
 13996 683a 6043     		muls r0, r0, r4
 13997 683c 6143     		muls r1, r1, r4
 13998 683e 6A43     		muls r2, r2, r5
 13999 6840 6B43     		muls r3, r3, r5
 14000 6842 8011     		asrs r0, r0, # 6
 14001 6844 8911     		asrs r1, r1, # 6
 14002 6846 9211     		asrs r2, r2, # 6
 14003 6848 9B11     		asrs r3, r3, # 6
 14004 684a 8018     		adds r0, r0, r2  @r
 14005 684c C918     		adds r1, r1, r3  @i
 14006 684e 3618     		adds r6, r6, r0
ARM GAS  1.s 			page 247


 14007 6850 7F18     		adds r7, r7, r1
 14008              	
 14009 6852 DD46     		mov sp, r11
 14010 6854 0FBC     		pop {r0-r3}
 14011 6856 EB46     		mov r11, sp
 14012 6858 D546     		mov sp, r10
 14013 685a 10BC     		pop {r4}
 14014 685c EA46     		mov r10, sp
 14015 685e 2546     		mov r5, r4
 14016 6860 2404     		lsls r4, r4, # 16
 14017 6862 240C     		lsrs r4, r4, # 16
 14018 6864 2D0C     		lsrs r5, r5, # 16
 14019 6866 6043     		muls r0, r0, r4
 14020 6868 6143     		muls r1, r1, r4
 14021 686a 6A43     		muls r2, r2, r5
 14022 686c 6B43     		muls r3, r3, r5
 14023 686e 8011     		asrs r0, r0, # 6
 14024 6870 8911     		asrs r1, r1, # 6
 14025 6872 9211     		asrs r2, r2, # 6
 14026 6874 9B11     		asrs r3, r3, # 6
 14027 6876 8018     		adds r0, r0, r2         @r
 14028 6878 C918     		adds r1, r1, r3         @i
 14029 687a 3618     		adds r6, r6, r0
 14030 687c 7F18     		adds r7, r7, r1
 14031              	
 14032              		@9
 14033 687e DD46     		mov sp, r11
 14034 6880 0FBC     		pop {r0-r3}
 14035 6882 EB46     		mov r11, sp
 14036 6884 D546     		mov sp, r10
 14037 6886 10BC     		pop {r4}
 14038 6888 EA46     		mov r10, sp
 14039 688a 2546     		mov r5, r4
 14040 688c 2404     		lsls r4, r4, # 16
 14041 688e 240C     		lsrs r4, r4, # 16
 14042 6890 2D0C     		lsrs r5, r5, # 16
 14043 6892 6043     		muls r0, r0, r4		@R
 14044 6894 6143     		muls r1, r1, r4		@I
 14045 6896 6A43     		muls r2, r2, r5		@R
 14046 6898 6B43     		muls r3, r3, r5		@I
 14047 689a 8011     		asrs r0, r0, # 6
 14048 689c 8911     		asrs r1, r1, # 6
 14049 689e 9211     		asrs r2, r2, # 6
 14050 68a0 9B11     		asrs r3, r3, # 6
 14051 68a2 8018     		adds r0, r0, r2	 @r
 14052 68a4 C918     		adds r1, r1, r3	 @i
 14053 68a6 3618     		adds r6, r6, r0
 14054 68a8 7F18     		adds r7, r7, r1
 14055              	
 14056 68aa DD46     		mov sp, r11
 14057 68ac 0FBC     		pop {r0-r3}
 14058 68ae EB46     		mov r11, sp
 14059 68b0 D546     		mov sp, r10
 14060 68b2 10BC     		pop {r4}
 14061 68b4 EA46     		mov r10, sp
 14062 68b6 2546     		mov r5, r4
 14063 68b8 2404     		lsls r4, r4, # 16
ARM GAS  1.s 			page 248


 14064 68ba 240C     		lsrs r4, r4, # 16
 14065 68bc 2D0C     		lsrs r5, r5, # 16
 14066 68be 6043     		muls r0, r0, r4
 14067 68c0 6143     		muls r1, r1, r4
 14068 68c2 6A43     		muls r2, r2, r5
 14069 68c4 6B43     		muls r3, r3, r5
 14070 68c6 8011     		asrs r0, r0, # 6
 14071 68c8 8911     		asrs r1, r1, # 6
 14072 68ca 9211     		asrs r2, r2, # 6
 14073 68cc 9B11     		asrs r3, r3, # 6
 14074 68ce 8018     		adds r0, r0, r2         @r
 14075 68d0 C918     		adds r1, r1, r3         @i
 14076 68d2 3618     		adds r6, r6, r0
 14077 68d4 7F18     		adds r7, r7, r1
 14078              	
 14079 68d6 DD46     		mov sp, r11
 14080 68d8 0FBC     		pop {r0-r3}
 14081 68da EB46     		mov r11, sp
 14082 68dc D546     		mov sp, r10
 14083 68de 10BC     		pop {r4}
 14084 68e0 EA46     		mov r10, sp
 14085 68e2 2546     		mov r5, r4
 14086 68e4 2404     		lsls r4, r4, # 16
 14087 68e6 240C     		lsrs r4, r4, # 16
 14088 68e8 2D0C     		lsrs r5, r5, # 16
 14089 68ea 6043     		muls r0, r0, r4
 14090 68ec 6143     		muls r1, r1, r4
 14091 68ee 6A43     		muls r2, r2, r5
 14092 68f0 6B43     		muls r3, r3, r5
 14093 68f2 8011     		asrs r0, r0, # 6
 14094 68f4 8911     		asrs r1, r1, # 6
 14095 68f6 9211     		asrs r2, r2, # 6
 14096 68f8 9B11     		asrs r3, r3, # 6
 14097 68fa 8018     		adds r0, r0, r2  @r
 14098 68fc C918     		adds r1, r1, r3  @i
 14099 68fe 3618     		adds r6, r6, r0
 14100 6900 7F18     		adds r7, r7, r1
 14101              	
 14102 6902 DD46     		mov sp, r11
 14103 6904 0FBC     		pop {r0-r3}
 14104 6906 EB46     		mov r11, sp
 14105 6908 D546     		mov sp, r10
 14106 690a 10BC     		pop {r4}
 14107 690c EA46     		mov r10, sp
 14108 690e 2546     		mov r5, r4
 14109 6910 2404     		lsls r4, r4, # 16
 14110 6912 240C     		lsrs r4, r4, # 16
 14111 6914 2D0C     		lsrs r5, r5, # 16
 14112 6916 6043     		muls r0, r0, r4
 14113 6918 6143     		muls r1, r1, r4
 14114 691a 6A43     		muls r2, r2, r5
 14115 691c 6B43     		muls r3, r3, r5
 14116 691e 8011     		asrs r0, r0, # 6
 14117 6920 8911     		asrs r1, r1, # 6
 14118 6922 9211     		asrs r2, r2, # 6
 14119 6924 9B11     		asrs r3, r3, # 6
 14120 6926 8018     		adds r0, r0, r2         @r
ARM GAS  1.s 			page 249


 14121 6928 C918     		adds r1, r1, r3         @i
 14122 692a 3618     		adds r6, r6, r0
 14123 692c 7F18     		adds r7, r7, r1
 14124              	
 14125              	@yjm14
 14126              		@0
 14127 692e DD46     		mov sp, r11
 14128 6930 0FBC     		pop {r0-r3}
 14129 6932 EB46     		mov r11, sp
 14130 6934 D546     		mov sp, r10
 14131 6936 10BC     		pop {r4}
 14132 6938 EA46     		mov r10, sp
 14133 693a 2546     		mov r5, r4
 14134 693c 2404     		lsls r4, r4, # 16
 14135 693e 240C     		lsrs r4, r4, # 16
 14136 6940 2D0C     		lsrs r5, r5, # 16
 14137 6942 6043     		muls r0, r0, r4		@R
 14138 6944 6143     		muls r1, r1, r4		@I
 14139 6946 6A43     		muls r2, r2, r5		@R
 14140 6948 6B43     		muls r3, r3, r5		@I
 14141 694a 8011     		asrs r0, r0, # 6
 14142 694c 8911     		asrs r1, r1, # 6
 14143 694e 9211     		asrs r2, r2, # 6
 14144 6950 9B11     		asrs r3, r3, # 6
 14145 6952 8018     		adds r0, r0, r2	 @r
 14146 6954 C918     		adds r1, r1, r3	 @i
 14147 6956 3618     		adds r6, r6, r0
 14148 6958 7F18     		adds r7, r7, r1
 14149              	
 14150 695a DD46     		mov sp, r11
 14151 695c 0FBC     		pop {r0-r3}
 14152 695e EB46     		mov r11, sp
 14153 6960 D546     		mov sp, r10
 14154 6962 10BC     		pop {r4}
 14155 6964 EA46     		mov r10, sp
 14156 6966 2546     		mov r5, r4
 14157 6968 2404     		lsls r4, r4, # 16
 14158 696a 240C     		lsrs r4, r4, # 16
 14159 696c 2D0C     		lsrs r5, r5, # 16
 14160 696e 6043     		muls r0, r0, r4
 14161 6970 6143     		muls r1, r1, r4
 14162 6972 6A43     		muls r2, r2, r5
 14163 6974 6B43     		muls r3, r3, r5
 14164 6976 8011     		asrs r0, r0, # 6
 14165 6978 8911     		asrs r1, r1, # 6
 14166 697a 9211     		asrs r2, r2, # 6
 14167 697c 9B11     		asrs r3, r3, # 6
 14168 697e 8018     		adds r0, r0, r2         @r
 14169 6980 C918     		adds r1, r1, r3         @i
 14170 6982 3618     		adds r6, r6, r0
 14171 6984 7F18     		adds r7, r7, r1
 14172              	
 14173 6986 DD46     		mov sp, r11
 14174 6988 0FBC     		pop {r0-r3}
 14175 698a EB46     		mov r11, sp
 14176 698c D546     		mov sp, r10
 14177 698e 10BC     		pop {r4}
ARM GAS  1.s 			page 250


 14178 6990 EA46     		mov r10, sp
 14179 6992 2546     		mov r5, r4
 14180 6994 2404     		lsls r4, r4, # 16
 14181 6996 240C     		lsrs r4, r4, # 16
 14182 6998 2D0C     		lsrs r5, r5, # 16
 14183 699a 6043     		muls r0, r0, r4
 14184 699c 6143     		muls r1, r1, r4
 14185 699e 6A43     		muls r2, r2, r5
 14186 69a0 6B43     		muls r3, r3, r5
 14187 69a2 8011     		asrs r0, r0, # 6
 14188 69a4 8911     		asrs r1, r1, # 6
 14189 69a6 9211     		asrs r2, r2, # 6
 14190 69a8 9B11     		asrs r3, r3, # 6
 14191 69aa 8018     		adds r0, r0, r2  @r
 14192 69ac C918     		adds r1, r1, r3  @i
 14193 69ae 3618     		adds r6, r6, r0
 14194 69b0 7F18     		adds r7, r7, r1
 14195              	
 14196 69b2 DD46     		mov sp, r11
 14197 69b4 0FBC     		pop {r0-r3}
 14198 69b6 EB46     		mov r11, sp
 14199 69b8 D546     		mov sp, r10
 14200 69ba 10BC     		pop {r4}
 14201 69bc EA46     		mov r10, sp
 14202 69be 2546     		mov r5, r4
 14203 69c0 2404     		lsls r4, r4, # 16
 14204 69c2 240C     		lsrs r4, r4, # 16
 14205 69c4 2D0C     		lsrs r5, r5, # 16
 14206 69c6 6043     		muls r0, r0, r4
 14207 69c8 6143     		muls r1, r1, r4
 14208 69ca 6A43     		muls r2, r2, r5
 14209 69cc 6B43     		muls r3, r3, r5
 14210 69ce 8011     		asrs r0, r0, # 6
 14211 69d0 8911     		asrs r1, r1, # 6
 14212 69d2 9211     		asrs r2, r2, # 6
 14213 69d4 9B11     		asrs r3, r3, # 6
 14214 69d6 8018     		adds r0, r0, r2         @r
 14215 69d8 C918     		adds r1, r1, r3         @i
 14216 69da 3618     		adds r6, r6, r0
 14217 69dc 7F18     		adds r7, r7, r1
 14218              	
 14219              		@1
 14220 69de DD46     		mov sp, r11
 14221 69e0 0FBC     		pop {r0-r3}
 14222 69e2 EB46     		mov r11, sp
 14223 69e4 D546     		mov sp, r10
 14224 69e6 10BC     		pop {r4}
 14225 69e8 EA46     		mov r10, sp
 14226 69ea 2546     		mov r5, r4
 14227 69ec 2404     		lsls r4, r4, # 16
 14228 69ee 240C     		lsrs r4, r4, # 16
 14229 69f0 2D0C     		lsrs r5, r5, # 16
 14230 69f2 6043     		muls r0, r0, r4		@R
 14231 69f4 6143     		muls r1, r1, r4		@I
 14232 69f6 6A43     		muls r2, r2, r5		@R
 14233 69f8 6B43     		muls r3, r3, r5		@I
 14234 69fa 8011     		asrs r0, r0, # 6
ARM GAS  1.s 			page 251


 14235 69fc 8911     		asrs r1, r1, # 6
 14236 69fe 9211     		asrs r2, r2, # 6
 14237 6a00 9B11     		asrs r3, r3, # 6
 14238 6a02 8018     		adds r0, r0, r2	 @r
 14239 6a04 C918     		adds r1, r1, r3	 @i
 14240 6a06 3618     		adds r6, r6, r0
 14241 6a08 7F18     		adds r7, r7, r1
 14242              	
 14243 6a0a DD46     		mov sp, r11
 14244 6a0c 0FBC     		pop {r0-r3}
 14245 6a0e EB46     		mov r11, sp
 14246 6a10 D546     		mov sp, r10
 14247 6a12 10BC     		pop {r4}
 14248 6a14 EA46     		mov r10, sp
 14249 6a16 2546     		mov r5, r4
 14250 6a18 2404     		lsls r4, r4, # 16
 14251 6a1a 240C     		lsrs r4, r4, # 16
 14252 6a1c 2D0C     		lsrs r5, r5, # 16
 14253 6a1e 6043     		muls r0, r0, r4
 14254 6a20 6143     		muls r1, r1, r4
 14255 6a22 6A43     		muls r2, r2, r5
 14256 6a24 6B43     		muls r3, r3, r5
 14257 6a26 8011     		asrs r0, r0, # 6
 14258 6a28 8911     		asrs r1, r1, # 6
 14259 6a2a 9211     		asrs r2, r2, # 6
 14260 6a2c 9B11     		asrs r3, r3, # 6
 14261 6a2e 8018     		adds r0, r0, r2         @r
 14262 6a30 C918     		adds r1, r1, r3         @i
 14263 6a32 3618     		adds r6, r6, r0
 14264 6a34 7F18     		adds r7, r7, r1
 14265              	
 14266 6a36 DD46     		mov sp, r11
 14267 6a38 0FBC     		pop {r0-r3}
 14268 6a3a EB46     		mov r11, sp
 14269 6a3c D546     		mov sp, r10
 14270 6a3e 10BC     		pop {r4}
 14271 6a40 EA46     		mov r10, sp
 14272 6a42 2546     		mov r5, r4
 14273 6a44 2404     		lsls r4, r4, # 16
 14274 6a46 240C     		lsrs r4, r4, # 16
 14275 6a48 2D0C     		lsrs r5, r5, # 16
 14276 6a4a 6043     		muls r0, r0, r4
 14277 6a4c 6143     		muls r1, r1, r4
 14278 6a4e 6A43     		muls r2, r2, r5
 14279 6a50 6B43     		muls r3, r3, r5
 14280 6a52 8011     		asrs r0, r0, # 6
 14281 6a54 8911     		asrs r1, r1, # 6
 14282 6a56 9211     		asrs r2, r2, # 6
 14283 6a58 9B11     		asrs r3, r3, # 6
 14284 6a5a 8018     		adds r0, r0, r2  @r
 14285 6a5c C918     		adds r1, r1, r3  @i
 14286 6a5e 3618     		adds r6, r6, r0
 14287 6a60 7F18     		adds r7, r7, r1
 14288              	
 14289 6a62 DD46     		mov sp, r11
 14290 6a64 0FBC     		pop {r0-r3}
 14291 6a66 EB46     		mov r11, sp
ARM GAS  1.s 			page 252


 14292 6a68 D546     		mov sp, r10
 14293 6a6a 10BC     		pop {r4}
 14294 6a6c EA46     		mov r10, sp
 14295 6a6e 2546     		mov r5, r4
 14296 6a70 2404     		lsls r4, r4, # 16
 14297 6a72 240C     		lsrs r4, r4, # 16
 14298 6a74 2D0C     		lsrs r5, r5, # 16
 14299 6a76 6043     		muls r0, r0, r4
 14300 6a78 6143     		muls r1, r1, r4
 14301 6a7a 6A43     		muls r2, r2, r5
 14302 6a7c 6B43     		muls r3, r3, r5
 14303 6a7e 8011     		asrs r0, r0, # 6
 14304 6a80 8911     		asrs r1, r1, # 6
 14305 6a82 9211     		asrs r2, r2, # 6
 14306 6a84 9B11     		asrs r3, r3, # 6
 14307 6a86 8018     		adds r0, r0, r2         @r
 14308 6a88 C918     		adds r1, r1, r3         @i
 14309 6a8a 3618     		adds r6, r6, r0
 14310 6a8c 7F18     		adds r7, r7, r1
 14311              	
 14312              		@2
 14313 6a8e DD46     		mov sp, r11
 14314 6a90 0FBC     		pop {r0-r3}
 14315 6a92 EB46     		mov r11, sp
 14316 6a94 D546     		mov sp, r10
 14317 6a96 10BC     		pop {r4}
 14318 6a98 EA46     		mov r10, sp
 14319 6a9a 2546     		mov r5, r4
 14320 6a9c 2404     		lsls r4, r4, # 16
 14321 6a9e 240C     		lsrs r4, r4, # 16
 14322 6aa0 2D0C     		lsrs r5, r5, # 16
 14323 6aa2 6043     		muls r0, r0, r4		@R
 14324 6aa4 6143     		muls r1, r1, r4		@I
 14325 6aa6 6A43     		muls r2, r2, r5		@R
 14326 6aa8 6B43     		muls r3, r3, r5		@I
 14327 6aaa 8011     		asrs r0, r0, # 6
 14328 6aac 8911     		asrs r1, r1, # 6
 14329 6aae 9211     		asrs r2, r2, # 6
 14330 6ab0 9B11     		asrs r3, r3, # 6
 14331 6ab2 8018     		adds r0, r0, r2	 @r
 14332 6ab4 C918     		adds r1, r1, r3	 @i
 14333 6ab6 3618     		adds r6, r6, r0
 14334 6ab8 7F18     		adds r7, r7, r1
 14335              	
 14336 6aba DD46     		mov sp, r11
 14337 6abc 0FBC     		pop {r0-r3}
 14338 6abe EB46     		mov r11, sp
 14339 6ac0 D546     		mov sp, r10
 14340 6ac2 10BC     		pop {r4}
 14341 6ac4 EA46     		mov r10, sp
 14342 6ac6 2546     		mov r5, r4
 14343 6ac8 2404     		lsls r4, r4, # 16
 14344 6aca 240C     		lsrs r4, r4, # 16
 14345 6acc 2D0C     		lsrs r5, r5, # 16
 14346 6ace 6043     		muls r0, r0, r4
 14347 6ad0 6143     		muls r1, r1, r4
 14348 6ad2 6A43     		muls r2, r2, r5
ARM GAS  1.s 			page 253


 14349 6ad4 6B43     		muls r3, r3, r5
 14350 6ad6 8011     		asrs r0, r0, # 6
 14351 6ad8 8911     		asrs r1, r1, # 6
 14352 6ada 9211     		asrs r2, r2, # 6
 14353 6adc 9B11     		asrs r3, r3, # 6
 14354 6ade 8018     		adds r0, r0, r2         @r
 14355 6ae0 C918     		adds r1, r1, r3         @i
 14356 6ae2 3618     		adds r6, r6, r0
 14357 6ae4 7F18     		adds r7, r7, r1
 14358              	
 14359 6ae6 DD46     		mov sp, r11
 14360 6ae8 0FBC     		pop {r0-r3}
 14361 6aea EB46     		mov r11, sp
 14362 6aec D546     		mov sp, r10
 14363 6aee 10BC     		pop {r4}
 14364 6af0 EA46     		mov r10, sp
 14365 6af2 2546     		mov r5, r4
 14366 6af4 2404     		lsls r4, r4, # 16
 14367 6af6 240C     		lsrs r4, r4, # 16
 14368 6af8 2D0C     		lsrs r5, r5, # 16
 14369 6afa 6043     		muls r0, r0, r4
 14370 6afc 6143     		muls r1, r1, r4
 14371 6afe 6A43     		muls r2, r2, r5
 14372 6b00 6B43     		muls r3, r3, r5
 14373 6b02 8011     		asrs r0, r0, # 6
 14374 6b04 8911     		asrs r1, r1, # 6
 14375 6b06 9211     		asrs r2, r2, # 6
 14376 6b08 9B11     		asrs r3, r3, # 6
 14377 6b0a 8018     		adds r0, r0, r2  @r
 14378 6b0c C918     		adds r1, r1, r3  @i
 14379 6b0e 3618     		adds r6, r6, r0
 14380 6b10 7F18     		adds r7, r7, r1
 14381              	
 14382 6b12 DD46     		mov sp, r11
 14383 6b14 0FBC     		pop {r0-r3}
 14384 6b16 EB46     		mov r11, sp
 14385 6b18 D546     		mov sp, r10
 14386 6b1a 10BC     		pop {r4}
 14387 6b1c EA46     		mov r10, sp
 14388 6b1e 2546     		mov r5, r4
 14389 6b20 2404     		lsls r4, r4, # 16
 14390 6b22 240C     		lsrs r4, r4, # 16
 14391 6b24 2D0C     		lsrs r5, r5, # 16
 14392 6b26 6043     		muls r0, r0, r4
 14393 6b28 6143     		muls r1, r1, r4
 14394 6b2a 6A43     		muls r2, r2, r5
 14395 6b2c 6B43     		muls r3, r3, r5
 14396 6b2e 8011     		asrs r0, r0, # 6
 14397 6b30 8911     		asrs r1, r1, # 6
 14398 6b32 9211     		asrs r2, r2, # 6
 14399 6b34 9B11     		asrs r3, r3, # 6
 14400 6b36 8018     		adds r0, r0, r2         @r
 14401 6b38 C918     		adds r1, r1, r3         @i
 14402 6b3a 3618     		adds r6, r6, r0
 14403 6b3c 7F18     		adds r7, r7, r1
 14404              	
 14405              		@3
ARM GAS  1.s 			page 254


 14406 6b3e DD46     		mov sp, r11
 14407 6b40 0FBC     		pop {r0-r3}
 14408 6b42 EB46     		mov r11, sp
 14409 6b44 D546     		mov sp, r10
 14410 6b46 10BC     		pop {r4}
 14411 6b48 EA46     		mov r10, sp
 14412 6b4a 2546     		mov r5, r4
 14413 6b4c 2404     		lsls r4, r4, # 16
 14414 6b4e 240C     		lsrs r4, r4, # 16
 14415 6b50 2D0C     		lsrs r5, r5, # 16
 14416 6b52 6043     		muls r0, r0, r4		@R
 14417 6b54 6143     		muls r1, r1, r4		@I
 14418 6b56 6A43     		muls r2, r2, r5		@R
 14419 6b58 6B43     		muls r3, r3, r5		@I
 14420 6b5a 8011     		asrs r0, r0, # 6
 14421 6b5c 8911     		asrs r1, r1, # 6
 14422 6b5e 9211     		asrs r2, r2, # 6
 14423 6b60 9B11     		asrs r3, r3, # 6
 14424 6b62 8018     		adds r0, r0, r2	 @r
 14425 6b64 C918     		adds r1, r1, r3	 @i
 14426 6b66 3618     		adds r6, r6, r0
 14427 6b68 7F18     		adds r7, r7, r1
 14428              	
 14429 6b6a DD46     		mov sp, r11
 14430 6b6c 0FBC     		pop {r0-r3}
 14431 6b6e EB46     		mov r11, sp
 14432 6b70 D546     		mov sp, r10
 14433 6b72 10BC     		pop {r4}
 14434 6b74 EA46     		mov r10, sp
 14435 6b76 2546     		mov r5, r4
 14436 6b78 2404     		lsls r4, r4, # 16
 14437 6b7a 240C     		lsrs r4, r4, # 16
 14438 6b7c 2D0C     		lsrs r5, r5, # 16
 14439 6b7e 6043     		muls r0, r0, r4
 14440 6b80 6143     		muls r1, r1, r4
 14441 6b82 6A43     		muls r2, r2, r5
 14442 6b84 6B43     		muls r3, r3, r5
 14443 6b86 8011     		asrs r0, r0, # 6
 14444 6b88 8911     		asrs r1, r1, # 6
 14445 6b8a 9211     		asrs r2, r2, # 6
 14446 6b8c 9B11     		asrs r3, r3, # 6
 14447 6b8e 8018     		adds r0, r0, r2         @r
 14448 6b90 C918     		adds r1, r1, r3         @i
 14449 6b92 3618     		adds r6, r6, r0
 14450 6b94 7F18     		adds r7, r7, r1
 14451              	
 14452 6b96 DD46     		mov sp, r11
 14453 6b98 0FBC     		pop {r0-r3}
 14454 6b9a EB46     		mov r11, sp
 14455 6b9c D546     		mov sp, r10
 14456 6b9e 10BC     		pop {r4}
 14457 6ba0 EA46     		mov r10, sp
 14458 6ba2 2546     		mov r5, r4
 14459 6ba4 2404     		lsls r4, r4, # 16
 14460 6ba6 240C     		lsrs r4, r4, # 16
 14461 6ba8 2D0C     		lsrs r5, r5, # 16
 14462 6baa 6043     		muls r0, r0, r4
ARM GAS  1.s 			page 255


 14463 6bac 6143     		muls r1, r1, r4
 14464 6bae 6A43     		muls r2, r2, r5
 14465 6bb0 6B43     		muls r3, r3, r5
 14466 6bb2 8011     		asrs r0, r0, # 6
 14467 6bb4 8911     		asrs r1, r1, # 6
 14468 6bb6 9211     		asrs r2, r2, # 6
 14469 6bb8 9B11     		asrs r3, r3, # 6
 14470 6bba 8018     		adds r0, r0, r2  @r
 14471 6bbc C918     		adds r1, r1, r3  @i
 14472 6bbe 3618     		adds r6, r6, r0
 14473 6bc0 7F18     		adds r7, r7, r1
 14474              	
 14475 6bc2 DD46     		mov sp, r11
 14476 6bc4 0FBC     		pop {r0-r3}
 14477 6bc6 EB46     		mov r11, sp
 14478 6bc8 D546     		mov sp, r10
 14479 6bca 10BC     		pop {r4}
 14480 6bcc EA46     		mov r10, sp
 14481 6bce 2546     		mov r5, r4
 14482 6bd0 2404     		lsls r4, r4, # 16
 14483 6bd2 240C     		lsrs r4, r4, # 16
 14484 6bd4 2D0C     		lsrs r5, r5, # 16
 14485 6bd6 6043     		muls r0, r0, r4
 14486 6bd8 6143     		muls r1, r1, r4
 14487 6bda 6A43     		muls r2, r2, r5
 14488 6bdc 6B43     		muls r3, r3, r5
 14489 6bde 8011     		asrs r0, r0, # 6
 14490 6be0 8911     		asrs r1, r1, # 6
 14491 6be2 9211     		asrs r2, r2, # 6
 14492 6be4 9B11     		asrs r3, r3, # 6
 14493 6be6 8018     		adds r0, r0, r2         @r
 14494 6be8 C918     		adds r1, r1, r3         @i
 14495 6bea 3618     		adds r6, r6, r0
 14496 6bec 7F18     		adds r7, r7, r1
 14497              	
 14498              		@4
 14499 6bee DD46     		mov sp, r11
 14500 6bf0 0FBC     		pop {r0-r3}
 14501 6bf2 EB46     		mov r11, sp
 14502 6bf4 D546     		mov sp, r10
 14503 6bf6 10BC     		pop {r4}
 14504 6bf8 EA46     		mov r10, sp
 14505 6bfa 2546     		mov r5, r4
 14506 6bfc 2404     		lsls r4, r4, # 16
 14507 6bfe 240C     		lsrs r4, r4, # 16
 14508 6c00 2D0C     		lsrs r5, r5, # 16
 14509 6c02 6043     		muls r0, r0, r4		@R
 14510 6c04 6143     		muls r1, r1, r4		@I
 14511 6c06 6A43     		muls r2, r2, r5		@R
 14512 6c08 6B43     		muls r3, r3, r5		@I
 14513 6c0a 8011     		asrs r0, r0, # 6
 14514 6c0c 8911     		asrs r1, r1, # 6
 14515 6c0e 9211     		asrs r2, r2, # 6
 14516 6c10 9B11     		asrs r3, r3, # 6
 14517 6c12 8018     		adds r0, r0, r2	 @r
 14518 6c14 C918     		adds r1, r1, r3	 @i
 14519 6c16 3618     		adds r6, r6, r0
ARM GAS  1.s 			page 256


 14520 6c18 7F18     		adds r7, r7, r1
 14521              	
 14522 6c1a DD46     		mov sp, r11
 14523 6c1c 0FBC     		pop {r0-r3}
 14524 6c1e EB46     		mov r11, sp
 14525 6c20 D546     		mov sp, r10
 14526 6c22 10BC     		pop {r4}
 14527 6c24 EA46     		mov r10, sp
 14528 6c26 2546     		mov r5, r4
 14529 6c28 2404     		lsls r4, r4, # 16
 14530 6c2a 240C     		lsrs r4, r4, # 16
 14531 6c2c 2D0C     		lsrs r5, r5, # 16
 14532 6c2e 6043     		muls r0, r0, r4
 14533 6c30 6143     		muls r1, r1, r4
 14534 6c32 6A43     		muls r2, r2, r5
 14535 6c34 6B43     		muls r3, r3, r5
 14536 6c36 8011     		asrs r0, r0, # 6
 14537 6c38 8911     		asrs r1, r1, # 6
 14538 6c3a 9211     		asrs r2, r2, # 6
 14539 6c3c 9B11     		asrs r3, r3, # 6
 14540 6c3e 8018     		adds r0, r0, r2         @r
 14541 6c40 C918     		adds r1, r1, r3         @i
 14542 6c42 3618     		adds r6, r6, r0
 14543 6c44 7F18     		adds r7, r7, r1
 14544              	
 14545 6c46 DD46     		mov sp, r11
 14546 6c48 0FBC     		pop {r0-r3}
 14547 6c4a EB46     		mov r11, sp
 14548 6c4c D546     		mov sp, r10
 14549 6c4e 10BC     		pop {r4}
 14550 6c50 EA46     		mov r10, sp
 14551 6c52 2546     		mov r5, r4
 14552 6c54 2404     		lsls r4, r4, # 16
 14553 6c56 240C     		lsrs r4, r4, # 16
 14554 6c58 2D0C     		lsrs r5, r5, # 16
 14555 6c5a 6043     		muls r0, r0, r4
 14556 6c5c 6143     		muls r1, r1, r4
 14557 6c5e 6A43     		muls r2, r2, r5
 14558 6c60 6B43     		muls r3, r3, r5
 14559 6c62 8011     		asrs r0, r0, # 6
 14560 6c64 8911     		asrs r1, r1, # 6
 14561 6c66 9211     		asrs r2, r2, # 6
 14562 6c68 9B11     		asrs r3, r3, # 6
 14563 6c6a 8018     		adds r0, r0, r2  @r
 14564 6c6c C918     		adds r1, r1, r3  @i
 14565 6c6e 3618     		adds r6, r6, r0
 14566 6c70 7F18     		adds r7, r7, r1
 14567              	
 14568 6c72 DD46     		mov sp, r11
 14569 6c74 0FBC     		pop {r0-r3}
 14570 6c76 EB46     		mov r11, sp
 14571 6c78 D546     		mov sp, r10
 14572 6c7a 10BC     		pop {r4}
 14573 6c7c EA46     		mov r10, sp
 14574 6c7e 2546     		mov r5, r4
 14575 6c80 2404     		lsls r4, r4, # 16
 14576 6c82 240C     		lsrs r4, r4, # 16
ARM GAS  1.s 			page 257


 14577 6c84 2D0C     		lsrs r5, r5, # 16
 14578 6c86 6043     		muls r0, r0, r4
 14579 6c88 6143     		muls r1, r1, r4
 14580 6c8a 6A43     		muls r2, r2, r5
 14581 6c8c 6B43     		muls r3, r3, r5
 14582 6c8e 8011     		asrs r0, r0, # 6
 14583 6c90 8911     		asrs r1, r1, # 6
 14584 6c92 9211     		asrs r2, r2, # 6
 14585 6c94 9B11     		asrs r3, r3, # 6
 14586 6c96 8018     		adds r0, r0, r2         @r
 14587 6c98 C918     		adds r1, r1, r3         @i
 14588 6c9a 3618     		adds r6, r6, r0
 14589 6c9c 7F18     		adds r7, r7, r1
 14590              	
 14591              		@5
 14592 6c9e DD46     		mov sp, r11
 14593 6ca0 0FBC     		pop {r0-r3}
 14594 6ca2 EB46     		mov r11, sp
 14595 6ca4 D546     		mov sp, r10
 14596 6ca6 10BC     		pop {r4}
 14597 6ca8 EA46     		mov r10, sp
 14598 6caa 2546     		mov r5, r4
 14599 6cac 2404     		lsls r4, r4, # 16
 14600 6cae 240C     		lsrs r4, r4, # 16
 14601 6cb0 2D0C     		lsrs r5, r5, # 16
 14602 6cb2 6043     		muls r0, r0, r4		@R
 14603 6cb4 6143     		muls r1, r1, r4		@I
 14604 6cb6 6A43     		muls r2, r2, r5		@R
 14605 6cb8 6B43     		muls r3, r3, r5		@I
 14606 6cba 8011     		asrs r0, r0, # 6
 14607 6cbc 8911     		asrs r1, r1, # 6
 14608 6cbe 9211     		asrs r2, r2, # 6
 14609 6cc0 9B11     		asrs r3, r3, # 6
 14610 6cc2 8018     		adds r0, r0, r2	 @r
 14611 6cc4 C918     		adds r1, r1, r3	 @i
 14612 6cc6 3618     		adds r6, r6, r0
 14613 6cc8 7F18     		adds r7, r7, r1
 14614              	
 14615 6cca DD46     		mov sp, r11
 14616 6ccc 0FBC     		pop {r0-r3}
 14617 6cce EB46     		mov r11, sp
 14618 6cd0 D546     		mov sp, r10
 14619 6cd2 10BC     		pop {r4}
 14620 6cd4 EA46     		mov r10, sp
 14621 6cd6 2546     		mov r5, r4
 14622 6cd8 2404     		lsls r4, r4, # 16
 14623 6cda 240C     		lsrs r4, r4, # 16
 14624 6cdc 2D0C     		lsrs r5, r5, # 16
 14625 6cde 6043     		muls r0, r0, r4
 14626 6ce0 6143     		muls r1, r1, r4
 14627 6ce2 6A43     		muls r2, r2, r5
 14628 6ce4 6B43     		muls r3, r3, r5
 14629 6ce6 8011     		asrs r0, r0, # 6
 14630 6ce8 8911     		asrs r1, r1, # 6
 14631 6cea 9211     		asrs r2, r2, # 6
 14632 6cec 9B11     		asrs r3, r3, # 6
 14633 6cee 8018     		adds r0, r0, r2         @r
ARM GAS  1.s 			page 258


 14634 6cf0 C918     		adds r1, r1, r3         @i
 14635 6cf2 3618     		adds r6, r6, r0
 14636 6cf4 7F18     		adds r7, r7, r1
 14637              	
 14638 6cf6 DD46     		mov sp, r11
 14639 6cf8 0FBC     		pop {r0-r3}
 14640 6cfa EB46     		mov r11, sp
 14641 6cfc D546     		mov sp, r10
 14642 6cfe 10BC     		pop {r4}
 14643 6d00 EA46     		mov r10, sp
 14644 6d02 2546     		mov r5, r4
 14645 6d04 2404     		lsls r4, r4, # 16
 14646 6d06 240C     		lsrs r4, r4, # 16
 14647 6d08 2D0C     		lsrs r5, r5, # 16
 14648 6d0a 6043     		muls r0, r0, r4
 14649 6d0c 6143     		muls r1, r1, r4
 14650 6d0e 6A43     		muls r2, r2, r5
 14651 6d10 6B43     		muls r3, r3, r5
 14652 6d12 8011     		asrs r0, r0, # 6
 14653 6d14 8911     		asrs r1, r1, # 6
 14654 6d16 9211     		asrs r2, r2, # 6
 14655 6d18 9B11     		asrs r3, r3, # 6
 14656 6d1a 8018     		adds r0, r0, r2  @r
 14657 6d1c C918     		adds r1, r1, r3  @i
 14658 6d1e 3618     		adds r6, r6, r0
 14659 6d20 7F18     		adds r7, r7, r1
 14660              	
 14661 6d22 DD46     		mov sp, r11
 14662 6d24 0FBC     		pop {r0-r3}
 14663 6d26 EB46     		mov r11, sp
 14664 6d28 D546     		mov sp, r10
 14665 6d2a 10BC     		pop {r4}
 14666 6d2c EA46     		mov r10, sp
 14667 6d2e 2546     		mov r5, r4
 14668 6d30 2404     		lsls r4, r4, # 16
 14669 6d32 240C     		lsrs r4, r4, # 16
 14670 6d34 2D0C     		lsrs r5, r5, # 16
 14671 6d36 6043     		muls r0, r0, r4
 14672 6d38 6143     		muls r1, r1, r4
 14673 6d3a 6A43     		muls r2, r2, r5
 14674 6d3c 6B43     		muls r3, r3, r5
 14675 6d3e 8011     		asrs r0, r0, # 6
 14676 6d40 8911     		asrs r1, r1, # 6
 14677 6d42 9211     		asrs r2, r2, # 6
 14678 6d44 9B11     		asrs r3, r3, # 6
 14679 6d46 8018     		adds r0, r0, r2         @r
 14680 6d48 C918     		adds r1, r1, r3         @i
 14681 6d4a 3618     		adds r6, r6, r0
 14682 6d4c 7F18     		adds r7, r7, r1
 14683              	
 14684              		@6
 14685 6d4e DD46     		mov sp, r11
 14686 6d50 0FBC     		pop {r0-r3}
 14687 6d52 EB46     		mov r11, sp
 14688 6d54 D546     		mov sp, r10
 14689 6d56 10BC     		pop {r4}
 14690 6d58 EA46     		mov r10, sp
ARM GAS  1.s 			page 259


 14691 6d5a 2546     		mov r5, r4
 14692 6d5c 2404     		lsls r4, r4, # 16
 14693 6d5e 240C     		lsrs r4, r4, # 16
 14694 6d60 2D0C     		lsrs r5, r5, # 16
 14695 6d62 6043     		muls r0, r0, r4		@R
 14696 6d64 6143     		muls r1, r1, r4		@I
 14697 6d66 6A43     		muls r2, r2, r5		@R
 14698 6d68 6B43     		muls r3, r3, r5		@I
 14699 6d6a 8011     		asrs r0, r0, # 6
 14700 6d6c 8911     		asrs r1, r1, # 6
 14701 6d6e 9211     		asrs r2, r2, # 6
 14702 6d70 9B11     		asrs r3, r3, # 6
 14703 6d72 8018     		adds r0, r0, r2	 @r
 14704 6d74 C918     		adds r1, r1, r3	 @i
 14705 6d76 3618     		adds r6, r6, r0
 14706 6d78 7F18     		adds r7, r7, r1
 14707              	
 14708 6d7a DD46     		mov sp, r11
 14709 6d7c 0FBC     		pop {r0-r3}
 14710 6d7e EB46     		mov r11, sp
 14711 6d80 D546     		mov sp, r10
 14712 6d82 10BC     		pop {r4}
 14713 6d84 EA46     		mov r10, sp
 14714 6d86 2546     		mov r5, r4
 14715 6d88 2404     		lsls r4, r4, # 16
 14716 6d8a 240C     		lsrs r4, r4, # 16
 14717 6d8c 2D0C     		lsrs r5, r5, # 16
 14718 6d8e 6043     		muls r0, r0, r4
 14719 6d90 6143     		muls r1, r1, r4
 14720 6d92 6A43     		muls r2, r2, r5
 14721 6d94 6B43     		muls r3, r3, r5
 14722 6d96 8011     		asrs r0, r0, # 6
 14723 6d98 8911     		asrs r1, r1, # 6
 14724 6d9a 9211     		asrs r2, r2, # 6
 14725 6d9c 9B11     		asrs r3, r3, # 6
 14726 6d9e 8018     		adds r0, r0, r2         @r
 14727 6da0 C918     		adds r1, r1, r3         @i
 14728 6da2 3618     		adds r6, r6, r0
 14729 6da4 7F18     		adds r7, r7, r1
 14730              	
 14731 6da6 DD46     		mov sp, r11
 14732 6da8 0FBC     		pop {r0-r3}
 14733 6daa EB46     		mov r11, sp
 14734 6dac D546     		mov sp, r10
 14735 6dae 10BC     		pop {r4}
 14736 6db0 EA46     		mov r10, sp
 14737 6db2 2546     		mov r5, r4
 14738 6db4 2404     		lsls r4, r4, # 16
 14739 6db6 240C     		lsrs r4, r4, # 16
 14740 6db8 2D0C     		lsrs r5, r5, # 16
 14741 6dba 6043     		muls r0, r0, r4
 14742 6dbc 6143     		muls r1, r1, r4
 14743 6dbe 6A43     		muls r2, r2, r5
 14744 6dc0 6B43     		muls r3, r3, r5
 14745 6dc2 8011     		asrs r0, r0, # 6
 14746 6dc4 8911     		asrs r1, r1, # 6
 14747 6dc6 9211     		asrs r2, r2, # 6
ARM GAS  1.s 			page 260


 14748 6dc8 9B11     		asrs r3, r3, # 6
 14749 6dca 8018     		adds r0, r0, r2  @r
 14750 6dcc C918     		adds r1, r1, r3  @i
 14751 6dce 3618     		adds r6, r6, r0
 14752 6dd0 7F18     		adds r7, r7, r1
 14753              	
 14754 6dd2 DD46     		mov sp, r11
 14755 6dd4 0FBC     		pop {r0-r3}
 14756 6dd6 EB46     		mov r11, sp
 14757 6dd8 D546     		mov sp, r10
 14758 6dda 10BC     		pop {r4}
 14759 6ddc EA46     		mov r10, sp
 14760 6dde 2546     		mov r5, r4
 14761 6de0 2404     		lsls r4, r4, # 16
 14762 6de2 240C     		lsrs r4, r4, # 16
 14763 6de4 2D0C     		lsrs r5, r5, # 16
 14764 6de6 6043     		muls r0, r0, r4
 14765 6de8 6143     		muls r1, r1, r4
 14766 6dea 6A43     		muls r2, r2, r5
 14767 6dec 6B43     		muls r3, r3, r5
 14768 6dee 8011     		asrs r0, r0, # 6
 14769 6df0 8911     		asrs r1, r1, # 6
 14770 6df2 9211     		asrs r2, r2, # 6
 14771 6df4 9B11     		asrs r3, r3, # 6
 14772 6df6 8018     		adds r0, r0, r2         @r
 14773 6df8 C918     		adds r1, r1, r3         @i
 14774 6dfa 3618     		adds r6, r6, r0
 14775 6dfc 7F18     		adds r7, r7, r1
 14776              	
 14777              		@7
 14778 6dfe DD46     		mov sp, r11
 14779 6e00 0FBC     		pop {r0-r3}
 14780 6e02 EB46     		mov r11, sp
 14781 6e04 D546     		mov sp, r10
 14782 6e06 10BC     		pop {r4}
 14783 6e08 EA46     		mov r10, sp
 14784 6e0a 2546     		mov r5, r4
 14785 6e0c 2404     		lsls r4, r4, # 16
 14786 6e0e 240C     		lsrs r4, r4, # 16
 14787 6e10 2D0C     		lsrs r5, r5, # 16
 14788 6e12 6043     		muls r0, r0, r4		@R
 14789 6e14 6143     		muls r1, r1, r4		@I
 14790 6e16 6A43     		muls r2, r2, r5		@R
 14791 6e18 6B43     		muls r3, r3, r5		@I
 14792 6e1a 8011     		asrs r0, r0, # 6
 14793 6e1c 8911     		asrs r1, r1, # 6
 14794 6e1e 9211     		asrs r2, r2, # 6
 14795 6e20 9B11     		asrs r3, r3, # 6
 14796 6e22 8018     		adds r0, r0, r2	 @r
 14797 6e24 C918     		adds r1, r1, r3	 @i
 14798 6e26 3618     		adds r6, r6, r0
 14799 6e28 7F18     		adds r7, r7, r1
 14800              	
 14801 6e2a DD46     		mov sp, r11
 14802 6e2c 0FBC     		pop {r0-r3}
 14803 6e2e EB46     		mov r11, sp
 14804 6e30 D546     		mov sp, r10
ARM GAS  1.s 			page 261


 14805 6e32 10BC     		pop {r4}
 14806 6e34 EA46     		mov r10, sp
 14807 6e36 2546     		mov r5, r4
 14808 6e38 2404     		lsls r4, r4, # 16
 14809 6e3a 240C     		lsrs r4, r4, # 16
 14810 6e3c 2D0C     		lsrs r5, r5, # 16
 14811 6e3e 6043     		muls r0, r0, r4
 14812 6e40 6143     		muls r1, r1, r4
 14813 6e42 6A43     		muls r2, r2, r5
 14814 6e44 6B43     		muls r3, r3, r5
 14815 6e46 8011     		asrs r0, r0, # 6
 14816 6e48 8911     		asrs r1, r1, # 6
 14817 6e4a 9211     		asrs r2, r2, # 6
 14818 6e4c 9B11     		asrs r3, r3, # 6
 14819 6e4e 8018     		adds r0, r0, r2         @r
 14820 6e50 C918     		adds r1, r1, r3         @i
 14821 6e52 3618     		adds r6, r6, r0
 14822 6e54 7F18     		adds r7, r7, r1
 14823              	
 14824 6e56 DD46     		mov sp, r11
 14825 6e58 0FBC     		pop {r0-r3}
 14826 6e5a EB46     		mov r11, sp
 14827 6e5c D546     		mov sp, r10
 14828 6e5e 10BC     		pop {r4}
 14829 6e60 EA46     		mov r10, sp
 14830 6e62 2546     		mov r5, r4
 14831 6e64 2404     		lsls r4, r4, # 16
 14832 6e66 240C     		lsrs r4, r4, # 16
 14833 6e68 2D0C     		lsrs r5, r5, # 16
 14834 6e6a 6043     		muls r0, r0, r4
 14835 6e6c 6143     		muls r1, r1, r4
 14836 6e6e 6A43     		muls r2, r2, r5
 14837 6e70 6B43     		muls r3, r3, r5
 14838 6e72 8011     		asrs r0, r0, # 6
 14839 6e74 8911     		asrs r1, r1, # 6
 14840 6e76 9211     		asrs r2, r2, # 6
 14841 6e78 9B11     		asrs r3, r3, # 6
 14842 6e7a 8018     		adds r0, r0, r2  @r
 14843 6e7c C918     		adds r1, r1, r3  @i
 14844 6e7e 3618     		adds r6, r6, r0
 14845 6e80 7F18     		adds r7, r7, r1
 14846              	
 14847 6e82 DD46     		mov sp, r11
 14848 6e84 0FBC     		pop {r0-r3}
 14849 6e86 EB46     		mov r11, sp
 14850 6e88 D546     		mov sp, r10
 14851 6e8a 10BC     		pop {r4}
 14852 6e8c EA46     		mov r10, sp
 14853 6e8e 2546     		mov r5, r4
 14854 6e90 2404     		lsls r4, r4, # 16
 14855 6e92 240C     		lsrs r4, r4, # 16
 14856 6e94 2D0C     		lsrs r5, r5, # 16
 14857 6e96 6043     		muls r0, r0, r4
 14858 6e98 6143     		muls r1, r1, r4
 14859 6e9a 6A43     		muls r2, r2, r5
 14860 6e9c 6B43     		muls r3, r3, r5
 14861 6e9e 8011     		asrs r0, r0, # 6
ARM GAS  1.s 			page 262


 14862 6ea0 8911     		asrs r1, r1, # 6
 14863 6ea2 9211     		asrs r2, r2, # 6
 14864 6ea4 9B11     		asrs r3, r3, # 6
 14865 6ea6 8018     		adds r0, r0, r2         @r
 14866 6ea8 C918     		adds r1, r1, r3         @i
 14867 6eaa 3618     		adds r6, r6, r0
 14868 6eac 7F18     		adds r7, r7, r1
 14869              	
 14870              		@8
 14871 6eae DD46     		mov sp, r11
 14872 6eb0 0FBC     		pop {r0-r3}
 14873 6eb2 EB46     		mov r11, sp
 14874 6eb4 D546     		mov sp, r10
 14875 6eb6 10BC     		pop {r4}
 14876 6eb8 EA46     		mov r10, sp
 14877 6eba 2546     		mov r5, r4
 14878 6ebc 2404     		lsls r4, r4, # 16
 14879 6ebe 240C     		lsrs r4, r4, # 16
 14880 6ec0 2D0C     		lsrs r5, r5, # 16
 14881 6ec2 6043     		muls r0, r0, r4		@R
 14882 6ec4 6143     		muls r1, r1, r4		@I
 14883 6ec6 6A43     		muls r2, r2, r5		@R
 14884 6ec8 6B43     		muls r3, r3, r5		@I
 14885 6eca 8011     		asrs r0, r0, # 6
 14886 6ecc 8911     		asrs r1, r1, # 6
 14887 6ece 9211     		asrs r2, r2, # 6
 14888 6ed0 9B11     		asrs r3, r3, # 6
 14889 6ed2 8018     		adds r0, r0, r2	 @r
 14890 6ed4 C918     		adds r1, r1, r3	 @i
 14891 6ed6 3618     		adds r6, r6, r0
 14892 6ed8 7F18     		adds r7, r7, r1
 14893              	
 14894 6eda DD46     		mov sp, r11
 14895 6edc 0FBC     		pop {r0-r3}
 14896 6ede EB46     		mov r11, sp
 14897 6ee0 D546     		mov sp, r10
 14898 6ee2 10BC     		pop {r4}
 14899 6ee4 EA46     		mov r10, sp
 14900 6ee6 2546     		mov r5, r4
 14901 6ee8 2404     		lsls r4, r4, # 16
 14902 6eea 240C     		lsrs r4, r4, # 16
 14903 6eec 2D0C     		lsrs r5, r5, # 16
 14904 6eee 6043     		muls r0, r0, r4
 14905 6ef0 6143     		muls r1, r1, r4
 14906 6ef2 6A43     		muls r2, r2, r5
 14907 6ef4 6B43     		muls r3, r3, r5
 14908 6ef6 8011     		asrs r0, r0, # 6
 14909 6ef8 8911     		asrs r1, r1, # 6
 14910 6efa 9211     		asrs r2, r2, # 6
 14911 6efc 9B11     		asrs r3, r3, # 6
 14912 6efe 8018     		adds r0, r0, r2         @r
 14913 6f00 C918     		adds r1, r1, r3         @i
 14914 6f02 3618     		adds r6, r6, r0
 14915 6f04 7F18     		adds r7, r7, r1
 14916              	
 14917 6f06 DD46     		mov sp, r11
 14918 6f08 0FBC     		pop {r0-r3}
ARM GAS  1.s 			page 263


 14919 6f0a EB46     		mov r11, sp
 14920 6f0c D546     		mov sp, r10
 14921 6f0e 10BC     		pop {r4}
 14922 6f10 EA46     		mov r10, sp
 14923 6f12 2546     		mov r5, r4
 14924 6f14 2404     		lsls r4, r4, # 16
 14925 6f16 240C     		lsrs r4, r4, # 16
 14926 6f18 2D0C     		lsrs r5, r5, # 16
 14927 6f1a 6043     		muls r0, r0, r4
 14928 6f1c 6143     		muls r1, r1, r4
 14929 6f1e 6A43     		muls r2, r2, r5
 14930 6f20 6B43     		muls r3, r3, r5
 14931 6f22 8011     		asrs r0, r0, # 6
 14932 6f24 8911     		asrs r1, r1, # 6
 14933 6f26 9211     		asrs r2, r2, # 6
 14934 6f28 9B11     		asrs r3, r3, # 6
 14935 6f2a 8018     		adds r0, r0, r2  @r
 14936 6f2c C918     		adds r1, r1, r3  @i
 14937 6f2e 3618     		adds r6, r6, r0
 14938 6f30 7F18     		adds r7, r7, r1
 14939              	
 14940 6f32 DD46     		mov sp, r11
 14941 6f34 0FBC     		pop {r0-r3}
 14942 6f36 EB46     		mov r11, sp
 14943 6f38 D546     		mov sp, r10
 14944 6f3a 10BC     		pop {r4}
 14945 6f3c EA46     		mov r10, sp
 14946 6f3e 2546     		mov r5, r4
 14947 6f40 2404     		lsls r4, r4, # 16
 14948 6f42 240C     		lsrs r4, r4, # 16
 14949 6f44 2D0C     		lsrs r5, r5, # 16
 14950 6f46 6043     		muls r0, r0, r4
 14951 6f48 6143     		muls r1, r1, r4
 14952 6f4a 6A43     		muls r2, r2, r5
 14953 6f4c 6B43     		muls r3, r3, r5
 14954 6f4e 8011     		asrs r0, r0, # 6
 14955 6f50 8911     		asrs r1, r1, # 6
 14956 6f52 9211     		asrs r2, r2, # 6
 14957 6f54 9B11     		asrs r3, r3, # 6
 14958 6f56 8018     		adds r0, r0, r2         @r
 14959 6f58 C918     		adds r1, r1, r3         @i
 14960 6f5a 3618     		adds r6, r6, r0
 14961 6f5c 7F18     		adds r7, r7, r1
 14962              	
 14963              		@9
 14964 6f5e DD46     		mov sp, r11
 14965 6f60 0FBC     		pop {r0-r3}
 14966 6f62 EB46     		mov r11, sp
 14967 6f64 D546     		mov sp, r10
 14968 6f66 10BC     		pop {r4}
 14969 6f68 EA46     		mov r10, sp
 14970 6f6a 2546     		mov r5, r4
 14971 6f6c 2404     		lsls r4, r4, # 16
 14972 6f6e 240C     		lsrs r4, r4, # 16
 14973 6f70 2D0C     		lsrs r5, r5, # 16
 14974 6f72 6043     		muls r0, r0, r4		@R
 14975 6f74 6143     		muls r1, r1, r4		@I
ARM GAS  1.s 			page 264


 14976 6f76 6A43     		muls r2, r2, r5		@R
 14977 6f78 6B43     		muls r3, r3, r5		@I
 14978 6f7a 8011     		asrs r0, r0, # 6
 14979 6f7c 8911     		asrs r1, r1, # 6
 14980 6f7e 9211     		asrs r2, r2, # 6
 14981 6f80 9B11     		asrs r3, r3, # 6
 14982 6f82 8018     		adds r0, r0, r2	 @r
 14983 6f84 C918     		adds r1, r1, r3	 @i
 14984 6f86 3618     		adds r6, r6, r0
 14985 6f88 7F18     		adds r7, r7, r1
 14986              	
 14987 6f8a DD46     		mov sp, r11
 14988 6f8c 0FBC     		pop {r0-r3}
 14989 6f8e EB46     		mov r11, sp
 14990 6f90 D546     		mov sp, r10
 14991 6f92 10BC     		pop {r4}
 14992 6f94 EA46     		mov r10, sp
 14993 6f96 2546     		mov r5, r4
 14994 6f98 2404     		lsls r4, r4, # 16
 14995 6f9a 240C     		lsrs r4, r4, # 16
 14996 6f9c 2D0C     		lsrs r5, r5, # 16
 14997 6f9e 6043     		muls r0, r0, r4
 14998 6fa0 6143     		muls r1, r1, r4
 14999 6fa2 6A43     		muls r2, r2, r5
 15000 6fa4 6B43     		muls r3, r3, r5
 15001 6fa6 8011     		asrs r0, r0, # 6
 15002 6fa8 8911     		asrs r1, r1, # 6
 15003 6faa 9211     		asrs r2, r2, # 6
 15004 6fac 9B11     		asrs r3, r3, # 6
 15005 6fae 8018     		adds r0, r0, r2         @r
 15006 6fb0 C918     		adds r1, r1, r3         @i
 15007 6fb2 3618     		adds r6, r6, r0
 15008 6fb4 7F18     		adds r7, r7, r1
 15009              	
 15010 6fb6 DD46     		mov sp, r11
 15011 6fb8 0FBC     		pop {r0-r3}
 15012 6fba EB46     		mov r11, sp
 15013 6fbc D546     		mov sp, r10
 15014 6fbe 10BC     		pop {r4}
 15015 6fc0 EA46     		mov r10, sp
 15016 6fc2 2546     		mov r5, r4
 15017 6fc4 2404     		lsls r4, r4, # 16
 15018 6fc6 240C     		lsrs r4, r4, # 16
 15019 6fc8 2D0C     		lsrs r5, r5, # 16
 15020 6fca 6043     		muls r0, r0, r4
 15021 6fcc 6143     		muls r1, r1, r4
 15022 6fce 6A43     		muls r2, r2, r5
 15023 6fd0 6B43     		muls r3, r3, r5
 15024 6fd2 8011     		asrs r0, r0, # 6
 15025 6fd4 8911     		asrs r1, r1, # 6
 15026 6fd6 9211     		asrs r2, r2, # 6
 15027 6fd8 9B11     		asrs r3, r3, # 6
 15028 6fda 8018     		adds r0, r0, r2  @r
 15029 6fdc C918     		adds r1, r1, r3  @i
 15030 6fde 3618     		adds r6, r6, r0
 15031 6fe0 7F18     		adds r7, r7, r1
 15032              	
ARM GAS  1.s 			page 265


 15033 6fe2 DD46     		mov sp, r11
 15034 6fe4 0FBC     		pop {r0-r3}
 15035 6fe6 EB46     		mov r11, sp
 15036 6fe8 D546     		mov sp, r10
 15037 6fea 10BC     		pop {r4}
 15038 6fec EA46     		mov r10, sp
 15039 6fee 2546     		mov r5, r4
 15040 6ff0 2404     		lsls r4, r4, # 16
 15041 6ff2 240C     		lsrs r4, r4, # 16
 15042 6ff4 2D0C     		lsrs r5, r5, # 16
 15043 6ff6 6043     		muls r0, r0, r4
 15044 6ff8 6143     		muls r1, r1, r4
 15045 6ffa 6A43     		muls r2, r2, r5
 15046 6ffc 6B43     		muls r3, r3, r5
 15047 6ffe 8011     		asrs r0, r0, # 6
 15048 7000 8911     		asrs r1, r1, # 6
 15049 7002 9211     		asrs r2, r2, # 6
 15050 7004 9B11     		asrs r3, r3, # 6
 15051 7006 8018     		adds r0, r0, r2         @r
 15052 7008 C918     		adds r1, r1, r3         @i
 15053 700a 3618     		adds r6, r6, r0
 15054 700c 7F18     		adds r7, r7, r1
 15055              	
 15056              	@yjm15
 15057              		@0
 15058 700e DD46     		mov sp, r11
 15059 7010 0FBC     		pop {r0-r3}
 15060 7012 EB46     		mov r11, sp
 15061 7014 D546     		mov sp, r10
 15062 7016 10BC     		pop {r4}
 15063 7018 EA46     		mov r10, sp
 15064 701a 2546     		mov r5, r4
 15065 701c 2404     		lsls r4, r4, # 16
 15066 701e 240C     		lsrs r4, r4, # 16
 15067 7020 2D0C     		lsrs r5, r5, # 16
 15068 7022 6043     		muls r0, r0, r4		@R
 15069 7024 6143     		muls r1, r1, r4		@I
 15070 7026 6A43     		muls r2, r2, r5		@R
 15071 7028 6B43     		muls r3, r3, r5		@I
 15072 702a 8011     		asrs r0, r0, # 6
 15073 702c 8911     		asrs r1, r1, # 6
 15074 702e 9211     		asrs r2, r2, # 6
 15075 7030 9B11     		asrs r3, r3, # 6
 15076 7032 8018     		adds r0, r0, r2	 @r
 15077 7034 C918     		adds r1, r1, r3	 @i
 15078 7036 3618     		adds r6, r6, r0
 15079 7038 7F18     		adds r7, r7, r1
 15080              	
 15081 703a DD46     		mov sp, r11
 15082 703c 0FBC     		pop {r0-r3}
 15083 703e EB46     		mov r11, sp
 15084 7040 D546     		mov sp, r10
 15085 7042 10BC     		pop {r4}
 15086 7044 EA46     		mov r10, sp
 15087 7046 2546     		mov r5, r4
 15088 7048 2404     		lsls r4, r4, # 16
 15089 704a 240C     		lsrs r4, r4, # 16
ARM GAS  1.s 			page 266


 15090 704c 2D0C     		lsrs r5, r5, # 16
 15091 704e 6043     		muls r0, r0, r4
 15092 7050 6143     		muls r1, r1, r4
 15093 7052 6A43     		muls r2, r2, r5
 15094 7054 6B43     		muls r3, r3, r5
 15095 7056 8011     		asrs r0, r0, # 6
 15096 7058 8911     		asrs r1, r1, # 6
 15097 705a 9211     		asrs r2, r2, # 6
 15098 705c 9B11     		asrs r3, r3, # 6
 15099 705e 8018     		adds r0, r0, r2         @r
 15100 7060 C918     		adds r1, r1, r3         @i
 15101 7062 3618     		adds r6, r6, r0
 15102 7064 7F18     		adds r7, r7, r1
 15103              	
 15104 7066 DD46     		mov sp, r11
 15105 7068 0FBC     		pop {r0-r3}
 15106 706a EB46     		mov r11, sp
 15107 706c D546     		mov sp, r10
 15108 706e 10BC     		pop {r4}
 15109 7070 EA46     		mov r10, sp
 15110 7072 2546     		mov r5, r4
 15111 7074 2404     		lsls r4, r4, # 16
 15112 7076 240C     		lsrs r4, r4, # 16
 15113 7078 2D0C     		lsrs r5, r5, # 16
 15114 707a 6043     		muls r0, r0, r4
 15115 707c 6143     		muls r1, r1, r4
 15116 707e 6A43     		muls r2, r2, r5
 15117 7080 6B43     		muls r3, r3, r5
 15118 7082 8011     		asrs r0, r0, # 6
 15119 7084 8911     		asrs r1, r1, # 6
 15120 7086 9211     		asrs r2, r2, # 6
 15121 7088 9B11     		asrs r3, r3, # 6
 15122 708a 8018     		adds r0, r0, r2  @r
 15123 708c C918     		adds r1, r1, r3  @i
 15124 708e 3618     		adds r6, r6, r0
 15125 7090 7F18     		adds r7, r7, r1
 15126              	
 15127 7092 DD46     		mov sp, r11
 15128 7094 0FBC     		pop {r0-r3}
 15129 7096 EB46     		mov r11, sp
 15130 7098 D546     		mov sp, r10
 15131 709a 10BC     		pop {r4}
 15132 709c EA46     		mov r10, sp
 15133 709e 2546     		mov r5, r4
 15134 70a0 2404     		lsls r4, r4, # 16
 15135 70a2 240C     		lsrs r4, r4, # 16
 15136 70a4 2D0C     		lsrs r5, r5, # 16
 15137 70a6 6043     		muls r0, r0, r4
 15138 70a8 6143     		muls r1, r1, r4
 15139 70aa 6A43     		muls r2, r2, r5
 15140 70ac 6B43     		muls r3, r3, r5
 15141 70ae 8011     		asrs r0, r0, # 6
 15142 70b0 8911     		asrs r1, r1, # 6
 15143 70b2 9211     		asrs r2, r2, # 6
 15144 70b4 9B11     		asrs r3, r3, # 6
 15145 70b6 8018     		adds r0, r0, r2         @r
 15146 70b8 C918     		adds r1, r1, r3         @i
ARM GAS  1.s 			page 267


 15147 70ba 3618     		adds r6, r6, r0
 15148 70bc 7F18     		adds r7, r7, r1
 15149              	
 15150              		@1
 15151 70be DD46     		mov sp, r11
 15152 70c0 0FBC     		pop {r0-r3}
 15153 70c2 EB46     		mov r11, sp
 15154 70c4 D546     		mov sp, r10
 15155 70c6 10BC     		pop {r4}
 15156 70c8 EA46     		mov r10, sp
 15157 70ca 2546     		mov r5, r4
 15158 70cc 2404     		lsls r4, r4, # 16
 15159 70ce 240C     		lsrs r4, r4, # 16
 15160 70d0 2D0C     		lsrs r5, r5, # 16
 15161 70d2 6043     		muls r0, r0, r4		@R
 15162 70d4 6143     		muls r1, r1, r4		@I
 15163 70d6 6A43     		muls r2, r2, r5		@R
 15164 70d8 6B43     		muls r3, r3, r5		@I
 15165 70da 8011     		asrs r0, r0, # 6
 15166 70dc 8911     		asrs r1, r1, # 6
 15167 70de 9211     		asrs r2, r2, # 6
 15168 70e0 9B11     		asrs r3, r3, # 6
 15169 70e2 8018     		adds r0, r0, r2	 @r
 15170 70e4 C918     		adds r1, r1, r3	 @i
 15171 70e6 3618     		adds r6, r6, r0
 15172 70e8 7F18     		adds r7, r7, r1
 15173              	
 15174 70ea DD46     		mov sp, r11
 15175 70ec 0FBC     		pop {r0-r3}
 15176 70ee EB46     		mov r11, sp
 15177 70f0 D546     		mov sp, r10
 15178 70f2 10BC     		pop {r4}
 15179 70f4 EA46     		mov r10, sp
 15180 70f6 2546     		mov r5, r4
 15181 70f8 2404     		lsls r4, r4, # 16
 15182 70fa 240C     		lsrs r4, r4, # 16
 15183 70fc 2D0C     		lsrs r5, r5, # 16
 15184 70fe 6043     		muls r0, r0, r4
 15185 7100 6143     		muls r1, r1, r4
 15186 7102 6A43     		muls r2, r2, r5
 15187 7104 6B43     		muls r3, r3, r5
 15188 7106 8011     		asrs r0, r0, # 6
 15189 7108 8911     		asrs r1, r1, # 6
 15190 710a 9211     		asrs r2, r2, # 6
 15191 710c 9B11     		asrs r3, r3, # 6
 15192 710e 8018     		adds r0, r0, r2         @r
 15193 7110 C918     		adds r1, r1, r3         @i
 15194 7112 3618     		adds r6, r6, r0
 15195 7114 7F18     		adds r7, r7, r1
 15196              	
 15197 7116 DD46     		mov sp, r11
 15198 7118 0FBC     		pop {r0-r3}
 15199 711a EB46     		mov r11, sp
 15200 711c D546     		mov sp, r10
 15201 711e 10BC     		pop {r4}
 15202 7120 EA46     		mov r10, sp
 15203 7122 2546     		mov r5, r4
ARM GAS  1.s 			page 268


 15204 7124 2404     		lsls r4, r4, # 16
 15205 7126 240C     		lsrs r4, r4, # 16
 15206 7128 2D0C     		lsrs r5, r5, # 16
 15207 712a 6043     		muls r0, r0, r4
 15208 712c 6143     		muls r1, r1, r4
 15209 712e 6A43     		muls r2, r2, r5
 15210 7130 6B43     		muls r3, r3, r5
 15211 7132 8011     		asrs r0, r0, # 6
 15212 7134 8911     		asrs r1, r1, # 6
 15213 7136 9211     		asrs r2, r2, # 6
 15214 7138 9B11     		asrs r3, r3, # 6
 15215 713a 8018     		adds r0, r0, r2  @r
 15216 713c C918     		adds r1, r1, r3  @i
 15217 713e 3618     		adds r6, r6, r0
 15218 7140 7F18     		adds r7, r7, r1
 15219              	
 15220 7142 DD46     		mov sp, r11
 15221 7144 0FBC     		pop {r0-r3}
 15222 7146 EB46     		mov r11, sp
 15223 7148 D546     		mov sp, r10
 15224 714a 10BC     		pop {r4}
 15225 714c EA46     		mov r10, sp
 15226 714e 2546     		mov r5, r4
 15227 7150 2404     		lsls r4, r4, # 16
 15228 7152 240C     		lsrs r4, r4, # 16
 15229 7154 2D0C     		lsrs r5, r5, # 16
 15230 7156 6043     		muls r0, r0, r4
 15231 7158 6143     		muls r1, r1, r4
 15232 715a 6A43     		muls r2, r2, r5
 15233 715c 6B43     		muls r3, r3, r5
 15234 715e 8011     		asrs r0, r0, # 6
 15235 7160 8911     		asrs r1, r1, # 6
 15236 7162 9211     		asrs r2, r2, # 6
 15237 7164 9B11     		asrs r3, r3, # 6
 15238 7166 8018     		adds r0, r0, r2         @r
 15239 7168 C918     		adds r1, r1, r3         @i
 15240 716a 3618     		adds r6, r6, r0
 15241 716c 7F18     		adds r7, r7, r1
 15242              	
 15243              		@2
 15244 716e DD46     		mov sp, r11
 15245 7170 0FBC     		pop {r0-r3}
 15246 7172 EB46     		mov r11, sp
 15247 7174 D546     		mov sp, r10
 15248 7176 10BC     		pop {r4}
 15249 7178 EA46     		mov r10, sp
 15250 717a 2546     		mov r5, r4
 15251 717c 2404     		lsls r4, r4, # 16
 15252 717e 240C     		lsrs r4, r4, # 16
 15253 7180 2D0C     		lsrs r5, r5, # 16
 15254 7182 6043     		muls r0, r0, r4		@R
 15255 7184 6143     		muls r1, r1, r4		@I
 15256 7186 6A43     		muls r2, r2, r5		@R
 15257 7188 6B43     		muls r3, r3, r5		@I
 15258 718a 8011     		asrs r0, r0, # 6
 15259 718c 8911     		asrs r1, r1, # 6
 15260 718e 9211     		asrs r2, r2, # 6
ARM GAS  1.s 			page 269


 15261 7190 9B11     		asrs r3, r3, # 6
 15262 7192 8018     		adds r0, r0, r2	 @r
 15263 7194 C918     		adds r1, r1, r3	 @i
 15264 7196 3618     		adds r6, r6, r0
 15265 7198 7F18     		adds r7, r7, r1
 15266              	
 15267 719a DD46     		mov sp, r11
 15268 719c 0FBC     		pop {r0-r3}
 15269 719e EB46     		mov r11, sp
 15270 71a0 D546     		mov sp, r10
 15271 71a2 10BC     		pop {r4}
 15272 71a4 EA46     		mov r10, sp
 15273 71a6 2546     		mov r5, r4
 15274 71a8 2404     		lsls r4, r4, # 16
 15275 71aa 240C     		lsrs r4, r4, # 16
 15276 71ac 2D0C     		lsrs r5, r5, # 16
 15277 71ae 6043     		muls r0, r0, r4
 15278 71b0 6143     		muls r1, r1, r4
 15279 71b2 6A43     		muls r2, r2, r5
 15280 71b4 6B43     		muls r3, r3, r5
 15281 71b6 8011     		asrs r0, r0, # 6
 15282 71b8 8911     		asrs r1, r1, # 6
 15283 71ba 9211     		asrs r2, r2, # 6
 15284 71bc 9B11     		asrs r3, r3, # 6
 15285 71be 8018     		adds r0, r0, r2         @r
 15286 71c0 C918     		adds r1, r1, r3         @i
 15287 71c2 3618     		adds r6, r6, r0
 15288 71c4 7F18     		adds r7, r7, r1
 15289              	
 15290 71c6 DD46     		mov sp, r11
 15291 71c8 0FBC     		pop {r0-r3}
 15292 71ca EB46     		mov r11, sp
 15293 71cc D546     		mov sp, r10
 15294 71ce 10BC     		pop {r4}
 15295 71d0 EA46     		mov r10, sp
 15296 71d2 2546     		mov r5, r4
 15297 71d4 2404     		lsls r4, r4, # 16
 15298 71d6 240C     		lsrs r4, r4, # 16
 15299 71d8 2D0C     		lsrs r5, r5, # 16
 15300 71da 6043     		muls r0, r0, r4
 15301 71dc 6143     		muls r1, r1, r4
 15302 71de 6A43     		muls r2, r2, r5
 15303 71e0 6B43     		muls r3, r3, r5
 15304 71e2 8011     		asrs r0, r0, # 6
 15305 71e4 8911     		asrs r1, r1, # 6
 15306 71e6 9211     		asrs r2, r2, # 6
 15307 71e8 9B11     		asrs r3, r3, # 6
 15308 71ea 8018     		adds r0, r0, r2  @r
 15309 71ec C918     		adds r1, r1, r3  @i
 15310 71ee 3618     		adds r6, r6, r0
 15311 71f0 7F18     		adds r7, r7, r1
 15312              	
 15313 71f2 DD46     		mov sp, r11
 15314 71f4 0FBC     		pop {r0-r3}
 15315 71f6 EB46     		mov r11, sp
 15316 71f8 D546     		mov sp, r10
 15317 71fa 10BC     		pop {r4}
ARM GAS  1.s 			page 270


 15318 71fc EA46     		mov r10, sp
 15319 71fe 2546     		mov r5, r4
 15320 7200 2404     		lsls r4, r4, # 16
 15321 7202 240C     		lsrs r4, r4, # 16
 15322 7204 2D0C     		lsrs r5, r5, # 16
 15323 7206 6043     		muls r0, r0, r4
 15324 7208 6143     		muls r1, r1, r4
 15325 720a 6A43     		muls r2, r2, r5
 15326 720c 6B43     		muls r3, r3, r5
 15327 720e 8011     		asrs r0, r0, # 6
 15328 7210 8911     		asrs r1, r1, # 6
 15329 7212 9211     		asrs r2, r2, # 6
 15330 7214 9B11     		asrs r3, r3, # 6
 15331 7216 8018     		adds r0, r0, r2         @r
 15332 7218 C918     		adds r1, r1, r3         @i
 15333 721a 3618     		adds r6, r6, r0
 15334 721c 7F18     		adds r7, r7, r1
 15335              	
 15336              		@3
 15337 721e DD46     		mov sp, r11
 15338 7220 0FBC     		pop {r0-r3}
 15339 7222 EB46     		mov r11, sp
 15340 7224 D546     		mov sp, r10
 15341 7226 10BC     		pop {r4}
 15342 7228 EA46     		mov r10, sp
 15343 722a 2546     		mov r5, r4
 15344 722c 2404     		lsls r4, r4, # 16
 15345 722e 240C     		lsrs r4, r4, # 16
 15346 7230 2D0C     		lsrs r5, r5, # 16
 15347 7232 6043     		muls r0, r0, r4		@R
 15348 7234 6143     		muls r1, r1, r4		@I
 15349 7236 6A43     		muls r2, r2, r5		@R
 15350 7238 6B43     		muls r3, r3, r5		@I
 15351 723a 8011     		asrs r0, r0, # 6
 15352 723c 8911     		asrs r1, r1, # 6
 15353 723e 9211     		asrs r2, r2, # 6
 15354 7240 9B11     		asrs r3, r3, # 6
 15355 7242 8018     		adds r0, r0, r2	 @r
 15356 7244 C918     		adds r1, r1, r3	 @i
 15357 7246 3618     		adds r6, r6, r0
 15358 7248 7F18     		adds r7, r7, r1
 15359              	
 15360 724a DD46     		mov sp, r11
 15361 724c 0FBC     		pop {r0-r3}
 15362 724e EB46     		mov r11, sp
 15363 7250 D546     		mov sp, r10
 15364 7252 10BC     		pop {r4}
 15365 7254 EA46     		mov r10, sp
 15366 7256 2546     		mov r5, r4
 15367 7258 2404     		lsls r4, r4, # 16
 15368 725a 240C     		lsrs r4, r4, # 16
 15369 725c 2D0C     		lsrs r5, r5, # 16
 15370 725e 6043     		muls r0, r0, r4
 15371 7260 6143     		muls r1, r1, r4
 15372 7262 6A43     		muls r2, r2, r5
 15373 7264 6B43     		muls r3, r3, r5
 15374 7266 8011     		asrs r0, r0, # 6
ARM GAS  1.s 			page 271


 15375 7268 8911     		asrs r1, r1, # 6
 15376 726a 9211     		asrs r2, r2, # 6
 15377 726c 9B11     		asrs r3, r3, # 6
 15378 726e 8018     		adds r0, r0, r2         @r
 15379 7270 C918     		adds r1, r1, r3         @i
 15380 7272 3618     		adds r6, r6, r0
 15381 7274 7F18     		adds r7, r7, r1
 15382              	
 15383 7276 DD46     		mov sp, r11
 15384 7278 0FBC     		pop {r0-r3}
 15385 727a EB46     		mov r11, sp
 15386 727c D546     		mov sp, r10
 15387 727e 10BC     		pop {r4}
 15388 7280 EA46     		mov r10, sp
 15389 7282 2546     		mov r5, r4
 15390 7284 2404     		lsls r4, r4, # 16
 15391 7286 240C     		lsrs r4, r4, # 16
 15392 7288 2D0C     		lsrs r5, r5, # 16
 15393 728a 6043     		muls r0, r0, r4
 15394 728c 6143     		muls r1, r1, r4
 15395 728e 6A43     		muls r2, r2, r5
 15396 7290 6B43     		muls r3, r3, r5
 15397 7292 8011     		asrs r0, r0, # 6
 15398 7294 8911     		asrs r1, r1, # 6
 15399 7296 9211     		asrs r2, r2, # 6
 15400 7298 9B11     		asrs r3, r3, # 6
 15401 729a 8018     		adds r0, r0, r2  @r
 15402 729c C918     		adds r1, r1, r3  @i
 15403 729e 3618     		adds r6, r6, r0
 15404 72a0 7F18     		adds r7, r7, r1
 15405              	
 15406 72a2 DD46     		mov sp, r11
 15407 72a4 0FBC     		pop {r0-r3}
 15408 72a6 EB46     		mov r11, sp
 15409 72a8 D546     		mov sp, r10
 15410 72aa 10BC     		pop {r4}
 15411 72ac EA46     		mov r10, sp
 15412 72ae 2546     		mov r5, r4
 15413 72b0 2404     		lsls r4, r4, # 16
 15414 72b2 240C     		lsrs r4, r4, # 16
 15415 72b4 2D0C     		lsrs r5, r5, # 16
 15416 72b6 6043     		muls r0, r0, r4
 15417 72b8 6143     		muls r1, r1, r4
 15418 72ba 6A43     		muls r2, r2, r5
 15419 72bc 6B43     		muls r3, r3, r5
 15420 72be 8011     		asrs r0, r0, # 6
 15421 72c0 8911     		asrs r1, r1, # 6
 15422 72c2 9211     		asrs r2, r2, # 6
 15423 72c4 9B11     		asrs r3, r3, # 6
 15424 72c6 8018     		adds r0, r0, r2         @r
 15425 72c8 C918     		adds r1, r1, r3         @i
 15426 72ca 3618     		adds r6, r6, r0
 15427 72cc 7F18     		adds r7, r7, r1
 15428              	
 15429              		@4
 15430 72ce DD46     		mov sp, r11
 15431 72d0 0FBC     		pop {r0-r3}
ARM GAS  1.s 			page 272


 15432 72d2 EB46     		mov r11, sp
 15433 72d4 D546     		mov sp, r10
 15434 72d6 10BC     		pop {r4}
 15435 72d8 EA46     		mov r10, sp
 15436 72da 2546     		mov r5, r4
 15437 72dc 2404     		lsls r4, r4, # 16
 15438 72de 240C     		lsrs r4, r4, # 16
 15439 72e0 2D0C     		lsrs r5, r5, # 16
 15440 72e2 6043     		muls r0, r0, r4		@R
 15441 72e4 6143     		muls r1, r1, r4		@I
 15442 72e6 6A43     		muls r2, r2, r5		@R
 15443 72e8 6B43     		muls r3, r3, r5		@I
 15444 72ea 8011     		asrs r0, r0, # 6
 15445 72ec 8911     		asrs r1, r1, # 6
 15446 72ee 9211     		asrs r2, r2, # 6
 15447 72f0 9B11     		asrs r3, r3, # 6
 15448 72f2 8018     		adds r0, r0, r2	 @r
 15449 72f4 C918     		adds r1, r1, r3	 @i
 15450 72f6 3618     		adds r6, r6, r0
 15451 72f8 7F18     		adds r7, r7, r1
 15452              	
 15453 72fa DD46     		mov sp, r11
 15454 72fc 0FBC     		pop {r0-r3}
 15455 72fe EB46     		mov r11, sp
 15456 7300 D546     		mov sp, r10
 15457 7302 10BC     		pop {r4}
 15458 7304 EA46     		mov r10, sp
 15459 7306 2546     		mov r5, r4
 15460 7308 2404     		lsls r4, r4, # 16
 15461 730a 240C     		lsrs r4, r4, # 16
 15462 730c 2D0C     		lsrs r5, r5, # 16
 15463 730e 6043     		muls r0, r0, r4
 15464 7310 6143     		muls r1, r1, r4
 15465 7312 6A43     		muls r2, r2, r5
 15466 7314 6B43     		muls r3, r3, r5
 15467 7316 8011     		asrs r0, r0, # 6
 15468 7318 8911     		asrs r1, r1, # 6
 15469 731a 9211     		asrs r2, r2, # 6
 15470 731c 9B11     		asrs r3, r3, # 6
 15471 731e 8018     		adds r0, r0, r2         @r
 15472 7320 C918     		adds r1, r1, r3         @i
 15473 7322 3618     		adds r6, r6, r0
 15474 7324 7F18     		adds r7, r7, r1
 15475              	
 15476 7326 DD46     		mov sp, r11
 15477 7328 0FBC     		pop {r0-r3}
 15478 732a EB46     		mov r11, sp
 15479 732c D546     		mov sp, r10
 15480 732e 10BC     		pop {r4}
 15481 7330 EA46     		mov r10, sp
 15482 7332 2546     		mov r5, r4
 15483 7334 2404     		lsls r4, r4, # 16
 15484 7336 240C     		lsrs r4, r4, # 16
 15485 7338 2D0C     		lsrs r5, r5, # 16
 15486 733a 6043     		muls r0, r0, r4
 15487 733c 6143     		muls r1, r1, r4
 15488 733e 6A43     		muls r2, r2, r5
ARM GAS  1.s 			page 273


 15489 7340 6B43     		muls r3, r3, r5
 15490 7342 8011     		asrs r0, r0, # 6
 15491 7344 8911     		asrs r1, r1, # 6
 15492 7346 9211     		asrs r2, r2, # 6
 15493 7348 9B11     		asrs r3, r3, # 6
 15494 734a 8018     		adds r0, r0, r2  @r
 15495 734c C918     		adds r1, r1, r3  @i
 15496 734e 3618     		adds r6, r6, r0
 15497 7350 7F18     		adds r7, r7, r1
 15498              	
 15499 7352 DD46     		mov sp, r11
 15500 7354 0FBC     		pop {r0-r3}
 15501 7356 EB46     		mov r11, sp
 15502 7358 D546     		mov sp, r10
 15503 735a 10BC     		pop {r4}
 15504 735c EA46     		mov r10, sp
 15505 735e 2546     		mov r5, r4
 15506 7360 2404     		lsls r4, r4, # 16
 15507 7362 240C     		lsrs r4, r4, # 16
 15508 7364 2D0C     		lsrs r5, r5, # 16
 15509 7366 6043     		muls r0, r0, r4
 15510 7368 6143     		muls r1, r1, r4
 15511 736a 6A43     		muls r2, r2, r5
 15512 736c 6B43     		muls r3, r3, r5
 15513 736e 8011     		asrs r0, r0, # 6
 15514 7370 8911     		asrs r1, r1, # 6
 15515 7372 9211     		asrs r2, r2, # 6
 15516 7374 9B11     		asrs r3, r3, # 6
 15517 7376 8018     		adds r0, r0, r2         @r
 15518 7378 C918     		adds r1, r1, r3         @i
 15519 737a 3618     		adds r6, r6, r0
 15520 737c 7F18     		adds r7, r7, r1
 15521              	
 15522              		@5
 15523 737e DD46     		mov sp, r11
 15524 7380 0FBC     		pop {r0-r3}
 15525 7382 EB46     		mov r11, sp
 15526 7384 D546     		mov sp, r10
 15527 7386 10BC     		pop {r4}
 15528 7388 EA46     		mov r10, sp
 15529 738a 2546     		mov r5, r4
 15530 738c 2404     		lsls r4, r4, # 16
 15531 738e 240C     		lsrs r4, r4, # 16
 15532 7390 2D0C     		lsrs r5, r5, # 16
 15533 7392 6043     		muls r0, r0, r4		@R
 15534 7394 6143     		muls r1, r1, r4		@I
 15535 7396 6A43     		muls r2, r2, r5		@R
 15536 7398 6B43     		muls r3, r3, r5		@I
 15537 739a 8011     		asrs r0, r0, # 6
 15538 739c 8911     		asrs r1, r1, # 6
 15539 739e 9211     		asrs r2, r2, # 6
 15540 73a0 9B11     		asrs r3, r3, # 6
 15541 73a2 8018     		adds r0, r0, r2	 @r
 15542 73a4 C918     		adds r1, r1, r3	 @i
 15543 73a6 3618     		adds r6, r6, r0
 15544 73a8 7F18     		adds r7, r7, r1
 15545              	
ARM GAS  1.s 			page 274


 15546 73aa DD46     		mov sp, r11
 15547 73ac 0FBC     		pop {r0-r3}
 15548 73ae EB46     		mov r11, sp
 15549 73b0 D546     		mov sp, r10
 15550 73b2 10BC     		pop {r4}
 15551 73b4 EA46     		mov r10, sp
 15552 73b6 2546     		mov r5, r4
 15553 73b8 2404     		lsls r4, r4, # 16
 15554 73ba 240C     		lsrs r4, r4, # 16
 15555 73bc 2D0C     		lsrs r5, r5, # 16
 15556 73be 6043     		muls r0, r0, r4
 15557 73c0 6143     		muls r1, r1, r4
 15558 73c2 6A43     		muls r2, r2, r5
 15559 73c4 6B43     		muls r3, r3, r5
 15560 73c6 8011     		asrs r0, r0, # 6
 15561 73c8 8911     		asrs r1, r1, # 6
 15562 73ca 9211     		asrs r2, r2, # 6
 15563 73cc 9B11     		asrs r3, r3, # 6
 15564 73ce 8018     		adds r0, r0, r2         @r
 15565 73d0 C918     		adds r1, r1, r3         @i
 15566 73d2 3618     		adds r6, r6, r0
 15567 73d4 7F18     		adds r7, r7, r1
 15568              	
 15569 73d6 DD46     		mov sp, r11
 15570 73d8 0FBC     		pop {r0-r3}
 15571 73da EB46     		mov r11, sp
 15572 73dc D546     		mov sp, r10
 15573 73de 10BC     		pop {r4}
 15574 73e0 EA46     		mov r10, sp
 15575 73e2 2546     		mov r5, r4
 15576 73e4 2404     		lsls r4, r4, # 16
 15577 73e6 240C     		lsrs r4, r4, # 16
 15578 73e8 2D0C     		lsrs r5, r5, # 16
 15579 73ea 6043     		muls r0, r0, r4
 15580 73ec 6143     		muls r1, r1, r4
 15581 73ee 6A43     		muls r2, r2, r5
 15582 73f0 6B43     		muls r3, r3, r5
 15583 73f2 8011     		asrs r0, r0, # 6
 15584 73f4 8911     		asrs r1, r1, # 6
 15585 73f6 9211     		asrs r2, r2, # 6
 15586 73f8 9B11     		asrs r3, r3, # 6
 15587 73fa 8018     		adds r0, r0, r2  @r
 15588 73fc C918     		adds r1, r1, r3  @i
 15589 73fe 3618     		adds r6, r6, r0
 15590 7400 7F18     		adds r7, r7, r1
 15591              	
 15592 7402 DD46     		mov sp, r11
 15593 7404 0FBC     		pop {r0-r3}
 15594 7406 EB46     		mov r11, sp
 15595 7408 D546     		mov sp, r10
 15596 740a 10BC     		pop {r4}
 15597 740c EA46     		mov r10, sp
 15598 740e 2546     		mov r5, r4
 15599 7410 2404     		lsls r4, r4, # 16
 15600 7412 240C     		lsrs r4, r4, # 16
 15601 7414 2D0C     		lsrs r5, r5, # 16
 15602 7416 6043     		muls r0, r0, r4
ARM GAS  1.s 			page 275


 15603 7418 6143     		muls r1, r1, r4
 15604 741a 6A43     		muls r2, r2, r5
 15605 741c 6B43     		muls r3, r3, r5
 15606 741e 8011     		asrs r0, r0, # 6
 15607 7420 8911     		asrs r1, r1, # 6
 15608 7422 9211     		asrs r2, r2, # 6
 15609 7424 9B11     		asrs r3, r3, # 6
 15610 7426 8018     		adds r0, r0, r2         @r
 15611 7428 C918     		adds r1, r1, r3         @i
 15612 742a 3618     		adds r6, r6, r0
 15613 742c 7F18     		adds r7, r7, r1
 15614              	
 15615              		@6
 15616 742e DD46     		mov sp, r11
 15617 7430 0FBC     		pop {r0-r3}
 15618 7432 EB46     		mov r11, sp
 15619 7434 D546     		mov sp, r10
 15620 7436 10BC     		pop {r4}
 15621 7438 EA46     		mov r10, sp
 15622 743a 2546     		mov r5, r4
 15623 743c 2404     		lsls r4, r4, # 16
 15624 743e 240C     		lsrs r4, r4, # 16
 15625 7440 2D0C     		lsrs r5, r5, # 16
 15626 7442 6043     		muls r0, r0, r4		@R
 15627 7444 6143     		muls r1, r1, r4		@I
 15628 7446 6A43     		muls r2, r2, r5		@R
 15629 7448 6B43     		muls r3, r3, r5		@I
 15630 744a 8011     		asrs r0, r0, # 6
 15631 744c 8911     		asrs r1, r1, # 6
 15632 744e 9211     		asrs r2, r2, # 6
 15633 7450 9B11     		asrs r3, r3, # 6
 15634 7452 8018     		adds r0, r0, r2	 @r
 15635 7454 C918     		adds r1, r1, r3	 @i
 15636 7456 3618     		adds r6, r6, r0
 15637 7458 7F18     		adds r7, r7, r1
 15638              	
 15639 745a DD46     		mov sp, r11
 15640 745c 0FBC     		pop {r0-r3}
 15641 745e EB46     		mov r11, sp
 15642 7460 D546     		mov sp, r10
 15643 7462 10BC     		pop {r4}
 15644 7464 EA46     		mov r10, sp
 15645 7466 2546     		mov r5, r4
 15646 7468 2404     		lsls r4, r4, # 16
 15647 746a 240C     		lsrs r4, r4, # 16
 15648 746c 2D0C     		lsrs r5, r5, # 16
 15649 746e 6043     		muls r0, r0, r4
 15650 7470 6143     		muls r1, r1, r4
 15651 7472 6A43     		muls r2, r2, r5
 15652 7474 6B43     		muls r3, r3, r5
 15653 7476 8011     		asrs r0, r0, # 6
 15654 7478 8911     		asrs r1, r1, # 6
 15655 747a 9211     		asrs r2, r2, # 6
 15656 747c 9B11     		asrs r3, r3, # 6
 15657 747e 8018     		adds r0, r0, r2         @r
 15658 7480 C918     		adds r1, r1, r3         @i
 15659 7482 3618     		adds r6, r6, r0
ARM GAS  1.s 			page 276


 15660 7484 7F18     		adds r7, r7, r1
 15661              	
 15662 7486 DD46     		mov sp, r11
 15663 7488 0FBC     		pop {r0-r3}
 15664 748a EB46     		mov r11, sp
 15665 748c D546     		mov sp, r10
 15666 748e 10BC     		pop {r4}
 15667 7490 EA46     		mov r10, sp
 15668 7492 2546     		mov r5, r4
 15669 7494 2404     		lsls r4, r4, # 16
 15670 7496 240C     		lsrs r4, r4, # 16
 15671 7498 2D0C     		lsrs r5, r5, # 16
 15672 749a 6043     		muls r0, r0, r4
 15673 749c 6143     		muls r1, r1, r4
 15674 749e 6A43     		muls r2, r2, r5
 15675 74a0 6B43     		muls r3, r3, r5
 15676 74a2 8011     		asrs r0, r0, # 6
 15677 74a4 8911     		asrs r1, r1, # 6
 15678 74a6 9211     		asrs r2, r2, # 6
 15679 74a8 9B11     		asrs r3, r3, # 6
 15680 74aa 8018     		adds r0, r0, r2  @r
 15681 74ac C918     		adds r1, r1, r3  @i
 15682 74ae 3618     		adds r6, r6, r0
 15683 74b0 7F18     		adds r7, r7, r1
 15684              	
 15685 74b2 DD46     		mov sp, r11
 15686 74b4 0FBC     		pop {r0-r3}
 15687 74b6 EB46     		mov r11, sp
 15688 74b8 D546     		mov sp, r10
 15689 74ba 10BC     		pop {r4}
 15690 74bc EA46     		mov r10, sp
 15691 74be 2546     		mov r5, r4
 15692 74c0 2404     		lsls r4, r4, # 16
 15693 74c2 240C     		lsrs r4, r4, # 16
 15694 74c4 2D0C     		lsrs r5, r5, # 16
 15695 74c6 6043     		muls r0, r0, r4
 15696 74c8 6143     		muls r1, r1, r4
 15697 74ca 6A43     		muls r2, r2, r5
 15698 74cc 6B43     		muls r3, r3, r5
 15699 74ce 8011     		asrs r0, r0, # 6
 15700 74d0 8911     		asrs r1, r1, # 6
 15701 74d2 9211     		asrs r2, r2, # 6
 15702 74d4 9B11     		asrs r3, r3, # 6
 15703 74d6 8018     		adds r0, r0, r2         @r
 15704 74d8 C918     		adds r1, r1, r3         @i
 15705 74da 3618     		adds r6, r6, r0
 15706 74dc 7F18     		adds r7, r7, r1
 15707              	
 15708              		@7
 15709 74de DD46     		mov sp, r11
 15710 74e0 0FBC     		pop {r0-r3}
 15711 74e2 EB46     		mov r11, sp
 15712 74e4 D546     		mov sp, r10
 15713 74e6 10BC     		pop {r4}
 15714 74e8 EA46     		mov r10, sp
 15715 74ea 2546     		mov r5, r4
 15716 74ec 2404     		lsls r4, r4, # 16
ARM GAS  1.s 			page 277


 15717 74ee 240C     		lsrs r4, r4, # 16
 15718 74f0 2D0C     		lsrs r5, r5, # 16
 15719 74f2 6043     		muls r0, r0, r4		@R
 15720 74f4 6143     		muls r1, r1, r4		@I
 15721 74f6 6A43     		muls r2, r2, r5		@R
 15722 74f8 6B43     		muls r3, r3, r5		@I
 15723 74fa 8011     		asrs r0, r0, # 6
 15724 74fc 8911     		asrs r1, r1, # 6
 15725 74fe 9211     		asrs r2, r2, # 6
 15726 7500 9B11     		asrs r3, r3, # 6
 15727 7502 8018     		adds r0, r0, r2	 @r
 15728 7504 C918     		adds r1, r1, r3	 @i
 15729 7506 3618     		adds r6, r6, r0
 15730 7508 7F18     		adds r7, r7, r1
 15731              	
 15732 750a DD46     		mov sp, r11
 15733 750c 0FBC     		pop {r0-r3}
 15734 750e EB46     		mov r11, sp
 15735 7510 D546     		mov sp, r10
 15736 7512 10BC     		pop {r4}
 15737 7514 EA46     		mov r10, sp
 15738 7516 2546     		mov r5, r4
 15739 7518 2404     		lsls r4, r4, # 16
 15740 751a 240C     		lsrs r4, r4, # 16
 15741 751c 2D0C     		lsrs r5, r5, # 16
 15742 751e 6043     		muls r0, r0, r4
 15743 7520 6143     		muls r1, r1, r4
 15744 7522 6A43     		muls r2, r2, r5
 15745 7524 6B43     		muls r3, r3, r5
 15746 7526 8011     		asrs r0, r0, # 6
 15747 7528 8911     		asrs r1, r1, # 6
 15748 752a 9211     		asrs r2, r2, # 6
 15749 752c 9B11     		asrs r3, r3, # 6
 15750 752e 8018     		adds r0, r0, r2         @r
 15751 7530 C918     		adds r1, r1, r3         @i
 15752 7532 3618     		adds r6, r6, r0
 15753 7534 7F18     		adds r7, r7, r1
 15754              	
 15755 7536 DD46     		mov sp, r11
 15756 7538 0FBC     		pop {r0-r3}
 15757 753a EB46     		mov r11, sp
 15758 753c D546     		mov sp, r10
 15759 753e 10BC     		pop {r4}
 15760 7540 EA46     		mov r10, sp
 15761 7542 2546     		mov r5, r4
 15762 7544 2404     		lsls r4, r4, # 16
 15763 7546 240C     		lsrs r4, r4, # 16
 15764 7548 2D0C     		lsrs r5, r5, # 16
 15765 754a 6043     		muls r0, r0, r4
 15766 754c 6143     		muls r1, r1, r4
 15767 754e 6A43     		muls r2, r2, r5
 15768 7550 6B43     		muls r3, r3, r5
 15769 7552 8011     		asrs r0, r0, # 6
 15770 7554 8911     		asrs r1, r1, # 6
 15771 7556 9211     		asrs r2, r2, # 6
 15772 7558 9B11     		asrs r3, r3, # 6
 15773 755a 8018     		adds r0, r0, r2  @r
ARM GAS  1.s 			page 278


 15774 755c C918     		adds r1, r1, r3  @i
 15775 755e 3618     		adds r6, r6, r0
 15776 7560 7F18     		adds r7, r7, r1
 15777              	
 15778 7562 DD46     		mov sp, r11
 15779 7564 0FBC     		pop {r0-r3}
 15780 7566 EB46     		mov r11, sp
 15781 7568 D546     		mov sp, r10
 15782 756a 10BC     		pop {r4}
 15783 756c EA46     		mov r10, sp
 15784 756e 2546     		mov r5, r4
 15785 7570 2404     		lsls r4, r4, # 16
 15786 7572 240C     		lsrs r4, r4, # 16
 15787 7574 2D0C     		lsrs r5, r5, # 16
 15788 7576 6043     		muls r0, r0, r4
 15789 7578 6143     		muls r1, r1, r4
 15790 757a 6A43     		muls r2, r2, r5
 15791 757c 6B43     		muls r3, r3, r5
 15792 757e 8011     		asrs r0, r0, # 6
 15793 7580 8911     		asrs r1, r1, # 6
 15794 7582 9211     		asrs r2, r2, # 6
 15795 7584 9B11     		asrs r3, r3, # 6
 15796 7586 8018     		adds r0, r0, r2         @r
 15797 7588 C918     		adds r1, r1, r3         @i
 15798 758a 3618     		adds r6, r6, r0
 15799 758c 7F18     		adds r7, r7, r1
 15800              	
 15801              		@8
 15802 758e DD46     		mov sp, r11
 15803 7590 0FBC     		pop {r0-r3}
 15804 7592 EB46     		mov r11, sp
 15805 7594 D546     		mov sp, r10
 15806 7596 10BC     		pop {r4}
 15807 7598 EA46     		mov r10, sp
 15808 759a 2546     		mov r5, r4
 15809 759c 2404     		lsls r4, r4, # 16
 15810 759e 240C     		lsrs r4, r4, # 16
 15811 75a0 2D0C     		lsrs r5, r5, # 16
 15812 75a2 6043     		muls r0, r0, r4		@R
 15813 75a4 6143     		muls r1, r1, r4		@I
 15814 75a6 6A43     		muls r2, r2, r5		@R
 15815 75a8 6B43     		muls r3, r3, r5		@I
 15816 75aa 8011     		asrs r0, r0, # 6
 15817 75ac 8911     		asrs r1, r1, # 6
 15818 75ae 9211     		asrs r2, r2, # 6
 15819 75b0 9B11     		asrs r3, r3, # 6
 15820 75b2 8018     		adds r0, r0, r2	 @r
 15821 75b4 C918     		adds r1, r1, r3	 @i
 15822 75b6 3618     		adds r6, r6, r0
 15823 75b8 7F18     		adds r7, r7, r1
 15824              	
 15825 75ba DD46     		mov sp, r11
 15826 75bc 0FBC     		pop {r0-r3}
 15827 75be EB46     		mov r11, sp
 15828 75c0 D546     		mov sp, r10
 15829 75c2 10BC     		pop {r4}
 15830 75c4 EA46     		mov r10, sp
ARM GAS  1.s 			page 279


 15831 75c6 2546     		mov r5, r4
 15832 75c8 2404     		lsls r4, r4, # 16
 15833 75ca 240C     		lsrs r4, r4, # 16
 15834 75cc 2D0C     		lsrs r5, r5, # 16
 15835 75ce 6043     		muls r0, r0, r4
 15836 75d0 6143     		muls r1, r1, r4
 15837 75d2 6A43     		muls r2, r2, r5
 15838 75d4 6B43     		muls r3, r3, r5
 15839 75d6 8011     		asrs r0, r0, # 6
 15840 75d8 8911     		asrs r1, r1, # 6
 15841 75da 9211     		asrs r2, r2, # 6
 15842 75dc 9B11     		asrs r3, r3, # 6
 15843 75de 8018     		adds r0, r0, r2         @r
 15844 75e0 C918     		adds r1, r1, r3         @i
 15845 75e2 3618     		adds r6, r6, r0
 15846 75e4 7F18     		adds r7, r7, r1
 15847              	
 15848 75e6 DD46     		mov sp, r11
 15849 75e8 0FBC     		pop {r0-r3}
 15850 75ea EB46     		mov r11, sp
 15851 75ec D546     		mov sp, r10
 15852 75ee 10BC     		pop {r4}
 15853 75f0 EA46     		mov r10, sp
 15854 75f2 2546     		mov r5, r4
 15855 75f4 2404     		lsls r4, r4, # 16
 15856 75f6 240C     		lsrs r4, r4, # 16
 15857 75f8 2D0C     		lsrs r5, r5, # 16
 15858 75fa 6043     		muls r0, r0, r4
 15859 75fc 6143     		muls r1, r1, r4
 15860 75fe 6A43     		muls r2, r2, r5
 15861 7600 6B43     		muls r3, r3, r5
 15862 7602 8011     		asrs r0, r0, # 6
 15863 7604 8911     		asrs r1, r1, # 6
 15864 7606 9211     		asrs r2, r2, # 6
 15865 7608 9B11     		asrs r3, r3, # 6
 15866 760a 8018     		adds r0, r0, r2  @r
 15867 760c C918     		adds r1, r1, r3  @i
 15868 760e 3618     		adds r6, r6, r0
 15869 7610 7F18     		adds r7, r7, r1
 15870              	
 15871 7612 DD46     		mov sp, r11
 15872 7614 0FBC     		pop {r0-r3}
 15873 7616 EB46     		mov r11, sp
 15874 7618 D546     		mov sp, r10
 15875 761a 10BC     		pop {r4}
 15876 761c EA46     		mov r10, sp
 15877 761e 2546     		mov r5, r4
 15878 7620 2404     		lsls r4, r4, # 16
 15879 7622 240C     		lsrs r4, r4, # 16
 15880 7624 2D0C     		lsrs r5, r5, # 16
 15881 7626 6043     		muls r0, r0, r4
 15882 7628 6143     		muls r1, r1, r4
 15883 762a 6A43     		muls r2, r2, r5
 15884 762c 6B43     		muls r3, r3, r5
 15885 762e 8011     		asrs r0, r0, # 6
 15886 7630 8911     		asrs r1, r1, # 6
 15887 7632 9211     		asrs r2, r2, # 6
ARM GAS  1.s 			page 280


 15888 7634 9B11     		asrs r3, r3, # 6
 15889 7636 8018     		adds r0, r0, r2         @r
 15890 7638 C918     		adds r1, r1, r3         @i
 15891 763a 3618     		adds r6, r6, r0
 15892 763c 7F18     		adds r7, r7, r1
 15893              	
 15894              		@9
 15895 763e DD46     		mov sp, r11
 15896 7640 0FBC     		pop {r0-r3}
 15897 7642 EB46     		mov r11, sp
 15898 7644 D546     		mov sp, r10
 15899 7646 10BC     		pop {r4}
 15900 7648 EA46     		mov r10, sp
 15901 764a 2546     		mov r5, r4
 15902 764c 2404     		lsls r4, r4, # 16
 15903 764e 240C     		lsrs r4, r4, # 16
 15904 7650 2D0C     		lsrs r5, r5, # 16
 15905 7652 6043     		muls r0, r0, r4		@R
 15906 7654 6143     		muls r1, r1, r4		@I
 15907 7656 6A43     		muls r2, r2, r5		@R
 15908 7658 6B43     		muls r3, r3, r5		@I
 15909 765a 8011     		asrs r0, r0, # 6
 15910 765c 8911     		asrs r1, r1, # 6
 15911 765e 9211     		asrs r2, r2, # 6
 15912 7660 9B11     		asrs r3, r3, # 6
 15913 7662 8018     		adds r0, r0, r2	 @r
 15914 7664 C918     		adds r1, r1, r3	 @i
 15915 7666 3618     		adds r6, r6, r0
 15916 7668 7F18     		adds r7, r7, r1
 15917              	
 15918 766a DD46     		mov sp, r11
 15919 766c 0FBC     		pop {r0-r3}
 15920 766e EB46     		mov r11, sp
 15921 7670 D546     		mov sp, r10
 15922 7672 10BC     		pop {r4}
 15923 7674 EA46     		mov r10, sp
 15924 7676 2546     		mov r5, r4
 15925 7678 2404     		lsls r4, r4, # 16
 15926 767a 240C     		lsrs r4, r4, # 16
 15927 767c 2D0C     		lsrs r5, r5, # 16
 15928 767e 6043     		muls r0, r0, r4
 15929 7680 6143     		muls r1, r1, r4
 15930 7682 6A43     		muls r2, r2, r5
 15931 7684 6B43     		muls r3, r3, r5
 15932 7686 8011     		asrs r0, r0, # 6
 15933 7688 8911     		asrs r1, r1, # 6
 15934 768a 9211     		asrs r2, r2, # 6
 15935 768c 9B11     		asrs r3, r3, # 6
 15936 768e 8018     		adds r0, r0, r2         @r
 15937 7690 C918     		adds r1, r1, r3         @i
 15938 7692 3618     		adds r6, r6, r0
 15939 7694 7F18     		adds r7, r7, r1
 15940              	
 15941 7696 DD46     		mov sp, r11
 15942 7698 0FBC     		pop {r0-r3}
 15943 769a EB46     		mov r11, sp
 15944 769c D546     		mov sp, r10
ARM GAS  1.s 			page 281


 15945 769e 10BC     		pop {r4}
 15946 76a0 EA46     		mov r10, sp
 15947 76a2 2546     		mov r5, r4
 15948 76a4 2404     		lsls r4, r4, # 16
 15949 76a6 240C     		lsrs r4, r4, # 16
 15950 76a8 2D0C     		lsrs r5, r5, # 16
 15951 76aa 6043     		muls r0, r0, r4
 15952 76ac 6143     		muls r1, r1, r4
 15953 76ae 6A43     		muls r2, r2, r5
 15954 76b0 6B43     		muls r3, r3, r5
 15955 76b2 8011     		asrs r0, r0, # 6
 15956 76b4 8911     		asrs r1, r1, # 6
 15957 76b6 9211     		asrs r2, r2, # 6
 15958 76b8 9B11     		asrs r3, r3, # 6
 15959 76ba 8018     		adds r0, r0, r2  @r
 15960 76bc C918     		adds r1, r1, r3  @i
 15961 76be 3618     		adds r6, r6, r0
 15962 76c0 7F18     		adds r7, r7, r1
 15963              	
 15964 76c2 DD46     		mov sp, r11
 15965 76c4 0FBC     		pop {r0-r3}
 15966 76c6 EB46     		mov r11, sp
 15967 76c8 D546     		mov sp, r10
 15968 76ca 10BC     		pop {r4}
 15969 76cc EA46     		mov r10, sp
 15970 76ce 2546     		mov r5, r4
 15971 76d0 2404     		lsls r4, r4, # 16
 15972 76d2 240C     		lsrs r4, r4, # 16
 15973 76d4 2D0C     		lsrs r5, r5, # 16
 15974 76d6 6043     		muls r0, r0, r4
 15975 76d8 6143     		muls r1, r1, r4
 15976 76da 6A43     		muls r2, r2, r5
 15977 76dc 6B43     		muls r3, r3, r5
 15978 76de 8011     		asrs r0, r0, # 6
 15979 76e0 8911     		asrs r1, r1, # 6
 15980 76e2 9211     		asrs r2, r2, # 6
 15981 76e4 9B11     		asrs r3, r3, # 6
 15982 76e6 8018     		adds r0, r0, r2         @r
 15983 76e8 C918     		adds r1, r1, r3         @i
 15984 76ea 3618     		adds r6, r6, r0
 15985 76ec 7F18     		adds r7, r7, r1
 15986              	
 15987              	@yjm16
 15988              		@0
 15989 76ee DD46     		mov sp, r11
 15990 76f0 0FBC     		pop {r0-r3}
 15991 76f2 EB46     		mov r11, sp
 15992 76f4 D546     		mov sp, r10
 15993 76f6 10BC     		pop {r4}
 15994 76f8 EA46     		mov r10, sp
 15995 76fa 2546     		mov r5, r4
 15996 76fc 2404     		lsls r4, r4, # 16
 15997 76fe 240C     		lsrs r4, r4, # 16
 15998 7700 2D0C     		lsrs r5, r5, # 16
 15999 7702 6043     		muls r0, r0, r4		@R
 16000 7704 6143     		muls r1, r1, r4		@I
 16001 7706 6A43     		muls r2, r2, r5		@R
ARM GAS  1.s 			page 282


 16002 7708 6B43     		muls r3, r3, r5		@I
 16003 770a 8011     		asrs r0, r0, # 6
 16004 770c 8911     		asrs r1, r1, # 6
 16005 770e 9211     		asrs r2, r2, # 6
 16006 7710 9B11     		asrs r3, r3, # 6
 16007 7712 8018     		adds r0, r0, r2	 @r
 16008 7714 C918     		adds r1, r1, r3	 @i
 16009 7716 3618     		adds r6, r6, r0
 16010 7718 7F18     		adds r7, r7, r1
 16011              	
 16012 771a DD46     		mov sp, r11
 16013 771c 0FBC     		pop {r0-r3}
 16014 771e EB46     		mov r11, sp
 16015 7720 D546     		mov sp, r10
 16016 7722 10BC     		pop {r4}
 16017 7724 EA46     		mov r10, sp
 16018 7726 2546     		mov r5, r4
 16019 7728 2404     		lsls r4, r4, # 16
 16020 772a 240C     		lsrs r4, r4, # 16
 16021 772c 2D0C     		lsrs r5, r5, # 16
 16022 772e 6043     		muls r0, r0, r4
 16023 7730 6143     		muls r1, r1, r4
 16024 7732 6A43     		muls r2, r2, r5
 16025 7734 6B43     		muls r3, r3, r5
 16026 7736 8011     		asrs r0, r0, # 6
 16027 7738 8911     		asrs r1, r1, # 6
 16028 773a 9211     		asrs r2, r2, # 6
 16029 773c 9B11     		asrs r3, r3, # 6
 16030 773e 8018     		adds r0, r0, r2         @r
 16031 7740 C918     		adds r1, r1, r3         @i
 16032 7742 3618     		adds r6, r6, r0
 16033 7744 7F18     		adds r7, r7, r1
 16034              	
 16035 7746 DD46     		mov sp, r11
 16036 7748 0FBC     		pop {r0-r3}
 16037 774a EB46     		mov r11, sp
 16038 774c D546     		mov sp, r10
 16039 774e 10BC     		pop {r4}
 16040 7750 EA46     		mov r10, sp
 16041 7752 2546     		mov r5, r4
 16042 7754 2404     		lsls r4, r4, # 16
 16043 7756 240C     		lsrs r4, r4, # 16
 16044 7758 2D0C     		lsrs r5, r5, # 16
 16045 775a 6043     		muls r0, r0, r4
 16046 775c 6143     		muls r1, r1, r4
 16047 775e 6A43     		muls r2, r2, r5
 16048 7760 6B43     		muls r3, r3, r5
 16049 7762 8011     		asrs r0, r0, # 6
 16050 7764 8911     		asrs r1, r1, # 6
 16051 7766 9211     		asrs r2, r2, # 6
 16052 7768 9B11     		asrs r3, r3, # 6
 16053 776a 8018     		adds r0, r0, r2  @r
 16054 776c C918     		adds r1, r1, r3  @i
 16055 776e 3618     		adds r6, r6, r0
 16056 7770 7F18     		adds r7, r7, r1
 16057              	
 16058 7772 DD46     		mov sp, r11
ARM GAS  1.s 			page 283


 16059 7774 0FBC     		pop {r0-r3}
 16060 7776 EB46     		mov r11, sp
 16061 7778 D546     		mov sp, r10
 16062 777a 10BC     		pop {r4}
 16063 777c EA46     		mov r10, sp
 16064 777e 2546     		mov r5, r4
 16065 7780 2404     		lsls r4, r4, # 16
 16066 7782 240C     		lsrs r4, r4, # 16
 16067 7784 2D0C     		lsrs r5, r5, # 16
 16068 7786 6043     		muls r0, r0, r4
 16069 7788 6143     		muls r1, r1, r4
 16070 778a 6A43     		muls r2, r2, r5
 16071 778c 6B43     		muls r3, r3, r5
 16072 778e 8011     		asrs r0, r0, # 6
 16073 7790 8911     		asrs r1, r1, # 6
 16074 7792 9211     		asrs r2, r2, # 6
 16075 7794 9B11     		asrs r3, r3, # 6
 16076 7796 8018     		adds r0, r0, r2         @r
 16077 7798 C918     		adds r1, r1, r3         @i
 16078 779a 3618     		adds r6, r6, r0
 16079 779c 7F18     		adds r7, r7, r1
 16080              	
 16081              		@1
 16082 779e DD46     		mov sp, r11
 16083 77a0 0FBC     		pop {r0-r3}
 16084 77a2 EB46     		mov r11, sp
 16085 77a4 D546     		mov sp, r10
 16086 77a6 10BC     		pop {r4}
 16087 77a8 EA46     		mov r10, sp
 16088 77aa 2546     		mov r5, r4
 16089 77ac 2404     		lsls r4, r4, # 16
 16090 77ae 240C     		lsrs r4, r4, # 16
 16091 77b0 2D0C     		lsrs r5, r5, # 16
 16092 77b2 6043     		muls r0, r0, r4		@R
 16093 77b4 6143     		muls r1, r1, r4		@I
 16094 77b6 6A43     		muls r2, r2, r5		@R
 16095 77b8 6B43     		muls r3, r3, r5		@I
 16096 77ba 8011     		asrs r0, r0, # 6
 16097 77bc 8911     		asrs r1, r1, # 6
 16098 77be 9211     		asrs r2, r2, # 6
 16099 77c0 9B11     		asrs r3, r3, # 6
 16100 77c2 8018     		adds r0, r0, r2	 @r
 16101 77c4 C918     		adds r1, r1, r3	 @i
 16102 77c6 3618     		adds r6, r6, r0
 16103 77c8 7F18     		adds r7, r7, r1
 16104              	
 16105 77ca DD46     		mov sp, r11
 16106 77cc 0FBC     		pop {r0-r3}
 16107 77ce EB46     		mov r11, sp
 16108 77d0 D546     		mov sp, r10
 16109 77d2 10BC     		pop {r4}
 16110 77d4 EA46     		mov r10, sp
 16111 77d6 2546     		mov r5, r4
 16112 77d8 2404     		lsls r4, r4, # 16
 16113 77da 240C     		lsrs r4, r4, # 16
 16114 77dc 2D0C     		lsrs r5, r5, # 16
 16115 77de 6043     		muls r0, r0, r4
ARM GAS  1.s 			page 284


 16116 77e0 6143     		muls r1, r1, r4
 16117 77e2 6A43     		muls r2, r2, r5
 16118 77e4 6B43     		muls r3, r3, r5
 16119 77e6 8011     		asrs r0, r0, # 6
 16120 77e8 8911     		asrs r1, r1, # 6
 16121 77ea 9211     		asrs r2, r2, # 6
 16122 77ec 9B11     		asrs r3, r3, # 6
 16123 77ee 8018     		adds r0, r0, r2         @r
 16124 77f0 C918     		adds r1, r1, r3         @i
 16125 77f2 3618     		adds r6, r6, r0
 16126 77f4 7F18     		adds r7, r7, r1
 16127              	
 16128 77f6 DD46     		mov sp, r11
 16129 77f8 0FBC     		pop {r0-r3}
 16130 77fa EB46     		mov r11, sp
 16131 77fc D546     		mov sp, r10
 16132 77fe 10BC     		pop {r4}
 16133 7800 EA46     		mov r10, sp
 16134 7802 2546     		mov r5, r4
 16135 7804 2404     		lsls r4, r4, # 16
 16136 7806 240C     		lsrs r4, r4, # 16
 16137 7808 2D0C     		lsrs r5, r5, # 16
 16138 780a 6043     		muls r0, r0, r4
 16139 780c 6143     		muls r1, r1, r4
 16140 780e 6A43     		muls r2, r2, r5
 16141 7810 6B43     		muls r3, r3, r5
 16142 7812 8011     		asrs r0, r0, # 6
 16143 7814 8911     		asrs r1, r1, # 6
 16144 7816 9211     		asrs r2, r2, # 6
 16145 7818 9B11     		asrs r3, r3, # 6
 16146 781a 8018     		adds r0, r0, r2  @r
 16147 781c C918     		adds r1, r1, r3  @i
 16148 781e 3618     		adds r6, r6, r0
 16149 7820 7F18     		adds r7, r7, r1
 16150              	
 16151 7822 DD46     		mov sp, r11
 16152 7824 0FBC     		pop {r0-r3}
 16153 7826 EB46     		mov r11, sp
 16154 7828 D546     		mov sp, r10
 16155 782a 10BC     		pop {r4}
 16156 782c EA46     		mov r10, sp
 16157 782e 2546     		mov r5, r4
 16158 7830 2404     		lsls r4, r4, # 16
 16159 7832 240C     		lsrs r4, r4, # 16
 16160 7834 2D0C     		lsrs r5, r5, # 16
 16161 7836 6043     		muls r0, r0, r4
 16162 7838 6143     		muls r1, r1, r4
 16163 783a 6A43     		muls r2, r2, r5
 16164 783c 6B43     		muls r3, r3, r5
 16165 783e 8011     		asrs r0, r0, # 6
 16166 7840 8911     		asrs r1, r1, # 6
 16167 7842 9211     		asrs r2, r2, # 6
 16168 7844 9B11     		asrs r3, r3, # 6
 16169 7846 8018     		adds r0, r0, r2         @r
 16170 7848 C918     		adds r1, r1, r3         @i
 16171 784a 3618     		adds r6, r6, r0
 16172 784c 7F18     		adds r7, r7, r1
ARM GAS  1.s 			page 285


 16173              	
 16174              		@2
 16175 784e DD46     		mov sp, r11
 16176 7850 0FBC     		pop {r0-r3}
 16177 7852 EB46     		mov r11, sp
 16178 7854 D546     		mov sp, r10
 16179 7856 10BC     		pop {r4}
 16180 7858 EA46     		mov r10, sp
 16181 785a 2546     		mov r5, r4
 16182 785c 2404     		lsls r4, r4, # 16
 16183 785e 240C     		lsrs r4, r4, # 16
 16184 7860 2D0C     		lsrs r5, r5, # 16
 16185 7862 6043     		muls r0, r0, r4		@R
 16186 7864 6143     		muls r1, r1, r4		@I
 16187 7866 6A43     		muls r2, r2, r5		@R
 16188 7868 6B43     		muls r3, r3, r5		@I
 16189 786a 8011     		asrs r0, r0, # 6
 16190 786c 8911     		asrs r1, r1, # 6
 16191 786e 9211     		asrs r2, r2, # 6
 16192 7870 9B11     		asrs r3, r3, # 6
 16193 7872 8018     		adds r0, r0, r2	 @r
 16194 7874 C918     		adds r1, r1, r3	 @i
 16195 7876 3618     		adds r6, r6, r0
 16196 7878 7F18     		adds r7, r7, r1
 16197              	
 16198 787a DD46     		mov sp, r11
 16199 787c 0FBC     		pop {r0-r3}
 16200 787e EB46     		mov r11, sp
 16201 7880 D546     		mov sp, r10
 16202 7882 10BC     		pop {r4}
 16203 7884 EA46     		mov r10, sp
 16204 7886 2546     		mov r5, r4
 16205 7888 2404     		lsls r4, r4, # 16
 16206 788a 240C     		lsrs r4, r4, # 16
 16207 788c 2D0C     		lsrs r5, r5, # 16
 16208 788e 6043     		muls r0, r0, r4
 16209 7890 6143     		muls r1, r1, r4
 16210 7892 6A43     		muls r2, r2, r5
 16211 7894 6B43     		muls r3, r3, r5
 16212 7896 8011     		asrs r0, r0, # 6
 16213 7898 8911     		asrs r1, r1, # 6
 16214 789a 9211     		asrs r2, r2, # 6
 16215 789c 9B11     		asrs r3, r3, # 6
 16216 789e 8018     		adds r0, r0, r2         @r
 16217 78a0 C918     		adds r1, r1, r3         @i
 16218 78a2 3618     		adds r6, r6, r0
 16219 78a4 7F18     		adds r7, r7, r1
 16220              	
 16221 78a6 DD46     		mov sp, r11
 16222 78a8 0FBC     		pop {r0-r3}
 16223 78aa EB46     		mov r11, sp
 16224 78ac D546     		mov sp, r10
 16225 78ae 10BC     		pop {r4}
 16226 78b0 EA46     		mov r10, sp
 16227 78b2 2546     		mov r5, r4
 16228 78b4 2404     		lsls r4, r4, # 16
 16229 78b6 240C     		lsrs r4, r4, # 16
ARM GAS  1.s 			page 286


 16230 78b8 2D0C     		lsrs r5, r5, # 16
 16231 78ba 6043     		muls r0, r0, r4
 16232 78bc 6143     		muls r1, r1, r4
 16233 78be 6A43     		muls r2, r2, r5
 16234 78c0 6B43     		muls r3, r3, r5
 16235 78c2 8011     		asrs r0, r0, # 6
 16236 78c4 8911     		asrs r1, r1, # 6
 16237 78c6 9211     		asrs r2, r2, # 6
 16238 78c8 9B11     		asrs r3, r3, # 6
 16239 78ca 8018     		adds r0, r0, r2  @r
 16240 78cc C918     		adds r1, r1, r3  @i
 16241 78ce 3618     		adds r6, r6, r0
 16242 78d0 7F18     		adds r7, r7, r1
 16243              	
 16244 78d2 DD46     		mov sp, r11
 16245 78d4 0FBC     		pop {r0-r3}
 16246 78d6 EB46     		mov r11, sp
 16247 78d8 D546     		mov sp, r10
 16248 78da 10BC     		pop {r4}
 16249 78dc EA46     		mov r10, sp
 16250 78de 2546     		mov r5, r4
 16251 78e0 2404     		lsls r4, r4, # 16
 16252 78e2 240C     		lsrs r4, r4, # 16
 16253 78e4 2D0C     		lsrs r5, r5, # 16
 16254 78e6 6043     		muls r0, r0, r4
 16255 78e8 6143     		muls r1, r1, r4
 16256 78ea 6A43     		muls r2, r2, r5
 16257 78ec 6B43     		muls r3, r3, r5
 16258 78ee 8011     		asrs r0, r0, # 6
 16259 78f0 8911     		asrs r1, r1, # 6
 16260 78f2 9211     		asrs r2, r2, # 6
 16261 78f4 9B11     		asrs r3, r3, # 6
 16262 78f6 8018     		adds r0, r0, r2         @r
 16263 78f8 C918     		adds r1, r1, r3         @i
 16264 78fa 3618     		adds r6, r6, r0
 16265 78fc 7F18     		adds r7, r7, r1
 16266              	
 16267              		@3
 16268 78fe DD46     		mov sp, r11
 16269 7900 0FBC     		pop {r0-r3}
 16270 7902 EB46     		mov r11, sp
 16271 7904 D546     		mov sp, r10
 16272 7906 10BC     		pop {r4}
 16273 7908 EA46     		mov r10, sp
 16274 790a 2546     		mov r5, r4
 16275 790c 2404     		lsls r4, r4, # 16
 16276 790e 240C     		lsrs r4, r4, # 16
 16277 7910 2D0C     		lsrs r5, r5, # 16
 16278 7912 6043     		muls r0, r0, r4		@R
 16279 7914 6143     		muls r1, r1, r4		@I
 16280 7916 6A43     		muls r2, r2, r5		@R
 16281 7918 6B43     		muls r3, r3, r5		@I
 16282 791a 8011     		asrs r0, r0, # 6
 16283 791c 8911     		asrs r1, r1, # 6
 16284 791e 9211     		asrs r2, r2, # 6
 16285 7920 9B11     		asrs r3, r3, # 6
 16286 7922 8018     		adds r0, r0, r2	 @r
ARM GAS  1.s 			page 287


 16287 7924 C918     		adds r1, r1, r3	 @i
 16288 7926 3618     		adds r6, r6, r0
 16289 7928 7F18     		adds r7, r7, r1
 16290              	
 16291 792a DD46     		mov sp, r11
 16292 792c 0FBC     		pop {r0-r3}
 16293 792e EB46     		mov r11, sp
 16294 7930 D546     		mov sp, r10
 16295 7932 10BC     		pop {r4}
 16296 7934 EA46     		mov r10, sp
 16297 7936 2546     		mov r5, r4
 16298 7938 2404     		lsls r4, r4, # 16
 16299 793a 240C     		lsrs r4, r4, # 16
 16300 793c 2D0C     		lsrs r5, r5, # 16
 16301 793e 6043     		muls r0, r0, r4
 16302 7940 6143     		muls r1, r1, r4
 16303 7942 6A43     		muls r2, r2, r5
 16304 7944 6B43     		muls r3, r3, r5
 16305 7946 8011     		asrs r0, r0, # 6
 16306 7948 8911     		asrs r1, r1, # 6
 16307 794a 9211     		asrs r2, r2, # 6
 16308 794c 9B11     		asrs r3, r3, # 6
 16309 794e 8018     		adds r0, r0, r2         @r
 16310 7950 C918     		adds r1, r1, r3         @i
 16311 7952 3618     		adds r6, r6, r0
 16312 7954 7F18     		adds r7, r7, r1
 16313              	
 16314 7956 DD46     		mov sp, r11
 16315 7958 0FBC     		pop {r0-r3}
 16316 795a EB46     		mov r11, sp
 16317 795c D546     		mov sp, r10
 16318 795e 10BC     		pop {r4}
 16319 7960 EA46     		mov r10, sp
 16320 7962 2546     		mov r5, r4
 16321 7964 2404     		lsls r4, r4, # 16
 16322 7966 240C     		lsrs r4, r4, # 16
 16323 7968 2D0C     		lsrs r5, r5, # 16
 16324 796a 6043     		muls r0, r0, r4
 16325 796c 6143     		muls r1, r1, r4
 16326 796e 6A43     		muls r2, r2, r5
 16327 7970 6B43     		muls r3, r3, r5
 16328 7972 8011     		asrs r0, r0, # 6
 16329 7974 8911     		asrs r1, r1, # 6
 16330 7976 9211     		asrs r2, r2, # 6
 16331 7978 9B11     		asrs r3, r3, # 6
 16332 797a 8018     		adds r0, r0, r2  @r
 16333 797c C918     		adds r1, r1, r3  @i
 16334 797e 3618     		adds r6, r6, r0
 16335 7980 7F18     		adds r7, r7, r1
 16336              	
 16337 7982 DD46     		mov sp, r11
 16338 7984 0FBC     		pop {r0-r3}
 16339 7986 EB46     		mov r11, sp
 16340 7988 D546     		mov sp, r10
 16341 798a 10BC     		pop {r4}
 16342 798c EA46     		mov r10, sp
 16343 798e 2546     		mov r5, r4
ARM GAS  1.s 			page 288


 16344 7990 2404     		lsls r4, r4, # 16
 16345 7992 240C     		lsrs r4, r4, # 16
 16346 7994 2D0C     		lsrs r5, r5, # 16
 16347 7996 6043     		muls r0, r0, r4
 16348 7998 6143     		muls r1, r1, r4
 16349 799a 6A43     		muls r2, r2, r5
 16350 799c 6B43     		muls r3, r3, r5
 16351 799e 8011     		asrs r0, r0, # 6
 16352 79a0 8911     		asrs r1, r1, # 6
 16353 79a2 9211     		asrs r2, r2, # 6
 16354 79a4 9B11     		asrs r3, r3, # 6
 16355 79a6 8018     		adds r0, r0, r2         @r
 16356 79a8 C918     		adds r1, r1, r3         @i
 16357 79aa 3618     		adds r6, r6, r0
 16358 79ac 7F18     		adds r7, r7, r1
 16359              	
 16360              		@4
 16361 79ae DD46     		mov sp, r11
 16362 79b0 0FBC     		pop {r0-r3}
 16363 79b2 EB46     		mov r11, sp
 16364 79b4 D546     		mov sp, r10
 16365 79b6 10BC     		pop {r4}
 16366 79b8 EA46     		mov r10, sp
 16367 79ba 2546     		mov r5, r4
 16368 79bc 2404     		lsls r4, r4, # 16
 16369 79be 240C     		lsrs r4, r4, # 16
 16370 79c0 2D0C     		lsrs r5, r5, # 16
 16371 79c2 6043     		muls r0, r0, r4		@R
 16372 79c4 6143     		muls r1, r1, r4		@I
 16373 79c6 6A43     		muls r2, r2, r5		@R
 16374 79c8 6B43     		muls r3, r3, r5		@I
 16375 79ca 8011     		asrs r0, r0, # 6
 16376 79cc 8911     		asrs r1, r1, # 6
 16377 79ce 9211     		asrs r2, r2, # 6
 16378 79d0 9B11     		asrs r3, r3, # 6
 16379 79d2 8018     		adds r0, r0, r2	 @r
 16380 79d4 C918     		adds r1, r1, r3	 @i
 16381 79d6 3618     		adds r6, r6, r0
 16382 79d8 7F18     		adds r7, r7, r1
 16383              	
 16384 79da DD46     		mov sp, r11
 16385 79dc 0FBC     		pop {r0-r3}
 16386 79de EB46     		mov r11, sp
 16387 79e0 D546     		mov sp, r10
 16388 79e2 10BC     		pop {r4}
 16389 79e4 EA46     		mov r10, sp
 16390 79e6 2546     		mov r5, r4
 16391 79e8 2404     		lsls r4, r4, # 16
 16392 79ea 240C     		lsrs r4, r4, # 16
 16393 79ec 2D0C     		lsrs r5, r5, # 16
 16394 79ee 6043     		muls r0, r0, r4
 16395 79f0 6143     		muls r1, r1, r4
 16396 79f2 6A43     		muls r2, r2, r5
 16397 79f4 6B43     		muls r3, r3, r5
 16398 79f6 8011     		asrs r0, r0, # 6
 16399 79f8 8911     		asrs r1, r1, # 6
 16400 79fa 9211     		asrs r2, r2, # 6
ARM GAS  1.s 			page 289


 16401 79fc 9B11     		asrs r3, r3, # 6
 16402 79fe 8018     		adds r0, r0, r2         @r
 16403 7a00 C918     		adds r1, r1, r3         @i
 16404 7a02 3618     		adds r6, r6, r0
 16405 7a04 7F18     		adds r7, r7, r1
 16406              	
 16407 7a06 DD46     		mov sp, r11
 16408 7a08 0FBC     		pop {r0-r3}
 16409 7a0a EB46     		mov r11, sp
 16410 7a0c D546     		mov sp, r10
 16411 7a0e 10BC     		pop {r4}
 16412 7a10 EA46     		mov r10, sp
 16413 7a12 2546     		mov r5, r4
 16414 7a14 2404     		lsls r4, r4, # 16
 16415 7a16 240C     		lsrs r4, r4, # 16
 16416 7a18 2D0C     		lsrs r5, r5, # 16
 16417 7a1a 6043     		muls r0, r0, r4
 16418 7a1c 6143     		muls r1, r1, r4
 16419 7a1e 6A43     		muls r2, r2, r5
 16420 7a20 6B43     		muls r3, r3, r5
 16421 7a22 8011     		asrs r0, r0, # 6
 16422 7a24 8911     		asrs r1, r1, # 6
 16423 7a26 9211     		asrs r2, r2, # 6
 16424 7a28 9B11     		asrs r3, r3, # 6
 16425 7a2a 8018     		adds r0, r0, r2  @r
 16426 7a2c C918     		adds r1, r1, r3  @i
 16427 7a2e 3618     		adds r6, r6, r0
 16428 7a30 7F18     		adds r7, r7, r1
 16429              	
 16430 7a32 DD46     		mov sp, r11
 16431 7a34 0FBC     		pop {r0-r3}
 16432 7a36 EB46     		mov r11, sp
 16433 7a38 D546     		mov sp, r10
 16434 7a3a 10BC     		pop {r4}
 16435 7a3c EA46     		mov r10, sp
 16436 7a3e 2546     		mov r5, r4
 16437 7a40 2404     		lsls r4, r4, # 16
 16438 7a42 240C     		lsrs r4, r4, # 16
 16439 7a44 2D0C     		lsrs r5, r5, # 16
 16440 7a46 6043     		muls r0, r0, r4
 16441 7a48 6143     		muls r1, r1, r4
 16442 7a4a 6A43     		muls r2, r2, r5
 16443 7a4c 6B43     		muls r3, r3, r5
 16444 7a4e 8011     		asrs r0, r0, # 6
 16445 7a50 8911     		asrs r1, r1, # 6
 16446 7a52 9211     		asrs r2, r2, # 6
 16447 7a54 9B11     		asrs r3, r3, # 6
 16448 7a56 8018     		adds r0, r0, r2         @r
 16449 7a58 C918     		adds r1, r1, r3         @i
 16450 7a5a 3618     		adds r6, r6, r0
 16451 7a5c 7F18     		adds r7, r7, r1
 16452              	
 16453              		@5
 16454 7a5e DD46     		mov sp, r11
 16455 7a60 0FBC     		pop {r0-r3}
 16456 7a62 EB46     		mov r11, sp
 16457 7a64 D546     		mov sp, r10
ARM GAS  1.s 			page 290


 16458 7a66 10BC     		pop {r4}
 16459 7a68 EA46     		mov r10, sp
 16460 7a6a 2546     		mov r5, r4
 16461 7a6c 2404     		lsls r4, r4, # 16
 16462 7a6e 240C     		lsrs r4, r4, # 16
 16463 7a70 2D0C     		lsrs r5, r5, # 16
 16464 7a72 6043     		muls r0, r0, r4		@R
 16465 7a74 6143     		muls r1, r1, r4		@I
 16466 7a76 6A43     		muls r2, r2, r5		@R
 16467 7a78 6B43     		muls r3, r3, r5		@I
 16468 7a7a 8011     		asrs r0, r0, # 6
 16469 7a7c 8911     		asrs r1, r1, # 6
 16470 7a7e 9211     		asrs r2, r2, # 6
 16471 7a80 9B11     		asrs r3, r3, # 6
 16472 7a82 8018     		adds r0, r0, r2	 @r
 16473 7a84 C918     		adds r1, r1, r3	 @i
 16474 7a86 3618     		adds r6, r6, r0
 16475 7a88 7F18     		adds r7, r7, r1
 16476              	
 16477 7a8a DD46     		mov sp, r11
 16478 7a8c 0FBC     		pop {r0-r3}
 16479 7a8e EB46     		mov r11, sp
 16480 7a90 D546     		mov sp, r10
 16481 7a92 10BC     		pop {r4}
 16482 7a94 EA46     		mov r10, sp
 16483 7a96 2546     		mov r5, r4
 16484 7a98 2404     		lsls r4, r4, # 16
 16485 7a9a 240C     		lsrs r4, r4, # 16
 16486 7a9c 2D0C     		lsrs r5, r5, # 16
 16487 7a9e 6043     		muls r0, r0, r4
 16488 7aa0 6143     		muls r1, r1, r4
 16489 7aa2 6A43     		muls r2, r2, r5
 16490 7aa4 6B43     		muls r3, r3, r5
 16491 7aa6 8011     		asrs r0, r0, # 6
 16492 7aa8 8911     		asrs r1, r1, # 6
 16493 7aaa 9211     		asrs r2, r2, # 6
 16494 7aac 9B11     		asrs r3, r3, # 6
 16495 7aae 8018     		adds r0, r0, r2         @r
 16496 7ab0 C918     		adds r1, r1, r3         @i
 16497 7ab2 3618     		adds r6, r6, r0
 16498 7ab4 7F18     		adds r7, r7, r1
 16499              	
 16500 7ab6 DD46     		mov sp, r11
 16501 7ab8 0FBC     		pop {r0-r3}
 16502 7aba EB46     		mov r11, sp
 16503 7abc D546     		mov sp, r10
 16504 7abe 10BC     		pop {r4}
 16505 7ac0 EA46     		mov r10, sp
 16506 7ac2 2546     		mov r5, r4
 16507 7ac4 2404     		lsls r4, r4, # 16
 16508 7ac6 240C     		lsrs r4, r4, # 16
 16509 7ac8 2D0C     		lsrs r5, r5, # 16
 16510 7aca 6043     		muls r0, r0, r4
 16511 7acc 6143     		muls r1, r1, r4
 16512 7ace 6A43     		muls r2, r2, r5
 16513 7ad0 6B43     		muls r3, r3, r5
 16514 7ad2 8011     		asrs r0, r0, # 6
ARM GAS  1.s 			page 291


 16515 7ad4 8911     		asrs r1, r1, # 6
 16516 7ad6 9211     		asrs r2, r2, # 6
 16517 7ad8 9B11     		asrs r3, r3, # 6
 16518 7ada 8018     		adds r0, r0, r2  @r
 16519 7adc C918     		adds r1, r1, r3  @i
 16520 7ade 3618     		adds r6, r6, r0
 16521 7ae0 7F18     		adds r7, r7, r1
 16522              	
 16523 7ae2 DD46     		mov sp, r11
 16524 7ae4 0FBC     		pop {r0-r3}
 16525 7ae6 EB46     		mov r11, sp
 16526 7ae8 D546     		mov sp, r10
 16527 7aea 10BC     		pop {r4}
 16528 7aec EA46     		mov r10, sp
 16529 7aee 2546     		mov r5, r4
 16530 7af0 2404     		lsls r4, r4, # 16
 16531 7af2 240C     		lsrs r4, r4, # 16
 16532 7af4 2D0C     		lsrs r5, r5, # 16
 16533 7af6 6043     		muls r0, r0, r4
 16534 7af8 6143     		muls r1, r1, r4
 16535 7afa 6A43     		muls r2, r2, r5
 16536 7afc 6B43     		muls r3, r3, r5
 16537 7afe 8011     		asrs r0, r0, # 6
 16538 7b00 8911     		asrs r1, r1, # 6
 16539 7b02 9211     		asrs r2, r2, # 6
 16540 7b04 9B11     		asrs r3, r3, # 6
 16541 7b06 8018     		adds r0, r0, r2         @r
 16542 7b08 C918     		adds r1, r1, r3         @i
 16543 7b0a 3618     		adds r6, r6, r0
 16544 7b0c 7F18     		adds r7, r7, r1
 16545              	
 16546              		@6
 16547 7b0e DD46     		mov sp, r11
 16548 7b10 0FBC     		pop {r0-r3}
 16549 7b12 EB46     		mov r11, sp
 16550 7b14 D546     		mov sp, r10
 16551 7b16 10BC     		pop {r4}
 16552 7b18 EA46     		mov r10, sp
 16553 7b1a 2546     		mov r5, r4
 16554 7b1c 2404     		lsls r4, r4, # 16
 16555 7b1e 240C     		lsrs r4, r4, # 16
 16556 7b20 2D0C     		lsrs r5, r5, # 16
 16557 7b22 6043     		muls r0, r0, r4		@R
 16558 7b24 6143     		muls r1, r1, r4		@I
 16559 7b26 6A43     		muls r2, r2, r5		@R
 16560 7b28 6B43     		muls r3, r3, r5		@I
 16561 7b2a 8011     		asrs r0, r0, # 6
 16562 7b2c 8911     		asrs r1, r1, # 6
 16563 7b2e 9211     		asrs r2, r2, # 6
 16564 7b30 9B11     		asrs r3, r3, # 6
 16565 7b32 8018     		adds r0, r0, r2	 @r
 16566 7b34 C918     		adds r1, r1, r3	 @i
 16567 7b36 3618     		adds r6, r6, r0
 16568 7b38 7F18     		adds r7, r7, r1
 16569              	
 16570 7b3a DD46     		mov sp, r11
 16571 7b3c 0FBC     		pop {r0-r3}
ARM GAS  1.s 			page 292


 16572 7b3e EB46     		mov r11, sp
 16573 7b40 D546     		mov sp, r10
 16574 7b42 10BC     		pop {r4}
 16575 7b44 EA46     		mov r10, sp
 16576 7b46 2546     		mov r5, r4
 16577 7b48 2404     		lsls r4, r4, # 16
 16578 7b4a 240C     		lsrs r4, r4, # 16
 16579 7b4c 2D0C     		lsrs r5, r5, # 16
 16580 7b4e 6043     		muls r0, r0, r4
 16581 7b50 6143     		muls r1, r1, r4
 16582 7b52 6A43     		muls r2, r2, r5
 16583 7b54 6B43     		muls r3, r3, r5
 16584 7b56 8011     		asrs r0, r0, # 6
 16585 7b58 8911     		asrs r1, r1, # 6
 16586 7b5a 9211     		asrs r2, r2, # 6
 16587 7b5c 9B11     		asrs r3, r3, # 6
 16588 7b5e 8018     		adds r0, r0, r2         @r
 16589 7b60 C918     		adds r1, r1, r3         @i
 16590 7b62 3618     		adds r6, r6, r0
 16591 7b64 7F18     		adds r7, r7, r1
 16592              	
 16593 7b66 DD46     		mov sp, r11
 16594 7b68 0FBC     		pop {r0-r3}
 16595 7b6a EB46     		mov r11, sp
 16596 7b6c D546     		mov sp, r10
 16597 7b6e 10BC     		pop {r4}
 16598 7b70 EA46     		mov r10, sp
 16599 7b72 2546     		mov r5, r4
 16600 7b74 2404     		lsls r4, r4, # 16
 16601 7b76 240C     		lsrs r4, r4, # 16
 16602 7b78 2D0C     		lsrs r5, r5, # 16
 16603 7b7a 6043     		muls r0, r0, r4
 16604 7b7c 6143     		muls r1, r1, r4
 16605 7b7e 6A43     		muls r2, r2, r5
 16606 7b80 6B43     		muls r3, r3, r5
 16607 7b82 8011     		asrs r0, r0, # 6
 16608 7b84 8911     		asrs r1, r1, # 6
 16609 7b86 9211     		asrs r2, r2, # 6
 16610 7b88 9B11     		asrs r3, r3, # 6
 16611 7b8a 8018     		adds r0, r0, r2  @r
 16612 7b8c C918     		adds r1, r1, r3  @i
 16613 7b8e 3618     		adds r6, r6, r0
 16614 7b90 7F18     		adds r7, r7, r1
 16615              	
 16616 7b92 DD46     		mov sp, r11
 16617 7b94 0FBC     		pop {r0-r3}
 16618 7b96 EB46     		mov r11, sp
 16619 7b98 D546     		mov sp, r10
 16620 7b9a 10BC     		pop {r4}
 16621 7b9c EA46     		mov r10, sp
 16622 7b9e 2546     		mov r5, r4
 16623 7ba0 2404     		lsls r4, r4, # 16
 16624 7ba2 240C     		lsrs r4, r4, # 16
 16625 7ba4 2D0C     		lsrs r5, r5, # 16
 16626 7ba6 6043     		muls r0, r0, r4
 16627 7ba8 6143     		muls r1, r1, r4
 16628 7baa 6A43     		muls r2, r2, r5
ARM GAS  1.s 			page 293


 16629 7bac 6B43     		muls r3, r3, r5
 16630 7bae 8011     		asrs r0, r0, # 6
 16631 7bb0 8911     		asrs r1, r1, # 6
 16632 7bb2 9211     		asrs r2, r2, # 6
 16633 7bb4 9B11     		asrs r3, r3, # 6
 16634 7bb6 8018     		adds r0, r0, r2         @r
 16635 7bb8 C918     		adds r1, r1, r3         @i
 16636 7bba 3618     		adds r6, r6, r0
 16637 7bbc 7F18     		adds r7, r7, r1
 16638              	
 16639              		@7
 16640 7bbe DD46     		mov sp, r11
 16641 7bc0 0FBC     		pop {r0-r3}
 16642 7bc2 EB46     		mov r11, sp
 16643 7bc4 D546     		mov sp, r10
 16644 7bc6 10BC     		pop {r4}
 16645 7bc8 EA46     		mov r10, sp
 16646 7bca 2546     		mov r5, r4
 16647 7bcc 2404     		lsls r4, r4, # 16
 16648 7bce 240C     		lsrs r4, r4, # 16
 16649 7bd0 2D0C     		lsrs r5, r5, # 16
 16650 7bd2 6043     		muls r0, r0, r4		@R
 16651 7bd4 6143     		muls r1, r1, r4		@I
 16652 7bd6 6A43     		muls r2, r2, r5		@R
 16653 7bd8 6B43     		muls r3, r3, r5		@I
 16654 7bda 8011     		asrs r0, r0, # 6
 16655 7bdc 8911     		asrs r1, r1, # 6
 16656 7bde 9211     		asrs r2, r2, # 6
 16657 7be0 9B11     		asrs r3, r3, # 6
 16658 7be2 8018     		adds r0, r0, r2	 @r
 16659 7be4 C918     		adds r1, r1, r3	 @i
 16660 7be6 3618     		adds r6, r6, r0
 16661 7be8 7F18     		adds r7, r7, r1
 16662              	
 16663 7bea DD46     		mov sp, r11
 16664 7bec 0FBC     		pop {r0-r3}
 16665 7bee EB46     		mov r11, sp
 16666 7bf0 D546     		mov sp, r10
 16667 7bf2 10BC     		pop {r4}
 16668 7bf4 EA46     		mov r10, sp
 16669 7bf6 2546     		mov r5, r4
 16670 7bf8 2404     		lsls r4, r4, # 16
 16671 7bfa 240C     		lsrs r4, r4, # 16
 16672 7bfc 2D0C     		lsrs r5, r5, # 16
 16673 7bfe 6043     		muls r0, r0, r4
 16674 7c00 6143     		muls r1, r1, r4
 16675 7c02 6A43     		muls r2, r2, r5
 16676 7c04 6B43     		muls r3, r3, r5
 16677 7c06 8011     		asrs r0, r0, # 6
 16678 7c08 8911     		asrs r1, r1, # 6
 16679 7c0a 9211     		asrs r2, r2, # 6
 16680 7c0c 9B11     		asrs r3, r3, # 6
 16681 7c0e 8018     		adds r0, r0, r2         @r
 16682 7c10 C918     		adds r1, r1, r3         @i
 16683 7c12 3618     		adds r6, r6, r0
 16684 7c14 7F18     		adds r7, r7, r1
 16685              	
ARM GAS  1.s 			page 294


 16686 7c16 DD46     		mov sp, r11
 16687 7c18 0FBC     		pop {r0-r3}
 16688 7c1a EB46     		mov r11, sp
 16689 7c1c D546     		mov sp, r10
 16690 7c1e 10BC     		pop {r4}
 16691 7c20 EA46     		mov r10, sp
 16692 7c22 2546     		mov r5, r4
 16693 7c24 2404     		lsls r4, r4, # 16
 16694 7c26 240C     		lsrs r4, r4, # 16
 16695 7c28 2D0C     		lsrs r5, r5, # 16
 16696 7c2a 6043     		muls r0, r0, r4
 16697 7c2c 6143     		muls r1, r1, r4
 16698 7c2e 6A43     		muls r2, r2, r5
 16699 7c30 6B43     		muls r3, r3, r5
 16700 7c32 8011     		asrs r0, r0, # 6
 16701 7c34 8911     		asrs r1, r1, # 6
 16702 7c36 9211     		asrs r2, r2, # 6
 16703 7c38 9B11     		asrs r3, r3, # 6
 16704 7c3a 8018     		adds r0, r0, r2  @r
 16705 7c3c C918     		adds r1, r1, r3  @i
 16706 7c3e 3618     		adds r6, r6, r0
 16707 7c40 7F18     		adds r7, r7, r1
 16708              	
 16709 7c42 DD46     		mov sp, r11
 16710 7c44 0FBC     		pop {r0-r3}
 16711 7c46 EB46     		mov r11, sp
 16712 7c48 D546     		mov sp, r10
 16713 7c4a 10BC     		pop {r4}
 16714 7c4c EA46     		mov r10, sp
 16715 7c4e 2546     		mov r5, r4
 16716 7c50 2404     		lsls r4, r4, # 16
 16717 7c52 240C     		lsrs r4, r4, # 16
 16718 7c54 2D0C     		lsrs r5, r5, # 16
 16719 7c56 6043     		muls r0, r0, r4
 16720 7c58 6143     		muls r1, r1, r4
 16721 7c5a 6A43     		muls r2, r2, r5
 16722 7c5c 6B43     		muls r3, r3, r5
 16723 7c5e 8011     		asrs r0, r0, # 6
 16724 7c60 8911     		asrs r1, r1, # 6
 16725 7c62 9211     		asrs r2, r2, # 6
 16726 7c64 9B11     		asrs r3, r3, # 6
 16727 7c66 8018     		adds r0, r0, r2         @r
 16728 7c68 C918     		adds r1, r1, r3         @i
 16729 7c6a 3618     		adds r6, r6, r0
 16730 7c6c 7F18     		adds r7, r7, r1
 16731              	
 16732              		@8
 16733 7c6e DD46     		mov sp, r11
 16734 7c70 0FBC     		pop {r0-r3}
 16735 7c72 EB46     		mov r11, sp
 16736 7c74 D546     		mov sp, r10
 16737 7c76 10BC     		pop {r4}
 16738 7c78 EA46     		mov r10, sp
 16739 7c7a 2546     		mov r5, r4
 16740 7c7c 2404     		lsls r4, r4, # 16
 16741 7c7e 240C     		lsrs r4, r4, # 16
 16742 7c80 2D0C     		lsrs r5, r5, # 16
ARM GAS  1.s 			page 295


 16743 7c82 6043     		muls r0, r0, r4		@R
 16744 7c84 6143     		muls r1, r1, r4		@I
 16745 7c86 6A43     		muls r2, r2, r5		@R
 16746 7c88 6B43     		muls r3, r3, r5		@I
 16747 7c8a 8011     		asrs r0, r0, # 6
 16748 7c8c 8911     		asrs r1, r1, # 6
 16749 7c8e 9211     		asrs r2, r2, # 6
 16750 7c90 9B11     		asrs r3, r3, # 6
 16751 7c92 8018     		adds r0, r0, r2	 @r
 16752 7c94 C918     		adds r1, r1, r3	 @i
 16753 7c96 3618     		adds r6, r6, r0
 16754 7c98 7F18     		adds r7, r7, r1
 16755              	
 16756 7c9a DD46     		mov sp, r11
 16757 7c9c 0FBC     		pop {r0-r3}
 16758 7c9e EB46     		mov r11, sp
 16759 7ca0 D546     		mov sp, r10
 16760 7ca2 10BC     		pop {r4}
 16761 7ca4 EA46     		mov r10, sp
 16762 7ca6 2546     		mov r5, r4
 16763 7ca8 2404     		lsls r4, r4, # 16
 16764 7caa 240C     		lsrs r4, r4, # 16
 16765 7cac 2D0C     		lsrs r5, r5, # 16
 16766 7cae 6043     		muls r0, r0, r4
 16767 7cb0 6143     		muls r1, r1, r4
 16768 7cb2 6A43     		muls r2, r2, r5
 16769 7cb4 6B43     		muls r3, r3, r5
 16770 7cb6 8011     		asrs r0, r0, # 6
 16771 7cb8 8911     		asrs r1, r1, # 6
 16772 7cba 9211     		asrs r2, r2, # 6
 16773 7cbc 9B11     		asrs r3, r3, # 6
 16774 7cbe 8018     		adds r0, r0, r2         @r
 16775 7cc0 C918     		adds r1, r1, r3         @i
 16776 7cc2 3618     		adds r6, r6, r0
 16777 7cc4 7F18     		adds r7, r7, r1
 16778              	
 16779 7cc6 DD46     		mov sp, r11
 16780 7cc8 0FBC     		pop {r0-r3}
 16781 7cca EB46     		mov r11, sp
 16782 7ccc D546     		mov sp, r10
 16783 7cce 10BC     		pop {r4}
 16784 7cd0 EA46     		mov r10, sp
 16785 7cd2 2546     		mov r5, r4
 16786 7cd4 2404     		lsls r4, r4, # 16
 16787 7cd6 240C     		lsrs r4, r4, # 16
 16788 7cd8 2D0C     		lsrs r5, r5, # 16
 16789 7cda 6043     		muls r0, r0, r4
 16790 7cdc 6143     		muls r1, r1, r4
 16791 7cde 6A43     		muls r2, r2, r5
 16792 7ce0 6B43     		muls r3, r3, r5
 16793 7ce2 8011     		asrs r0, r0, # 6
 16794 7ce4 8911     		asrs r1, r1, # 6
 16795 7ce6 9211     		asrs r2, r2, # 6
 16796 7ce8 9B11     		asrs r3, r3, # 6
 16797 7cea 8018     		adds r0, r0, r2  @r
 16798 7cec C918     		adds r1, r1, r3  @i
 16799 7cee 3618     		adds r6, r6, r0
ARM GAS  1.s 			page 296


 16800 7cf0 7F18     		adds r7, r7, r1
 16801              	
 16802 7cf2 DD46     		mov sp, r11
 16803 7cf4 0FBC     		pop {r0-r3}
 16804 7cf6 EB46     		mov r11, sp
 16805 7cf8 D546     		mov sp, r10
 16806 7cfa 10BC     		pop {r4}
 16807 7cfc EA46     		mov r10, sp
 16808 7cfe 2546     		mov r5, r4
 16809 7d00 2404     		lsls r4, r4, # 16
 16810 7d02 240C     		lsrs r4, r4, # 16
 16811 7d04 2D0C     		lsrs r5, r5, # 16
 16812 7d06 6043     		muls r0, r0, r4
 16813 7d08 6143     		muls r1, r1, r4
 16814 7d0a 6A43     		muls r2, r2, r5
 16815 7d0c 6B43     		muls r3, r3, r5
 16816 7d0e 8011     		asrs r0, r0, # 6
 16817 7d10 8911     		asrs r1, r1, # 6
 16818 7d12 9211     		asrs r2, r2, # 6
 16819 7d14 9B11     		asrs r3, r3, # 6
 16820 7d16 8018     		adds r0, r0, r2         @r
 16821 7d18 C918     		adds r1, r1, r3         @i
 16822 7d1a 3618     		adds r6, r6, r0
 16823 7d1c 7F18     		adds r7, r7, r1
 16824              	
 16825              		@9
 16826 7d1e DD46     		mov sp, r11
 16827 7d20 0FBC     		pop {r0-r3}
 16828 7d22 EB46     		mov r11, sp
 16829 7d24 D546     		mov sp, r10
 16830 7d26 10BC     		pop {r4}
 16831 7d28 EA46     		mov r10, sp
 16832 7d2a 2546     		mov r5, r4
 16833 7d2c 2404     		lsls r4, r4, # 16
 16834 7d2e 240C     		lsrs r4, r4, # 16
 16835 7d30 2D0C     		lsrs r5, r5, # 16
 16836 7d32 6043     		muls r0, r0, r4		@R
 16837 7d34 6143     		muls r1, r1, r4		@I
 16838 7d36 6A43     		muls r2, r2, r5		@R
 16839 7d38 6B43     		muls r3, r3, r5		@I
 16840 7d3a 8011     		asrs r0, r0, # 6
 16841 7d3c 8911     		asrs r1, r1, # 6
 16842 7d3e 9211     		asrs r2, r2, # 6
 16843 7d40 9B11     		asrs r3, r3, # 6
 16844 7d42 8018     		adds r0, r0, r2	 @r
 16845 7d44 C918     		adds r1, r1, r3	 @i
 16846 7d46 3618     		adds r6, r6, r0
 16847 7d48 7F18     		adds r7, r7, r1
 16848              	
 16849 7d4a DD46     		mov sp, r11
 16850 7d4c 0FBC     		pop {r0-r3}
 16851 7d4e EB46     		mov r11, sp
 16852 7d50 D546     		mov sp, r10
 16853 7d52 10BC     		pop {r4}
 16854 7d54 EA46     		mov r10, sp
 16855 7d56 2546     		mov r5, r4
 16856 7d58 2404     		lsls r4, r4, # 16
ARM GAS  1.s 			page 297


 16857 7d5a 240C     		lsrs r4, r4, # 16
 16858 7d5c 2D0C     		lsrs r5, r5, # 16
 16859 7d5e 6043     		muls r0, r0, r4
 16860 7d60 6143     		muls r1, r1, r4
 16861 7d62 6A43     		muls r2, r2, r5
 16862 7d64 6B43     		muls r3, r3, r5
 16863 7d66 8011     		asrs r0, r0, # 6
 16864 7d68 8911     		asrs r1, r1, # 6
 16865 7d6a 9211     		asrs r2, r2, # 6
 16866 7d6c 9B11     		asrs r3, r3, # 6
 16867 7d6e 8018     		adds r0, r0, r2         @r
 16868 7d70 C918     		adds r1, r1, r3         @i
 16869 7d72 3618     		adds r6, r6, r0
 16870 7d74 7F18     		adds r7, r7, r1
 16871              	
 16872 7d76 DD46     		mov sp, r11
 16873 7d78 0FBC     		pop {r0-r3}
 16874 7d7a EB46     		mov r11, sp
 16875 7d7c D546     		mov sp, r10
 16876 7d7e 10BC     		pop {r4}
 16877 7d80 EA46     		mov r10, sp
 16878 7d82 2546     		mov r5, r4
 16879 7d84 2404     		lsls r4, r4, # 16
 16880 7d86 240C     		lsrs r4, r4, # 16
 16881 7d88 2D0C     		lsrs r5, r5, # 16
 16882 7d8a 6043     		muls r0, r0, r4
 16883 7d8c 6143     		muls r1, r1, r4
 16884 7d8e 6A43     		muls r2, r2, r5
 16885 7d90 6B43     		muls r3, r3, r5
 16886 7d92 8011     		asrs r0, r0, # 6
 16887 7d94 8911     		asrs r1, r1, # 6
 16888 7d96 9211     		asrs r2, r2, # 6
 16889 7d98 9B11     		asrs r3, r3, # 6
 16890 7d9a 8018     		adds r0, r0, r2  @r
 16891 7d9c C918     		adds r1, r1, r3  @i
 16892 7d9e 3618     		adds r6, r6, r0
 16893 7da0 7F18     		adds r7, r7, r1
 16894              	
 16895 7da2 DD46     		mov sp, r11
 16896 7da4 0FBC     		pop {r0-r3}
 16897 7da6 EB46     		mov r11, sp
 16898 7da8 D546     		mov sp, r10
 16899 7daa 10BC     		pop {r4}
 16900 7dac EA46     		mov r10, sp
 16901 7dae 2546     		mov r5, r4
 16902 7db0 2404     		lsls r4, r4, # 16
 16903 7db2 240C     		lsrs r4, r4, # 16
 16904 7db4 2D0C     		lsrs r5, r5, # 16
 16905 7db6 6043     		muls r0, r0, r4
 16906 7db8 6143     		muls r1, r1, r4
 16907 7dba 6A43     		muls r2, r2, r5
 16908 7dbc 6B43     		muls r3, r3, r5
 16909 7dbe 8011     		asrs r0, r0, # 6
 16910 7dc0 8911     		asrs r1, r1, # 6
 16911 7dc2 9211     		asrs r2, r2, # 6
 16912 7dc4 9B11     		asrs r3, r3, # 6
 16913 7dc6 8018     		adds r0, r0, r2         @r
ARM GAS  1.s 			page 298


 16914 7dc8 C918     		adds r1, r1, r3         @i
 16915 7dca 3618     		adds r6, r6, r0
 16916 7dcc 7F18     		adds r7, r7, r1
 16917              	@yjm17
 16918              		@0
 16919 7dce DD46     		mov sp, r11
 16920 7dd0 0FBC     		pop {r0-r3}
 16921 7dd2 EB46     		mov r11, sp
 16922 7dd4 D546     		mov sp, r10
 16923 7dd6 10BC     		pop {r4}
 16924 7dd8 EA46     		mov r10, sp
 16925 7dda 2546     		mov r5, r4
 16926 7ddc 2404     		lsls r4, r4, # 16
 16927 7dde 240C     		lsrs r4, r4, # 16
 16928 7de0 2D0C     		lsrs r5, r5, # 16
 16929 7de2 6043     		muls r0, r0, r4		@R
 16930 7de4 6143     		muls r1, r1, r4		@I
 16931 7de6 6A43     		muls r2, r2, r5		@R
 16932 7de8 6B43     		muls r3, r3, r5		@I
 16933 7dea 8011     		asrs r0, r0, # 6
 16934 7dec 8911     		asrs r1, r1, # 6
 16935 7dee 9211     		asrs r2, r2, # 6
 16936 7df0 9B11     		asrs r3, r3, # 6
 16937 7df2 8018     		adds r0, r0, r2	 @r
 16938 7df4 C918     		adds r1, r1, r3	 @i
 16939 7df6 3618     		adds r6, r6, r0
 16940 7df8 7F18     		adds r7, r7, r1
 16941              	
 16942 7dfa DD46     		mov sp, r11
 16943 7dfc 0FBC     		pop {r0-r3}
 16944 7dfe EB46     		mov r11, sp
 16945 7e00 D546     		mov sp, r10
 16946 7e02 10BC     		pop {r4}
 16947 7e04 EA46     		mov r10, sp
 16948 7e06 2546     		mov r5, r4
 16949 7e08 2404     		lsls r4, r4, # 16
 16950 7e0a 240C     		lsrs r4, r4, # 16
 16951 7e0c 2D0C     		lsrs r5, r5, # 16
 16952 7e0e 6043     		muls r0, r0, r4
 16953 7e10 6143     		muls r1, r1, r4
 16954 7e12 6A43     		muls r2, r2, r5
 16955 7e14 6B43     		muls r3, r3, r5
 16956 7e16 8011     		asrs r0, r0, # 6
 16957 7e18 8911     		asrs r1, r1, # 6
 16958 7e1a 9211     		asrs r2, r2, # 6
 16959 7e1c 9B11     		asrs r3, r3, # 6
 16960 7e1e 8018     		adds r0, r0, r2         @r
 16961 7e20 C918     		adds r1, r1, r3         @i
 16962 7e22 3618     		adds r6, r6, r0
 16963 7e24 7F18     		adds r7, r7, r1
 16964              	
 16965 7e26 DD46     		mov sp, r11
 16966 7e28 0FBC     		pop {r0-r3}
 16967 7e2a EB46     		mov r11, sp
 16968 7e2c D546     		mov sp, r10
 16969 7e2e 10BC     		pop {r4}
 16970 7e30 EA46     		mov r10, sp
ARM GAS  1.s 			page 299


 16971 7e32 2546     		mov r5, r4
 16972 7e34 2404     		lsls r4, r4, # 16
 16973 7e36 240C     		lsrs r4, r4, # 16
 16974 7e38 2D0C     		lsrs r5, r5, # 16
 16975 7e3a 6043     		muls r0, r0, r4
 16976 7e3c 6143     		muls r1, r1, r4
 16977 7e3e 6A43     		muls r2, r2, r5
 16978 7e40 6B43     		muls r3, r3, r5
 16979 7e42 8011     		asrs r0, r0, # 6
 16980 7e44 8911     		asrs r1, r1, # 6
 16981 7e46 9211     		asrs r2, r2, # 6
 16982 7e48 9B11     		asrs r3, r3, # 6
 16983 7e4a 8018     		adds r0, r0, r2  @r
 16984 7e4c C918     		adds r1, r1, r3  @i
 16985 7e4e 3618     		adds r6, r6, r0
 16986 7e50 7F18     		adds r7, r7, r1
 16987              	
 16988 7e52 DD46     		mov sp, r11
 16989 7e54 0FBC     		pop {r0-r3}
 16990 7e56 EB46     		mov r11, sp
 16991 7e58 D546     		mov sp, r10
 16992 7e5a 10BC     		pop {r4}
 16993 7e5c EA46     		mov r10, sp
 16994 7e5e 2546     		mov r5, r4
 16995 7e60 2404     		lsls r4, r4, # 16
 16996 7e62 240C     		lsrs r4, r4, # 16
 16997 7e64 2D0C     		lsrs r5, r5, # 16
 16998 7e66 6043     		muls r0, r0, r4
 16999 7e68 6143     		muls r1, r1, r4
 17000 7e6a 6A43     		muls r2, r2, r5
 17001 7e6c 6B43     		muls r3, r3, r5
 17002 7e6e 8011     		asrs r0, r0, # 6
 17003 7e70 8911     		asrs r1, r1, # 6
 17004 7e72 9211     		asrs r2, r2, # 6
 17005 7e74 9B11     		asrs r3, r3, # 6
 17006 7e76 8018     		adds r0, r0, r2         @r
 17007 7e78 C918     		adds r1, r1, r3         @i
 17008 7e7a 3618     		adds r6, r6, r0
 17009 7e7c 7F18     		adds r7, r7, r1
 17010              	
 17011              		@1
 17012 7e7e DD46     		mov sp, r11
 17013 7e80 0FBC     		pop {r0-r3}
 17014 7e82 EB46     		mov r11, sp
 17015 7e84 D546     		mov sp, r10
 17016 7e86 10BC     		pop {r4}
 17017 7e88 EA46     		mov r10, sp
 17018 7e8a 2546     		mov r5, r4
 17019 7e8c 2404     		lsls r4, r4, # 16
 17020 7e8e 240C     		lsrs r4, r4, # 16
 17021 7e90 2D0C     		lsrs r5, r5, # 16
 17022 7e92 6043     		muls r0, r0, r4		@R
 17023 7e94 6143     		muls r1, r1, r4		@I
 17024 7e96 6A43     		muls r2, r2, r5		@R
 17025 7e98 6B43     		muls r3, r3, r5		@I
 17026 7e9a 8011     		asrs r0, r0, # 6
 17027 7e9c 8911     		asrs r1, r1, # 6
ARM GAS  1.s 			page 300


 17028 7e9e 9211     		asrs r2, r2, # 6
 17029 7ea0 9B11     		asrs r3, r3, # 6
 17030 7ea2 8018     		adds r0, r0, r2	 @r
 17031 7ea4 C918     		adds r1, r1, r3	 @i
 17032 7ea6 3618     		adds r6, r6, r0
 17033 7ea8 7F18     		adds r7, r7, r1
 17034              	
 17035 7eaa DD46     		mov sp, r11
 17036 7eac 0FBC     		pop {r0-r3}
 17037 7eae EB46     		mov r11, sp
 17038 7eb0 D546     		mov sp, r10
 17039 7eb2 10BC     		pop {r4}
 17040 7eb4 EA46     		mov r10, sp
 17041 7eb6 2546     		mov r5, r4
 17042 7eb8 2404     		lsls r4, r4, # 16
 17043 7eba 240C     		lsrs r4, r4, # 16
 17044 7ebc 2D0C     		lsrs r5, r5, # 16
 17045 7ebe 6043     		muls r0, r0, r4
 17046 7ec0 6143     		muls r1, r1, r4
 17047 7ec2 6A43     		muls r2, r2, r5
 17048 7ec4 6B43     		muls r3, r3, r5
 17049 7ec6 8011     		asrs r0, r0, # 6
 17050 7ec8 8911     		asrs r1, r1, # 6
 17051 7eca 9211     		asrs r2, r2, # 6
 17052 7ecc 9B11     		asrs r3, r3, # 6
 17053 7ece 8018     		adds r0, r0, r2         @r
 17054 7ed0 C918     		adds r1, r1, r3         @i
 17055 7ed2 3618     		adds r6, r6, r0
 17056 7ed4 7F18     		adds r7, r7, r1
 17057              	
 17058 7ed6 DD46     		mov sp, r11
 17059 7ed8 0FBC     		pop {r0-r3}
 17060 7eda EB46     		mov r11, sp
 17061 7edc D546     		mov sp, r10
 17062 7ede 10BC     		pop {r4}
 17063 7ee0 EA46     		mov r10, sp
 17064 7ee2 2546     		mov r5, r4
 17065 7ee4 2404     		lsls r4, r4, # 16
 17066 7ee6 240C     		lsrs r4, r4, # 16
 17067 7ee8 2D0C     		lsrs r5, r5, # 16
 17068 7eea 6043     		muls r0, r0, r4
 17069 7eec 6143     		muls r1, r1, r4
 17070 7eee 6A43     		muls r2, r2, r5
 17071 7ef0 6B43     		muls r3, r3, r5
 17072 7ef2 8011     		asrs r0, r0, # 6
 17073 7ef4 8911     		asrs r1, r1, # 6
 17074 7ef6 9211     		asrs r2, r2, # 6
 17075 7ef8 9B11     		asrs r3, r3, # 6
 17076 7efa 8018     		adds r0, r0, r2  @r
 17077 7efc C918     		adds r1, r1, r3  @i
 17078 7efe 3618     		adds r6, r6, r0
 17079 7f00 7F18     		adds r7, r7, r1
 17080              	
 17081 7f02 DD46     		mov sp, r11
 17082 7f04 0FBC     		pop {r0-r3}
 17083 7f06 EB46     		mov r11, sp
 17084 7f08 D546     		mov sp, r10
ARM GAS  1.s 			page 301


 17085 7f0a 10BC     		pop {r4}
 17086 7f0c EA46     		mov r10, sp
 17087 7f0e 2546     		mov r5, r4
 17088 7f10 2404     		lsls r4, r4, # 16
 17089 7f12 240C     		lsrs r4, r4, # 16
 17090 7f14 2D0C     		lsrs r5, r5, # 16
 17091 7f16 6043     		muls r0, r0, r4
 17092 7f18 6143     		muls r1, r1, r4
 17093 7f1a 6A43     		muls r2, r2, r5
 17094 7f1c 6B43     		muls r3, r3, r5
 17095 7f1e 8011     		asrs r0, r0, # 6
 17096 7f20 8911     		asrs r1, r1, # 6
 17097 7f22 9211     		asrs r2, r2, # 6
 17098 7f24 9B11     		asrs r3, r3, # 6
 17099 7f26 8018     		adds r0, r0, r2         @r
 17100 7f28 C918     		adds r1, r1, r3         @i
 17101 7f2a 3618     		adds r6, r6, r0
 17102 7f2c 7F18     		adds r7, r7, r1
 17103              	
 17104              		@2
 17105 7f2e DD46     		mov sp, r11
 17106 7f30 0FBC     		pop {r0-r3}
 17107 7f32 EB46     		mov r11, sp
 17108 7f34 D546     		mov sp, r10
 17109 7f36 10BC     		pop {r4}
 17110 7f38 EA46     		mov r10, sp
 17111 7f3a 2546     		mov r5, r4
 17112 7f3c 2404     		lsls r4, r4, # 16
 17113 7f3e 240C     		lsrs r4, r4, # 16
 17114 7f40 2D0C     		lsrs r5, r5, # 16
 17115 7f42 6043     		muls r0, r0, r4		@R
 17116 7f44 6143     		muls r1, r1, r4		@I
 17117 7f46 6A43     		muls r2, r2, r5		@R
 17118 7f48 6B43     		muls r3, r3, r5		@I
 17119 7f4a 8011     		asrs r0, r0, # 6
 17120 7f4c 8911     		asrs r1, r1, # 6
 17121 7f4e 9211     		asrs r2, r2, # 6
 17122 7f50 9B11     		asrs r3, r3, # 6
 17123 7f52 8018     		adds r0, r0, r2	 @r
 17124 7f54 C918     		adds r1, r1, r3	 @i
 17125 7f56 3618     		adds r6, r6, r0
 17126 7f58 7F18     		adds r7, r7, r1
 17127              	
 17128 7f5a DD46     		mov sp, r11
 17129 7f5c 0FBC     		pop {r0-r3}
 17130 7f5e EB46     		mov r11, sp
 17131 7f60 D546     		mov sp, r10
 17132 7f62 10BC     		pop {r4}
 17133 7f64 EA46     		mov r10, sp
 17134 7f66 2546     		mov r5, r4
 17135 7f68 2404     		lsls r4, r4, # 16
 17136 7f6a 240C     		lsrs r4, r4, # 16
 17137 7f6c 2D0C     		lsrs r5, r5, # 16
 17138 7f6e 6043     		muls r0, r0, r4
 17139 7f70 6143     		muls r1, r1, r4
 17140 7f72 6A43     		muls r2, r2, r5
 17141 7f74 6B43     		muls r3, r3, r5
ARM GAS  1.s 			page 302


 17142 7f76 8011     		asrs r0, r0, # 6
 17143 7f78 8911     		asrs r1, r1, # 6
 17144 7f7a 9211     		asrs r2, r2, # 6
 17145 7f7c 9B11     		asrs r3, r3, # 6
 17146 7f7e 8018     		adds r0, r0, r2         @r
 17147 7f80 C918     		adds r1, r1, r3         @i
 17148 7f82 3618     		adds r6, r6, r0
 17149 7f84 7F18     		adds r7, r7, r1
 17150              	
 17151 7f86 DD46     		mov sp, r11
 17152 7f88 0FBC     		pop {r0-r3}
 17153 7f8a EB46     		mov r11, sp
 17154 7f8c D546     		mov sp, r10
 17155 7f8e 10BC     		pop {r4}
 17156 7f90 EA46     		mov r10, sp
 17157 7f92 2546     		mov r5, r4
 17158 7f94 2404     		lsls r4, r4, # 16
 17159 7f96 240C     		lsrs r4, r4, # 16
 17160 7f98 2D0C     		lsrs r5, r5, # 16
 17161 7f9a 6043     		muls r0, r0, r4
 17162 7f9c 6143     		muls r1, r1, r4
 17163 7f9e 6A43     		muls r2, r2, r5
 17164 7fa0 6B43     		muls r3, r3, r5
 17165 7fa2 8011     		asrs r0, r0, # 6
 17166 7fa4 8911     		asrs r1, r1, # 6
 17167 7fa6 9211     		asrs r2, r2, # 6
 17168 7fa8 9B11     		asrs r3, r3, # 6
 17169 7faa 8018     		adds r0, r0, r2  @r
 17170 7fac C918     		adds r1, r1, r3  @i
 17171 7fae 3618     		adds r6, r6, r0
 17172 7fb0 7F18     		adds r7, r7, r1
 17173              	
 17174 7fb2 DD46     		mov sp, r11
 17175 7fb4 0FBC     		pop {r0-r3}
 17176 7fb6 EB46     		mov r11, sp
 17177 7fb8 D546     		mov sp, r10
 17178 7fba 10BC     		pop {r4}
 17179 7fbc EA46     		mov r10, sp
 17180 7fbe 2546     		mov r5, r4
 17181 7fc0 2404     		lsls r4, r4, # 16
 17182 7fc2 240C     		lsrs r4, r4, # 16
 17183 7fc4 2D0C     		lsrs r5, r5, # 16
 17184 7fc6 6043     		muls r0, r0, r4
 17185 7fc8 6143     		muls r1, r1, r4
 17186 7fca 6A43     		muls r2, r2, r5
 17187 7fcc 6B43     		muls r3, r3, r5
 17188 7fce 8011     		asrs r0, r0, # 6
 17189 7fd0 8911     		asrs r1, r1, # 6
 17190 7fd2 9211     		asrs r2, r2, # 6
 17191 7fd4 9B11     		asrs r3, r3, # 6
 17192 7fd6 8018     		adds r0, r0, r2         @r
 17193 7fd8 C918     		adds r1, r1, r3         @i
 17194 7fda 3618     		adds r6, r6, r0
 17195 7fdc 7F18     		adds r7, r7, r1
 17196              	
 17197              		@3
 17198 7fde DD46     		mov sp, r11
ARM GAS  1.s 			page 303


 17199 7fe0 0FBC     		pop {r0-r3}
 17200 7fe2 EB46     		mov r11, sp
 17201 7fe4 D546     		mov sp, r10
 17202 7fe6 10BC     		pop {r4}
 17203 7fe8 EA46     		mov r10, sp
 17204 7fea 2546     		mov r5, r4
 17205 7fec 2404     		lsls r4, r4, # 16
 17206 7fee 240C     		lsrs r4, r4, # 16
 17207 7ff0 2D0C     		lsrs r5, r5, # 16
 17208 7ff2 6043     		muls r0, r0, r4		@R
 17209 7ff4 6143     		muls r1, r1, r4		@I
 17210 7ff6 6A43     		muls r2, r2, r5		@R
 17211 7ff8 6B43     		muls r3, r3, r5		@I
 17212 7ffa 8011     		asrs r0, r0, # 6
 17213 7ffc 8911     		asrs r1, r1, # 6
 17214 7ffe 9211     		asrs r2, r2, # 6
 17215 8000 9B11     		asrs r3, r3, # 6
 17216 8002 8018     		adds r0, r0, r2	 @r
 17217 8004 C918     		adds r1, r1, r3	 @i
 17218 8006 3618     		adds r6, r6, r0
 17219 8008 7F18     		adds r7, r7, r1
 17220              	
 17221 800a DD46     		mov sp, r11
 17222 800c 0FBC     		pop {r0-r3}
 17223 800e EB46     		mov r11, sp
 17224 8010 D546     		mov sp, r10
 17225 8012 10BC     		pop {r4}
 17226 8014 EA46     		mov r10, sp
 17227 8016 2546     		mov r5, r4
 17228 8018 2404     		lsls r4, r4, # 16
 17229 801a 240C     		lsrs r4, r4, # 16
 17230 801c 2D0C     		lsrs r5, r5, # 16
 17231 801e 6043     		muls r0, r0, r4
 17232 8020 6143     		muls r1, r1, r4
 17233 8022 6A43     		muls r2, r2, r5
 17234 8024 6B43     		muls r3, r3, r5
 17235 8026 8011     		asrs r0, r0, # 6
 17236 8028 8911     		asrs r1, r1, # 6
 17237 802a 9211     		asrs r2, r2, # 6
 17238 802c 9B11     		asrs r3, r3, # 6
 17239 802e 8018     		adds r0, r0, r2         @r
 17240 8030 C918     		adds r1, r1, r3         @i
 17241 8032 3618     		adds r6, r6, r0
 17242 8034 7F18     		adds r7, r7, r1
 17243              	
 17244 8036 DD46     		mov sp, r11
 17245 8038 0FBC     		pop {r0-r3}
 17246 803a EB46     		mov r11, sp
 17247 803c D546     		mov sp, r10
 17248 803e 10BC     		pop {r4}
 17249 8040 EA46     		mov r10, sp
 17250 8042 2546     		mov r5, r4
 17251 8044 2404     		lsls r4, r4, # 16
 17252 8046 240C     		lsrs r4, r4, # 16
 17253 8048 2D0C     		lsrs r5, r5, # 16
 17254 804a 6043     		muls r0, r0, r4
 17255 804c 6143     		muls r1, r1, r4
ARM GAS  1.s 			page 304


 17256 804e 6A43     		muls r2, r2, r5
 17257 8050 6B43     		muls r3, r3, r5
 17258 8052 8011     		asrs r0, r0, # 6
 17259 8054 8911     		asrs r1, r1, # 6
 17260 8056 9211     		asrs r2, r2, # 6
 17261 8058 9B11     		asrs r3, r3, # 6
 17262 805a 8018     		adds r0, r0, r2  @r
 17263 805c C918     		adds r1, r1, r3  @i
 17264 805e 3618     		adds r6, r6, r0
 17265 8060 7F18     		adds r7, r7, r1
 17266              	
 17267 8062 DD46     		mov sp, r11
 17268 8064 0FBC     		pop {r0-r3}
 17269 8066 EB46     		mov r11, sp
 17270 8068 D546     		mov sp, r10
 17271 806a 10BC     		pop {r4}
 17272 806c EA46     		mov r10, sp
 17273 806e 2546     		mov r5, r4
 17274 8070 2404     		lsls r4, r4, # 16
 17275 8072 240C     		lsrs r4, r4, # 16
 17276 8074 2D0C     		lsrs r5, r5, # 16
 17277 8076 6043     		muls r0, r0, r4
 17278 8078 6143     		muls r1, r1, r4
 17279 807a 6A43     		muls r2, r2, r5
 17280 807c 6B43     		muls r3, r3, r5
 17281 807e 8011     		asrs r0, r0, # 6
 17282 8080 8911     		asrs r1, r1, # 6
 17283 8082 9211     		asrs r2, r2, # 6
 17284 8084 9B11     		asrs r3, r3, # 6
 17285 8086 8018     		adds r0, r0, r2         @r
 17286 8088 C918     		adds r1, r1, r3         @i
 17287 808a 3618     		adds r6, r6, r0
 17288 808c 7F18     		adds r7, r7, r1
 17289              	
 17290              		@4
 17291 808e DD46     		mov sp, r11
 17292 8090 0FBC     		pop {r0-r3}
 17293 8092 EB46     		mov r11, sp
 17294 8094 D546     		mov sp, r10
 17295 8096 10BC     		pop {r4}
 17296 8098 EA46     		mov r10, sp
 17297 809a 2546     		mov r5, r4
 17298 809c 2404     		lsls r4, r4, # 16
 17299 809e 240C     		lsrs r4, r4, # 16
 17300 80a0 2D0C     		lsrs r5, r5, # 16
 17301 80a2 6043     		muls r0, r0, r4		@R
 17302 80a4 6143     		muls r1, r1, r4		@I
 17303 80a6 6A43     		muls r2, r2, r5		@R
 17304 80a8 6B43     		muls r3, r3, r5		@I
 17305 80aa 8011     		asrs r0, r0, # 6
 17306 80ac 8911     		asrs r1, r1, # 6
 17307 80ae 9211     		asrs r2, r2, # 6
 17308 80b0 9B11     		asrs r3, r3, # 6
 17309 80b2 8018     		adds r0, r0, r2	 @r
 17310 80b4 C918     		adds r1, r1, r3	 @i
 17311 80b6 3618     		adds r6, r6, r0
 17312 80b8 7F18     		adds r7, r7, r1
ARM GAS  1.s 			page 305


 17313              	
 17314 80ba DD46     		mov sp, r11
 17315 80bc 0FBC     		pop {r0-r3}
 17316 80be EB46     		mov r11, sp
 17317 80c0 D546     		mov sp, r10
 17318 80c2 10BC     		pop {r4}
 17319 80c4 EA46     		mov r10, sp
 17320 80c6 2546     		mov r5, r4
 17321 80c8 2404     		lsls r4, r4, # 16
 17322 80ca 240C     		lsrs r4, r4, # 16
 17323 80cc 2D0C     		lsrs r5, r5, # 16
 17324 80ce 6043     		muls r0, r0, r4
 17325 80d0 6143     		muls r1, r1, r4
 17326 80d2 6A43     		muls r2, r2, r5
 17327 80d4 6B43     		muls r3, r3, r5
 17328 80d6 8011     		asrs r0, r0, # 6
 17329 80d8 8911     		asrs r1, r1, # 6
 17330 80da 9211     		asrs r2, r2, # 6
 17331 80dc 9B11     		asrs r3, r3, # 6
 17332 80de 8018     		adds r0, r0, r2         @r
 17333 80e0 C918     		adds r1, r1, r3         @i
 17334 80e2 3618     		adds r6, r6, r0
 17335 80e4 7F18     		adds r7, r7, r1
 17336              	
 17337 80e6 DD46     		mov sp, r11
 17338 80e8 0FBC     		pop {r0-r3}
 17339 80ea EB46     		mov r11, sp
 17340 80ec D546     		mov sp, r10
 17341 80ee 10BC     		pop {r4}
 17342 80f0 EA46     		mov r10, sp
 17343 80f2 2546     		mov r5, r4
 17344 80f4 2404     		lsls r4, r4, # 16
 17345 80f6 240C     		lsrs r4, r4, # 16
 17346 80f8 2D0C     		lsrs r5, r5, # 16
 17347 80fa 6043     		muls r0, r0, r4
 17348 80fc 6143     		muls r1, r1, r4
 17349 80fe 6A43     		muls r2, r2, r5
 17350 8100 6B43     		muls r3, r3, r5
 17351 8102 8011     		asrs r0, r0, # 6
 17352 8104 8911     		asrs r1, r1, # 6
 17353 8106 9211     		asrs r2, r2, # 6
 17354 8108 9B11     		asrs r3, r3, # 6
 17355 810a 8018     		adds r0, r0, r2  @r
 17356 810c C918     		adds r1, r1, r3  @i
 17357 810e 3618     		adds r6, r6, r0
 17358 8110 7F18     		adds r7, r7, r1
 17359              	
 17360 8112 DD46     		mov sp, r11
 17361 8114 0FBC     		pop {r0-r3}
 17362 8116 EB46     		mov r11, sp
 17363 8118 D546     		mov sp, r10
 17364 811a 10BC     		pop {r4}
 17365 811c EA46     		mov r10, sp
 17366 811e 2546     		mov r5, r4
 17367 8120 2404     		lsls r4, r4, # 16
 17368 8122 240C     		lsrs r4, r4, # 16
 17369 8124 2D0C     		lsrs r5, r5, # 16
ARM GAS  1.s 			page 306


 17370 8126 6043     		muls r0, r0, r4
 17371 8128 6143     		muls r1, r1, r4
 17372 812a 6A43     		muls r2, r2, r5
 17373 812c 6B43     		muls r3, r3, r5
 17374 812e 8011     		asrs r0, r0, # 6
 17375 8130 8911     		asrs r1, r1, # 6
 17376 8132 9211     		asrs r2, r2, # 6
 17377 8134 9B11     		asrs r3, r3, # 6
 17378 8136 8018     		adds r0, r0, r2         @r
 17379 8138 C918     		adds r1, r1, r3         @i
 17380 813a 3618     		adds r6, r6, r0
 17381 813c 7F18     		adds r7, r7, r1
 17382              	
 17383              		@5
 17384 813e DD46     		mov sp, r11
 17385 8140 0FBC     		pop {r0-r3}
 17386 8142 EB46     		mov r11, sp
 17387 8144 D546     		mov sp, r10
 17388 8146 10BC     		pop {r4}
 17389 8148 EA46     		mov r10, sp
 17390 814a 2546     		mov r5, r4
 17391 814c 2404     		lsls r4, r4, # 16
 17392 814e 240C     		lsrs r4, r4, # 16
 17393 8150 2D0C     		lsrs r5, r5, # 16
 17394 8152 6043     		muls r0, r0, r4		@R
 17395 8154 6143     		muls r1, r1, r4		@I
 17396 8156 6A43     		muls r2, r2, r5		@R
 17397 8158 6B43     		muls r3, r3, r5		@I
 17398 815a 8011     		asrs r0, r0, # 6
 17399 815c 8911     		asrs r1, r1, # 6
 17400 815e 9211     		asrs r2, r2, # 6
 17401 8160 9B11     		asrs r3, r3, # 6
 17402 8162 8018     		adds r0, r0, r2	 @r
 17403 8164 C918     		adds r1, r1, r3	 @i
 17404 8166 3618     		adds r6, r6, r0
 17405 8168 7F18     		adds r7, r7, r1
 17406              	
 17407 816a DD46     		mov sp, r11
 17408 816c 0FBC     		pop {r0-r3}
 17409 816e EB46     		mov r11, sp
 17410 8170 D546     		mov sp, r10
 17411 8172 10BC     		pop {r4}
 17412 8174 EA46     		mov r10, sp
 17413 8176 2546     		mov r5, r4
 17414 8178 2404     		lsls r4, r4, # 16
 17415 817a 240C     		lsrs r4, r4, # 16
 17416 817c 2D0C     		lsrs r5, r5, # 16
 17417 817e 6043     		muls r0, r0, r4
 17418 8180 6143     		muls r1, r1, r4
 17419 8182 6A43     		muls r2, r2, r5
 17420 8184 6B43     		muls r3, r3, r5
 17421 8186 8011     		asrs r0, r0, # 6
 17422 8188 8911     		asrs r1, r1, # 6
 17423 818a 9211     		asrs r2, r2, # 6
 17424 818c 9B11     		asrs r3, r3, # 6
 17425 818e 8018     		adds r0, r0, r2         @r
 17426 8190 C918     		adds r1, r1, r3         @i
ARM GAS  1.s 			page 307


 17427 8192 3618     		adds r6, r6, r0
 17428 8194 7F18     		adds r7, r7, r1
 17429              	
 17430 8196 DD46     		mov sp, r11
 17431 8198 0FBC     		pop {r0-r3}
 17432 819a EB46     		mov r11, sp
 17433 819c D546     		mov sp, r10
 17434 819e 10BC     		pop {r4}
 17435 81a0 EA46     		mov r10, sp
 17436 81a2 2546     		mov r5, r4
 17437 81a4 2404     		lsls r4, r4, # 16
 17438 81a6 240C     		lsrs r4, r4, # 16
 17439 81a8 2D0C     		lsrs r5, r5, # 16
 17440 81aa 6043     		muls r0, r0, r4
 17441 81ac 6143     		muls r1, r1, r4
 17442 81ae 6A43     		muls r2, r2, r5
 17443 81b0 6B43     		muls r3, r3, r5
 17444 81b2 8011     		asrs r0, r0, # 6
 17445 81b4 8911     		asrs r1, r1, # 6
 17446 81b6 9211     		asrs r2, r2, # 6
 17447 81b8 9B11     		asrs r3, r3, # 6
 17448 81ba 8018     		adds r0, r0, r2  @r
 17449 81bc C918     		adds r1, r1, r3  @i
 17450 81be 3618     		adds r6, r6, r0
 17451 81c0 7F18     		adds r7, r7, r1
 17452              	
 17453 81c2 DD46     		mov sp, r11
 17454 81c4 0FBC     		pop {r0-r3}
 17455 81c6 EB46     		mov r11, sp
 17456 81c8 D546     		mov sp, r10
 17457 81ca 10BC     		pop {r4}
 17458 81cc EA46     		mov r10, sp
 17459 81ce 2546     		mov r5, r4
 17460 81d0 2404     		lsls r4, r4, # 16
 17461 81d2 240C     		lsrs r4, r4, # 16
 17462 81d4 2D0C     		lsrs r5, r5, # 16
 17463 81d6 6043     		muls r0, r0, r4
 17464 81d8 6143     		muls r1, r1, r4
 17465 81da 6A43     		muls r2, r2, r5
 17466 81dc 6B43     		muls r3, r3, r5
 17467 81de 8011     		asrs r0, r0, # 6
 17468 81e0 8911     		asrs r1, r1, # 6
 17469 81e2 9211     		asrs r2, r2, # 6
 17470 81e4 9B11     		asrs r3, r3, # 6
 17471 81e6 8018     		adds r0, r0, r2         @r
 17472 81e8 C918     		adds r1, r1, r3         @i
 17473 81ea 3618     		adds r6, r6, r0
 17474 81ec 7F18     		adds r7, r7, r1
 17475              	
 17476              		@6
 17477 81ee DD46     		mov sp, r11
 17478 81f0 0FBC     		pop {r0-r3}
 17479 81f2 EB46     		mov r11, sp
 17480 81f4 D546     		mov sp, r10
 17481 81f6 10BC     		pop {r4}
 17482 81f8 EA46     		mov r10, sp
 17483 81fa 2546     		mov r5, r4
ARM GAS  1.s 			page 308


 17484 81fc 2404     		lsls r4, r4, # 16
 17485 81fe 240C     		lsrs r4, r4, # 16
 17486 8200 2D0C     		lsrs r5, r5, # 16
 17487 8202 6043     		muls r0, r0, r4		@R
 17488 8204 6143     		muls r1, r1, r4		@I
 17489 8206 6A43     		muls r2, r2, r5		@R
 17490 8208 6B43     		muls r3, r3, r5		@I
 17491 820a 8011     		asrs r0, r0, # 6
 17492 820c 8911     		asrs r1, r1, # 6
 17493 820e 9211     		asrs r2, r2, # 6
 17494 8210 9B11     		asrs r3, r3, # 6
 17495 8212 8018     		adds r0, r0, r2	 @r
 17496 8214 C918     		adds r1, r1, r3	 @i
 17497 8216 3618     		adds r6, r6, r0
 17498 8218 7F18     		adds r7, r7, r1
 17499              	
 17500 821a DD46     		mov sp, r11
 17501 821c 0FBC     		pop {r0-r3}
 17502 821e EB46     		mov r11, sp
 17503 8220 D546     		mov sp, r10
 17504 8222 10BC     		pop {r4}
 17505 8224 EA46     		mov r10, sp
 17506 8226 2546     		mov r5, r4
 17507 8228 2404     		lsls r4, r4, # 16
 17508 822a 240C     		lsrs r4, r4, # 16
 17509 822c 2D0C     		lsrs r5, r5, # 16
 17510 822e 6043     		muls r0, r0, r4
 17511 8230 6143     		muls r1, r1, r4
 17512 8232 6A43     		muls r2, r2, r5
 17513 8234 6B43     		muls r3, r3, r5
 17514 8236 8011     		asrs r0, r0, # 6
 17515 8238 8911     		asrs r1, r1, # 6
 17516 823a 9211     		asrs r2, r2, # 6
 17517 823c 9B11     		asrs r3, r3, # 6
 17518 823e 8018     		adds r0, r0, r2         @r
 17519 8240 C918     		adds r1, r1, r3         @i
 17520 8242 3618     		adds r6, r6, r0
 17521 8244 7F18     		adds r7, r7, r1
 17522              	
 17523 8246 DD46     		mov sp, r11
 17524 8248 0FBC     		pop {r0-r3}
 17525 824a EB46     		mov r11, sp
 17526 824c D546     		mov sp, r10
 17527 824e 10BC     		pop {r4}
 17528 8250 EA46     		mov r10, sp
 17529 8252 2546     		mov r5, r4
 17530 8254 2404     		lsls r4, r4, # 16
 17531 8256 240C     		lsrs r4, r4, # 16
 17532 8258 2D0C     		lsrs r5, r5, # 16
 17533 825a 6043     		muls r0, r0, r4
 17534 825c 6143     		muls r1, r1, r4
 17535 825e 6A43     		muls r2, r2, r5
 17536 8260 6B43     		muls r3, r3, r5
 17537 8262 8011     		asrs r0, r0, # 6
 17538 8264 8911     		asrs r1, r1, # 6
 17539 8266 9211     		asrs r2, r2, # 6
 17540 8268 9B11     		asrs r3, r3, # 6
ARM GAS  1.s 			page 309


 17541 826a 8018     		adds r0, r0, r2  @r
 17542 826c C918     		adds r1, r1, r3  @i
 17543 826e 3618     		adds r6, r6, r0
 17544 8270 7F18     		adds r7, r7, r1
 17545              	
 17546 8272 DD46     		mov sp, r11
 17547 8274 0FBC     		pop {r0-r3}
 17548 8276 EB46     		mov r11, sp
 17549 8278 D546     		mov sp, r10
 17550 827a 10BC     		pop {r4}
 17551 827c EA46     		mov r10, sp
 17552 827e 2546     		mov r5, r4
 17553 8280 2404     		lsls r4, r4, # 16
 17554 8282 240C     		lsrs r4, r4, # 16
 17555 8284 2D0C     		lsrs r5, r5, # 16
 17556 8286 6043     		muls r0, r0, r4
 17557 8288 6143     		muls r1, r1, r4
 17558 828a 6A43     		muls r2, r2, r5
 17559 828c 6B43     		muls r3, r3, r5
 17560 828e 8011     		asrs r0, r0, # 6
 17561 8290 8911     		asrs r1, r1, # 6
 17562 8292 9211     		asrs r2, r2, # 6
 17563 8294 9B11     		asrs r3, r3, # 6
 17564 8296 8018     		adds r0, r0, r2         @r
 17565 8298 C918     		adds r1, r1, r3         @i
 17566 829a 3618     		adds r6, r6, r0
 17567 829c 7F18     		adds r7, r7, r1
 17568              	
 17569              		@7
 17570 829e DD46     		mov sp, r11
 17571 82a0 0FBC     		pop {r0-r3}
 17572 82a2 EB46     		mov r11, sp
 17573 82a4 D546     		mov sp, r10
 17574 82a6 10BC     		pop {r4}
 17575 82a8 EA46     		mov r10, sp
 17576 82aa 2546     		mov r5, r4
 17577 82ac 2404     		lsls r4, r4, # 16
 17578 82ae 240C     		lsrs r4, r4, # 16
 17579 82b0 2D0C     		lsrs r5, r5, # 16
 17580 82b2 6043     		muls r0, r0, r4		@R
 17581 82b4 6143     		muls r1, r1, r4		@I
 17582 82b6 6A43     		muls r2, r2, r5		@R
 17583 82b8 6B43     		muls r3, r3, r5		@I
 17584 82ba 8011     		asrs r0, r0, # 6
 17585 82bc 8911     		asrs r1, r1, # 6
 17586 82be 9211     		asrs r2, r2, # 6
 17587 82c0 9B11     		asrs r3, r3, # 6
 17588 82c2 8018     		adds r0, r0, r2	 @r
 17589 82c4 C918     		adds r1, r1, r3	 @i
 17590 82c6 3618     		adds r6, r6, r0
 17591 82c8 7F18     		adds r7, r7, r1
 17592              	
 17593 82ca DD46     		mov sp, r11
 17594 82cc 0FBC     		pop {r0-r3}
 17595 82ce EB46     		mov r11, sp
 17596 82d0 D546     		mov sp, r10
 17597 82d2 10BC     		pop {r4}
ARM GAS  1.s 			page 310


 17598 82d4 EA46     		mov r10, sp
 17599 82d6 2546     		mov r5, r4
 17600 82d8 2404     		lsls r4, r4, # 16
 17601 82da 240C     		lsrs r4, r4, # 16
 17602 82dc 2D0C     		lsrs r5, r5, # 16
 17603 82de 6043     		muls r0, r0, r4
 17604 82e0 6143     		muls r1, r1, r4
 17605 82e2 6A43     		muls r2, r2, r5
 17606 82e4 6B43     		muls r3, r3, r5
 17607 82e6 8011     		asrs r0, r0, # 6
 17608 82e8 8911     		asrs r1, r1, # 6
 17609 82ea 9211     		asrs r2, r2, # 6
 17610 82ec 9B11     		asrs r3, r3, # 6
 17611 82ee 8018     		adds r0, r0, r2         @r
 17612 82f0 C918     		adds r1, r1, r3         @i
 17613 82f2 3618     		adds r6, r6, r0
 17614 82f4 7F18     		adds r7, r7, r1
 17615              	
 17616 82f6 DD46     		mov sp, r11
 17617 82f8 0FBC     		pop {r0-r3}
 17618 82fa EB46     		mov r11, sp
 17619 82fc D546     		mov sp, r10
 17620 82fe 10BC     		pop {r4}
 17621 8300 EA46     		mov r10, sp
 17622 8302 2546     		mov r5, r4
 17623 8304 2404     		lsls r4, r4, # 16
 17624 8306 240C     		lsrs r4, r4, # 16
 17625 8308 2D0C     		lsrs r5, r5, # 16
 17626 830a 6043     		muls r0, r0, r4
 17627 830c 6143     		muls r1, r1, r4
 17628 830e 6A43     		muls r2, r2, r5
 17629 8310 6B43     		muls r3, r3, r5
 17630 8312 8011     		asrs r0, r0, # 6
 17631 8314 8911     		asrs r1, r1, # 6
 17632 8316 9211     		asrs r2, r2, # 6
 17633 8318 9B11     		asrs r3, r3, # 6
 17634 831a 8018     		adds r0, r0, r2  @r
 17635 831c C918     		adds r1, r1, r3  @i
 17636 831e 3618     		adds r6, r6, r0
 17637 8320 7F18     		adds r7, r7, r1
 17638              	
 17639 8322 DD46     		mov sp, r11
 17640 8324 0FBC     		pop {r0-r3}
 17641 8326 EB46     		mov r11, sp
 17642 8328 D546     		mov sp, r10
 17643 832a 10BC     		pop {r4}
 17644 832c EA46     		mov r10, sp
 17645 832e 2546     		mov r5, r4
 17646 8330 2404     		lsls r4, r4, # 16
 17647 8332 240C     		lsrs r4, r4, # 16
 17648 8334 2D0C     		lsrs r5, r5, # 16
 17649 8336 6043     		muls r0, r0, r4
 17650 8338 6143     		muls r1, r1, r4
 17651 833a 6A43     		muls r2, r2, r5
 17652 833c 6B43     		muls r3, r3, r5
 17653 833e 8011     		asrs r0, r0, # 6
 17654 8340 8911     		asrs r1, r1, # 6
ARM GAS  1.s 			page 311


 17655 8342 9211     		asrs r2, r2, # 6
 17656 8344 9B11     		asrs r3, r3, # 6
 17657 8346 8018     		adds r0, r0, r2         @r
 17658 8348 C918     		adds r1, r1, r3         @i
 17659 834a 3618     		adds r6, r6, r0
 17660 834c 7F18     		adds r7, r7, r1
 17661              	
 17662              		@8
 17663 834e DD46     		mov sp, r11
 17664 8350 0FBC     		pop {r0-r3}
 17665 8352 EB46     		mov r11, sp
 17666 8354 D546     		mov sp, r10
 17667 8356 10BC     		pop {r4}
 17668 8358 EA46     		mov r10, sp
 17669 835a 2546     		mov r5, r4
 17670 835c 2404     		lsls r4, r4, # 16
 17671 835e 240C     		lsrs r4, r4, # 16
 17672 8360 2D0C     		lsrs r5, r5, # 16
 17673 8362 6043     		muls r0, r0, r4		@R
 17674 8364 6143     		muls r1, r1, r4		@I
 17675 8366 6A43     		muls r2, r2, r5		@R
 17676 8368 6B43     		muls r3, r3, r5		@I
 17677 836a 8011     		asrs r0, r0, # 6
 17678 836c 8911     		asrs r1, r1, # 6
 17679 836e 9211     		asrs r2, r2, # 6
 17680 8370 9B11     		asrs r3, r3, # 6
 17681 8372 8018     		adds r0, r0, r2	 @r
 17682 8374 C918     		adds r1, r1, r3	 @i
 17683 8376 3618     		adds r6, r6, r0
 17684 8378 7F18     		adds r7, r7, r1
 17685              	
 17686 837a DD46     		mov sp, r11
 17687 837c 0FBC     		pop {r0-r3}
 17688 837e EB46     		mov r11, sp
 17689 8380 D546     		mov sp, r10
 17690 8382 10BC     		pop {r4}
 17691 8384 EA46     		mov r10, sp
 17692 8386 2546     		mov r5, r4
 17693 8388 2404     		lsls r4, r4, # 16
 17694 838a 240C     		lsrs r4, r4, # 16
 17695 838c 2D0C     		lsrs r5, r5, # 16
 17696 838e 6043     		muls r0, r0, r4
 17697 8390 6143     		muls r1, r1, r4
 17698 8392 6A43     		muls r2, r2, r5
 17699 8394 6B43     		muls r3, r3, r5
 17700 8396 8011     		asrs r0, r0, # 6
 17701 8398 8911     		asrs r1, r1, # 6
 17702 839a 9211     		asrs r2, r2, # 6
 17703 839c 9B11     		asrs r3, r3, # 6
 17704 839e 8018     		adds r0, r0, r2         @r
 17705 83a0 C918     		adds r1, r1, r3         @i
 17706 83a2 3618     		adds r6, r6, r0
 17707 83a4 7F18     		adds r7, r7, r1
 17708              	
 17709 83a6 DD46     		mov sp, r11
 17710 83a8 0FBC     		pop {r0-r3}
 17711 83aa EB46     		mov r11, sp
ARM GAS  1.s 			page 312


 17712 83ac D546     		mov sp, r10
 17713 83ae 10BC     		pop {r4}
 17714 83b0 EA46     		mov r10, sp
 17715 83b2 2546     		mov r5, r4
 17716 83b4 2404     		lsls r4, r4, # 16
 17717 83b6 240C     		lsrs r4, r4, # 16
 17718 83b8 2D0C     		lsrs r5, r5, # 16
 17719 83ba 6043     		muls r0, r0, r4
 17720 83bc 6143     		muls r1, r1, r4
 17721 83be 6A43     		muls r2, r2, r5
 17722 83c0 6B43     		muls r3, r3, r5
 17723 83c2 8011     		asrs r0, r0, # 6
 17724 83c4 8911     		asrs r1, r1, # 6
 17725 83c6 9211     		asrs r2, r2, # 6
 17726 83c8 9B11     		asrs r3, r3, # 6
 17727 83ca 8018     		adds r0, r0, r2  @r
 17728 83cc C918     		adds r1, r1, r3  @i
 17729 83ce 3618     		adds r6, r6, r0
 17730 83d0 7F18     		adds r7, r7, r1
 17731              	
 17732 83d2 DD46     		mov sp, r11
 17733 83d4 0FBC     		pop {r0-r3}
 17734 83d6 EB46     		mov r11, sp
 17735 83d8 D546     		mov sp, r10
 17736 83da 10BC     		pop {r4}
 17737 83dc EA46     		mov r10, sp
 17738 83de 2546     		mov r5, r4
 17739 83e0 2404     		lsls r4, r4, # 16
 17740 83e2 240C     		lsrs r4, r4, # 16
 17741 83e4 2D0C     		lsrs r5, r5, # 16
 17742 83e6 6043     		muls r0, r0, r4
 17743 83e8 6143     		muls r1, r1, r4
 17744 83ea 6A43     		muls r2, r2, r5
 17745 83ec 6B43     		muls r3, r3, r5
 17746 83ee 8011     		asrs r0, r0, # 6
 17747 83f0 8911     		asrs r1, r1, # 6
 17748 83f2 9211     		asrs r2, r2, # 6
 17749 83f4 9B11     		asrs r3, r3, # 6
 17750 83f6 8018     		adds r0, r0, r2         @r
 17751 83f8 C918     		adds r1, r1, r3         @i
 17752 83fa 3618     		adds r6, r6, r0
 17753 83fc 7F18     		adds r7, r7, r1
 17754              	
 17755              		@9
 17756 83fe DD46     		mov sp, r11
 17757 8400 0FBC     		pop {r0-r3}
 17758 8402 EB46     		mov r11, sp
 17759 8404 D546     		mov sp, r10
 17760 8406 10BC     		pop {r4}
 17761 8408 EA46     		mov r10, sp
 17762 840a 2546     		mov r5, r4
 17763 840c 2404     		lsls r4, r4, # 16
 17764 840e 240C     		lsrs r4, r4, # 16
 17765 8410 2D0C     		lsrs r5, r5, # 16
 17766 8412 6043     		muls r0, r0, r4		@R
 17767 8414 6143     		muls r1, r1, r4		@I
 17768 8416 6A43     		muls r2, r2, r5		@R
ARM GAS  1.s 			page 313


 17769 8418 6B43     		muls r3, r3, r5		@I
 17770 841a 8011     		asrs r0, r0, # 6
 17771 841c 8911     		asrs r1, r1, # 6
 17772 841e 9211     		asrs r2, r2, # 6
 17773 8420 9B11     		asrs r3, r3, # 6
 17774 8422 8018     		adds r0, r0, r2	 @r
 17775 8424 C918     		adds r1, r1, r3	 @i
 17776 8426 3618     		adds r6, r6, r0
 17777 8428 7F18     		adds r7, r7, r1
 17778              	
 17779 842a DD46     		mov sp, r11
 17780 842c 0FBC     		pop {r0-r3}
 17781 842e EB46     		mov r11, sp
 17782 8430 D546     		mov sp, r10
 17783 8432 10BC     		pop {r4}
 17784 8434 EA46     		mov r10, sp
 17785 8436 2546     		mov r5, r4
 17786 8438 2404     		lsls r4, r4, # 16
 17787 843a 240C     		lsrs r4, r4, # 16
 17788 843c 2D0C     		lsrs r5, r5, # 16
 17789 843e 6043     		muls r0, r0, r4
 17790 8440 6143     		muls r1, r1, r4
 17791 8442 6A43     		muls r2, r2, r5
 17792 8444 6B43     		muls r3, r3, r5
 17793 8446 8011     		asrs r0, r0, # 6
 17794 8448 8911     		asrs r1, r1, # 6
 17795 844a 9211     		asrs r2, r2, # 6
 17796 844c 9B11     		asrs r3, r3, # 6
 17797 844e 8018     		adds r0, r0, r2         @r
 17798 8450 C918     		adds r1, r1, r3         @i
 17799 8452 3618     		adds r6, r6, r0
 17800 8454 7F18     		adds r7, r7, r1
 17801              	
 17802 8456 DD46     		mov sp, r11
 17803 8458 0FBC     		pop {r0-r3}
 17804 845a EB46     		mov r11, sp
 17805 845c D546     		mov sp, r10
 17806 845e 10BC     		pop {r4}
 17807 8460 EA46     		mov r10, sp
 17808 8462 2546     		mov r5, r4
 17809 8464 2404     		lsls r4, r4, # 16
 17810 8466 240C     		lsrs r4, r4, # 16
 17811 8468 2D0C     		lsrs r5, r5, # 16
 17812 846a 6043     		muls r0, r0, r4
 17813 846c 6143     		muls r1, r1, r4
 17814 846e 6A43     		muls r2, r2, r5
 17815 8470 6B43     		muls r3, r3, r5
 17816 8472 8011     		asrs r0, r0, # 6
 17817 8474 8911     		asrs r1, r1, # 6
 17818 8476 9211     		asrs r2, r2, # 6
 17819 8478 9B11     		asrs r3, r3, # 6
 17820 847a 8018     		adds r0, r0, r2  @r
 17821 847c C918     		adds r1, r1, r3  @i
 17822 847e 3618     		adds r6, r6, r0
 17823 8480 7F18     		adds r7, r7, r1
 17824              	
 17825 8482 DD46     		mov sp, r11
ARM GAS  1.s 			page 314


 17826 8484 0FBC     		pop {r0-r3}
 17827 8486 EB46     		mov r11, sp
 17828 8488 D546     		mov sp, r10
 17829 848a 10BC     		pop {r4}
 17830 848c EA46     		mov r10, sp
 17831 848e 2546     		mov r5, r4
 17832 8490 2404     		lsls r4, r4, # 16
 17833 8492 240C     		lsrs r4, r4, # 16
 17834 8494 2D0C     		lsrs r5, r5, # 16
 17835 8496 6043     		muls r0, r0, r4
 17836 8498 6143     		muls r1, r1, r4
 17837 849a 6A43     		muls r2, r2, r5
 17838 849c 6B43     		muls r3, r3, r5
 17839 849e 8011     		asrs r0, r0, # 6
 17840 84a0 8911     		asrs r1, r1, # 6
 17841 84a2 9211     		asrs r2, r2, # 6
 17842 84a4 9B11     		asrs r3, r3, # 6
 17843 84a6 8018     		adds r0, r0, r2         @r
 17844 84a8 C918     		adds r1, r1, r3         @i
 17845 84aa 3618     		adds r6, r6, r0
 17846 84ac 7F18     		adds r7, r7, r1
 17847              	
 17848              	@yjm18
 17849              		@0
 17850 84ae DD46     		mov sp, r11
 17851 84b0 0FBC     		pop {r0-r3}
 17852 84b2 EB46     		mov r11, sp
 17853 84b4 D546     		mov sp, r10
 17854 84b6 10BC     		pop {r4}
 17855 84b8 EA46     		mov r10, sp
 17856 84ba 2546     		mov r5, r4
 17857 84bc 2404     		lsls r4, r4, # 16
 17858 84be 240C     		lsrs r4, r4, # 16
 17859 84c0 2D0C     		lsrs r5, r5, # 16
 17860 84c2 6043     		muls r0, r0, r4		@R
 17861 84c4 6143     		muls r1, r1, r4		@I
 17862 84c6 6A43     		muls r2, r2, r5		@R
 17863 84c8 6B43     		muls r3, r3, r5		@I
 17864 84ca 8011     		asrs r0, r0, # 6
 17865 84cc 8911     		asrs r1, r1, # 6
 17866 84ce 9211     		asrs r2, r2, # 6
 17867 84d0 9B11     		asrs r3, r3, # 6
 17868 84d2 8018     		adds r0, r0, r2	 @r
 17869 84d4 C918     		adds r1, r1, r3	 @i
 17870 84d6 3618     		adds r6, r6, r0
 17871 84d8 7F18     		adds r7, r7, r1
 17872              	
 17873 84da DD46     		mov sp, r11
 17874 84dc 0FBC     		pop {r0-r3}
 17875 84de EB46     		mov r11, sp
 17876 84e0 D546     		mov sp, r10
 17877 84e2 10BC     		pop {r4}
 17878 84e4 EA46     		mov r10, sp
 17879 84e6 2546     		mov r5, r4
 17880 84e8 2404     		lsls r4, r4, # 16
 17881 84ea 240C     		lsrs r4, r4, # 16
 17882 84ec 2D0C     		lsrs r5, r5, # 16
ARM GAS  1.s 			page 315


 17883 84ee 6043     		muls r0, r0, r4
 17884 84f0 6143     		muls r1, r1, r4
 17885 84f2 6A43     		muls r2, r2, r5
 17886 84f4 6B43     		muls r3, r3, r5
 17887 84f6 8011     		asrs r0, r0, # 6
 17888 84f8 8911     		asrs r1, r1, # 6
 17889 84fa 9211     		asrs r2, r2, # 6
 17890 84fc 9B11     		asrs r3, r3, # 6
 17891 84fe 8018     		adds r0, r0, r2         @r
 17892 8500 C918     		adds r1, r1, r3         @i
 17893 8502 3618     		adds r6, r6, r0
 17894 8504 7F18     		adds r7, r7, r1
 17895              	
 17896 8506 DD46     		mov sp, r11
 17897 8508 0FBC     		pop {r0-r3}
 17898 850a EB46     		mov r11, sp
 17899 850c D546     		mov sp, r10
 17900 850e 10BC     		pop {r4}
 17901 8510 EA46     		mov r10, sp
 17902 8512 2546     		mov r5, r4
 17903 8514 2404     		lsls r4, r4, # 16
 17904 8516 240C     		lsrs r4, r4, # 16
 17905 8518 2D0C     		lsrs r5, r5, # 16
 17906 851a 6043     		muls r0, r0, r4
 17907 851c 6143     		muls r1, r1, r4
 17908 851e 6A43     		muls r2, r2, r5
 17909 8520 6B43     		muls r3, r3, r5
 17910 8522 8011     		asrs r0, r0, # 6
 17911 8524 8911     		asrs r1, r1, # 6
 17912 8526 9211     		asrs r2, r2, # 6
 17913 8528 9B11     		asrs r3, r3, # 6
 17914 852a 8018     		adds r0, r0, r2  @r
 17915 852c C918     		adds r1, r1, r3  @i
 17916 852e 3618     		adds r6, r6, r0
 17917 8530 7F18     		adds r7, r7, r1
 17918              	
 17919 8532 DD46     		mov sp, r11
 17920 8534 0FBC     		pop {r0-r3}
 17921 8536 EB46     		mov r11, sp
 17922 8538 D546     		mov sp, r10
 17923 853a 10BC     		pop {r4}
 17924 853c EA46     		mov r10, sp
 17925 853e 2546     		mov r5, r4
 17926 8540 2404     		lsls r4, r4, # 16
 17927 8542 240C     		lsrs r4, r4, # 16
 17928 8544 2D0C     		lsrs r5, r5, # 16
 17929 8546 6043     		muls r0, r0, r4
 17930 8548 6143     		muls r1, r1, r4
 17931 854a 6A43     		muls r2, r2, r5
 17932 854c 6B43     		muls r3, r3, r5
 17933 854e 8011     		asrs r0, r0, # 6
 17934 8550 8911     		asrs r1, r1, # 6
 17935 8552 9211     		asrs r2, r2, # 6
 17936 8554 9B11     		asrs r3, r3, # 6
 17937 8556 8018     		adds r0, r0, r2         @r
 17938 8558 C918     		adds r1, r1, r3         @i
 17939 855a 3618     		adds r6, r6, r0
ARM GAS  1.s 			page 316


 17940 855c 7F18     		adds r7, r7, r1
 17941              	
 17942              		@1
 17943 855e DD46     		mov sp, r11
 17944 8560 0FBC     		pop {r0-r3}
 17945 8562 EB46     		mov r11, sp
 17946 8564 D546     		mov sp, r10
 17947 8566 10BC     		pop {r4}
 17948 8568 EA46     		mov r10, sp
 17949 856a 2546     		mov r5, r4
 17950 856c 2404     		lsls r4, r4, # 16
 17951 856e 240C     		lsrs r4, r4, # 16
 17952 8570 2D0C     		lsrs r5, r5, # 16
 17953 8572 6043     		muls r0, r0, r4		@R
 17954 8574 6143     		muls r1, r1, r4		@I
 17955 8576 6A43     		muls r2, r2, r5		@R
 17956 8578 6B43     		muls r3, r3, r5		@I
 17957 857a 8011     		asrs r0, r0, # 6
 17958 857c 8911     		asrs r1, r1, # 6
 17959 857e 9211     		asrs r2, r2, # 6
 17960 8580 9B11     		asrs r3, r3, # 6
 17961 8582 8018     		adds r0, r0, r2	 @r
 17962 8584 C918     		adds r1, r1, r3	 @i
 17963 8586 3618     		adds r6, r6, r0
 17964 8588 7F18     		adds r7, r7, r1
 17965              	
 17966 858a DD46     		mov sp, r11
 17967 858c 0FBC     		pop {r0-r3}
 17968 858e EB46     		mov r11, sp
 17969 8590 D546     		mov sp, r10
 17970 8592 10BC     		pop {r4}
 17971 8594 EA46     		mov r10, sp
 17972 8596 2546     		mov r5, r4
 17973 8598 2404     		lsls r4, r4, # 16
 17974 859a 240C     		lsrs r4, r4, # 16
 17975 859c 2D0C     		lsrs r5, r5, # 16
 17976 859e 6043     		muls r0, r0, r4
 17977 85a0 6143     		muls r1, r1, r4
 17978 85a2 6A43     		muls r2, r2, r5
 17979 85a4 6B43     		muls r3, r3, r5
 17980 85a6 8011     		asrs r0, r0, # 6
 17981 85a8 8911     		asrs r1, r1, # 6
 17982 85aa 9211     		asrs r2, r2, # 6
 17983 85ac 9B11     		asrs r3, r3, # 6
 17984 85ae 8018     		adds r0, r0, r2         @r
 17985 85b0 C918     		adds r1, r1, r3         @i
 17986 85b2 3618     		adds r6, r6, r0
 17987 85b4 7F18     		adds r7, r7, r1
 17988              	
 17989 85b6 DD46     		mov sp, r11
 17990 85b8 0FBC     		pop {r0-r3}
 17991 85ba EB46     		mov r11, sp
 17992 85bc D546     		mov sp, r10
 17993 85be 10BC     		pop {r4}
 17994 85c0 EA46     		mov r10, sp
 17995 85c2 2546     		mov r5, r4
 17996 85c4 2404     		lsls r4, r4, # 16
ARM GAS  1.s 			page 317


 17997 85c6 240C     		lsrs r4, r4, # 16
 17998 85c8 2D0C     		lsrs r5, r5, # 16
 17999 85ca 6043     		muls r0, r0, r4
 18000 85cc 6143     		muls r1, r1, r4
 18001 85ce 6A43     		muls r2, r2, r5
 18002 85d0 6B43     		muls r3, r3, r5
 18003 85d2 8011     		asrs r0, r0, # 6
 18004 85d4 8911     		asrs r1, r1, # 6
 18005 85d6 9211     		asrs r2, r2, # 6
 18006 85d8 9B11     		asrs r3, r3, # 6
 18007 85da 8018     		adds r0, r0, r2  @r
 18008 85dc C918     		adds r1, r1, r3  @i
 18009 85de 3618     		adds r6, r6, r0
 18010 85e0 7F18     		adds r7, r7, r1
 18011              	
 18012 85e2 DD46     		mov sp, r11
 18013 85e4 0FBC     		pop {r0-r3}
 18014 85e6 EB46     		mov r11, sp
 18015 85e8 D546     		mov sp, r10
 18016 85ea 10BC     		pop {r4}
 18017 85ec EA46     		mov r10, sp
 18018 85ee 2546     		mov r5, r4
 18019 85f0 2404     		lsls r4, r4, # 16
 18020 85f2 240C     		lsrs r4, r4, # 16
 18021 85f4 2D0C     		lsrs r5, r5, # 16
 18022 85f6 6043     		muls r0, r0, r4
 18023 85f8 6143     		muls r1, r1, r4
 18024 85fa 6A43     		muls r2, r2, r5
 18025 85fc 6B43     		muls r3, r3, r5
 18026 85fe 8011     		asrs r0, r0, # 6
 18027 8600 8911     		asrs r1, r1, # 6
 18028 8602 9211     		asrs r2, r2, # 6
 18029 8604 9B11     		asrs r3, r3, # 6
 18030 8606 8018     		adds r0, r0, r2         @r
 18031 8608 C918     		adds r1, r1, r3         @i
 18032 860a 3618     		adds r6, r6, r0
 18033 860c 7F18     		adds r7, r7, r1
 18034              	
 18035              		@2
 18036 860e DD46     		mov sp, r11
 18037 8610 0FBC     		pop {r0-r3}
 18038 8612 EB46     		mov r11, sp
 18039 8614 D546     		mov sp, r10
 18040 8616 10BC     		pop {r4}
 18041 8618 EA46     		mov r10, sp
 18042 861a 2546     		mov r5, r4
 18043 861c 2404     		lsls r4, r4, # 16
 18044 861e 240C     		lsrs r4, r4, # 16
 18045 8620 2D0C     		lsrs r5, r5, # 16
 18046 8622 6043     		muls r0, r0, r4		@R
 18047 8624 6143     		muls r1, r1, r4		@I
 18048 8626 6A43     		muls r2, r2, r5		@R
 18049 8628 6B43     		muls r3, r3, r5		@I
 18050 862a 8011     		asrs r0, r0, # 6
 18051 862c 8911     		asrs r1, r1, # 6
 18052 862e 9211     		asrs r2, r2, # 6
 18053 8630 9B11     		asrs r3, r3, # 6
ARM GAS  1.s 			page 318


 18054 8632 8018     		adds r0, r0, r2	 @r
 18055 8634 C918     		adds r1, r1, r3	 @i
 18056 8636 3618     		adds r6, r6, r0
 18057 8638 7F18     		adds r7, r7, r1
 18058              	
 18059 863a DD46     		mov sp, r11
 18060 863c 0FBC     		pop {r0-r3}
 18061 863e EB46     		mov r11, sp
 18062 8640 D546     		mov sp, r10
 18063 8642 10BC     		pop {r4}
 18064 8644 EA46     		mov r10, sp
 18065 8646 2546     		mov r5, r4
 18066 8648 2404     		lsls r4, r4, # 16
 18067 864a 240C     		lsrs r4, r4, # 16
 18068 864c 2D0C     		lsrs r5, r5, # 16
 18069 864e 6043     		muls r0, r0, r4
 18070 8650 6143     		muls r1, r1, r4
 18071 8652 6A43     		muls r2, r2, r5
 18072 8654 6B43     		muls r3, r3, r5
 18073 8656 8011     		asrs r0, r0, # 6
 18074 8658 8911     		asrs r1, r1, # 6
 18075 865a 9211     		asrs r2, r2, # 6
 18076 865c 9B11     		asrs r3, r3, # 6
 18077 865e 8018     		adds r0, r0, r2         @r
 18078 8660 C918     		adds r1, r1, r3         @i
 18079 8662 3618     		adds r6, r6, r0
 18080 8664 7F18     		adds r7, r7, r1
 18081              	
 18082 8666 DD46     		mov sp, r11
 18083 8668 0FBC     		pop {r0-r3}
 18084 866a EB46     		mov r11, sp
 18085 866c D546     		mov sp, r10
 18086 866e 10BC     		pop {r4}
 18087 8670 EA46     		mov r10, sp
 18088 8672 2546     		mov r5, r4
 18089 8674 2404     		lsls r4, r4, # 16
 18090 8676 240C     		lsrs r4, r4, # 16
 18091 8678 2D0C     		lsrs r5, r5, # 16
 18092 867a 6043     		muls r0, r0, r4
 18093 867c 6143     		muls r1, r1, r4
 18094 867e 6A43     		muls r2, r2, r5
 18095 8680 6B43     		muls r3, r3, r5
 18096 8682 8011     		asrs r0, r0, # 6
 18097 8684 8911     		asrs r1, r1, # 6
 18098 8686 9211     		asrs r2, r2, # 6
 18099 8688 9B11     		asrs r3, r3, # 6
 18100 868a 8018     		adds r0, r0, r2  @r
 18101 868c C918     		adds r1, r1, r3  @i
 18102 868e 3618     		adds r6, r6, r0
 18103 8690 7F18     		adds r7, r7, r1
 18104              	
 18105 8692 DD46     		mov sp, r11
 18106 8694 0FBC     		pop {r0-r3}
 18107 8696 EB46     		mov r11, sp
 18108 8698 D546     		mov sp, r10
 18109 869a 10BC     		pop {r4}
 18110 869c EA46     		mov r10, sp
ARM GAS  1.s 			page 319


 18111 869e 2546     		mov r5, r4
 18112 86a0 2404     		lsls r4, r4, # 16
 18113 86a2 240C     		lsrs r4, r4, # 16
 18114 86a4 2D0C     		lsrs r5, r5, # 16
 18115 86a6 6043     		muls r0, r0, r4
 18116 86a8 6143     		muls r1, r1, r4
 18117 86aa 6A43     		muls r2, r2, r5
 18118 86ac 6B43     		muls r3, r3, r5
 18119 86ae 8011     		asrs r0, r0, # 6
 18120 86b0 8911     		asrs r1, r1, # 6
 18121 86b2 9211     		asrs r2, r2, # 6
 18122 86b4 9B11     		asrs r3, r3, # 6
 18123 86b6 8018     		adds r0, r0, r2         @r
 18124 86b8 C918     		adds r1, r1, r3         @i
 18125 86ba 3618     		adds r6, r6, r0
 18126 86bc 7F18     		adds r7, r7, r1
 18127              	
 18128              		@3
 18129 86be DD46     		mov sp, r11
 18130 86c0 0FBC     		pop {r0-r3}
 18131 86c2 EB46     		mov r11, sp
 18132 86c4 D546     		mov sp, r10
 18133 86c6 10BC     		pop {r4}
 18134 86c8 EA46     		mov r10, sp
 18135 86ca 2546     		mov r5, r4
 18136 86cc 2404     		lsls r4, r4, # 16
 18137 86ce 240C     		lsrs r4, r4, # 16
 18138 86d0 2D0C     		lsrs r5, r5, # 16
 18139 86d2 6043     		muls r0, r0, r4		@R
 18140 86d4 6143     		muls r1, r1, r4		@I
 18141 86d6 6A43     		muls r2, r2, r5		@R
 18142 86d8 6B43     		muls r3, r3, r5		@I
 18143 86da 8011     		asrs r0, r0, # 6
 18144 86dc 8911     		asrs r1, r1, # 6
 18145 86de 9211     		asrs r2, r2, # 6
 18146 86e0 9B11     		asrs r3, r3, # 6
 18147 86e2 8018     		adds r0, r0, r2	 @r
 18148 86e4 C918     		adds r1, r1, r3	 @i
 18149 86e6 3618     		adds r6, r6, r0
 18150 86e8 7F18     		adds r7, r7, r1
 18151              	
 18152 86ea DD46     		mov sp, r11
 18153 86ec 0FBC     		pop {r0-r3}
 18154 86ee EB46     		mov r11, sp
 18155 86f0 D546     		mov sp, r10
 18156 86f2 10BC     		pop {r4}
 18157 86f4 EA46     		mov r10, sp
 18158 86f6 2546     		mov r5, r4
 18159 86f8 2404     		lsls r4, r4, # 16
 18160 86fa 240C     		lsrs r4, r4, # 16
 18161 86fc 2D0C     		lsrs r5, r5, # 16
 18162 86fe 6043     		muls r0, r0, r4
 18163 8700 6143     		muls r1, r1, r4
 18164 8702 6A43     		muls r2, r2, r5
 18165 8704 6B43     		muls r3, r3, r5
 18166 8706 8011     		asrs r0, r0, # 6
 18167 8708 8911     		asrs r1, r1, # 6
ARM GAS  1.s 			page 320


 18168 870a 9211     		asrs r2, r2, # 6
 18169 870c 9B11     		asrs r3, r3, # 6
 18170 870e 8018     		adds r0, r0, r2         @r
 18171 8710 C918     		adds r1, r1, r3         @i
 18172 8712 3618     		adds r6, r6, r0
 18173 8714 7F18     		adds r7, r7, r1
 18174              	
 18175 8716 DD46     		mov sp, r11
 18176 8718 0FBC     		pop {r0-r3}
 18177 871a EB46     		mov r11, sp
 18178 871c D546     		mov sp, r10
 18179 871e 10BC     		pop {r4}
 18180 8720 EA46     		mov r10, sp
 18181 8722 2546     		mov r5, r4
 18182 8724 2404     		lsls r4, r4, # 16
 18183 8726 240C     		lsrs r4, r4, # 16
 18184 8728 2D0C     		lsrs r5, r5, # 16
 18185 872a 6043     		muls r0, r0, r4
 18186 872c 6143     		muls r1, r1, r4
 18187 872e 6A43     		muls r2, r2, r5
 18188 8730 6B43     		muls r3, r3, r5
 18189 8732 8011     		asrs r0, r0, # 6
 18190 8734 8911     		asrs r1, r1, # 6
 18191 8736 9211     		asrs r2, r2, # 6
 18192 8738 9B11     		asrs r3, r3, # 6
 18193 873a 8018     		adds r0, r0, r2  @r
 18194 873c C918     		adds r1, r1, r3  @i
 18195 873e 3618     		adds r6, r6, r0
 18196 8740 7F18     		adds r7, r7, r1
 18197              	
 18198 8742 DD46     		mov sp, r11
 18199 8744 0FBC     		pop {r0-r3}
 18200 8746 EB46     		mov r11, sp
 18201 8748 D546     		mov sp, r10
 18202 874a 10BC     		pop {r4}
 18203 874c EA46     		mov r10, sp
 18204 874e 2546     		mov r5, r4
 18205 8750 2404     		lsls r4, r4, # 16
 18206 8752 240C     		lsrs r4, r4, # 16
 18207 8754 2D0C     		lsrs r5, r5, # 16
 18208 8756 6043     		muls r0, r0, r4
 18209 8758 6143     		muls r1, r1, r4
 18210 875a 6A43     		muls r2, r2, r5
 18211 875c 6B43     		muls r3, r3, r5
 18212 875e 8011     		asrs r0, r0, # 6
 18213 8760 8911     		asrs r1, r1, # 6
 18214 8762 9211     		asrs r2, r2, # 6
 18215 8764 9B11     		asrs r3, r3, # 6
 18216 8766 8018     		adds r0, r0, r2         @r
 18217 8768 C918     		adds r1, r1, r3         @i
 18218 876a 3618     		adds r6, r6, r0
 18219 876c 7F18     		adds r7, r7, r1
 18220              	
 18221              		@4
 18222 876e DD46     		mov sp, r11
 18223 8770 0FBC     		pop {r0-r3}
 18224 8772 EB46     		mov r11, sp
ARM GAS  1.s 			page 321


 18225 8774 D546     		mov sp, r10
 18226 8776 10BC     		pop {r4}
 18227 8778 EA46     		mov r10, sp
 18228 877a 2546     		mov r5, r4
 18229 877c 2404     		lsls r4, r4, # 16
 18230 877e 240C     		lsrs r4, r4, # 16
 18231 8780 2D0C     		lsrs r5, r5, # 16
 18232 8782 6043     		muls r0, r0, r4		@R
 18233 8784 6143     		muls r1, r1, r4		@I
 18234 8786 6A43     		muls r2, r2, r5		@R
 18235 8788 6B43     		muls r3, r3, r5		@I
 18236 878a 8011     		asrs r0, r0, # 6
 18237 878c 8911     		asrs r1, r1, # 6
 18238 878e 9211     		asrs r2, r2, # 6
 18239 8790 9B11     		asrs r3, r3, # 6
 18240 8792 8018     		adds r0, r0, r2	 @r
 18241 8794 C918     		adds r1, r1, r3	 @i
 18242 8796 3618     		adds r6, r6, r0
 18243 8798 7F18     		adds r7, r7, r1
 18244              	
 18245 879a DD46     		mov sp, r11
 18246 879c 0FBC     		pop {r0-r3}
 18247 879e EB46     		mov r11, sp
 18248 87a0 D546     		mov sp, r10
 18249 87a2 10BC     		pop {r4}
 18250 87a4 EA46     		mov r10, sp
 18251 87a6 2546     		mov r5, r4
 18252 87a8 2404     		lsls r4, r4, # 16
 18253 87aa 240C     		lsrs r4, r4, # 16
 18254 87ac 2D0C     		lsrs r5, r5, # 16
 18255 87ae 6043     		muls r0, r0, r4
 18256 87b0 6143     		muls r1, r1, r4
 18257 87b2 6A43     		muls r2, r2, r5
 18258 87b4 6B43     		muls r3, r3, r5
 18259 87b6 8011     		asrs r0, r0, # 6
 18260 87b8 8911     		asrs r1, r1, # 6
 18261 87ba 9211     		asrs r2, r2, # 6
 18262 87bc 9B11     		asrs r3, r3, # 6
 18263 87be 8018     		adds r0, r0, r2         @r
 18264 87c0 C918     		adds r1, r1, r3         @i
 18265 87c2 3618     		adds r6, r6, r0
 18266 87c4 7F18     		adds r7, r7, r1
 18267              	
 18268 87c6 DD46     		mov sp, r11
 18269 87c8 0FBC     		pop {r0-r3}
 18270 87ca EB46     		mov r11, sp
 18271 87cc D546     		mov sp, r10
 18272 87ce 10BC     		pop {r4}
 18273 87d0 EA46     		mov r10, sp
 18274 87d2 2546     		mov r5, r4
 18275 87d4 2404     		lsls r4, r4, # 16
 18276 87d6 240C     		lsrs r4, r4, # 16
 18277 87d8 2D0C     		lsrs r5, r5, # 16
 18278 87da 6043     		muls r0, r0, r4
 18279 87dc 6143     		muls r1, r1, r4
 18280 87de 6A43     		muls r2, r2, r5
 18281 87e0 6B43     		muls r3, r3, r5
ARM GAS  1.s 			page 322


 18282 87e2 8011     		asrs r0, r0, # 6
 18283 87e4 8911     		asrs r1, r1, # 6
 18284 87e6 9211     		asrs r2, r2, # 6
 18285 87e8 9B11     		asrs r3, r3, # 6
 18286 87ea 8018     		adds r0, r0, r2  @r
 18287 87ec C918     		adds r1, r1, r3  @i
 18288 87ee 3618     		adds r6, r6, r0
 18289 87f0 7F18     		adds r7, r7, r1
 18290              	
 18291 87f2 DD46     		mov sp, r11
 18292 87f4 0FBC     		pop {r0-r3}
 18293 87f6 EB46     		mov r11, sp
 18294 87f8 D546     		mov sp, r10
 18295 87fa 10BC     		pop {r4}
 18296 87fc EA46     		mov r10, sp
 18297 87fe 2546     		mov r5, r4
 18298 8800 2404     		lsls r4, r4, # 16
 18299 8802 240C     		lsrs r4, r4, # 16
 18300 8804 2D0C     		lsrs r5, r5, # 16
 18301 8806 6043     		muls r0, r0, r4
 18302 8808 6143     		muls r1, r1, r4
 18303 880a 6A43     		muls r2, r2, r5
 18304 880c 6B43     		muls r3, r3, r5
 18305 880e 8011     		asrs r0, r0, # 6
 18306 8810 8911     		asrs r1, r1, # 6
 18307 8812 9211     		asrs r2, r2, # 6
 18308 8814 9B11     		asrs r3, r3, # 6
 18309 8816 8018     		adds r0, r0, r2         @r
 18310 8818 C918     		adds r1, r1, r3         @i
 18311 881a 3618     		adds r6, r6, r0
 18312 881c 7F18     		adds r7, r7, r1
 18313              	
 18314              		@5
 18315 881e DD46     		mov sp, r11
 18316 8820 0FBC     		pop {r0-r3}
 18317 8822 EB46     		mov r11, sp
 18318 8824 D546     		mov sp, r10
 18319 8826 10BC     		pop {r4}
 18320 8828 EA46     		mov r10, sp
 18321 882a 2546     		mov r5, r4
 18322 882c 2404     		lsls r4, r4, # 16
 18323 882e 240C     		lsrs r4, r4, # 16
 18324 8830 2D0C     		lsrs r5, r5, # 16
 18325 8832 6043     		muls r0, r0, r4		@R
 18326 8834 6143     		muls r1, r1, r4		@I
 18327 8836 6A43     		muls r2, r2, r5		@R
 18328 8838 6B43     		muls r3, r3, r5		@I
 18329 883a 8011     		asrs r0, r0, # 6
 18330 883c 8911     		asrs r1, r1, # 6
 18331 883e 9211     		asrs r2, r2, # 6
 18332 8840 9B11     		asrs r3, r3, # 6
 18333 8842 8018     		adds r0, r0, r2	 @r
 18334 8844 C918     		adds r1, r1, r3	 @i
 18335 8846 3618     		adds r6, r6, r0
 18336 8848 7F18     		adds r7, r7, r1
 18337              	
 18338 884a DD46     		mov sp, r11
ARM GAS  1.s 			page 323


 18339 884c 0FBC     		pop {r0-r3}
 18340 884e EB46     		mov r11, sp
 18341 8850 D546     		mov sp, r10
 18342 8852 10BC     		pop {r4}
 18343 8854 EA46     		mov r10, sp
 18344 8856 2546     		mov r5, r4
 18345 8858 2404     		lsls r4, r4, # 16
 18346 885a 240C     		lsrs r4, r4, # 16
 18347 885c 2D0C     		lsrs r5, r5, # 16
 18348 885e 6043     		muls r0, r0, r4
 18349 8860 6143     		muls r1, r1, r4
 18350 8862 6A43     		muls r2, r2, r5
 18351 8864 6B43     		muls r3, r3, r5
 18352 8866 8011     		asrs r0, r0, # 6
 18353 8868 8911     		asrs r1, r1, # 6
 18354 886a 9211     		asrs r2, r2, # 6
 18355 886c 9B11     		asrs r3, r3, # 6
 18356 886e 8018     		adds r0, r0, r2         @r
 18357 8870 C918     		adds r1, r1, r3         @i
 18358 8872 3618     		adds r6, r6, r0
 18359 8874 7F18     		adds r7, r7, r1
 18360              	
 18361 8876 DD46     		mov sp, r11
 18362 8878 0FBC     		pop {r0-r3}
 18363 887a EB46     		mov r11, sp
 18364 887c D546     		mov sp, r10
 18365 887e 10BC     		pop {r4}
 18366 8880 EA46     		mov r10, sp
 18367 8882 2546     		mov r5, r4
 18368 8884 2404     		lsls r4, r4, # 16
 18369 8886 240C     		lsrs r4, r4, # 16
 18370 8888 2D0C     		lsrs r5, r5, # 16
 18371 888a 6043     		muls r0, r0, r4
 18372 888c 6143     		muls r1, r1, r4
 18373 888e 6A43     		muls r2, r2, r5
 18374 8890 6B43     		muls r3, r3, r5
 18375 8892 8011     		asrs r0, r0, # 6
 18376 8894 8911     		asrs r1, r1, # 6
 18377 8896 9211     		asrs r2, r2, # 6
 18378 8898 9B11     		asrs r3, r3, # 6
 18379 889a 8018     		adds r0, r0, r2  @r
 18380 889c C918     		adds r1, r1, r3  @i
 18381 889e 3618     		adds r6, r6, r0
 18382 88a0 7F18     		adds r7, r7, r1
 18383              	
 18384 88a2 DD46     		mov sp, r11
 18385 88a4 0FBC     		pop {r0-r3}
 18386 88a6 EB46     		mov r11, sp
 18387 88a8 D546     		mov sp, r10
 18388 88aa 10BC     		pop {r4}
 18389 88ac EA46     		mov r10, sp
 18390 88ae 2546     		mov r5, r4
 18391 88b0 2404     		lsls r4, r4, # 16
 18392 88b2 240C     		lsrs r4, r4, # 16
 18393 88b4 2D0C     		lsrs r5, r5, # 16
 18394 88b6 6043     		muls r0, r0, r4
 18395 88b8 6143     		muls r1, r1, r4
ARM GAS  1.s 			page 324


 18396 88ba 6A43     		muls r2, r2, r5
 18397 88bc 6B43     		muls r3, r3, r5
 18398 88be 8011     		asrs r0, r0, # 6
 18399 88c0 8911     		asrs r1, r1, # 6
 18400 88c2 9211     		asrs r2, r2, # 6
 18401 88c4 9B11     		asrs r3, r3, # 6
 18402 88c6 8018     		adds r0, r0, r2         @r
 18403 88c8 C918     		adds r1, r1, r3         @i
 18404 88ca 3618     		adds r6, r6, r0
 18405 88cc 7F18     		adds r7, r7, r1
 18406              	
 18407              		@6
 18408 88ce DD46     		mov sp, r11
 18409 88d0 0FBC     		pop {r0-r3}
 18410 88d2 EB46     		mov r11, sp
 18411 88d4 D546     		mov sp, r10
 18412 88d6 10BC     		pop {r4}
 18413 88d8 EA46     		mov r10, sp
 18414 88da 2546     		mov r5, r4
 18415 88dc 2404     		lsls r4, r4, # 16
 18416 88de 240C     		lsrs r4, r4, # 16
 18417 88e0 2D0C     		lsrs r5, r5, # 16
 18418 88e2 6043     		muls r0, r0, r4		@R
 18419 88e4 6143     		muls r1, r1, r4		@I
 18420 88e6 6A43     		muls r2, r2, r5		@R
 18421 88e8 6B43     		muls r3, r3, r5		@I
 18422 88ea 8011     		asrs r0, r0, # 6
 18423 88ec 8911     		asrs r1, r1, # 6
 18424 88ee 9211     		asrs r2, r2, # 6
 18425 88f0 9B11     		asrs r3, r3, # 6
 18426 88f2 8018     		adds r0, r0, r2	 @r
 18427 88f4 C918     		adds r1, r1, r3	 @i
 18428 88f6 3618     		adds r6, r6, r0
 18429 88f8 7F18     		adds r7, r7, r1
 18430              	
 18431 88fa DD46     		mov sp, r11
 18432 88fc 0FBC     		pop {r0-r3}
 18433 88fe EB46     		mov r11, sp
 18434 8900 D546     		mov sp, r10
 18435 8902 10BC     		pop {r4}
 18436 8904 EA46     		mov r10, sp
 18437 8906 2546     		mov r5, r4
 18438 8908 2404     		lsls r4, r4, # 16
 18439 890a 240C     		lsrs r4, r4, # 16
 18440 890c 2D0C     		lsrs r5, r5, # 16
 18441 890e 6043     		muls r0, r0, r4
 18442 8910 6143     		muls r1, r1, r4
 18443 8912 6A43     		muls r2, r2, r5
 18444 8914 6B43     		muls r3, r3, r5
 18445 8916 8011     		asrs r0, r0, # 6
 18446 8918 8911     		asrs r1, r1, # 6
 18447 891a 9211     		asrs r2, r2, # 6
 18448 891c 9B11     		asrs r3, r3, # 6
 18449 891e 8018     		adds r0, r0, r2         @r
 18450 8920 C918     		adds r1, r1, r3         @i
 18451 8922 3618     		adds r6, r6, r0
 18452 8924 7F18     		adds r7, r7, r1
ARM GAS  1.s 			page 325


 18453              	
 18454 8926 DD46     		mov sp, r11
 18455 8928 0FBC     		pop {r0-r3}
 18456 892a EB46     		mov r11, sp
 18457 892c D546     		mov sp, r10
 18458 892e 10BC     		pop {r4}
 18459 8930 EA46     		mov r10, sp
 18460 8932 2546     		mov r5, r4
 18461 8934 2404     		lsls r4, r4, # 16
 18462 8936 240C     		lsrs r4, r4, # 16
 18463 8938 2D0C     		lsrs r5, r5, # 16
 18464 893a 6043     		muls r0, r0, r4
 18465 893c 6143     		muls r1, r1, r4
 18466 893e 6A43     		muls r2, r2, r5
 18467 8940 6B43     		muls r3, r3, r5
 18468 8942 8011     		asrs r0, r0, # 6
 18469 8944 8911     		asrs r1, r1, # 6
 18470 8946 9211     		asrs r2, r2, # 6
 18471 8948 9B11     		asrs r3, r3, # 6
 18472 894a 8018     		adds r0, r0, r2  @r
 18473 894c C918     		adds r1, r1, r3  @i
 18474 894e 3618     		adds r6, r6, r0
 18475 8950 7F18     		adds r7, r7, r1
 18476              	
 18477 8952 DD46     		mov sp, r11
 18478 8954 0FBC     		pop {r0-r3}
 18479 8956 EB46     		mov r11, sp
 18480 8958 D546     		mov sp, r10
 18481 895a 10BC     		pop {r4}
 18482 895c EA46     		mov r10, sp
 18483 895e 2546     		mov r5, r4
 18484 8960 2404     		lsls r4, r4, # 16
 18485 8962 240C     		lsrs r4, r4, # 16
 18486 8964 2D0C     		lsrs r5, r5, # 16
 18487 8966 6043     		muls r0, r0, r4
 18488 8968 6143     		muls r1, r1, r4
 18489 896a 6A43     		muls r2, r2, r5
 18490 896c 6B43     		muls r3, r3, r5
 18491 896e 8011     		asrs r0, r0, # 6
 18492 8970 8911     		asrs r1, r1, # 6
 18493 8972 9211     		asrs r2, r2, # 6
 18494 8974 9B11     		asrs r3, r3, # 6
 18495 8976 8018     		adds r0, r0, r2         @r
 18496 8978 C918     		adds r1, r1, r3         @i
 18497 897a 3618     		adds r6, r6, r0
 18498 897c 7F18     		adds r7, r7, r1
 18499              	
 18500              		@7
 18501 897e DD46     		mov sp, r11
 18502 8980 0FBC     		pop {r0-r3}
 18503 8982 EB46     		mov r11, sp
 18504 8984 D546     		mov sp, r10
 18505 8986 10BC     		pop {r4}
 18506 8988 EA46     		mov r10, sp
 18507 898a 2546     		mov r5, r4
 18508 898c 2404     		lsls r4, r4, # 16
 18509 898e 240C     		lsrs r4, r4, # 16
ARM GAS  1.s 			page 326


 18510 8990 2D0C     		lsrs r5, r5, # 16
 18511 8992 6043     		muls r0, r0, r4		@R
 18512 8994 6143     		muls r1, r1, r4		@I
 18513 8996 6A43     		muls r2, r2, r5		@R
 18514 8998 6B43     		muls r3, r3, r5		@I
 18515 899a 8011     		asrs r0, r0, # 6
 18516 899c 8911     		asrs r1, r1, # 6
 18517 899e 9211     		asrs r2, r2, # 6
 18518 89a0 9B11     		asrs r3, r3, # 6
 18519 89a2 8018     		adds r0, r0, r2	 @r
 18520 89a4 C918     		adds r1, r1, r3	 @i
 18521 89a6 3618     		adds r6, r6, r0
 18522 89a8 7F18     		adds r7, r7, r1
 18523              	
 18524 89aa DD46     		mov sp, r11
 18525 89ac 0FBC     		pop {r0-r3}
 18526 89ae EB46     		mov r11, sp
 18527 89b0 D546     		mov sp, r10
 18528 89b2 10BC     		pop {r4}
 18529 89b4 EA46     		mov r10, sp
 18530 89b6 2546     		mov r5, r4
 18531 89b8 2404     		lsls r4, r4, # 16
 18532 89ba 240C     		lsrs r4, r4, # 16
 18533 89bc 2D0C     		lsrs r5, r5, # 16
 18534 89be 6043     		muls r0, r0, r4
 18535 89c0 6143     		muls r1, r1, r4
 18536 89c2 6A43     		muls r2, r2, r5
 18537 89c4 6B43     		muls r3, r3, r5
 18538 89c6 8011     		asrs r0, r0, # 6
 18539 89c8 8911     		asrs r1, r1, # 6
 18540 89ca 9211     		asrs r2, r2, # 6
 18541 89cc 9B11     		asrs r3, r3, # 6
 18542 89ce 8018     		adds r0, r0, r2         @r
 18543 89d0 C918     		adds r1, r1, r3         @i
 18544 89d2 3618     		adds r6, r6, r0
 18545 89d4 7F18     		adds r7, r7, r1
 18546              	
 18547 89d6 DD46     		mov sp, r11
 18548 89d8 0FBC     		pop {r0-r3}
 18549 89da EB46     		mov r11, sp
 18550 89dc D546     		mov sp, r10
 18551 89de 10BC     		pop {r4}
 18552 89e0 EA46     		mov r10, sp
 18553 89e2 2546     		mov r5, r4
 18554 89e4 2404     		lsls r4, r4, # 16
 18555 89e6 240C     		lsrs r4, r4, # 16
 18556 89e8 2D0C     		lsrs r5, r5, # 16
 18557 89ea 6043     		muls r0, r0, r4
 18558 89ec 6143     		muls r1, r1, r4
 18559 89ee 6A43     		muls r2, r2, r5
 18560 89f0 6B43     		muls r3, r3, r5
 18561 89f2 8011     		asrs r0, r0, # 6
 18562 89f4 8911     		asrs r1, r1, # 6
 18563 89f6 9211     		asrs r2, r2, # 6
 18564 89f8 9B11     		asrs r3, r3, # 6
 18565 89fa 8018     		adds r0, r0, r2  @r
 18566 89fc C918     		adds r1, r1, r3  @i
ARM GAS  1.s 			page 327


 18567 89fe 3618     		adds r6, r6, r0
 18568 8a00 7F18     		adds r7, r7, r1
 18569              	
 18570 8a02 DD46     		mov sp, r11
 18571 8a04 0FBC     		pop {r0-r3}
 18572 8a06 EB46     		mov r11, sp
 18573 8a08 D546     		mov sp, r10
 18574 8a0a 10BC     		pop {r4}
 18575 8a0c EA46     		mov r10, sp
 18576 8a0e 2546     		mov r5, r4
 18577 8a10 2404     		lsls r4, r4, # 16
 18578 8a12 240C     		lsrs r4, r4, # 16
 18579 8a14 2D0C     		lsrs r5, r5, # 16
 18580 8a16 6043     		muls r0, r0, r4
 18581 8a18 6143     		muls r1, r1, r4
 18582 8a1a 6A43     		muls r2, r2, r5
 18583 8a1c 6B43     		muls r3, r3, r5
 18584 8a1e 8011     		asrs r0, r0, # 6
 18585 8a20 8911     		asrs r1, r1, # 6
 18586 8a22 9211     		asrs r2, r2, # 6
 18587 8a24 9B11     		asrs r3, r3, # 6
 18588 8a26 8018     		adds r0, r0, r2         @r
 18589 8a28 C918     		adds r1, r1, r3         @i
 18590 8a2a 3618     		adds r6, r6, r0
 18591 8a2c 7F18     		adds r7, r7, r1
 18592              	
 18593              		@8
 18594 8a2e DD46     		mov sp, r11
 18595 8a30 0FBC     		pop {r0-r3}
 18596 8a32 EB46     		mov r11, sp
 18597 8a34 D546     		mov sp, r10
 18598 8a36 10BC     		pop {r4}
 18599 8a38 EA46     		mov r10, sp
 18600 8a3a 2546     		mov r5, r4
 18601 8a3c 2404     		lsls r4, r4, # 16
 18602 8a3e 240C     		lsrs r4, r4, # 16
 18603 8a40 2D0C     		lsrs r5, r5, # 16
 18604 8a42 6043     		muls r0, r0, r4		@R
 18605 8a44 6143     		muls r1, r1, r4		@I
 18606 8a46 6A43     		muls r2, r2, r5		@R
 18607 8a48 6B43     		muls r3, r3, r5		@I
 18608 8a4a 8011     		asrs r0, r0, # 6
 18609 8a4c 8911     		asrs r1, r1, # 6
 18610 8a4e 9211     		asrs r2, r2, # 6
 18611 8a50 9B11     		asrs r3, r3, # 6
 18612 8a52 8018     		adds r0, r0, r2	 @r
 18613 8a54 C918     		adds r1, r1, r3	 @i
 18614 8a56 3618     		adds r6, r6, r0
 18615 8a58 7F18     		adds r7, r7, r1
 18616              	
 18617 8a5a DD46     		mov sp, r11
 18618 8a5c 0FBC     		pop {r0-r3}
 18619 8a5e EB46     		mov r11, sp
 18620 8a60 D546     		mov sp, r10
 18621 8a62 10BC     		pop {r4}
 18622 8a64 EA46     		mov r10, sp
 18623 8a66 2546     		mov r5, r4
ARM GAS  1.s 			page 328


 18624 8a68 2404     		lsls r4, r4, # 16
 18625 8a6a 240C     		lsrs r4, r4, # 16
 18626 8a6c 2D0C     		lsrs r5, r5, # 16
 18627 8a6e 6043     		muls r0, r0, r4
 18628 8a70 6143     		muls r1, r1, r4
 18629 8a72 6A43     		muls r2, r2, r5
 18630 8a74 6B43     		muls r3, r3, r5
 18631 8a76 8011     		asrs r0, r0, # 6
 18632 8a78 8911     		asrs r1, r1, # 6
 18633 8a7a 9211     		asrs r2, r2, # 6
 18634 8a7c 9B11     		asrs r3, r3, # 6
 18635 8a7e 8018     		adds r0, r0, r2         @r
 18636 8a80 C918     		adds r1, r1, r3         @i
 18637 8a82 3618     		adds r6, r6, r0
 18638 8a84 7F18     		adds r7, r7, r1
 18639              	
 18640 8a86 DD46     		mov sp, r11
 18641 8a88 0FBC     		pop {r0-r3}
 18642 8a8a EB46     		mov r11, sp
 18643 8a8c D546     		mov sp, r10
 18644 8a8e 10BC     		pop {r4}
 18645 8a90 EA46     		mov r10, sp
 18646 8a92 2546     		mov r5, r4
 18647 8a94 2404     		lsls r4, r4, # 16
 18648 8a96 240C     		lsrs r4, r4, # 16
 18649 8a98 2D0C     		lsrs r5, r5, # 16
 18650 8a9a 6043     		muls r0, r0, r4
 18651 8a9c 6143     		muls r1, r1, r4
 18652 8a9e 6A43     		muls r2, r2, r5
 18653 8aa0 6B43     		muls r3, r3, r5
 18654 8aa2 8011     		asrs r0, r0, # 6
 18655 8aa4 8911     		asrs r1, r1, # 6
 18656 8aa6 9211     		asrs r2, r2, # 6
 18657 8aa8 9B11     		asrs r3, r3, # 6
 18658 8aaa 8018     		adds r0, r0, r2  @r
 18659 8aac C918     		adds r1, r1, r3  @i
 18660 8aae 3618     		adds r6, r6, r0
 18661 8ab0 7F18     		adds r7, r7, r1
 18662              	
 18663 8ab2 DD46     		mov sp, r11
 18664 8ab4 0FBC     		pop {r0-r3}
 18665 8ab6 EB46     		mov r11, sp
 18666 8ab8 D546     		mov sp, r10
 18667 8aba 10BC     		pop {r4}
 18668 8abc EA46     		mov r10, sp
 18669 8abe 2546     		mov r5, r4
 18670 8ac0 2404     		lsls r4, r4, # 16
 18671 8ac2 240C     		lsrs r4, r4, # 16
 18672 8ac4 2D0C     		lsrs r5, r5, # 16
 18673 8ac6 6043     		muls r0, r0, r4
 18674 8ac8 6143     		muls r1, r1, r4
 18675 8aca 6A43     		muls r2, r2, r5
 18676 8acc 6B43     		muls r3, r3, r5
 18677 8ace 8011     		asrs r0, r0, # 6
 18678 8ad0 8911     		asrs r1, r1, # 6
 18679 8ad2 9211     		asrs r2, r2, # 6
 18680 8ad4 9B11     		asrs r3, r3, # 6
ARM GAS  1.s 			page 329


 18681 8ad6 8018     		adds r0, r0, r2         @r
 18682 8ad8 C918     		adds r1, r1, r3         @i
 18683 8ada 3618     		adds r6, r6, r0
 18684 8adc 7F18     		adds r7, r7, r1
 18685              	
 18686              		@9
 18687 8ade DD46     		mov sp, r11
 18688 8ae0 0FBC     		pop {r0-r3}
 18689 8ae2 EB46     		mov r11, sp
 18690 8ae4 D546     		mov sp, r10
 18691 8ae6 10BC     		pop {r4}
 18692 8ae8 EA46     		mov r10, sp
 18693 8aea 2546     		mov r5, r4
 18694 8aec 2404     		lsls r4, r4, # 16
 18695 8aee 240C     		lsrs r4, r4, # 16
 18696 8af0 2D0C     		lsrs r5, r5, # 16
 18697 8af2 6043     		muls r0, r0, r4		@R
 18698 8af4 6143     		muls r1, r1, r4		@I
 18699 8af6 6A43     		muls r2, r2, r5		@R
 18700 8af8 6B43     		muls r3, r3, r5		@I
 18701 8afa 8011     		asrs r0, r0, # 6
 18702 8afc 8911     		asrs r1, r1, # 6
 18703 8afe 9211     		asrs r2, r2, # 6
 18704 8b00 9B11     		asrs r3, r3, # 6
 18705 8b02 8018     		adds r0, r0, r2	 @r
 18706 8b04 C918     		adds r1, r1, r3	 @i
 18707 8b06 3618     		adds r6, r6, r0
 18708 8b08 7F18     		adds r7, r7, r1
 18709              	
 18710 8b0a DD46     		mov sp, r11
 18711 8b0c 0FBC     		pop {r0-r3}
 18712 8b0e EB46     		mov r11, sp
 18713 8b10 D546     		mov sp, r10
 18714 8b12 10BC     		pop {r4}
 18715 8b14 EA46     		mov r10, sp
 18716 8b16 2546     		mov r5, r4
 18717 8b18 2404     		lsls r4, r4, # 16
 18718 8b1a 240C     		lsrs r4, r4, # 16
 18719 8b1c 2D0C     		lsrs r5, r5, # 16
 18720 8b1e 6043     		muls r0, r0, r4
 18721 8b20 6143     		muls r1, r1, r4
 18722 8b22 6A43     		muls r2, r2, r5
 18723 8b24 6B43     		muls r3, r3, r5
 18724 8b26 8011     		asrs r0, r0, # 6
 18725 8b28 8911     		asrs r1, r1, # 6
 18726 8b2a 9211     		asrs r2, r2, # 6
 18727 8b2c 9B11     		asrs r3, r3, # 6
 18728 8b2e 8018     		adds r0, r0, r2         @r
 18729 8b30 C918     		adds r1, r1, r3         @i
 18730 8b32 3618     		adds r6, r6, r0
 18731 8b34 7F18     		adds r7, r7, r1
 18732              	
 18733 8b36 DD46     		mov sp, r11
 18734 8b38 0FBC     		pop {r0-r3}
 18735 8b3a EB46     		mov r11, sp
 18736 8b3c D546     		mov sp, r10
 18737 8b3e 10BC     		pop {r4}
ARM GAS  1.s 			page 330


 18738 8b40 EA46     		mov r10, sp
 18739 8b42 2546     		mov r5, r4
 18740 8b44 2404     		lsls r4, r4, # 16
 18741 8b46 240C     		lsrs r4, r4, # 16
 18742 8b48 2D0C     		lsrs r5, r5, # 16
 18743 8b4a 6043     		muls r0, r0, r4
 18744 8b4c 6143     		muls r1, r1, r4
 18745 8b4e 6A43     		muls r2, r2, r5
 18746 8b50 6B43     		muls r3, r3, r5
 18747 8b52 8011     		asrs r0, r0, # 6
 18748 8b54 8911     		asrs r1, r1, # 6
 18749 8b56 9211     		asrs r2, r2, # 6
 18750 8b58 9B11     		asrs r3, r3, # 6
 18751 8b5a 8018     		adds r0, r0, r2  @r
 18752 8b5c C918     		adds r1, r1, r3  @i
 18753 8b5e 3618     		adds r6, r6, r0
 18754 8b60 7F18     		adds r7, r7, r1
 18755              	
 18756 8b62 DD46     		mov sp, r11
 18757 8b64 0FBC     		pop {r0-r3}
 18758 8b66 EB46     		mov r11, sp
 18759 8b68 D546     		mov sp, r10
 18760 8b6a 10BC     		pop {r4}
 18761 8b6c EA46     		mov r10, sp
 18762 8b6e 2546     		mov r5, r4
 18763 8b70 2404     		lsls r4, r4, # 16
 18764 8b72 240C     		lsrs r4, r4, # 16
 18765 8b74 2D0C     		lsrs r5, r5, # 16
 18766 8b76 6043     		muls r0, r0, r4
 18767 8b78 6143     		muls r1, r1, r4
 18768 8b7a 6A43     		muls r2, r2, r5
 18769 8b7c 6B43     		muls r3, r3, r5
 18770 8b7e 8011     		asrs r0, r0, # 6
 18771 8b80 8911     		asrs r1, r1, # 6
 18772 8b82 9211     		asrs r2, r2, # 6
 18773 8b84 9B11     		asrs r3, r3, # 6
 18774 8b86 8018     		adds r0, r0, r2         @r
 18775 8b88 C918     		adds r1, r1, r3         @i
 18776 8b8a 3618     		adds r6, r6, r0
 18777 8b8c 7F18     		adds r7, r7, r1
 18778              	
 18779              	@yjm19
 18780              		@0
 18781 8b8e DD46     		mov sp, r11
 18782 8b90 0FBC     		pop {r0-r3}
 18783 8b92 EB46     		mov r11, sp
 18784 8b94 D546     		mov sp, r10
 18785 8b96 10BC     		pop {r4}
 18786 8b98 EA46     		mov r10, sp
 18787 8b9a 2546     		mov r5, r4
 18788 8b9c 2404     		lsls r4, r4, # 16
 18789 8b9e 240C     		lsrs r4, r4, # 16
 18790 8ba0 2D0C     		lsrs r5, r5, # 16
 18791 8ba2 6043     		muls r0, r0, r4		@R
 18792 8ba4 6143     		muls r1, r1, r4		@I
 18793 8ba6 6A43     		muls r2, r2, r5		@R
 18794 8ba8 6B43     		muls r3, r3, r5		@I
ARM GAS  1.s 			page 331


 18795 8baa 8011     		asrs r0, r0, # 6
 18796 8bac 8911     		asrs r1, r1, # 6
 18797 8bae 9211     		asrs r2, r2, # 6
 18798 8bb0 9B11     		asrs r3, r3, # 6
 18799 8bb2 8018     		adds r0, r0, r2	 @r
 18800 8bb4 C918     		adds r1, r1, r3	 @i
 18801 8bb6 3618     		adds r6, r6, r0
 18802 8bb8 7F18     		adds r7, r7, r1
 18803              	
 18804 8bba DD46     		mov sp, r11
 18805 8bbc 0FBC     		pop {r0-r3}
 18806 8bbe EB46     		mov r11, sp
 18807 8bc0 D546     		mov sp, r10
 18808 8bc2 10BC     		pop {r4}
 18809 8bc4 EA46     		mov r10, sp
 18810 8bc6 2546     		mov r5, r4
 18811 8bc8 2404     		lsls r4, r4, # 16
 18812 8bca 240C     		lsrs r4, r4, # 16
 18813 8bcc 2D0C     		lsrs r5, r5, # 16
 18814 8bce 6043     		muls r0, r0, r4
 18815 8bd0 6143     		muls r1, r1, r4
 18816 8bd2 6A43     		muls r2, r2, r5
 18817 8bd4 6B43     		muls r3, r3, r5
 18818 8bd6 8011     		asrs r0, r0, # 6
 18819 8bd8 8911     		asrs r1, r1, # 6
 18820 8bda 9211     		asrs r2, r2, # 6
 18821 8bdc 9B11     		asrs r3, r3, # 6
 18822 8bde 8018     		adds r0, r0, r2         @r
 18823 8be0 C918     		adds r1, r1, r3         @i
 18824 8be2 3618     		adds r6, r6, r0
 18825 8be4 7F18     		adds r7, r7, r1
 18826              	
 18827 8be6 DD46     		mov sp, r11
 18828 8be8 0FBC     		pop {r0-r3}
 18829 8bea EB46     		mov r11, sp
 18830 8bec D546     		mov sp, r10
 18831 8bee 10BC     		pop {r4}
 18832 8bf0 EA46     		mov r10, sp
 18833 8bf2 2546     		mov r5, r4
 18834 8bf4 2404     		lsls r4, r4, # 16
 18835 8bf6 240C     		lsrs r4, r4, # 16
 18836 8bf8 2D0C     		lsrs r5, r5, # 16
 18837 8bfa 6043     		muls r0, r0, r4
 18838 8bfc 6143     		muls r1, r1, r4
 18839 8bfe 6A43     		muls r2, r2, r5
 18840 8c00 6B43     		muls r3, r3, r5
 18841 8c02 8011     		asrs r0, r0, # 6
 18842 8c04 8911     		asrs r1, r1, # 6
 18843 8c06 9211     		asrs r2, r2, # 6
 18844 8c08 9B11     		asrs r3, r3, # 6
 18845 8c0a 8018     		adds r0, r0, r2  @r
 18846 8c0c C918     		adds r1, r1, r3  @i
 18847 8c0e 3618     		adds r6, r6, r0
 18848 8c10 7F18     		adds r7, r7, r1
 18849              	
 18850 8c12 DD46     		mov sp, r11
 18851 8c14 0FBC     		pop {r0-r3}
ARM GAS  1.s 			page 332


 18852 8c16 EB46     		mov r11, sp
 18853 8c18 D546     		mov sp, r10
 18854 8c1a 10BC     		pop {r4}
 18855 8c1c EA46     		mov r10, sp
 18856 8c1e 2546     		mov r5, r4
 18857 8c20 2404     		lsls r4, r4, # 16
 18858 8c22 240C     		lsrs r4, r4, # 16
 18859 8c24 2D0C     		lsrs r5, r5, # 16
 18860 8c26 6043     		muls r0, r0, r4
 18861 8c28 6143     		muls r1, r1, r4
 18862 8c2a 6A43     		muls r2, r2, r5
 18863 8c2c 6B43     		muls r3, r3, r5
 18864 8c2e 8011     		asrs r0, r0, # 6
 18865 8c30 8911     		asrs r1, r1, # 6
 18866 8c32 9211     		asrs r2, r2, # 6
 18867 8c34 9B11     		asrs r3, r3, # 6
 18868 8c36 8018     		adds r0, r0, r2         @r
 18869 8c38 C918     		adds r1, r1, r3         @i
 18870 8c3a 3618     		adds r6, r6, r0
 18871 8c3c 7F18     		adds r7, r7, r1
 18872              	
 18873              		@1
 18874 8c3e DD46     		mov sp, r11
 18875 8c40 0FBC     		pop {r0-r3}
 18876 8c42 EB46     		mov r11, sp
 18877 8c44 D546     		mov sp, r10
 18878 8c46 10BC     		pop {r4}
 18879 8c48 EA46     		mov r10, sp
 18880 8c4a 2546     		mov r5, r4
 18881 8c4c 2404     		lsls r4, r4, # 16
 18882 8c4e 240C     		lsrs r4, r4, # 16
 18883 8c50 2D0C     		lsrs r5, r5, # 16
 18884 8c52 6043     		muls r0, r0, r4		@R
 18885 8c54 6143     		muls r1, r1, r4		@I
 18886 8c56 6A43     		muls r2, r2, r5		@R
 18887 8c58 6B43     		muls r3, r3, r5		@I
 18888 8c5a 8011     		asrs r0, r0, # 6
 18889 8c5c 8911     		asrs r1, r1, # 6
 18890 8c5e 9211     		asrs r2, r2, # 6
 18891 8c60 9B11     		asrs r3, r3, # 6
 18892 8c62 8018     		adds r0, r0, r2	 @r
 18893 8c64 C918     		adds r1, r1, r3	 @i
 18894 8c66 3618     		adds r6, r6, r0
 18895 8c68 7F18     		adds r7, r7, r1
 18896              	
 18897 8c6a DD46     		mov sp, r11
 18898 8c6c 0FBC     		pop {r0-r3}
 18899 8c6e EB46     		mov r11, sp
 18900 8c70 D546     		mov sp, r10
 18901 8c72 10BC     		pop {r4}
 18902 8c74 EA46     		mov r10, sp
 18903 8c76 2546     		mov r5, r4
 18904 8c78 2404     		lsls r4, r4, # 16
 18905 8c7a 240C     		lsrs r4, r4, # 16
 18906 8c7c 2D0C     		lsrs r5, r5, # 16
 18907 8c7e 6043     		muls r0, r0, r4
 18908 8c80 6143     		muls r1, r1, r4
ARM GAS  1.s 			page 333


 18909 8c82 6A43     		muls r2, r2, r5
 18910 8c84 6B43     		muls r3, r3, r5
 18911 8c86 8011     		asrs r0, r0, # 6
 18912 8c88 8911     		asrs r1, r1, # 6
 18913 8c8a 9211     		asrs r2, r2, # 6
 18914 8c8c 9B11     		asrs r3, r3, # 6
 18915 8c8e 8018     		adds r0, r0, r2         @r
 18916 8c90 C918     		adds r1, r1, r3         @i
 18917 8c92 3618     		adds r6, r6, r0
 18918 8c94 7F18     		adds r7, r7, r1
 18919              	
 18920 8c96 DD46     		mov sp, r11
 18921 8c98 0FBC     		pop {r0-r3}
 18922 8c9a EB46     		mov r11, sp
 18923 8c9c D546     		mov sp, r10
 18924 8c9e 10BC     		pop {r4}
 18925 8ca0 EA46     		mov r10, sp
 18926 8ca2 2546     		mov r5, r4
 18927 8ca4 2404     		lsls r4, r4, # 16
 18928 8ca6 240C     		lsrs r4, r4, # 16
 18929 8ca8 2D0C     		lsrs r5, r5, # 16
 18930 8caa 6043     		muls r0, r0, r4
 18931 8cac 6143     		muls r1, r1, r4
 18932 8cae 6A43     		muls r2, r2, r5
 18933 8cb0 6B43     		muls r3, r3, r5
 18934 8cb2 8011     		asrs r0, r0, # 6
 18935 8cb4 8911     		asrs r1, r1, # 6
 18936 8cb6 9211     		asrs r2, r2, # 6
 18937 8cb8 9B11     		asrs r3, r3, # 6
 18938 8cba 8018     		adds r0, r0, r2  @r
 18939 8cbc C918     		adds r1, r1, r3  @i
 18940 8cbe 3618     		adds r6, r6, r0
 18941 8cc0 7F18     		adds r7, r7, r1
 18942              	
 18943 8cc2 DD46     		mov sp, r11
 18944 8cc4 0FBC     		pop {r0-r3}
 18945 8cc6 EB46     		mov r11, sp
 18946 8cc8 D546     		mov sp, r10
 18947 8cca 10BC     		pop {r4}
 18948 8ccc EA46     		mov r10, sp
 18949 8cce 2546     		mov r5, r4
 18950 8cd0 2404     		lsls r4, r4, # 16
 18951 8cd2 240C     		lsrs r4, r4, # 16
 18952 8cd4 2D0C     		lsrs r5, r5, # 16
 18953 8cd6 6043     		muls r0, r0, r4
 18954 8cd8 6143     		muls r1, r1, r4
 18955 8cda 6A43     		muls r2, r2, r5
 18956 8cdc 6B43     		muls r3, r3, r5
 18957 8cde 8011     		asrs r0, r0, # 6
 18958 8ce0 8911     		asrs r1, r1, # 6
 18959 8ce2 9211     		asrs r2, r2, # 6
 18960 8ce4 9B11     		asrs r3, r3, # 6
 18961 8ce6 8018     		adds r0, r0, r2         @r
 18962 8ce8 C918     		adds r1, r1, r3         @i
 18963 8cea 3618     		adds r6, r6, r0
 18964 8cec 7F18     		adds r7, r7, r1
 18965              	
ARM GAS  1.s 			page 334


 18966              		@2
 18967 8cee DD46     		mov sp, r11
 18968 8cf0 0FBC     		pop {r0-r3}
 18969 8cf2 EB46     		mov r11, sp
 18970 8cf4 D546     		mov sp, r10
 18971 8cf6 10BC     		pop {r4}
 18972 8cf8 EA46     		mov r10, sp
 18973 8cfa 2546     		mov r5, r4
 18974 8cfc 2404     		lsls r4, r4, # 16
 18975 8cfe 240C     		lsrs r4, r4, # 16
 18976 8d00 2D0C     		lsrs r5, r5, # 16
 18977 8d02 6043     		muls r0, r0, r4		@R
 18978 8d04 6143     		muls r1, r1, r4		@I
 18979 8d06 6A43     		muls r2, r2, r5		@R
 18980 8d08 6B43     		muls r3, r3, r5		@I
 18981 8d0a 8011     		asrs r0, r0, # 6
 18982 8d0c 8911     		asrs r1, r1, # 6
 18983 8d0e 9211     		asrs r2, r2, # 6
 18984 8d10 9B11     		asrs r3, r3, # 6
 18985 8d12 8018     		adds r0, r0, r2	 @r
 18986 8d14 C918     		adds r1, r1, r3	 @i
 18987 8d16 3618     		adds r6, r6, r0
 18988 8d18 7F18     		adds r7, r7, r1
 18989              	
 18990 8d1a DD46     		mov sp, r11
 18991 8d1c 0FBC     		pop {r0-r3}
 18992 8d1e EB46     		mov r11, sp
 18993 8d20 D546     		mov sp, r10
 18994 8d22 10BC     		pop {r4}
 18995 8d24 EA46     		mov r10, sp
 18996 8d26 2546     		mov r5, r4
 18997 8d28 2404     		lsls r4, r4, # 16
 18998 8d2a 240C     		lsrs r4, r4, # 16
 18999 8d2c 2D0C     		lsrs r5, r5, # 16
 19000 8d2e 6043     		muls r0, r0, r4
 19001 8d30 6143     		muls r1, r1, r4
 19002 8d32 6A43     		muls r2, r2, r5
 19003 8d34 6B43     		muls r3, r3, r5
 19004 8d36 8011     		asrs r0, r0, # 6
 19005 8d38 8911     		asrs r1, r1, # 6
 19006 8d3a 9211     		asrs r2, r2, # 6
 19007 8d3c 9B11     		asrs r3, r3, # 6
 19008 8d3e 8018     		adds r0, r0, r2         @r
 19009 8d40 C918     		adds r1, r1, r3         @i
 19010 8d42 3618     		adds r6, r6, r0
 19011 8d44 7F18     		adds r7, r7, r1
 19012              	
 19013 8d46 DD46     		mov sp, r11
 19014 8d48 0FBC     		pop {r0-r3}
 19015 8d4a EB46     		mov r11, sp
 19016 8d4c D546     		mov sp, r10
 19017 8d4e 10BC     		pop {r4}
 19018 8d50 EA46     		mov r10, sp
 19019 8d52 2546     		mov r5, r4
 19020 8d54 2404     		lsls r4, r4, # 16
 19021 8d56 240C     		lsrs r4, r4, # 16
 19022 8d58 2D0C     		lsrs r5, r5, # 16
ARM GAS  1.s 			page 335


 19023 8d5a 6043     		muls r0, r0, r4
 19024 8d5c 6143     		muls r1, r1, r4
 19025 8d5e 6A43     		muls r2, r2, r5
 19026 8d60 6B43     		muls r3, r3, r5
 19027 8d62 8011     		asrs r0, r0, # 6
 19028 8d64 8911     		asrs r1, r1, # 6
 19029 8d66 9211     		asrs r2, r2, # 6
 19030 8d68 9B11     		asrs r3, r3, # 6
 19031 8d6a 8018     		adds r0, r0, r2  @r
 19032 8d6c C918     		adds r1, r1, r3  @i
 19033 8d6e 3618     		adds r6, r6, r0
 19034 8d70 7F18     		adds r7, r7, r1
 19035              	
 19036 8d72 DD46     		mov sp, r11
 19037 8d74 0FBC     		pop {r0-r3}
 19038 8d76 EB46     		mov r11, sp
 19039 8d78 D546     		mov sp, r10
 19040 8d7a 10BC     		pop {r4}
 19041 8d7c EA46     		mov r10, sp
 19042 8d7e 2546     		mov r5, r4
 19043 8d80 2404     		lsls r4, r4, # 16
 19044 8d82 240C     		lsrs r4, r4, # 16
 19045 8d84 2D0C     		lsrs r5, r5, # 16
 19046 8d86 6043     		muls r0, r0, r4
 19047 8d88 6143     		muls r1, r1, r4
 19048 8d8a 6A43     		muls r2, r2, r5
 19049 8d8c 6B43     		muls r3, r3, r5
 19050 8d8e 8011     		asrs r0, r0, # 6
 19051 8d90 8911     		asrs r1, r1, # 6
 19052 8d92 9211     		asrs r2, r2, # 6
 19053 8d94 9B11     		asrs r3, r3, # 6
 19054 8d96 8018     		adds r0, r0, r2         @r
 19055 8d98 C918     		adds r1, r1, r3         @i
 19056 8d9a 3618     		adds r6, r6, r0
 19057 8d9c 7F18     		adds r7, r7, r1
 19058              	
 19059              		@3
 19060 8d9e DD46     		mov sp, r11
 19061 8da0 0FBC     		pop {r0-r3}
 19062 8da2 EB46     		mov r11, sp
 19063 8da4 D546     		mov sp, r10
 19064 8da6 10BC     		pop {r4}
 19065 8da8 EA46     		mov r10, sp
 19066 8daa 2546     		mov r5, r4
 19067 8dac 2404     		lsls r4, r4, # 16
 19068 8dae 240C     		lsrs r4, r4, # 16
 19069 8db0 2D0C     		lsrs r5, r5, # 16
 19070 8db2 6043     		muls r0, r0, r4		@R
 19071 8db4 6143     		muls r1, r1, r4		@I
 19072 8db6 6A43     		muls r2, r2, r5		@R
 19073 8db8 6B43     		muls r3, r3, r5		@I
 19074 8dba 8011     		asrs r0, r0, # 6
 19075 8dbc 8911     		asrs r1, r1, # 6
 19076 8dbe 9211     		asrs r2, r2, # 6
 19077 8dc0 9B11     		asrs r3, r3, # 6
 19078 8dc2 8018     		adds r0, r0, r2	 @r
 19079 8dc4 C918     		adds r1, r1, r3	 @i
ARM GAS  1.s 			page 336


 19080 8dc6 3618     		adds r6, r6, r0
 19081 8dc8 7F18     		adds r7, r7, r1
 19082              	
 19083 8dca DD46     		mov sp, r11
 19084 8dcc 0FBC     		pop {r0-r3}
 19085 8dce EB46     		mov r11, sp
 19086 8dd0 D546     		mov sp, r10
 19087 8dd2 10BC     		pop {r4}
 19088 8dd4 EA46     		mov r10, sp
 19089 8dd6 2546     		mov r5, r4
 19090 8dd8 2404     		lsls r4, r4, # 16
 19091 8dda 240C     		lsrs r4, r4, # 16
 19092 8ddc 2D0C     		lsrs r5, r5, # 16
 19093 8dde 6043     		muls r0, r0, r4
 19094 8de0 6143     		muls r1, r1, r4
 19095 8de2 6A43     		muls r2, r2, r5
 19096 8de4 6B43     		muls r3, r3, r5
 19097 8de6 8011     		asrs r0, r0, # 6
 19098 8de8 8911     		asrs r1, r1, # 6
 19099 8dea 9211     		asrs r2, r2, # 6
 19100 8dec 9B11     		asrs r3, r3, # 6
 19101 8dee 8018     		adds r0, r0, r2         @r
 19102 8df0 C918     		adds r1, r1, r3         @i
 19103 8df2 3618     		adds r6, r6, r0
 19104 8df4 7F18     		adds r7, r7, r1
 19105              	
 19106 8df6 DD46     		mov sp, r11
 19107 8df8 0FBC     		pop {r0-r3}
 19108 8dfa EB46     		mov r11, sp
 19109 8dfc D546     		mov sp, r10
 19110 8dfe 10BC     		pop {r4}
 19111 8e00 EA46     		mov r10, sp
 19112 8e02 2546     		mov r5, r4
 19113 8e04 2404     		lsls r4, r4, # 16
 19114 8e06 240C     		lsrs r4, r4, # 16
 19115 8e08 2D0C     		lsrs r5, r5, # 16
 19116 8e0a 6043     		muls r0, r0, r4
 19117 8e0c 6143     		muls r1, r1, r4
 19118 8e0e 6A43     		muls r2, r2, r5
 19119 8e10 6B43     		muls r3, r3, r5
 19120 8e12 8011     		asrs r0, r0, # 6
 19121 8e14 8911     		asrs r1, r1, # 6
 19122 8e16 9211     		asrs r2, r2, # 6
 19123 8e18 9B11     		asrs r3, r3, # 6
 19124 8e1a 8018     		adds r0, r0, r2  @r
 19125 8e1c C918     		adds r1, r1, r3  @i
 19126 8e1e 3618     		adds r6, r6, r0
 19127 8e20 7F18     		adds r7, r7, r1
 19128              	
 19129 8e22 DD46     		mov sp, r11
 19130 8e24 0FBC     		pop {r0-r3}
 19131 8e26 EB46     		mov r11, sp
 19132 8e28 D546     		mov sp, r10
 19133 8e2a 10BC     		pop {r4}
 19134 8e2c EA46     		mov r10, sp
 19135 8e2e 2546     		mov r5, r4
 19136 8e30 2404     		lsls r4, r4, # 16
ARM GAS  1.s 			page 337


 19137 8e32 240C     		lsrs r4, r4, # 16
 19138 8e34 2D0C     		lsrs r5, r5, # 16
 19139 8e36 6043     		muls r0, r0, r4
 19140 8e38 6143     		muls r1, r1, r4
 19141 8e3a 6A43     		muls r2, r2, r5
 19142 8e3c 6B43     		muls r3, r3, r5
 19143 8e3e 8011     		asrs r0, r0, # 6
 19144 8e40 8911     		asrs r1, r1, # 6
 19145 8e42 9211     		asrs r2, r2, # 6
 19146 8e44 9B11     		asrs r3, r3, # 6
 19147 8e46 8018     		adds r0, r0, r2         @r
 19148 8e48 C918     		adds r1, r1, r3         @i
 19149 8e4a 3618     		adds r6, r6, r0
 19150 8e4c 7F18     		adds r7, r7, r1
 19151              	
 19152              		@4
 19153 8e4e DD46     		mov sp, r11
 19154 8e50 0FBC     		pop {r0-r3}
 19155 8e52 EB46     		mov r11, sp
 19156 8e54 D546     		mov sp, r10
 19157 8e56 10BC     		pop {r4}
 19158 8e58 EA46     		mov r10, sp
 19159 8e5a 2546     		mov r5, r4
 19160 8e5c 2404     		lsls r4, r4, # 16
 19161 8e5e 240C     		lsrs r4, r4, # 16
 19162 8e60 2D0C     		lsrs r5, r5, # 16
 19163 8e62 6043     		muls r0, r0, r4		@R
 19164 8e64 6143     		muls r1, r1, r4		@I
 19165 8e66 6A43     		muls r2, r2, r5		@R
 19166 8e68 6B43     		muls r3, r3, r5		@I
 19167 8e6a 8011     		asrs r0, r0, # 6
 19168 8e6c 8911     		asrs r1, r1, # 6
 19169 8e6e 9211     		asrs r2, r2, # 6
 19170 8e70 9B11     		asrs r3, r3, # 6
 19171 8e72 8018     		adds r0, r0, r2	 @r
 19172 8e74 C918     		adds r1, r1, r3	 @i
 19173 8e76 3618     		adds r6, r6, r0
 19174 8e78 7F18     		adds r7, r7, r1
 19175              	
 19176 8e7a DD46     		mov sp, r11
 19177 8e7c 0FBC     		pop {r0-r3}
 19178 8e7e EB46     		mov r11, sp
 19179 8e80 D546     		mov sp, r10
 19180 8e82 10BC     		pop {r4}
 19181 8e84 EA46     		mov r10, sp
 19182 8e86 2546     		mov r5, r4
 19183 8e88 2404     		lsls r4, r4, # 16
 19184 8e8a 240C     		lsrs r4, r4, # 16
 19185 8e8c 2D0C     		lsrs r5, r5, # 16
 19186 8e8e 6043     		muls r0, r0, r4
 19187 8e90 6143     		muls r1, r1, r4
 19188 8e92 6A43     		muls r2, r2, r5
 19189 8e94 6B43     		muls r3, r3, r5
 19190 8e96 8011     		asrs r0, r0, # 6
 19191 8e98 8911     		asrs r1, r1, # 6
 19192 8e9a 9211     		asrs r2, r2, # 6
 19193 8e9c 9B11     		asrs r3, r3, # 6
ARM GAS  1.s 			page 338


 19194 8e9e 8018     		adds r0, r0, r2         @r
 19195 8ea0 C918     		adds r1, r1, r3         @i
 19196 8ea2 3618     		adds r6, r6, r0
 19197 8ea4 7F18     		adds r7, r7, r1
 19198              	
 19199 8ea6 DD46     		mov sp, r11
 19200 8ea8 0FBC     		pop {r0-r3}
 19201 8eaa EB46     		mov r11, sp
 19202 8eac D546     		mov sp, r10
 19203 8eae 10BC     		pop {r4}
 19204 8eb0 EA46     		mov r10, sp
 19205 8eb2 2546     		mov r5, r4
 19206 8eb4 2404     		lsls r4, r4, # 16
 19207 8eb6 240C     		lsrs r4, r4, # 16
 19208 8eb8 2D0C     		lsrs r5, r5, # 16
 19209 8eba 6043     		muls r0, r0, r4
 19210 8ebc 6143     		muls r1, r1, r4
 19211 8ebe 6A43     		muls r2, r2, r5
 19212 8ec0 6B43     		muls r3, r3, r5
 19213 8ec2 8011     		asrs r0, r0, # 6
 19214 8ec4 8911     		asrs r1, r1, # 6
 19215 8ec6 9211     		asrs r2, r2, # 6
 19216 8ec8 9B11     		asrs r3, r3, # 6
 19217 8eca 8018     		adds r0, r0, r2  @r
 19218 8ecc C918     		adds r1, r1, r3  @i
 19219 8ece 3618     		adds r6, r6, r0
 19220 8ed0 7F18     		adds r7, r7, r1
 19221              	
 19222 8ed2 DD46     		mov sp, r11
 19223 8ed4 0FBC     		pop {r0-r3}
 19224 8ed6 EB46     		mov r11, sp
 19225 8ed8 D546     		mov sp, r10
 19226 8eda 10BC     		pop {r4}
 19227 8edc EA46     		mov r10, sp
 19228 8ede 2546     		mov r5, r4
 19229 8ee0 2404     		lsls r4, r4, # 16
 19230 8ee2 240C     		lsrs r4, r4, # 16
 19231 8ee4 2D0C     		lsrs r5, r5, # 16
 19232 8ee6 6043     		muls r0, r0, r4
 19233 8ee8 6143     		muls r1, r1, r4
 19234 8eea 6A43     		muls r2, r2, r5
 19235 8eec 6B43     		muls r3, r3, r5
 19236 8eee 8011     		asrs r0, r0, # 6
 19237 8ef0 8911     		asrs r1, r1, # 6
 19238 8ef2 9211     		asrs r2, r2, # 6
 19239 8ef4 9B11     		asrs r3, r3, # 6
 19240 8ef6 8018     		adds r0, r0, r2         @r
 19241 8ef8 C918     		adds r1, r1, r3         @i
 19242 8efa 3618     		adds r6, r6, r0
 19243 8efc 7F18     		adds r7, r7, r1
 19244              	
 19245              		@5
 19246 8efe DD46     		mov sp, r11
 19247 8f00 0FBC     		pop {r0-r3}
 19248 8f02 EB46     		mov r11, sp
 19249 8f04 D546     		mov sp, r10
 19250 8f06 10BC     		pop {r4}
ARM GAS  1.s 			page 339


 19251 8f08 EA46     		mov r10, sp
 19252 8f0a 2546     		mov r5, r4
 19253 8f0c 2404     		lsls r4, r4, # 16
 19254 8f0e 240C     		lsrs r4, r4, # 16
 19255 8f10 2D0C     		lsrs r5, r5, # 16
 19256 8f12 6043     		muls r0, r0, r4		@R
 19257 8f14 6143     		muls r1, r1, r4		@I
 19258 8f16 6A43     		muls r2, r2, r5		@R
 19259 8f18 6B43     		muls r3, r3, r5		@I
 19260 8f1a 8011     		asrs r0, r0, # 6
 19261 8f1c 8911     		asrs r1, r1, # 6
 19262 8f1e 9211     		asrs r2, r2, # 6
 19263 8f20 9B11     		asrs r3, r3, # 6
 19264 8f22 8018     		adds r0, r0, r2	 @r
 19265 8f24 C918     		adds r1, r1, r3	 @i
 19266 8f26 3618     		adds r6, r6, r0
 19267 8f28 7F18     		adds r7, r7, r1
 19268              	
 19269 8f2a DD46     		mov sp, r11
 19270 8f2c 0FBC     		pop {r0-r3}
 19271 8f2e EB46     		mov r11, sp
 19272 8f30 D546     		mov sp, r10
 19273 8f32 10BC     		pop {r4}
 19274 8f34 EA46     		mov r10, sp
 19275 8f36 2546     		mov r5, r4
 19276 8f38 2404     		lsls r4, r4, # 16
 19277 8f3a 240C     		lsrs r4, r4, # 16
 19278 8f3c 2D0C     		lsrs r5, r5, # 16
 19279 8f3e 6043     		muls r0, r0, r4
 19280 8f40 6143     		muls r1, r1, r4
 19281 8f42 6A43     		muls r2, r2, r5
 19282 8f44 6B43     		muls r3, r3, r5
 19283 8f46 8011     		asrs r0, r0, # 6
 19284 8f48 8911     		asrs r1, r1, # 6
 19285 8f4a 9211     		asrs r2, r2, # 6
 19286 8f4c 9B11     		asrs r3, r3, # 6
 19287 8f4e 8018     		adds r0, r0, r2         @r
 19288 8f50 C918     		adds r1, r1, r3         @i
 19289 8f52 3618     		adds r6, r6, r0
 19290 8f54 7F18     		adds r7, r7, r1
 19291              	
 19292 8f56 DD46     		mov sp, r11
 19293 8f58 0FBC     		pop {r0-r3}
 19294 8f5a EB46     		mov r11, sp
 19295 8f5c D546     		mov sp, r10
 19296 8f5e 10BC     		pop {r4}
 19297 8f60 EA46     		mov r10, sp
 19298 8f62 2546     		mov r5, r4
 19299 8f64 2404     		lsls r4, r4, # 16
 19300 8f66 240C     		lsrs r4, r4, # 16
 19301 8f68 2D0C     		lsrs r5, r5, # 16
 19302 8f6a 6043     		muls r0, r0, r4
 19303 8f6c 6143     		muls r1, r1, r4
 19304 8f6e 6A43     		muls r2, r2, r5
 19305 8f70 6B43     		muls r3, r3, r5
 19306 8f72 8011     		asrs r0, r0, # 6
 19307 8f74 8911     		asrs r1, r1, # 6
ARM GAS  1.s 			page 340


 19308 8f76 9211     		asrs r2, r2, # 6
 19309 8f78 9B11     		asrs r3, r3, # 6
 19310 8f7a 8018     		adds r0, r0, r2  @r
 19311 8f7c C918     		adds r1, r1, r3  @i
 19312 8f7e 3618     		adds r6, r6, r0
 19313 8f80 7F18     		adds r7, r7, r1
 19314              	
 19315 8f82 DD46     		mov sp, r11
 19316 8f84 0FBC     		pop {r0-r3}
 19317 8f86 EB46     		mov r11, sp
 19318 8f88 D546     		mov sp, r10
 19319 8f8a 10BC     		pop {r4}
 19320 8f8c EA46     		mov r10, sp
 19321 8f8e 2546     		mov r5, r4
 19322 8f90 2404     		lsls r4, r4, # 16
 19323 8f92 240C     		lsrs r4, r4, # 16
 19324 8f94 2D0C     		lsrs r5, r5, # 16
 19325 8f96 6043     		muls r0, r0, r4
 19326 8f98 6143     		muls r1, r1, r4
 19327 8f9a 6A43     		muls r2, r2, r5
 19328 8f9c 6B43     		muls r3, r3, r5
 19329 8f9e 8011     		asrs r0, r0, # 6
 19330 8fa0 8911     		asrs r1, r1, # 6
 19331 8fa2 9211     		asrs r2, r2, # 6
 19332 8fa4 9B11     		asrs r3, r3, # 6
 19333 8fa6 8018     		adds r0, r0, r2         @r
 19334 8fa8 C918     		adds r1, r1, r3         @i
 19335 8faa 3618     		adds r6, r6, r0
 19336 8fac 7F18     		adds r7, r7, r1
 19337              	
 19338              		@6
 19339 8fae DD46     		mov sp, r11
 19340 8fb0 0FBC     		pop {r0-r3}
 19341 8fb2 EB46     		mov r11, sp
 19342 8fb4 D546     		mov sp, r10
 19343 8fb6 10BC     		pop {r4}
 19344 8fb8 EA46     		mov r10, sp
 19345 8fba 2546     		mov r5, r4
 19346 8fbc 2404     		lsls r4, r4, # 16
 19347 8fbe 240C     		lsrs r4, r4, # 16
 19348 8fc0 2D0C     		lsrs r5, r5, # 16
 19349 8fc2 6043     		muls r0, r0, r4		@R
 19350 8fc4 6143     		muls r1, r1, r4		@I
 19351 8fc6 6A43     		muls r2, r2, r5		@R
 19352 8fc8 6B43     		muls r3, r3, r5		@I
 19353 8fca 8011     		asrs r0, r0, # 6
 19354 8fcc 8911     		asrs r1, r1, # 6
 19355 8fce 9211     		asrs r2, r2, # 6
 19356 8fd0 9B11     		asrs r3, r3, # 6
 19357 8fd2 8018     		adds r0, r0, r2	 @r
 19358 8fd4 C918     		adds r1, r1, r3	 @i
 19359 8fd6 3618     		adds r6, r6, r0
 19360 8fd8 7F18     		adds r7, r7, r1
 19361              	
 19362 8fda DD46     		mov sp, r11
 19363 8fdc 0FBC     		pop {r0-r3}
 19364 8fde EB46     		mov r11, sp
ARM GAS  1.s 			page 341


 19365 8fe0 D546     		mov sp, r10
 19366 8fe2 10BC     		pop {r4}
 19367 8fe4 EA46     		mov r10, sp
 19368 8fe6 2546     		mov r5, r4
 19369 8fe8 2404     		lsls r4, r4, # 16
 19370 8fea 240C     		lsrs r4, r4, # 16
 19371 8fec 2D0C     		lsrs r5, r5, # 16
 19372 8fee 6043     		muls r0, r0, r4
 19373 8ff0 6143     		muls r1, r1, r4
 19374 8ff2 6A43     		muls r2, r2, r5
 19375 8ff4 6B43     		muls r3, r3, r5
 19376 8ff6 8011     		asrs r0, r0, # 6
 19377 8ff8 8911     		asrs r1, r1, # 6
 19378 8ffa 9211     		asrs r2, r2, # 6
 19379 8ffc 9B11     		asrs r3, r3, # 6
 19380 8ffe 8018     		adds r0, r0, r2         @r
 19381 9000 C918     		adds r1, r1, r3         @i
 19382 9002 3618     		adds r6, r6, r0
 19383 9004 7F18     		adds r7, r7, r1
 19384              	
 19385 9006 DD46     		mov sp, r11
 19386 9008 0FBC     		pop {r0-r3}
 19387 900a EB46     		mov r11, sp
 19388 900c D546     		mov sp, r10
 19389 900e 10BC     		pop {r4}
 19390 9010 EA46     		mov r10, sp
 19391 9012 2546     		mov r5, r4
 19392 9014 2404     		lsls r4, r4, # 16
 19393 9016 240C     		lsrs r4, r4, # 16
 19394 9018 2D0C     		lsrs r5, r5, # 16
 19395 901a 6043     		muls r0, r0, r4
 19396 901c 6143     		muls r1, r1, r4
 19397 901e 6A43     		muls r2, r2, r5
 19398 9020 6B43     		muls r3, r3, r5
 19399 9022 8011     		asrs r0, r0, # 6
 19400 9024 8911     		asrs r1, r1, # 6
 19401 9026 9211     		asrs r2, r2, # 6
 19402 9028 9B11     		asrs r3, r3, # 6
 19403 902a 8018     		adds r0, r0, r2  @r
 19404 902c C918     		adds r1, r1, r3  @i
 19405 902e 3618     		adds r6, r6, r0
 19406 9030 7F18     		adds r7, r7, r1
 19407              	
 19408 9032 DD46     		mov sp, r11
 19409 9034 0FBC     		pop {r0-r3}
 19410 9036 EB46     		mov r11, sp
 19411 9038 D546     		mov sp, r10
 19412 903a 10BC     		pop {r4}
 19413 903c EA46     		mov r10, sp
 19414 903e 2546     		mov r5, r4
 19415 9040 2404     		lsls r4, r4, # 16
 19416 9042 240C     		lsrs r4, r4, # 16
 19417 9044 2D0C     		lsrs r5, r5, # 16
 19418 9046 6043     		muls r0, r0, r4
 19419 9048 6143     		muls r1, r1, r4
 19420 904a 6A43     		muls r2, r2, r5
 19421 904c 6B43     		muls r3, r3, r5
ARM GAS  1.s 			page 342


 19422 904e 8011     		asrs r0, r0, # 6
 19423 9050 8911     		asrs r1, r1, # 6
 19424 9052 9211     		asrs r2, r2, # 6
 19425 9054 9B11     		asrs r3, r3, # 6
 19426 9056 8018     		adds r0, r0, r2         @r
 19427 9058 C918     		adds r1, r1, r3         @i
 19428 905a 3618     		adds r6, r6, r0
 19429 905c 7F18     		adds r7, r7, r1
 19430              	
 19431              		@7
 19432 905e DD46     		mov sp, r11
 19433 9060 0FBC     		pop {r0-r3}
 19434 9062 EB46     		mov r11, sp
 19435 9064 D546     		mov sp, r10
 19436 9066 10BC     		pop {r4}
 19437 9068 EA46     		mov r10, sp
 19438 906a 2546     		mov r5, r4
 19439 906c 2404     		lsls r4, r4, # 16
 19440 906e 240C     		lsrs r4, r4, # 16
 19441 9070 2D0C     		lsrs r5, r5, # 16
 19442 9072 6043     		muls r0, r0, r4		@R
 19443 9074 6143     		muls r1, r1, r4		@I
 19444 9076 6A43     		muls r2, r2, r5		@R
 19445 9078 6B43     		muls r3, r3, r5		@I
 19446 907a 8011     		asrs r0, r0, # 6
 19447 907c 8911     		asrs r1, r1, # 6
 19448 907e 9211     		asrs r2, r2, # 6
 19449 9080 9B11     		asrs r3, r3, # 6
 19450 9082 8018     		adds r0, r0, r2	 @r
 19451 9084 C918     		adds r1, r1, r3	 @i
 19452 9086 3618     		adds r6, r6, r0
 19453 9088 7F18     		adds r7, r7, r1
 19454              	
 19455 908a DD46     		mov sp, r11
 19456 908c 0FBC     		pop {r0-r3}
 19457 908e EB46     		mov r11, sp
 19458 9090 D546     		mov sp, r10
 19459 9092 10BC     		pop {r4}
 19460 9094 EA46     		mov r10, sp
 19461 9096 2546     		mov r5, r4
 19462 9098 2404     		lsls r4, r4, # 16
 19463 909a 240C     		lsrs r4, r4, # 16
 19464 909c 2D0C     		lsrs r5, r5, # 16
 19465 909e 6043     		muls r0, r0, r4
 19466 90a0 6143     		muls r1, r1, r4
 19467 90a2 6A43     		muls r2, r2, r5
 19468 90a4 6B43     		muls r3, r3, r5
 19469 90a6 8011     		asrs r0, r0, # 6
 19470 90a8 8911     		asrs r1, r1, # 6
 19471 90aa 9211     		asrs r2, r2, # 6
 19472 90ac 9B11     		asrs r3, r3, # 6
 19473 90ae 8018     		adds r0, r0, r2         @r
 19474 90b0 C918     		adds r1, r1, r3         @i
 19475 90b2 3618     		adds r6, r6, r0
 19476 90b4 7F18     		adds r7, r7, r1
 19477              	
 19478 90b6 DD46     		mov sp, r11
ARM GAS  1.s 			page 343


 19479 90b8 0FBC     		pop {r0-r3}
 19480 90ba EB46     		mov r11, sp
 19481 90bc D546     		mov sp, r10
 19482 90be 10BC     		pop {r4}
 19483 90c0 EA46     		mov r10, sp
 19484 90c2 2546     		mov r5, r4
 19485 90c4 2404     		lsls r4, r4, # 16
 19486 90c6 240C     		lsrs r4, r4, # 16
 19487 90c8 2D0C     		lsrs r5, r5, # 16
 19488 90ca 6043     		muls r0, r0, r4
 19489 90cc 6143     		muls r1, r1, r4
 19490 90ce 6A43     		muls r2, r2, r5
 19491 90d0 6B43     		muls r3, r3, r5
 19492 90d2 8011     		asrs r0, r0, # 6
 19493 90d4 8911     		asrs r1, r1, # 6
 19494 90d6 9211     		asrs r2, r2, # 6
 19495 90d8 9B11     		asrs r3, r3, # 6
 19496 90da 8018     		adds r0, r0, r2  @r
 19497 90dc C918     		adds r1, r1, r3  @i
 19498 90de 3618     		adds r6, r6, r0
 19499 90e0 7F18     		adds r7, r7, r1
 19500              	
 19501 90e2 DD46     		mov sp, r11
 19502 90e4 0FBC     		pop {r0-r3}
 19503 90e6 EB46     		mov r11, sp
 19504 90e8 D546     		mov sp, r10
 19505 90ea 10BC     		pop {r4}
 19506 90ec EA46     		mov r10, sp
 19507 90ee 2546     		mov r5, r4
 19508 90f0 2404     		lsls r4, r4, # 16
 19509 90f2 240C     		lsrs r4, r4, # 16
 19510 90f4 2D0C     		lsrs r5, r5, # 16
 19511 90f6 6043     		muls r0, r0, r4
 19512 90f8 6143     		muls r1, r1, r4
 19513 90fa 6A43     		muls r2, r2, r5
 19514 90fc 6B43     		muls r3, r3, r5
 19515 90fe 8011     		asrs r0, r0, # 6
 19516 9100 8911     		asrs r1, r1, # 6
 19517 9102 9211     		asrs r2, r2, # 6
 19518 9104 9B11     		asrs r3, r3, # 6
 19519 9106 8018     		adds r0, r0, r2         @r
 19520 9108 C918     		adds r1, r1, r3         @i
 19521 910a 3618     		adds r6, r6, r0
 19522 910c 7F18     		adds r7, r7, r1
 19523              	
 19524              		@8
 19525 910e DD46     		mov sp, r11
 19526 9110 0FBC     		pop {r0-r3}
 19527 9112 EB46     		mov r11, sp
 19528 9114 D546     		mov sp, r10
 19529 9116 10BC     		pop {r4}
 19530 9118 EA46     		mov r10, sp
 19531 911a 2546     		mov r5, r4
 19532 911c 2404     		lsls r4, r4, # 16
 19533 911e 240C     		lsrs r4, r4, # 16
 19534 9120 2D0C     		lsrs r5, r5, # 16
 19535 9122 6043     		muls r0, r0, r4		@R
ARM GAS  1.s 			page 344


 19536 9124 6143     		muls r1, r1, r4		@I
 19537 9126 6A43     		muls r2, r2, r5		@R
 19538 9128 6B43     		muls r3, r3, r5		@I
 19539 912a 8011     		asrs r0, r0, # 6
 19540 912c 8911     		asrs r1, r1, # 6
 19541 912e 9211     		asrs r2, r2, # 6
 19542 9130 9B11     		asrs r3, r3, # 6
 19543 9132 8018     		adds r0, r0, r2	 @r
 19544 9134 C918     		adds r1, r1, r3	 @i
 19545 9136 3618     		adds r6, r6, r0
 19546 9138 7F18     		adds r7, r7, r1
 19547              	
 19548 913a DD46     		mov sp, r11
 19549 913c 0FBC     		pop {r0-r3}
 19550 913e EB46     		mov r11, sp
 19551 9140 D546     		mov sp, r10
 19552 9142 10BC     		pop {r4}
 19553 9144 EA46     		mov r10, sp
 19554 9146 2546     		mov r5, r4
 19555 9148 2404     		lsls r4, r4, # 16
 19556 914a 240C     		lsrs r4, r4, # 16
 19557 914c 2D0C     		lsrs r5, r5, # 16
 19558 914e 6043     		muls r0, r0, r4
 19559 9150 6143     		muls r1, r1, r4
 19560 9152 6A43     		muls r2, r2, r5
 19561 9154 6B43     		muls r3, r3, r5
 19562 9156 8011     		asrs r0, r0, # 6
 19563 9158 8911     		asrs r1, r1, # 6
 19564 915a 9211     		asrs r2, r2, # 6
 19565 915c 9B11     		asrs r3, r3, # 6
 19566 915e 8018     		adds r0, r0, r2         @r
 19567 9160 C918     		adds r1, r1, r3         @i
 19568 9162 3618     		adds r6, r6, r0
 19569 9164 7F18     		adds r7, r7, r1
 19570              	
 19571 9166 DD46     		mov sp, r11
 19572 9168 0FBC     		pop {r0-r3}
 19573 916a EB46     		mov r11, sp
 19574 916c D546     		mov sp, r10
 19575 916e 10BC     		pop {r4}
 19576 9170 EA46     		mov r10, sp
 19577 9172 2546     		mov r5, r4
 19578 9174 2404     		lsls r4, r4, # 16
 19579 9176 240C     		lsrs r4, r4, # 16
 19580 9178 2D0C     		lsrs r5, r5, # 16
 19581 917a 6043     		muls r0, r0, r4
 19582 917c 6143     		muls r1, r1, r4
 19583 917e 6A43     		muls r2, r2, r5
 19584 9180 6B43     		muls r3, r3, r5
 19585 9182 8011     		asrs r0, r0, # 6
 19586 9184 8911     		asrs r1, r1, # 6
 19587 9186 9211     		asrs r2, r2, # 6
 19588 9188 9B11     		asrs r3, r3, # 6
 19589 918a 8018     		adds r0, r0, r2  @r
 19590 918c C918     		adds r1, r1, r3  @i
 19591 918e 3618     		adds r6, r6, r0
 19592 9190 7F18     		adds r7, r7, r1
ARM GAS  1.s 			page 345


 19593              	
 19594 9192 DD46     		mov sp, r11
 19595 9194 0FBC     		pop {r0-r3}
 19596 9196 EB46     		mov r11, sp
 19597 9198 D546     		mov sp, r10
 19598 919a 10BC     		pop {r4}
 19599 919c EA46     		mov r10, sp
 19600 919e 2546     		mov r5, r4
 19601 91a0 2404     		lsls r4, r4, # 16
 19602 91a2 240C     		lsrs r4, r4, # 16
 19603 91a4 2D0C     		lsrs r5, r5, # 16
 19604 91a6 6043     		muls r0, r0, r4
 19605 91a8 6143     		muls r1, r1, r4
 19606 91aa 6A43     		muls r2, r2, r5
 19607 91ac 6B43     		muls r3, r3, r5
 19608 91ae 8011     		asrs r0, r0, # 6
 19609 91b0 8911     		asrs r1, r1, # 6
 19610 91b2 9211     		asrs r2, r2, # 6
 19611 91b4 9B11     		asrs r3, r3, # 6
 19612 91b6 8018     		adds r0, r0, r2         @r
 19613 91b8 C918     		adds r1, r1, r3         @i
 19614 91ba 3618     		adds r6, r6, r0
 19615 91bc 7F18     		adds r7, r7, r1
 19616              	
 19617              		@9
 19618 91be DD46     		mov sp, r11
 19619 91c0 0FBC     		pop {r0-r3}
 19620 91c2 EB46     		mov r11, sp
 19621 91c4 D546     		mov sp, r10
 19622 91c6 10BC     		pop {r4}
 19623 91c8 EA46     		mov r10, sp
 19624 91ca 2546     		mov r5, r4
 19625 91cc 2404     		lsls r4, r4, # 16
 19626 91ce 240C     		lsrs r4, r4, # 16
 19627 91d0 2D0C     		lsrs r5, r5, # 16
 19628 91d2 6043     		muls r0, r0, r4		@R
 19629 91d4 6143     		muls r1, r1, r4		@I
 19630 91d6 6A43     		muls r2, r2, r5		@R
 19631 91d8 6B43     		muls r3, r3, r5		@I
 19632 91da 8011     		asrs r0, r0, # 6
 19633 91dc 8911     		asrs r1, r1, # 6
 19634 91de 9211     		asrs r2, r2, # 6
 19635 91e0 9B11     		asrs r3, r3, # 6
 19636 91e2 8018     		adds r0, r0, r2	 @r
 19637 91e4 C918     		adds r1, r1, r3	 @i
 19638 91e6 3618     		adds r6, r6, r0
 19639 91e8 7F18     		adds r7, r7, r1
 19640              	
 19641 91ea DD46     		mov sp, r11
 19642 91ec 0FBC     		pop {r0-r3}
 19643 91ee EB46     		mov r11, sp
 19644 91f0 D546     		mov sp, r10
 19645 91f2 10BC     		pop {r4}
 19646 91f4 EA46     		mov r10, sp
 19647 91f6 2546     		mov r5, r4
 19648 91f8 2404     		lsls r4, r4, # 16
 19649 91fa 240C     		lsrs r4, r4, # 16
ARM GAS  1.s 			page 346


 19650 91fc 2D0C     		lsrs r5, r5, # 16
 19651 91fe 6043     		muls r0, r0, r4
 19652 9200 6143     		muls r1, r1, r4
 19653 9202 6A43     		muls r2, r2, r5
 19654 9204 6B43     		muls r3, r3, r5
 19655 9206 8011     		asrs r0, r0, # 6
 19656 9208 8911     		asrs r1, r1, # 6
 19657 920a 9211     		asrs r2, r2, # 6
 19658 920c 9B11     		asrs r3, r3, # 6
 19659 920e 8018     		adds r0, r0, r2         @r
 19660 9210 C918     		adds r1, r1, r3         @i
 19661 9212 3618     		adds r6, r6, r0
 19662 9214 7F18     		adds r7, r7, r1
 19663              	
 19664 9216 DD46     		mov sp, r11
 19665 9218 0FBC     		pop {r0-r3}
 19666 921a EB46     		mov r11, sp
 19667 921c D546     		mov sp, r10
 19668 921e 10BC     		pop {r4}
 19669 9220 EA46     		mov r10, sp
 19670 9222 2546     		mov r5, r4
 19671 9224 2404     		lsls r4, r4, # 16
 19672 9226 240C     		lsrs r4, r4, # 16
 19673 9228 2D0C     		lsrs r5, r5, # 16
 19674 922a 6043     		muls r0, r0, r4
 19675 922c 6143     		muls r1, r1, r4
 19676 922e 6A43     		muls r2, r2, r5
 19677 9230 6B43     		muls r3, r3, r5
 19678 9232 8011     		asrs r0, r0, # 6
 19679 9234 8911     		asrs r1, r1, # 6
 19680 9236 9211     		asrs r2, r2, # 6
 19681 9238 9B11     		asrs r3, r3, # 6
 19682 923a 8018     		adds r0, r0, r2  @r
 19683 923c C918     		adds r1, r1, r3  @i
 19684 923e 3618     		adds r6, r6, r0
 19685 9240 7F18     		adds r7, r7, r1
 19686              	
 19687 9242 DD46     		mov sp, r11
 19688 9244 0FBC     		pop {r0-r3}
 19689 9246 EB46     		mov r11, sp
 19690 9248 D546     		mov sp, r10
 19691 924a 10BC     		pop {r4}
 19692 924c EA46     		mov r10, sp
 19693 924e 2546     		mov r5, r4
 19694 9250 2404     		lsls r4, r4, # 16
 19695 9252 240C     		lsrs r4, r4, # 16
 19696 9254 2D0C     		lsrs r5, r5, # 16
 19697 9256 6043     		muls r0, r0, r4
 19698 9258 6143     		muls r1, r1, r4
 19699 925a 6A43     		muls r2, r2, r5
 19700 925c 6B43     		muls r3, r3, r5
 19701 925e 8011     		asrs r0, r0, # 6
 19702 9260 8911     		asrs r1, r1, # 6
 19703 9262 9211     		asrs r2, r2, # 6
 19704 9264 9B11     		asrs r3, r3, # 6
 19705 9266 8018     		adds r0, r0, r2         @r
 19706 9268 C918     		adds r1, r1, r3         @i
ARM GAS  1.s 			page 347


 19707 926a 3618     		adds r6, r6, r0
 19708 926c 7F18     		adds r7, r7, r1
 19709              	@yjm20
 19710              		@0
 19711 926e DD46     		mov sp, r11
 19712 9270 0FBC     		pop {r0-r3}
 19713 9272 EB46     		mov r11, sp
 19714 9274 D546     		mov sp, r10
 19715 9276 10BC     		pop {r4}
 19716 9278 EA46     		mov r10, sp
 19717 927a 2546     		mov r5, r4
 19718 927c 2404     		lsls r4, r4, # 16
 19719 927e 240C     		lsrs r4, r4, # 16
 19720 9280 2D0C     		lsrs r5, r5, # 16
 19721 9282 6043     		muls r0, r0, r4		@R
 19722 9284 6143     		muls r1, r1, r4		@I
 19723 9286 6A43     		muls r2, r2, r5		@R
 19724 9288 6B43     		muls r3, r3, r5		@I
 19725 928a 8011     		asrs r0, r0, # 6
 19726 928c 8911     		asrs r1, r1, # 6
 19727 928e 9211     		asrs r2, r2, # 6
 19728 9290 9B11     		asrs r3, r3, # 6
 19729 9292 8018     		adds r0, r0, r2	 @r
 19730 9294 C918     		adds r1, r1, r3	 @i
 19731 9296 3618     		adds r6, r6, r0
 19732 9298 7F18     		adds r7, r7, r1
 19733              	
 19734 929a DD46     		mov sp, r11
 19735 929c 0FBC     		pop {r0-r3}
 19736 929e EB46     		mov r11, sp
 19737 92a0 D546     		mov sp, r10
 19738 92a2 10BC     		pop {r4}
 19739 92a4 EA46     		mov r10, sp
 19740 92a6 2546     		mov r5, r4
 19741 92a8 2404     		lsls r4, r4, # 16
 19742 92aa 240C     		lsrs r4, r4, # 16
 19743 92ac 2D0C     		lsrs r5, r5, # 16
 19744 92ae 6043     		muls r0, r0, r4
 19745 92b0 6143     		muls r1, r1, r4
 19746 92b2 6A43     		muls r2, r2, r5
 19747 92b4 6B43     		muls r3, r3, r5
 19748 92b6 8011     		asrs r0, r0, # 6
 19749 92b8 8911     		asrs r1, r1, # 6
 19750 92ba 9211     		asrs r2, r2, # 6
 19751 92bc 9B11     		asrs r3, r3, # 6
 19752 92be 8018     		adds r0, r0, r2         @r
 19753 92c0 C918     		adds r1, r1, r3         @i
 19754 92c2 3618     		adds r6, r6, r0
 19755 92c4 7F18     		adds r7, r7, r1
 19756              	
 19757 92c6 DD46     		mov sp, r11
 19758 92c8 0FBC     		pop {r0-r3}
 19759 92ca EB46     		mov r11, sp
 19760 92cc D546     		mov sp, r10
 19761 92ce 10BC     		pop {r4}
 19762 92d0 EA46     		mov r10, sp
 19763 92d2 2546     		mov r5, r4
ARM GAS  1.s 			page 348


 19764 92d4 2404     		lsls r4, r4, # 16
 19765 92d6 240C     		lsrs r4, r4, # 16
 19766 92d8 2D0C     		lsrs r5, r5, # 16
 19767 92da 6043     		muls r0, r0, r4
 19768 92dc 6143     		muls r1, r1, r4
 19769 92de 6A43     		muls r2, r2, r5
 19770 92e0 6B43     		muls r3, r3, r5
 19771 92e2 8011     		asrs r0, r0, # 6
 19772 92e4 8911     		asrs r1, r1, # 6
 19773 92e6 9211     		asrs r2, r2, # 6
 19774 92e8 9B11     		asrs r3, r3, # 6
 19775 92ea 8018     		adds r0, r0, r2  @r
 19776 92ec C918     		adds r1, r1, r3  @i
 19777 92ee 3618     		adds r6, r6, r0
 19778 92f0 7F18     		adds r7, r7, r1
 19779              	
 19780 92f2 DD46     		mov sp, r11
 19781 92f4 0FBC     		pop {r0-r3}
 19782 92f6 EB46     		mov r11, sp
 19783 92f8 D546     		mov sp, r10
 19784 92fa 10BC     		pop {r4}
 19785 92fc EA46     		mov r10, sp
 19786 92fe 2546     		mov r5, r4
 19787 9300 2404     		lsls r4, r4, # 16
 19788 9302 240C     		lsrs r4, r4, # 16
 19789 9304 2D0C     		lsrs r5, r5, # 16
 19790 9306 6043     		muls r0, r0, r4
 19791 9308 6143     		muls r1, r1, r4
 19792 930a 6A43     		muls r2, r2, r5
 19793 930c 6B43     		muls r3, r3, r5
 19794 930e 8011     		asrs r0, r0, # 6
 19795 9310 8911     		asrs r1, r1, # 6
 19796 9312 9211     		asrs r2, r2, # 6
 19797 9314 9B11     		asrs r3, r3, # 6
 19798 9316 8018     		adds r0, r0, r2         @r
 19799 9318 C918     		adds r1, r1, r3         @i
 19800 931a 3618     		adds r6, r6, r0
 19801 931c 7F18     		adds r7, r7, r1
 19802              	
 19803              		@1
 19804 931e DD46     		mov sp, r11
 19805 9320 0FBC     		pop {r0-r3}
 19806 9322 EB46     		mov r11, sp
 19807 9324 D546     		mov sp, r10
 19808 9326 10BC     		pop {r4}
 19809 9328 EA46     		mov r10, sp
 19810 932a 2546     		mov r5, r4
 19811 932c 2404     		lsls r4, r4, # 16
 19812 932e 240C     		lsrs r4, r4, # 16
 19813 9330 2D0C     		lsrs r5, r5, # 16
 19814 9332 6043     		muls r0, r0, r4		@R
 19815 9334 6143     		muls r1, r1, r4		@I
 19816 9336 6A43     		muls r2, r2, r5		@R
 19817 9338 6B43     		muls r3, r3, r5		@I
 19818 933a 8011     		asrs r0, r0, # 6
 19819 933c 8911     		asrs r1, r1, # 6
 19820 933e 9211     		asrs r2, r2, # 6
ARM GAS  1.s 			page 349


 19821 9340 9B11     		asrs r3, r3, # 6
 19822 9342 8018     		adds r0, r0, r2	 @r
 19823 9344 C918     		adds r1, r1, r3	 @i
 19824 9346 3618     		adds r6, r6, r0
 19825 9348 7F18     		adds r7, r7, r1
 19826              	
 19827 934a DD46     		mov sp, r11
 19828 934c 0FBC     		pop {r0-r3}
 19829 934e EB46     		mov r11, sp
 19830 9350 D546     		mov sp, r10
 19831 9352 10BC     		pop {r4}
 19832 9354 EA46     		mov r10, sp
 19833 9356 2546     		mov r5, r4
 19834 9358 2404     		lsls r4, r4, # 16
 19835 935a 240C     		lsrs r4, r4, # 16
 19836 935c 2D0C     		lsrs r5, r5, # 16
 19837 935e 6043     		muls r0, r0, r4
 19838 9360 6143     		muls r1, r1, r4
 19839 9362 6A43     		muls r2, r2, r5
 19840 9364 6B43     		muls r3, r3, r5
 19841 9366 8011     		asrs r0, r0, # 6
 19842 9368 8911     		asrs r1, r1, # 6
 19843 936a 9211     		asrs r2, r2, # 6
 19844 936c 9B11     		asrs r3, r3, # 6
 19845 936e 8018     		adds r0, r0, r2         @r
 19846 9370 C918     		adds r1, r1, r3         @i
 19847 9372 3618     		adds r6, r6, r0
 19848 9374 7F18     		adds r7, r7, r1
 19849              	
 19850 9376 DD46     		mov sp, r11
 19851 9378 0FBC     		pop {r0-r3}
 19852 937a EB46     		mov r11, sp
 19853 937c D546     		mov sp, r10
 19854 937e 10BC     		pop {r4}
 19855 9380 EA46     		mov r10, sp
 19856 9382 2546     		mov r5, r4
 19857 9384 2404     		lsls r4, r4, # 16
 19858 9386 240C     		lsrs r4, r4, # 16
 19859 9388 2D0C     		lsrs r5, r5, # 16
 19860 938a 6043     		muls r0, r0, r4
 19861 938c 6143     		muls r1, r1, r4
 19862 938e 6A43     		muls r2, r2, r5
 19863 9390 6B43     		muls r3, r3, r5
 19864 9392 8011     		asrs r0, r0, # 6
 19865 9394 8911     		asrs r1, r1, # 6
 19866 9396 9211     		asrs r2, r2, # 6
 19867 9398 9B11     		asrs r3, r3, # 6
 19868 939a 8018     		adds r0, r0, r2  @r
 19869 939c C918     		adds r1, r1, r3  @i
 19870 939e 3618     		adds r6, r6, r0
 19871 93a0 7F18     		adds r7, r7, r1
 19872              	
 19873 93a2 DD46     		mov sp, r11
 19874 93a4 0FBC     		pop {r0-r3}
 19875 93a6 EB46     		mov r11, sp
 19876 93a8 D546     		mov sp, r10
 19877 93aa 10BC     		pop {r4}
ARM GAS  1.s 			page 350


 19878 93ac EA46     		mov r10, sp
 19879 93ae 2546     		mov r5, r4
 19880 93b0 2404     		lsls r4, r4, # 16
 19881 93b2 240C     		lsrs r4, r4, # 16
 19882 93b4 2D0C     		lsrs r5, r5, # 16
 19883 93b6 6043     		muls r0, r0, r4
 19884 93b8 6143     		muls r1, r1, r4
 19885 93ba 6A43     		muls r2, r2, r5
 19886 93bc 6B43     		muls r3, r3, r5
 19887 93be 8011     		asrs r0, r0, # 6
 19888 93c0 8911     		asrs r1, r1, # 6
 19889 93c2 9211     		asrs r2, r2, # 6
 19890 93c4 9B11     		asrs r3, r3, # 6
 19891 93c6 8018     		adds r0, r0, r2         @r
 19892 93c8 C918     		adds r1, r1, r3         @i
 19893 93ca 3618     		adds r6, r6, r0
 19894 93cc 7F18     		adds r7, r7, r1
 19895              	
 19896              		@2
 19897 93ce DD46     		mov sp, r11
 19898 93d0 0FBC     		pop {r0-r3}
 19899 93d2 EB46     		mov r11, sp
 19900 93d4 D546     		mov sp, r10
 19901 93d6 10BC     		pop {r4}
 19902 93d8 EA46     		mov r10, sp
 19903 93da 2546     		mov r5, r4
 19904 93dc 2404     		lsls r4, r4, # 16
 19905 93de 240C     		lsrs r4, r4, # 16
 19906 93e0 2D0C     		lsrs r5, r5, # 16
 19907 93e2 6043     		muls r0, r0, r4		@R
 19908 93e4 6143     		muls r1, r1, r4		@I
 19909 93e6 6A43     		muls r2, r2, r5		@R
 19910 93e8 6B43     		muls r3, r3, r5		@I
 19911 93ea 8011     		asrs r0, r0, # 6
 19912 93ec 8911     		asrs r1, r1, # 6
 19913 93ee 9211     		asrs r2, r2, # 6
 19914 93f0 9B11     		asrs r3, r3, # 6
 19915 93f2 8018     		adds r0, r0, r2	 @r
 19916 93f4 C918     		adds r1, r1, r3	 @i
 19917 93f6 3618     		adds r6, r6, r0
 19918 93f8 7F18     		adds r7, r7, r1
 19919              	
 19920 93fa DD46     		mov sp, r11
 19921 93fc 0FBC     		pop {r0-r3}
 19922 93fe EB46     		mov r11, sp
 19923 9400 D546     		mov sp, r10
 19924 9402 10BC     		pop {r4}
 19925 9404 EA46     		mov r10, sp
 19926 9406 2546     		mov r5, r4
 19927 9408 2404     		lsls r4, r4, # 16
 19928 940a 240C     		lsrs r4, r4, # 16
 19929 940c 2D0C     		lsrs r5, r5, # 16
 19930 940e 6043     		muls r0, r0, r4
 19931 9410 6143     		muls r1, r1, r4
 19932 9412 6A43     		muls r2, r2, r5
 19933 9414 6B43     		muls r3, r3, r5
 19934 9416 8011     		asrs r0, r0, # 6
ARM GAS  1.s 			page 351


 19935 9418 8911     		asrs r1, r1, # 6
 19936 941a 9211     		asrs r2, r2, # 6
 19937 941c 9B11     		asrs r3, r3, # 6
 19938 941e 8018     		adds r0, r0, r2         @r
 19939 9420 C918     		adds r1, r1, r3         @i
 19940 9422 3618     		adds r6, r6, r0
 19941 9424 7F18     		adds r7, r7, r1
 19942              	
 19943 9426 DD46     		mov sp, r11
 19944 9428 0FBC     		pop {r0-r3}
 19945 942a EB46     		mov r11, sp
 19946 942c D546     		mov sp, r10
 19947 942e 10BC     		pop {r4}
 19948 9430 EA46     		mov r10, sp
 19949 9432 2546     		mov r5, r4
 19950 9434 2404     		lsls r4, r4, # 16
 19951 9436 240C     		lsrs r4, r4, # 16
 19952 9438 2D0C     		lsrs r5, r5, # 16
 19953 943a 6043     		muls r0, r0, r4
 19954 943c 6143     		muls r1, r1, r4
 19955 943e 6A43     		muls r2, r2, r5
 19956 9440 6B43     		muls r3, r3, r5
 19957 9442 8011     		asrs r0, r0, # 6
 19958 9444 8911     		asrs r1, r1, # 6
 19959 9446 9211     		asrs r2, r2, # 6
 19960 9448 9B11     		asrs r3, r3, # 6
 19961 944a 8018     		adds r0, r0, r2  @r
 19962 944c C918     		adds r1, r1, r3  @i
 19963 944e 3618     		adds r6, r6, r0
 19964 9450 7F18     		adds r7, r7, r1
 19965              	
 19966 9452 DD46     		mov sp, r11
 19967 9454 0FBC     		pop {r0-r3}
 19968 9456 EB46     		mov r11, sp
 19969 9458 D546     		mov sp, r10
 19970 945a 10BC     		pop {r4}
 19971 945c EA46     		mov r10, sp
 19972 945e 2546     		mov r5, r4
 19973 9460 2404     		lsls r4, r4, # 16
 19974 9462 240C     		lsrs r4, r4, # 16
 19975 9464 2D0C     		lsrs r5, r5, # 16
 19976 9466 6043     		muls r0, r0, r4
 19977 9468 6143     		muls r1, r1, r4
 19978 946a 6A43     		muls r2, r2, r5
 19979 946c 6B43     		muls r3, r3, r5
 19980 946e 8011     		asrs r0, r0, # 6
 19981 9470 8911     		asrs r1, r1, # 6
 19982 9472 9211     		asrs r2, r2, # 6
 19983 9474 9B11     		asrs r3, r3, # 6
 19984 9476 8018     		adds r0, r0, r2         @r
 19985 9478 C918     		adds r1, r1, r3         @i
 19986 947a 3618     		adds r6, r6, r0
 19987 947c 7F18     		adds r7, r7, r1
 19988              	
 19989              		@3
 19990 947e DD46     		mov sp, r11
 19991 9480 0FBC     		pop {r0-r3}
ARM GAS  1.s 			page 352


 19992 9482 EB46     		mov r11, sp
 19993 9484 D546     		mov sp, r10
 19994 9486 10BC     		pop {r4}
 19995 9488 EA46     		mov r10, sp
 19996 948a 2546     		mov r5, r4
 19997 948c 2404     		lsls r4, r4, # 16
 19998 948e 240C     		lsrs r4, r4, # 16
 19999 9490 2D0C     		lsrs r5, r5, # 16
 20000 9492 6043     		muls r0, r0, r4		@R
 20001 9494 6143     		muls r1, r1, r4		@I
 20002 9496 6A43     		muls r2, r2, r5		@R
 20003 9498 6B43     		muls r3, r3, r5		@I
 20004 949a 8011     		asrs r0, r0, # 6
 20005 949c 8911     		asrs r1, r1, # 6
 20006 949e 9211     		asrs r2, r2, # 6
 20007 94a0 9B11     		asrs r3, r3, # 6
 20008 94a2 8018     		adds r0, r0, r2	 @r
 20009 94a4 C918     		adds r1, r1, r3	 @i
 20010 94a6 3618     		adds r6, r6, r0
 20011 94a8 7F18     		adds r7, r7, r1
 20012              	
 20013 94aa DD46     		mov sp, r11
 20014 94ac 0FBC     		pop {r0-r3}
 20015 94ae EB46     		mov r11, sp
 20016 94b0 D546     		mov sp, r10
 20017 94b2 10BC     		pop {r4}
 20018 94b4 EA46     		mov r10, sp
 20019 94b6 2546     		mov r5, r4
 20020 94b8 2404     		lsls r4, r4, # 16
 20021 94ba 240C     		lsrs r4, r4, # 16
 20022 94bc 2D0C     		lsrs r5, r5, # 16
 20023 94be 6043     		muls r0, r0, r4
 20024 94c0 6143     		muls r1, r1, r4
 20025 94c2 6A43     		muls r2, r2, r5
 20026 94c4 6B43     		muls r3, r3, r5
 20027 94c6 8011     		asrs r0, r0, # 6
 20028 94c8 8911     		asrs r1, r1, # 6
 20029 94ca 9211     		asrs r2, r2, # 6
 20030 94cc 9B11     		asrs r3, r3, # 6
 20031 94ce 8018     		adds r0, r0, r2         @r
 20032 94d0 C918     		adds r1, r1, r3         @i
 20033 94d2 3618     		adds r6, r6, r0
 20034 94d4 7F18     		adds r7, r7, r1
 20035              	
 20036 94d6 DD46     		mov sp, r11
 20037 94d8 0FBC     		pop {r0-r3}
 20038 94da EB46     		mov r11, sp
 20039 94dc D546     		mov sp, r10
 20040 94de 10BC     		pop {r4}
 20041 94e0 EA46     		mov r10, sp
 20042 94e2 2546     		mov r5, r4
 20043 94e4 2404     		lsls r4, r4, # 16
 20044 94e6 240C     		lsrs r4, r4, # 16
 20045 94e8 2D0C     		lsrs r5, r5, # 16
 20046 94ea 6043     		muls r0, r0, r4
 20047 94ec 6143     		muls r1, r1, r4
 20048 94ee 6A43     		muls r2, r2, r5
ARM GAS  1.s 			page 353


 20049 94f0 6B43     		muls r3, r3, r5
 20050 94f2 8011     		asrs r0, r0, # 6
 20051 94f4 8911     		asrs r1, r1, # 6
 20052 94f6 9211     		asrs r2, r2, # 6
 20053 94f8 9B11     		asrs r3, r3, # 6
 20054 94fa 8018     		adds r0, r0, r2  @r
 20055 94fc C918     		adds r1, r1, r3  @i
 20056 94fe 3618     		adds r6, r6, r0
 20057 9500 7F18     		adds r7, r7, r1
 20058              	
 20059 9502 DD46     		mov sp, r11
 20060 9504 0FBC     		pop {r0-r3}
 20061 9506 EB46     		mov r11, sp
 20062 9508 D546     		mov sp, r10
 20063 950a 10BC     		pop {r4}
 20064 950c EA46     		mov r10, sp
 20065 950e 2546     		mov r5, r4
 20066 9510 2404     		lsls r4, r4, # 16
 20067 9512 240C     		lsrs r4, r4, # 16
 20068 9514 2D0C     		lsrs r5, r5, # 16
 20069 9516 6043     		muls r0, r0, r4
 20070 9518 6143     		muls r1, r1, r4
 20071 951a 6A43     		muls r2, r2, r5
 20072 951c 6B43     		muls r3, r3, r5
 20073 951e 8011     		asrs r0, r0, # 6
 20074 9520 8911     		asrs r1, r1, # 6
 20075 9522 9211     		asrs r2, r2, # 6
 20076 9524 9B11     		asrs r3, r3, # 6
 20077 9526 8018     		adds r0, r0, r2         @r
 20078 9528 C918     		adds r1, r1, r3         @i
 20079 952a 3618     		adds r6, r6, r0
 20080 952c 7F18     		adds r7, r7, r1
 20081              	
 20082              		@4
 20083 952e DD46     		mov sp, r11
 20084 9530 0FBC     		pop {r0-r3}
 20085 9532 EB46     		mov r11, sp
 20086 9534 D546     		mov sp, r10
 20087 9536 10BC     		pop {r4}
 20088 9538 EA46     		mov r10, sp
 20089 953a 2546     		mov r5, r4
 20090 953c 2404     		lsls r4, r4, # 16
 20091 953e 240C     		lsrs r4, r4, # 16
 20092 9540 2D0C     		lsrs r5, r5, # 16
 20093 9542 6043     		muls r0, r0, r4		@R
 20094 9544 6143     		muls r1, r1, r4		@I
 20095 9546 6A43     		muls r2, r2, r5		@R
 20096 9548 6B43     		muls r3, r3, r5		@I
 20097 954a 8011     		asrs r0, r0, # 6
 20098 954c 8911     		asrs r1, r1, # 6
 20099 954e 9211     		asrs r2, r2, # 6
 20100 9550 9B11     		asrs r3, r3, # 6
 20101 9552 8018     		adds r0, r0, r2	 @r
 20102 9554 C918     		adds r1, r1, r3	 @i
 20103 9556 3618     		adds r6, r6, r0
 20104 9558 7F18     		adds r7, r7, r1
 20105              	
ARM GAS  1.s 			page 354


 20106 955a DD46     		mov sp, r11
 20107 955c 0FBC     		pop {r0-r3}
 20108 955e EB46     		mov r11, sp
 20109 9560 D546     		mov sp, r10
 20110 9562 10BC     		pop {r4}
 20111 9564 EA46     		mov r10, sp
 20112 9566 2546     		mov r5, r4
 20113 9568 2404     		lsls r4, r4, # 16
 20114 956a 240C     		lsrs r4, r4, # 16
 20115 956c 2D0C     		lsrs r5, r5, # 16
 20116 956e 6043     		muls r0, r0, r4
 20117 9570 6143     		muls r1, r1, r4
 20118 9572 6A43     		muls r2, r2, r5
 20119 9574 6B43     		muls r3, r3, r5
 20120 9576 8011     		asrs r0, r0, # 6
 20121 9578 8911     		asrs r1, r1, # 6
 20122 957a 9211     		asrs r2, r2, # 6
 20123 957c 9B11     		asrs r3, r3, # 6
 20124 957e 8018     		adds r0, r0, r2         @r
 20125 9580 C918     		adds r1, r1, r3         @i
 20126 9582 3618     		adds r6, r6, r0
 20127 9584 7F18     		adds r7, r7, r1
 20128              	
 20129 9586 DD46     		mov sp, r11
 20130 9588 0FBC     		pop {r0-r3}
 20131 958a EB46     		mov r11, sp
 20132 958c D546     		mov sp, r10
 20133 958e 10BC     		pop {r4}
 20134 9590 EA46     		mov r10, sp
 20135 9592 2546     		mov r5, r4
 20136 9594 2404     		lsls r4, r4, # 16
 20137 9596 240C     		lsrs r4, r4, # 16
 20138 9598 2D0C     		lsrs r5, r5, # 16
 20139 959a 6043     		muls r0, r0, r4
 20140 959c 6143     		muls r1, r1, r4
 20141 959e 6A43     		muls r2, r2, r5
 20142 95a0 6B43     		muls r3, r3, r5
 20143 95a2 8011     		asrs r0, r0, # 6
 20144 95a4 8911     		asrs r1, r1, # 6
 20145 95a6 9211     		asrs r2, r2, # 6
 20146 95a8 9B11     		asrs r3, r3, # 6
 20147 95aa 8018     		adds r0, r0, r2  @r
 20148 95ac C918     		adds r1, r1, r3  @i
 20149 95ae 3618     		adds r6, r6, r0
 20150 95b0 7F18     		adds r7, r7, r1
 20151              	
 20152 95b2 DD46     		mov sp, r11
 20153 95b4 0FBC     		pop {r0-r3}
 20154 95b6 EB46     		mov r11, sp
 20155 95b8 D546     		mov sp, r10
 20156 95ba 10BC     		pop {r4}
 20157 95bc EA46     		mov r10, sp
 20158 95be 2546     		mov r5, r4
 20159 95c0 2404     		lsls r4, r4, # 16
 20160 95c2 240C     		lsrs r4, r4, # 16
 20161 95c4 2D0C     		lsrs r5, r5, # 16
 20162 95c6 6043     		muls r0, r0, r4
ARM GAS  1.s 			page 355


 20163 95c8 6143     		muls r1, r1, r4
 20164 95ca 6A43     		muls r2, r2, r5
 20165 95cc 6B43     		muls r3, r3, r5
 20166 95ce 8011     		asrs r0, r0, # 6
 20167 95d0 8911     		asrs r1, r1, # 6
 20168 95d2 9211     		asrs r2, r2, # 6
 20169 95d4 9B11     		asrs r3, r3, # 6
 20170 95d6 8018     		adds r0, r0, r2         @r
 20171 95d8 C918     		adds r1, r1, r3         @i
 20172 95da 3618     		adds r6, r6, r0
 20173 95dc 7F18     		adds r7, r7, r1
 20174              	
 20175              		@5
 20176 95de DD46     		mov sp, r11
 20177 95e0 0FBC     		pop {r0-r3}
 20178 95e2 EB46     		mov r11, sp
 20179 95e4 D546     		mov sp, r10
 20180 95e6 10BC     		pop {r4}
 20181 95e8 EA46     		mov r10, sp
 20182 95ea 2546     		mov r5, r4
 20183 95ec 2404     		lsls r4, r4, # 16
 20184 95ee 240C     		lsrs r4, r4, # 16
 20185 95f0 2D0C     		lsrs r5, r5, # 16
 20186 95f2 6043     		muls r0, r0, r4		@R
 20187 95f4 6143     		muls r1, r1, r4		@I
 20188 95f6 6A43     		muls r2, r2, r5		@R
 20189 95f8 6B43     		muls r3, r3, r5		@I
 20190 95fa 8011     		asrs r0, r0, # 6
 20191 95fc 8911     		asrs r1, r1, # 6
 20192 95fe 9211     		asrs r2, r2, # 6
 20193 9600 9B11     		asrs r3, r3, # 6
 20194 9602 8018     		adds r0, r0, r2	 @r
 20195 9604 C918     		adds r1, r1, r3	 @i
 20196 9606 3618     		adds r6, r6, r0
 20197 9608 7F18     		adds r7, r7, r1
 20198              	
 20199 960a DD46     		mov sp, r11
 20200 960c 0FBC     		pop {r0-r3}
 20201 960e EB46     		mov r11, sp
 20202 9610 D546     		mov sp, r10
 20203 9612 10BC     		pop {r4}
 20204 9614 EA46     		mov r10, sp
 20205 9616 2546     		mov r5, r4
 20206 9618 2404     		lsls r4, r4, # 16
 20207 961a 240C     		lsrs r4, r4, # 16
 20208 961c 2D0C     		lsrs r5, r5, # 16
 20209 961e 6043     		muls r0, r0, r4
 20210 9620 6143     		muls r1, r1, r4
 20211 9622 6A43     		muls r2, r2, r5
 20212 9624 6B43     		muls r3, r3, r5
 20213 9626 8011     		asrs r0, r0, # 6
 20214 9628 8911     		asrs r1, r1, # 6
 20215 962a 9211     		asrs r2, r2, # 6
 20216 962c 9B11     		asrs r3, r3, # 6
 20217 962e 8018     		adds r0, r0, r2         @r
 20218 9630 C918     		adds r1, r1, r3         @i
 20219 9632 3618     		adds r6, r6, r0
ARM GAS  1.s 			page 356


 20220 9634 7F18     		adds r7, r7, r1
 20221              	
 20222 9636 DD46     		mov sp, r11
 20223 9638 0FBC     		pop {r0-r3}
 20224 963a EB46     		mov r11, sp
 20225 963c D546     		mov sp, r10
 20226 963e 10BC     		pop {r4}
 20227 9640 EA46     		mov r10, sp
 20228 9642 2546     		mov r5, r4
 20229 9644 2404     		lsls r4, r4, # 16
 20230 9646 240C     		lsrs r4, r4, # 16
 20231 9648 2D0C     		lsrs r5, r5, # 16
 20232 964a 6043     		muls r0, r0, r4
 20233 964c 6143     		muls r1, r1, r4
 20234 964e 6A43     		muls r2, r2, r5
 20235 9650 6B43     		muls r3, r3, r5
 20236 9652 8011     		asrs r0, r0, # 6
 20237 9654 8911     		asrs r1, r1, # 6
 20238 9656 9211     		asrs r2, r2, # 6
 20239 9658 9B11     		asrs r3, r3, # 6
 20240 965a 8018     		adds r0, r0, r2  @r
 20241 965c C918     		adds r1, r1, r3  @i
 20242 965e 3618     		adds r6, r6, r0
 20243 9660 7F18     		adds r7, r7, r1
 20244              	
 20245 9662 DD46     		mov sp, r11
 20246 9664 0FBC     		pop {r0-r3}
 20247 9666 EB46     		mov r11, sp
 20248 9668 D546     		mov sp, r10
 20249 966a 10BC     		pop {r4}
 20250 966c EA46     		mov r10, sp
 20251 966e 2546     		mov r5, r4
 20252 9670 2404     		lsls r4, r4, # 16
 20253 9672 240C     		lsrs r4, r4, # 16
 20254 9674 2D0C     		lsrs r5, r5, # 16
 20255 9676 6043     		muls r0, r0, r4
 20256 9678 6143     		muls r1, r1, r4
 20257 967a 6A43     		muls r2, r2, r5
 20258 967c 6B43     		muls r3, r3, r5
 20259 967e 8011     		asrs r0, r0, # 6
 20260 9680 8911     		asrs r1, r1, # 6
 20261 9682 9211     		asrs r2, r2, # 6
 20262 9684 9B11     		asrs r3, r3, # 6
 20263 9686 8018     		adds r0, r0, r2         @r
 20264 9688 C918     		adds r1, r1, r3         @i
 20265 968a 3618     		adds r6, r6, r0
 20266 968c 7F18     		adds r7, r7, r1
 20267              	
 20268              		@6
 20269 968e DD46     		mov sp, r11
 20270 9690 0FBC     		pop {r0-r3}
 20271 9692 EB46     		mov r11, sp
 20272 9694 D546     		mov sp, r10
 20273 9696 10BC     		pop {r4}
 20274 9698 EA46     		mov r10, sp
 20275 969a 2546     		mov r5, r4
 20276 969c 2404     		lsls r4, r4, # 16
ARM GAS  1.s 			page 357


 20277 969e 240C     		lsrs r4, r4, # 16
 20278 96a0 2D0C     		lsrs r5, r5, # 16
 20279 96a2 6043     		muls r0, r0, r4		@R
 20280 96a4 6143     		muls r1, r1, r4		@I
 20281 96a6 6A43     		muls r2, r2, r5		@R
 20282 96a8 6B43     		muls r3, r3, r5		@I
 20283 96aa 8011     		asrs r0, r0, # 6
 20284 96ac 8911     		asrs r1, r1, # 6
 20285 96ae 9211     		asrs r2, r2, # 6
 20286 96b0 9B11     		asrs r3, r3, # 6
 20287 96b2 8018     		adds r0, r0, r2	 @r
 20288 96b4 C918     		adds r1, r1, r3	 @i
 20289 96b6 3618     		adds r6, r6, r0
 20290 96b8 7F18     		adds r7, r7, r1
 20291              	
 20292 96ba DD46     		mov sp, r11
 20293 96bc 0FBC     		pop {r0-r3}
 20294 96be EB46     		mov r11, sp
 20295 96c0 D546     		mov sp, r10
 20296 96c2 10BC     		pop {r4}
 20297 96c4 EA46     		mov r10, sp
 20298 96c6 2546     		mov r5, r4
 20299 96c8 2404     		lsls r4, r4, # 16
 20300 96ca 240C     		lsrs r4, r4, # 16
 20301 96cc 2D0C     		lsrs r5, r5, # 16
 20302 96ce 6043     		muls r0, r0, r4
 20303 96d0 6143     		muls r1, r1, r4
 20304 96d2 6A43     		muls r2, r2, r5
 20305 96d4 6B43     		muls r3, r3, r5
 20306 96d6 8011     		asrs r0, r0, # 6
 20307 96d8 8911     		asrs r1, r1, # 6
 20308 96da 9211     		asrs r2, r2, # 6
 20309 96dc 9B11     		asrs r3, r3, # 6
 20310 96de 8018     		adds r0, r0, r2         @r
 20311 96e0 C918     		adds r1, r1, r3         @i
 20312 96e2 3618     		adds r6, r6, r0
 20313 96e4 7F18     		adds r7, r7, r1
 20314              	
 20315 96e6 DD46     		mov sp, r11
 20316 96e8 0FBC     		pop {r0-r3}
 20317 96ea EB46     		mov r11, sp
 20318 96ec D546     		mov sp, r10
 20319 96ee 10BC     		pop {r4}
 20320 96f0 EA46     		mov r10, sp
 20321 96f2 2546     		mov r5, r4
 20322 96f4 2404     		lsls r4, r4, # 16
 20323 96f6 240C     		lsrs r4, r4, # 16
 20324 96f8 2D0C     		lsrs r5, r5, # 16
 20325 96fa 6043     		muls r0, r0, r4
 20326 96fc 6143     		muls r1, r1, r4
 20327 96fe 6A43     		muls r2, r2, r5
 20328 9700 6B43     		muls r3, r3, r5
 20329 9702 8011     		asrs r0, r0, # 6
 20330 9704 8911     		asrs r1, r1, # 6
 20331 9706 9211     		asrs r2, r2, # 6
 20332 9708 9B11     		asrs r3, r3, # 6
 20333 970a 8018     		adds r0, r0, r2  @r
ARM GAS  1.s 			page 358


 20334 970c C918     		adds r1, r1, r3  @i
 20335 970e 3618     		adds r6, r6, r0
 20336 9710 7F18     		adds r7, r7, r1
 20337              	
 20338 9712 DD46     		mov sp, r11
 20339 9714 0FBC     		pop {r0-r3}
 20340 9716 EB46     		mov r11, sp
 20341 9718 D546     		mov sp, r10
 20342 971a 10BC     		pop {r4}
 20343 971c EA46     		mov r10, sp
 20344 971e 2546     		mov r5, r4
 20345 9720 2404     		lsls r4, r4, # 16
 20346 9722 240C     		lsrs r4, r4, # 16
 20347 9724 2D0C     		lsrs r5, r5, # 16
 20348 9726 6043     		muls r0, r0, r4
 20349 9728 6143     		muls r1, r1, r4
 20350 972a 6A43     		muls r2, r2, r5
 20351 972c 6B43     		muls r3, r3, r5
 20352 972e 8011     		asrs r0, r0, # 6
 20353 9730 8911     		asrs r1, r1, # 6
 20354 9732 9211     		asrs r2, r2, # 6
 20355 9734 9B11     		asrs r3, r3, # 6
 20356 9736 8018     		adds r0, r0, r2         @r
 20357 9738 C918     		adds r1, r1, r3         @i
 20358 973a 3618     		adds r6, r6, r0
 20359 973c 7F18     		adds r7, r7, r1
 20360              	
 20361              		@7
 20362 973e DD46     		mov sp, r11
 20363 9740 0FBC     		pop {r0-r3}
 20364 9742 EB46     		mov r11, sp
 20365 9744 D546     		mov sp, r10
 20366 9746 10BC     		pop {r4}
 20367 9748 EA46     		mov r10, sp
 20368 974a 2546     		mov r5, r4
 20369 974c 2404     		lsls r4, r4, # 16
 20370 974e 240C     		lsrs r4, r4, # 16
 20371 9750 2D0C     		lsrs r5, r5, # 16
 20372 9752 6043     		muls r0, r0, r4		@R
 20373 9754 6143     		muls r1, r1, r4		@I
 20374 9756 6A43     		muls r2, r2, r5		@R
 20375 9758 6B43     		muls r3, r3, r5		@I
 20376 975a 8011     		asrs r0, r0, # 6
 20377 975c 8911     		asrs r1, r1, # 6
 20378 975e 9211     		asrs r2, r2, # 6
 20379 9760 9B11     		asrs r3, r3, # 6
 20380 9762 8018     		adds r0, r0, r2	 @r
 20381 9764 C918     		adds r1, r1, r3	 @i
 20382 9766 3618     		adds r6, r6, r0
 20383 9768 7F18     		adds r7, r7, r1
 20384              	
 20385 976a DD46     		mov sp, r11
 20386 976c 0FBC     		pop {r0-r3}
 20387 976e EB46     		mov r11, sp
 20388 9770 D546     		mov sp, r10
 20389 9772 10BC     		pop {r4}
 20390 9774 EA46     		mov r10, sp
ARM GAS  1.s 			page 359


 20391 9776 2546     		mov r5, r4
 20392 9778 2404     		lsls r4, r4, # 16
 20393 977a 240C     		lsrs r4, r4, # 16
 20394 977c 2D0C     		lsrs r5, r5, # 16
 20395 977e 6043     		muls r0, r0, r4
 20396 9780 6143     		muls r1, r1, r4
 20397 9782 6A43     		muls r2, r2, r5
 20398 9784 6B43     		muls r3, r3, r5
 20399 9786 8011     		asrs r0, r0, # 6
 20400 9788 8911     		asrs r1, r1, # 6
 20401 978a 9211     		asrs r2, r2, # 6
 20402 978c 9B11     		asrs r3, r3, # 6
 20403 978e 8018     		adds r0, r0, r2         @r
 20404 9790 C918     		adds r1, r1, r3         @i
 20405 9792 3618     		adds r6, r6, r0
 20406 9794 7F18     		adds r7, r7, r1
 20407              	
 20408 9796 DD46     		mov sp, r11
 20409 9798 0FBC     		pop {r0-r3}
 20410 979a EB46     		mov r11, sp
 20411 979c D546     		mov sp, r10
 20412 979e 10BC     		pop {r4}
 20413 97a0 EA46     		mov r10, sp
 20414 97a2 2546     		mov r5, r4
 20415 97a4 2404     		lsls r4, r4, # 16
 20416 97a6 240C     		lsrs r4, r4, # 16
 20417 97a8 2D0C     		lsrs r5, r5, # 16
 20418 97aa 6043     		muls r0, r0, r4
 20419 97ac 6143     		muls r1, r1, r4
 20420 97ae 6A43     		muls r2, r2, r5
 20421 97b0 6B43     		muls r3, r3, r5
 20422 97b2 8011     		asrs r0, r0, # 6
 20423 97b4 8911     		asrs r1, r1, # 6
 20424 97b6 9211     		asrs r2, r2, # 6
 20425 97b8 9B11     		asrs r3, r3, # 6
 20426 97ba 8018     		adds r0, r0, r2  @r
 20427 97bc C918     		adds r1, r1, r3  @i
 20428 97be 3618     		adds r6, r6, r0
 20429 97c0 7F18     		adds r7, r7, r1
 20430              	
 20431 97c2 DD46     		mov sp, r11
 20432 97c4 0FBC     		pop {r0-r3}
 20433 97c6 EB46     		mov r11, sp
 20434 97c8 D546     		mov sp, r10
 20435 97ca 10BC     		pop {r4}
 20436 97cc EA46     		mov r10, sp
 20437 97ce 2546     		mov r5, r4
 20438 97d0 2404     		lsls r4, r4, # 16
 20439 97d2 240C     		lsrs r4, r4, # 16
 20440 97d4 2D0C     		lsrs r5, r5, # 16
 20441 97d6 6043     		muls r0, r0, r4
 20442 97d8 6143     		muls r1, r1, r4
 20443 97da 6A43     		muls r2, r2, r5
 20444 97dc 6B43     		muls r3, r3, r5
 20445 97de 8011     		asrs r0, r0, # 6
 20446 97e0 8911     		asrs r1, r1, # 6
 20447 97e2 9211     		asrs r2, r2, # 6
ARM GAS  1.s 			page 360


 20448 97e4 9B11     		asrs r3, r3, # 6
 20449 97e6 8018     		adds r0, r0, r2         @r
 20450 97e8 C918     		adds r1, r1, r3         @i
 20451 97ea 3618     		adds r6, r6, r0
 20452 97ec 7F18     		adds r7, r7, r1
 20453              	
 20454              		@8
 20455 97ee DD46     		mov sp, r11
 20456 97f0 0FBC     		pop {r0-r3}
 20457 97f2 EB46     		mov r11, sp
 20458 97f4 D546     		mov sp, r10
 20459 97f6 10BC     		pop {r4}
 20460 97f8 EA46     		mov r10, sp
 20461 97fa 2546     		mov r5, r4
 20462 97fc 2404     		lsls r4, r4, # 16
 20463 97fe 240C     		lsrs r4, r4, # 16
 20464 9800 2D0C     		lsrs r5, r5, # 16
 20465 9802 6043     		muls r0, r0, r4		@R
 20466 9804 6143     		muls r1, r1, r4		@I
 20467 9806 6A43     		muls r2, r2, r5		@R
 20468 9808 6B43     		muls r3, r3, r5		@I
 20469 980a 8011     		asrs r0, r0, # 6
 20470 980c 8911     		asrs r1, r1, # 6
 20471 980e 9211     		asrs r2, r2, # 6
 20472 9810 9B11     		asrs r3, r3, # 6
 20473 9812 8018     		adds r0, r0, r2	 @r
 20474 9814 C918     		adds r1, r1, r3	 @i
 20475 9816 3618     		adds r6, r6, r0
 20476 9818 7F18     		adds r7, r7, r1
 20477              	
 20478 981a DD46     		mov sp, r11
 20479 981c 0FBC     		pop {r0-r3}
 20480 981e EB46     		mov r11, sp
 20481 9820 D546     		mov sp, r10
 20482 9822 10BC     		pop {r4}
 20483 9824 EA46     		mov r10, sp
 20484 9826 2546     		mov r5, r4
 20485 9828 2404     		lsls r4, r4, # 16
 20486 982a 240C     		lsrs r4, r4, # 16
 20487 982c 2D0C     		lsrs r5, r5, # 16
 20488 982e 6043     		muls r0, r0, r4
 20489 9830 6143     		muls r1, r1, r4
 20490 9832 6A43     		muls r2, r2, r5
 20491 9834 6B43     		muls r3, r3, r5
 20492 9836 8011     		asrs r0, r0, # 6
 20493 9838 8911     		asrs r1, r1, # 6
 20494 983a 9211     		asrs r2, r2, # 6
 20495 983c 9B11     		asrs r3, r3, # 6
 20496 983e 8018     		adds r0, r0, r2         @r
 20497 9840 C918     		adds r1, r1, r3         @i
 20498 9842 3618     		adds r6, r6, r0
 20499 9844 7F18     		adds r7, r7, r1
 20500              	
 20501 9846 DD46     		mov sp, r11
 20502 9848 0FBC     		pop {r0-r3}
 20503 984a EB46     		mov r11, sp
 20504 984c D546     		mov sp, r10
ARM GAS  1.s 			page 361


 20505 984e 10BC     		pop {r4}
 20506 9850 EA46     		mov r10, sp
 20507 9852 2546     		mov r5, r4
 20508 9854 2404     		lsls r4, r4, # 16
 20509 9856 240C     		lsrs r4, r4, # 16
 20510 9858 2D0C     		lsrs r5, r5, # 16
 20511 985a 6043     		muls r0, r0, r4
 20512 985c 6143     		muls r1, r1, r4
 20513 985e 6A43     		muls r2, r2, r5
 20514 9860 6B43     		muls r3, r3, r5
 20515 9862 8011     		asrs r0, r0, # 6
 20516 9864 8911     		asrs r1, r1, # 6
 20517 9866 9211     		asrs r2, r2, # 6
 20518 9868 9B11     		asrs r3, r3, # 6
 20519 986a 8018     		adds r0, r0, r2  @r
 20520 986c C918     		adds r1, r1, r3  @i
 20521 986e 3618     		adds r6, r6, r0
 20522 9870 7F18     		adds r7, r7, r1
 20523              	
 20524 9872 DD46     		mov sp, r11
 20525 9874 0FBC     		pop {r0-r3}
 20526 9876 EB46     		mov r11, sp
 20527 9878 D546     		mov sp, r10
 20528 987a 10BC     		pop {r4}
 20529 987c EA46     		mov r10, sp
 20530 987e 2546     		mov r5, r4
 20531 9880 2404     		lsls r4, r4, # 16
 20532 9882 240C     		lsrs r4, r4, # 16
 20533 9884 2D0C     		lsrs r5, r5, # 16
 20534 9886 6043     		muls r0, r0, r4
 20535 9888 6143     		muls r1, r1, r4
 20536 988a 6A43     		muls r2, r2, r5
 20537 988c 6B43     		muls r3, r3, r5
 20538 988e 8011     		asrs r0, r0, # 6
 20539 9890 8911     		asrs r1, r1, # 6
 20540 9892 9211     		asrs r2, r2, # 6
 20541 9894 9B11     		asrs r3, r3, # 6
 20542 9896 8018     		adds r0, r0, r2         @r
 20543 9898 C918     		adds r1, r1, r3         @i
 20544 989a 3618     		adds r6, r6, r0
 20545 989c 7F18     		adds r7, r7, r1
 20546              	
 20547              		@9
 20548 989e DD46     		mov sp, r11
 20549 98a0 0FBC     		pop {r0-r3}
 20550 98a2 EB46     		mov r11, sp
 20551 98a4 D546     		mov sp, r10
 20552 98a6 10BC     		pop {r4}
 20553 98a8 EA46     		mov r10, sp
 20554 98aa 2546     		mov r5, r4
 20555 98ac 2404     		lsls r4, r4, # 16
 20556 98ae 240C     		lsrs r4, r4, # 16
 20557 98b0 2D0C     		lsrs r5, r5, # 16
 20558 98b2 6043     		muls r0, r0, r4		@R
 20559 98b4 6143     		muls r1, r1, r4		@I
 20560 98b6 6A43     		muls r2, r2, r5		@R
 20561 98b8 6B43     		muls r3, r3, r5		@I
ARM GAS  1.s 			page 362


 20562 98ba 8011     		asrs r0, r0, # 6
 20563 98bc 8911     		asrs r1, r1, # 6
 20564 98be 9211     		asrs r2, r2, # 6
 20565 98c0 9B11     		asrs r3, r3, # 6
 20566 98c2 8018     		adds r0, r0, r2	 @r
 20567 98c4 C918     		adds r1, r1, r3	 @i
 20568 98c6 3618     		adds r6, r6, r0
 20569 98c8 7F18     		adds r7, r7, r1
 20570              	
 20571 98ca DD46     		mov sp, r11
 20572 98cc 0FBC     		pop {r0-r3}
 20573 98ce EB46     		mov r11, sp
 20574 98d0 D546     		mov sp, r10
 20575 98d2 10BC     		pop {r4}
 20576 98d4 EA46     		mov r10, sp
 20577 98d6 2546     		mov r5, r4
 20578 98d8 2404     		lsls r4, r4, # 16
 20579 98da 240C     		lsrs r4, r4, # 16
 20580 98dc 2D0C     		lsrs r5, r5, # 16
 20581 98de 6043     		muls r0, r0, r4
 20582 98e0 6143     		muls r1, r1, r4
 20583 98e2 6A43     		muls r2, r2, r5
 20584 98e4 6B43     		muls r3, r3, r5
 20585 98e6 8011     		asrs r0, r0, # 6
 20586 98e8 8911     		asrs r1, r1, # 6
 20587 98ea 9211     		asrs r2, r2, # 6
 20588 98ec 9B11     		asrs r3, r3, # 6
 20589 98ee 8018     		adds r0, r0, r2         @r
 20590 98f0 C918     		adds r1, r1, r3         @i
 20591 98f2 3618     		adds r6, r6, r0
 20592 98f4 7F18     		adds r7, r7, r1
 20593              	
 20594 98f6 DD46     		mov sp, r11
 20595 98f8 0FBC     		pop {r0-r3}
 20596 98fa EB46     		mov r11, sp
 20597 98fc D546     		mov sp, r10
 20598 98fe 10BC     		pop {r4}
 20599 9900 EA46     		mov r10, sp
 20600 9902 2546     		mov r5, r4
 20601 9904 2404     		lsls r4, r4, # 16
 20602 9906 240C     		lsrs r4, r4, # 16
 20603 9908 2D0C     		lsrs r5, r5, # 16
 20604 990a 6043     		muls r0, r0, r4
 20605 990c 6143     		muls r1, r1, r4
 20606 990e 6A43     		muls r2, r2, r5
 20607 9910 6B43     		muls r3, r3, r5
 20608 9912 8011     		asrs r0, r0, # 6
 20609 9914 8911     		asrs r1, r1, # 6
 20610 9916 9211     		asrs r2, r2, # 6
 20611 9918 9B11     		asrs r3, r3, # 6
 20612 991a 8018     		adds r0, r0, r2  @r
 20613 991c C918     		adds r1, r1, r3  @i
 20614 991e 3618     		adds r6, r6, r0
 20615 9920 7F18     		adds r7, r7, r1
 20616              	
 20617 9922 DD46     		mov sp, r11
 20618 9924 0FBC     		pop {r0-r3}
ARM GAS  1.s 			page 363


 20619 9926 EB46     		mov r11, sp
 20620 9928 D546     		mov sp, r10
 20621 992a 10BC     		pop {r4}
 20622 992c EA46     		mov r10, sp
 20623 992e 2546     		mov r5, r4
 20624 9930 2404     		lsls r4, r4, # 16
 20625 9932 240C     		lsrs r4, r4, # 16
 20626 9934 2D0C     		lsrs r5, r5, # 16
 20627 9936 6043     		muls r0, r0, r4
 20628 9938 6143     		muls r1, r1, r4
 20629 993a 6A43     		muls r2, r2, r5
 20630 993c 6B43     		muls r3, r3, r5
 20631 993e 8011     		asrs r0, r0, # 6
 20632 9940 8911     		asrs r1, r1, # 6
 20633 9942 9211     		asrs r2, r2, # 6
 20634 9944 9B11     		asrs r3, r3, # 6
 20635 9946 8018     		adds r0, r0, r2         @r
 20636 9948 C918     		adds r1, r1, r3         @i
 20637 994a 3618     		adds r6, r6, r0
 20638 994c 7F18     		adds r7, r7, r1
 20639              	
 20640              	@yjm21
 20641              		@0
 20642 994e DD46     		mov sp, r11
 20643 9950 0FBC     		pop {r0-r3}
 20644 9952 EB46     		mov r11, sp
 20645 9954 D546     		mov sp, r10
 20646 9956 10BC     		pop {r4}
 20647 9958 EA46     		mov r10, sp
 20648 995a 2546     		mov r5, r4
 20649 995c 2404     		lsls r4, r4, # 16
 20650 995e 240C     		lsrs r4, r4, # 16
 20651 9960 2D0C     		lsrs r5, r5, # 16
 20652 9962 6043     		muls r0, r0, r4		@R
 20653 9964 6143     		muls r1, r1, r4		@I
 20654 9966 6A43     		muls r2, r2, r5		@R
 20655 9968 6B43     		muls r3, r3, r5		@I
 20656 996a 8011     		asrs r0, r0, # 6
 20657 996c 8911     		asrs r1, r1, # 6
 20658 996e 9211     		asrs r2, r2, # 6
 20659 9970 9B11     		asrs r3, r3, # 6
 20660 9972 8018     		adds r0, r0, r2	 @r
 20661 9974 C918     		adds r1, r1, r3	 @i
 20662 9976 3618     		adds r6, r6, r0
 20663 9978 7F18     		adds r7, r7, r1
 20664              	
 20665 997a DD46     		mov sp, r11
 20666 997c 0FBC     		pop {r0-r3}
 20667 997e EB46     		mov r11, sp
 20668 9980 D546     		mov sp, r10
 20669 9982 10BC     		pop {r4}
 20670 9984 EA46     		mov r10, sp
 20671 9986 2546     		mov r5, r4
 20672 9988 2404     		lsls r4, r4, # 16
 20673 998a 240C     		lsrs r4, r4, # 16
 20674 998c 2D0C     		lsrs r5, r5, # 16
 20675 998e 6043     		muls r0, r0, r4
ARM GAS  1.s 			page 364


 20676 9990 6143     		muls r1, r1, r4
 20677 9992 6A43     		muls r2, r2, r5
 20678 9994 6B43     		muls r3, r3, r5
 20679 9996 8011     		asrs r0, r0, # 6
 20680 9998 8911     		asrs r1, r1, # 6
 20681 999a 9211     		asrs r2, r2, # 6
 20682 999c 9B11     		asrs r3, r3, # 6
 20683 999e 8018     		adds r0, r0, r2         @r
 20684 99a0 C918     		adds r1, r1, r3         @i
 20685 99a2 3618     		adds r6, r6, r0
 20686 99a4 7F18     		adds r7, r7, r1
 20687              	
 20688 99a6 DD46     		mov sp, r11
 20689 99a8 0FBC     		pop {r0-r3}
 20690 99aa EB46     		mov r11, sp
 20691 99ac D546     		mov sp, r10
 20692 99ae 10BC     		pop {r4}
 20693 99b0 EA46     		mov r10, sp
 20694 99b2 2546     		mov r5, r4
 20695 99b4 2404     		lsls r4, r4, # 16
 20696 99b6 240C     		lsrs r4, r4, # 16
 20697 99b8 2D0C     		lsrs r5, r5, # 16
 20698 99ba 6043     		muls r0, r0, r4
 20699 99bc 6143     		muls r1, r1, r4
 20700 99be 6A43     		muls r2, r2, r5
 20701 99c0 6B43     		muls r3, r3, r5
 20702 99c2 8011     		asrs r0, r0, # 6
 20703 99c4 8911     		asrs r1, r1, # 6
 20704 99c6 9211     		asrs r2, r2, # 6
 20705 99c8 9B11     		asrs r3, r3, # 6
 20706 99ca 8018     		adds r0, r0, r2  @r
 20707 99cc C918     		adds r1, r1, r3  @i
 20708 99ce 3618     		adds r6, r6, r0
 20709 99d0 7F18     		adds r7, r7, r1
 20710              	
 20711 99d2 DD46     		mov sp, r11
 20712 99d4 0FBC     		pop {r0-r3}
 20713 99d6 EB46     		mov r11, sp
 20714 99d8 D546     		mov sp, r10
 20715 99da 10BC     		pop {r4}
 20716 99dc EA46     		mov r10, sp
 20717 99de 2546     		mov r5, r4
 20718 99e0 2404     		lsls r4, r4, # 16
 20719 99e2 240C     		lsrs r4, r4, # 16
 20720 99e4 2D0C     		lsrs r5, r5, # 16
 20721 99e6 6043     		muls r0, r0, r4
 20722 99e8 6143     		muls r1, r1, r4
 20723 99ea 6A43     		muls r2, r2, r5
 20724 99ec 6B43     		muls r3, r3, r5
 20725 99ee 8011     		asrs r0, r0, # 6
 20726 99f0 8911     		asrs r1, r1, # 6
 20727 99f2 9211     		asrs r2, r2, # 6
 20728 99f4 9B11     		asrs r3, r3, # 6
 20729 99f6 8018     		adds r0, r0, r2         @r
 20730 99f8 C918     		adds r1, r1, r3         @i
 20731 99fa 3618     		adds r6, r6, r0
 20732 99fc 7F18     		adds r7, r7, r1
ARM GAS  1.s 			page 365


 20733              	
 20734              		@1
 20735 99fe DD46     		mov sp, r11
 20736 9a00 0FBC     		pop {r0-r3}
 20737 9a02 EB46     		mov r11, sp
 20738 9a04 D546     		mov sp, r10
 20739 9a06 10BC     		pop {r4}
 20740 9a08 EA46     		mov r10, sp
 20741 9a0a 2546     		mov r5, r4
 20742 9a0c 2404     		lsls r4, r4, # 16
 20743 9a0e 240C     		lsrs r4, r4, # 16
 20744 9a10 2D0C     		lsrs r5, r5, # 16
 20745 9a12 6043     		muls r0, r0, r4		@R
 20746 9a14 6143     		muls r1, r1, r4		@I
 20747 9a16 6A43     		muls r2, r2, r5		@R
 20748 9a18 6B43     		muls r3, r3, r5		@I
 20749 9a1a 8011     		asrs r0, r0, # 6
 20750 9a1c 8911     		asrs r1, r1, # 6
 20751 9a1e 9211     		asrs r2, r2, # 6
 20752 9a20 9B11     		asrs r3, r3, # 6
 20753 9a22 8018     		adds r0, r0, r2	 @r
 20754 9a24 C918     		adds r1, r1, r3	 @i
 20755 9a26 3618     		adds r6, r6, r0
 20756 9a28 7F18     		adds r7, r7, r1
 20757              	
 20758 9a2a DD46     		mov sp, r11
 20759 9a2c 0FBC     		pop {r0-r3}
 20760 9a2e EB46     		mov r11, sp
 20761 9a30 D546     		mov sp, r10
 20762 9a32 10BC     		pop {r4}
 20763 9a34 EA46     		mov r10, sp
 20764 9a36 2546     		mov r5, r4
 20765 9a38 2404     		lsls r4, r4, # 16
 20766 9a3a 240C     		lsrs r4, r4, # 16
 20767 9a3c 2D0C     		lsrs r5, r5, # 16
 20768 9a3e 6043     		muls r0, r0, r4
 20769 9a40 6143     		muls r1, r1, r4
 20770 9a42 6A43     		muls r2, r2, r5
 20771 9a44 6B43     		muls r3, r3, r5
 20772 9a46 8011     		asrs r0, r0, # 6
 20773 9a48 8911     		asrs r1, r1, # 6
 20774 9a4a 9211     		asrs r2, r2, # 6
 20775 9a4c 9B11     		asrs r3, r3, # 6
 20776 9a4e 8018     		adds r0, r0, r2         @r
 20777 9a50 C918     		adds r1, r1, r3         @i
 20778 9a52 3618     		adds r6, r6, r0
 20779 9a54 7F18     		adds r7, r7, r1
 20780              	
 20781 9a56 DD46     		mov sp, r11
 20782 9a58 0FBC     		pop {r0-r3}
 20783 9a5a EB46     		mov r11, sp
 20784 9a5c D546     		mov sp, r10
 20785 9a5e 10BC     		pop {r4}
 20786 9a60 EA46     		mov r10, sp
 20787 9a62 2546     		mov r5, r4
 20788 9a64 2404     		lsls r4, r4, # 16
 20789 9a66 240C     		lsrs r4, r4, # 16
ARM GAS  1.s 			page 366


 20790 9a68 2D0C     		lsrs r5, r5, # 16
 20791 9a6a 6043     		muls r0, r0, r4
 20792 9a6c 6143     		muls r1, r1, r4
 20793 9a6e 6A43     		muls r2, r2, r5
 20794 9a70 6B43     		muls r3, r3, r5
 20795 9a72 8011     		asrs r0, r0, # 6
 20796 9a74 8911     		asrs r1, r1, # 6
 20797 9a76 9211     		asrs r2, r2, # 6
 20798 9a78 9B11     		asrs r3, r3, # 6
 20799 9a7a 8018     		adds r0, r0, r2  @r
 20800 9a7c C918     		adds r1, r1, r3  @i
 20801 9a7e 3618     		adds r6, r6, r0
 20802 9a80 7F18     		adds r7, r7, r1
 20803              	
 20804 9a82 DD46     		mov sp, r11
 20805 9a84 0FBC     		pop {r0-r3}
 20806 9a86 EB46     		mov r11, sp
 20807 9a88 D546     		mov sp, r10
 20808 9a8a 10BC     		pop {r4}
 20809 9a8c EA46     		mov r10, sp
 20810 9a8e 2546     		mov r5, r4
 20811 9a90 2404     		lsls r4, r4, # 16
 20812 9a92 240C     		lsrs r4, r4, # 16
 20813 9a94 2D0C     		lsrs r5, r5, # 16
 20814 9a96 6043     		muls r0, r0, r4
 20815 9a98 6143     		muls r1, r1, r4
 20816 9a9a 6A43     		muls r2, r2, r5
 20817 9a9c 6B43     		muls r3, r3, r5
 20818 9a9e 8011     		asrs r0, r0, # 6
 20819 9aa0 8911     		asrs r1, r1, # 6
 20820 9aa2 9211     		asrs r2, r2, # 6
 20821 9aa4 9B11     		asrs r3, r3, # 6
 20822 9aa6 8018     		adds r0, r0, r2         @r
 20823 9aa8 C918     		adds r1, r1, r3         @i
 20824 9aaa 3618     		adds r6, r6, r0
 20825 9aac 7F18     		adds r7, r7, r1
 20826              	
 20827              		@2
 20828 9aae DD46     		mov sp, r11
 20829 9ab0 0FBC     		pop {r0-r3}
 20830 9ab2 EB46     		mov r11, sp
 20831 9ab4 D546     		mov sp, r10
 20832 9ab6 10BC     		pop {r4}
 20833 9ab8 EA46     		mov r10, sp
 20834 9aba 2546     		mov r5, r4
 20835 9abc 2404     		lsls r4, r4, # 16
 20836 9abe 240C     		lsrs r4, r4, # 16
 20837 9ac0 2D0C     		lsrs r5, r5, # 16
 20838 9ac2 6043     		muls r0, r0, r4		@R
 20839 9ac4 6143     		muls r1, r1, r4		@I
 20840 9ac6 6A43     		muls r2, r2, r5		@R
 20841 9ac8 6B43     		muls r3, r3, r5		@I
 20842 9aca 8011     		asrs r0, r0, # 6
 20843 9acc 8911     		asrs r1, r1, # 6
 20844 9ace 9211     		asrs r2, r2, # 6
 20845 9ad0 9B11     		asrs r3, r3, # 6
 20846 9ad2 8018     		adds r0, r0, r2	 @r
ARM GAS  1.s 			page 367


 20847 9ad4 C918     		adds r1, r1, r3	 @i
 20848 9ad6 3618     		adds r6, r6, r0
 20849 9ad8 7F18     		adds r7, r7, r1
 20850              	
 20851 9ada DD46     		mov sp, r11
 20852 9adc 0FBC     		pop {r0-r3}
 20853 9ade EB46     		mov r11, sp
 20854 9ae0 D546     		mov sp, r10
 20855 9ae2 10BC     		pop {r4}
 20856 9ae4 EA46     		mov r10, sp
 20857 9ae6 2546     		mov r5, r4
 20858 9ae8 2404     		lsls r4, r4, # 16
 20859 9aea 240C     		lsrs r4, r4, # 16
 20860 9aec 2D0C     		lsrs r5, r5, # 16
 20861 9aee 6043     		muls r0, r0, r4
 20862 9af0 6143     		muls r1, r1, r4
 20863 9af2 6A43     		muls r2, r2, r5
 20864 9af4 6B43     		muls r3, r3, r5
 20865 9af6 8011     		asrs r0, r0, # 6
 20866 9af8 8911     		asrs r1, r1, # 6
 20867 9afa 9211     		asrs r2, r2, # 6
 20868 9afc 9B11     		asrs r3, r3, # 6
 20869 9afe 8018     		adds r0, r0, r2         @r
 20870 9b00 C918     		adds r1, r1, r3         @i
 20871 9b02 3618     		adds r6, r6, r0
 20872 9b04 7F18     		adds r7, r7, r1
 20873              	
 20874 9b06 DD46     		mov sp, r11
 20875 9b08 0FBC     		pop {r0-r3}
 20876 9b0a EB46     		mov r11, sp
 20877 9b0c D546     		mov sp, r10
 20878 9b0e 10BC     		pop {r4}
 20879 9b10 EA46     		mov r10, sp
 20880 9b12 2546     		mov r5, r4
 20881 9b14 2404     		lsls r4, r4, # 16
 20882 9b16 240C     		lsrs r4, r4, # 16
 20883 9b18 2D0C     		lsrs r5, r5, # 16
 20884 9b1a 6043     		muls r0, r0, r4
 20885 9b1c 6143     		muls r1, r1, r4
 20886 9b1e 6A43     		muls r2, r2, r5
 20887 9b20 6B43     		muls r3, r3, r5
 20888 9b22 8011     		asrs r0, r0, # 6
 20889 9b24 8911     		asrs r1, r1, # 6
 20890 9b26 9211     		asrs r2, r2, # 6
 20891 9b28 9B11     		asrs r3, r3, # 6
 20892 9b2a 8018     		adds r0, r0, r2  @r
 20893 9b2c C918     		adds r1, r1, r3  @i
 20894 9b2e 3618     		adds r6, r6, r0
 20895 9b30 7F18     		adds r7, r7, r1
 20896              	
 20897 9b32 DD46     		mov sp, r11
 20898 9b34 0FBC     		pop {r0-r3}
 20899 9b36 EB46     		mov r11, sp
 20900 9b38 D546     		mov sp, r10
 20901 9b3a 10BC     		pop {r4}
 20902 9b3c EA46     		mov r10, sp
 20903 9b3e 2546     		mov r5, r4
ARM GAS  1.s 			page 368


 20904 9b40 2404     		lsls r4, r4, # 16
 20905 9b42 240C     		lsrs r4, r4, # 16
 20906 9b44 2D0C     		lsrs r5, r5, # 16
 20907 9b46 6043     		muls r0, r0, r4
 20908 9b48 6143     		muls r1, r1, r4
 20909 9b4a 6A43     		muls r2, r2, r5
 20910 9b4c 6B43     		muls r3, r3, r5
 20911 9b4e 8011     		asrs r0, r0, # 6
 20912 9b50 8911     		asrs r1, r1, # 6
 20913 9b52 9211     		asrs r2, r2, # 6
 20914 9b54 9B11     		asrs r3, r3, # 6
 20915 9b56 8018     		adds r0, r0, r2         @r
 20916 9b58 C918     		adds r1, r1, r3         @i
 20917 9b5a 3618     		adds r6, r6, r0
 20918 9b5c 7F18     		adds r7, r7, r1
 20919              	
 20920              		@3
 20921 9b5e DD46     		mov sp, r11
 20922 9b60 0FBC     		pop {r0-r3}
 20923 9b62 EB46     		mov r11, sp
 20924 9b64 D546     		mov sp, r10
 20925 9b66 10BC     		pop {r4}
 20926 9b68 EA46     		mov r10, sp
 20927 9b6a 2546     		mov r5, r4
 20928 9b6c 2404     		lsls r4, r4, # 16
 20929 9b6e 240C     		lsrs r4, r4, # 16
 20930 9b70 2D0C     		lsrs r5, r5, # 16
 20931 9b72 6043     		muls r0, r0, r4		@R
 20932 9b74 6143     		muls r1, r1, r4		@I
 20933 9b76 6A43     		muls r2, r2, r5		@R
 20934 9b78 6B43     		muls r3, r3, r5		@I
 20935 9b7a 8011     		asrs r0, r0, # 6
 20936 9b7c 8911     		asrs r1, r1, # 6
 20937 9b7e 9211     		asrs r2, r2, # 6
 20938 9b80 9B11     		asrs r3, r3, # 6
 20939 9b82 8018     		adds r0, r0, r2	 @r
 20940 9b84 C918     		adds r1, r1, r3	 @i
 20941 9b86 3618     		adds r6, r6, r0
 20942 9b88 7F18     		adds r7, r7, r1
 20943              	
 20944 9b8a DD46     		mov sp, r11
 20945 9b8c 0FBC     		pop {r0-r3}
 20946 9b8e EB46     		mov r11, sp
 20947 9b90 D546     		mov sp, r10
 20948 9b92 10BC     		pop {r4}
 20949 9b94 EA46     		mov r10, sp
 20950 9b96 2546     		mov r5, r4
 20951 9b98 2404     		lsls r4, r4, # 16
 20952 9b9a 240C     		lsrs r4, r4, # 16
 20953 9b9c 2D0C     		lsrs r5, r5, # 16
 20954 9b9e 6043     		muls r0, r0, r4
 20955 9ba0 6143     		muls r1, r1, r4
 20956 9ba2 6A43     		muls r2, r2, r5
 20957 9ba4 6B43     		muls r3, r3, r5
 20958 9ba6 8011     		asrs r0, r0, # 6
 20959 9ba8 8911     		asrs r1, r1, # 6
 20960 9baa 9211     		asrs r2, r2, # 6
ARM GAS  1.s 			page 369


 20961 9bac 9B11     		asrs r3, r3, # 6
 20962 9bae 8018     		adds r0, r0, r2         @r
 20963 9bb0 C918     		adds r1, r1, r3         @i
 20964 9bb2 3618     		adds r6, r6, r0
 20965 9bb4 7F18     		adds r7, r7, r1
 20966              	
 20967 9bb6 DD46     		mov sp, r11
 20968 9bb8 0FBC     		pop {r0-r3}
 20969 9bba EB46     		mov r11, sp
 20970 9bbc D546     		mov sp, r10
 20971 9bbe 10BC     		pop {r4}
 20972 9bc0 EA46     		mov r10, sp
 20973 9bc2 2546     		mov r5, r4
 20974 9bc4 2404     		lsls r4, r4, # 16
 20975 9bc6 240C     		lsrs r4, r4, # 16
 20976 9bc8 2D0C     		lsrs r5, r5, # 16
 20977 9bca 6043     		muls r0, r0, r4
 20978 9bcc 6143     		muls r1, r1, r4
 20979 9bce 6A43     		muls r2, r2, r5
 20980 9bd0 6B43     		muls r3, r3, r5
 20981 9bd2 8011     		asrs r0, r0, # 6
 20982 9bd4 8911     		asrs r1, r1, # 6
 20983 9bd6 9211     		asrs r2, r2, # 6
 20984 9bd8 9B11     		asrs r3, r3, # 6
 20985 9bda 8018     		adds r0, r0, r2  @r
 20986 9bdc C918     		adds r1, r1, r3  @i
 20987 9bde 3618     		adds r6, r6, r0
 20988 9be0 7F18     		adds r7, r7, r1
 20989              	
 20990 9be2 DD46     		mov sp, r11
 20991 9be4 0FBC     		pop {r0-r3}
 20992 9be6 EB46     		mov r11, sp
 20993 9be8 D546     		mov sp, r10
 20994 9bea 10BC     		pop {r4}
 20995 9bec EA46     		mov r10, sp
 20996 9bee 2546     		mov r5, r4
 20997 9bf0 2404     		lsls r4, r4, # 16
 20998 9bf2 240C     		lsrs r4, r4, # 16
 20999 9bf4 2D0C     		lsrs r5, r5, # 16
 21000 9bf6 6043     		muls r0, r0, r4
 21001 9bf8 6143     		muls r1, r1, r4
 21002 9bfa 6A43     		muls r2, r2, r5
 21003 9bfc 6B43     		muls r3, r3, r5
 21004 9bfe 8011     		asrs r0, r0, # 6
 21005 9c00 8911     		asrs r1, r1, # 6
 21006 9c02 9211     		asrs r2, r2, # 6
 21007 9c04 9B11     		asrs r3, r3, # 6
 21008 9c06 8018     		adds r0, r0, r2         @r
 21009 9c08 C918     		adds r1, r1, r3         @i
 21010 9c0a 3618     		adds r6, r6, r0
 21011 9c0c 7F18     		adds r7, r7, r1
 21012              	
 21013              		@4
 21014 9c0e DD46     		mov sp, r11
 21015 9c10 0FBC     		pop {r0-r3}
 21016 9c12 EB46     		mov r11, sp
 21017 9c14 D546     		mov sp, r10
ARM GAS  1.s 			page 370


 21018 9c16 10BC     		pop {r4}
 21019 9c18 EA46     		mov r10, sp
 21020 9c1a 2546     		mov r5, r4
 21021 9c1c 2404     		lsls r4, r4, # 16
 21022 9c1e 240C     		lsrs r4, r4, # 16
 21023 9c20 2D0C     		lsrs r5, r5, # 16
 21024 9c22 6043     		muls r0, r0, r4		@R
 21025 9c24 6143     		muls r1, r1, r4		@I
 21026 9c26 6A43     		muls r2, r2, r5		@R
 21027 9c28 6B43     		muls r3, r3, r5		@I
 21028 9c2a 8011     		asrs r0, r0, # 6
 21029 9c2c 8911     		asrs r1, r1, # 6
 21030 9c2e 9211     		asrs r2, r2, # 6
 21031 9c30 9B11     		asrs r3, r3, # 6
 21032 9c32 8018     		adds r0, r0, r2	 @r
 21033 9c34 C918     		adds r1, r1, r3	 @i
 21034 9c36 3618     		adds r6, r6, r0
 21035 9c38 7F18     		adds r7, r7, r1
 21036              	
 21037 9c3a DD46     		mov sp, r11
 21038 9c3c 0FBC     		pop {r0-r3}
 21039 9c3e EB46     		mov r11, sp
 21040 9c40 D546     		mov sp, r10
 21041 9c42 10BC     		pop {r4}
 21042 9c44 EA46     		mov r10, sp
 21043 9c46 2546     		mov r5, r4
 21044 9c48 2404     		lsls r4, r4, # 16
 21045 9c4a 240C     		lsrs r4, r4, # 16
 21046 9c4c 2D0C     		lsrs r5, r5, # 16
 21047 9c4e 6043     		muls r0, r0, r4
 21048 9c50 6143     		muls r1, r1, r4
 21049 9c52 6A43     		muls r2, r2, r5
 21050 9c54 6B43     		muls r3, r3, r5
 21051 9c56 8011     		asrs r0, r0, # 6
 21052 9c58 8911     		asrs r1, r1, # 6
 21053 9c5a 9211     		asrs r2, r2, # 6
 21054 9c5c 9B11     		asrs r3, r3, # 6
 21055 9c5e 8018     		adds r0, r0, r2         @r
 21056 9c60 C918     		adds r1, r1, r3         @i
 21057 9c62 3618     		adds r6, r6, r0
 21058 9c64 7F18     		adds r7, r7, r1
 21059              	
 21060 9c66 DD46     		mov sp, r11
 21061 9c68 0FBC     		pop {r0-r3}
 21062 9c6a EB46     		mov r11, sp
 21063 9c6c D546     		mov sp, r10
 21064 9c6e 10BC     		pop {r4}
 21065 9c70 EA46     		mov r10, sp
 21066 9c72 2546     		mov r5, r4
 21067 9c74 2404     		lsls r4, r4, # 16
 21068 9c76 240C     		lsrs r4, r4, # 16
 21069 9c78 2D0C     		lsrs r5, r5, # 16
 21070 9c7a 6043     		muls r0, r0, r4
 21071 9c7c 6143     		muls r1, r1, r4
 21072 9c7e 6A43     		muls r2, r2, r5
 21073 9c80 6B43     		muls r3, r3, r5
 21074 9c82 8011     		asrs r0, r0, # 6
ARM GAS  1.s 			page 371


 21075 9c84 8911     		asrs r1, r1, # 6
 21076 9c86 9211     		asrs r2, r2, # 6
 21077 9c88 9B11     		asrs r3, r3, # 6
 21078 9c8a 8018     		adds r0, r0, r2  @r
 21079 9c8c C918     		adds r1, r1, r3  @i
 21080 9c8e 3618     		adds r6, r6, r0
 21081 9c90 7F18     		adds r7, r7, r1
 21082              	
 21083 9c92 DD46     		mov sp, r11
 21084 9c94 0FBC     		pop {r0-r3}
 21085 9c96 EB46     		mov r11, sp
 21086 9c98 D546     		mov sp, r10
 21087 9c9a 10BC     		pop {r4}
 21088 9c9c EA46     		mov r10, sp
 21089 9c9e 2546     		mov r5, r4
 21090 9ca0 2404     		lsls r4, r4, # 16
 21091 9ca2 240C     		lsrs r4, r4, # 16
 21092 9ca4 2D0C     		lsrs r5, r5, # 16
 21093 9ca6 6043     		muls r0, r0, r4
 21094 9ca8 6143     		muls r1, r1, r4
 21095 9caa 6A43     		muls r2, r2, r5
 21096 9cac 6B43     		muls r3, r3, r5
 21097 9cae 8011     		asrs r0, r0, # 6
 21098 9cb0 8911     		asrs r1, r1, # 6
 21099 9cb2 9211     		asrs r2, r2, # 6
 21100 9cb4 9B11     		asrs r3, r3, # 6
 21101 9cb6 8018     		adds r0, r0, r2         @r
 21102 9cb8 C918     		adds r1, r1, r3         @i
 21103 9cba 3618     		adds r6, r6, r0
 21104 9cbc 7F18     		adds r7, r7, r1
 21105              	
 21106              		@5
 21107 9cbe DD46     		mov sp, r11
 21108 9cc0 0FBC     		pop {r0-r3}
 21109 9cc2 EB46     		mov r11, sp
 21110 9cc4 D546     		mov sp, r10
 21111 9cc6 10BC     		pop {r4}
 21112 9cc8 EA46     		mov r10, sp
 21113 9cca 2546     		mov r5, r4
 21114 9ccc 2404     		lsls r4, r4, # 16
 21115 9cce 240C     		lsrs r4, r4, # 16
 21116 9cd0 2D0C     		lsrs r5, r5, # 16
 21117 9cd2 6043     		muls r0, r0, r4		@R
 21118 9cd4 6143     		muls r1, r1, r4		@I
 21119 9cd6 6A43     		muls r2, r2, r5		@R
 21120 9cd8 6B43     		muls r3, r3, r5		@I
 21121 9cda 8011     		asrs r0, r0, # 6
 21122 9cdc 8911     		asrs r1, r1, # 6
 21123 9cde 9211     		asrs r2, r2, # 6
 21124 9ce0 9B11     		asrs r3, r3, # 6
 21125 9ce2 8018     		adds r0, r0, r2	 @r
 21126 9ce4 C918     		adds r1, r1, r3	 @i
 21127 9ce6 3618     		adds r6, r6, r0
 21128 9ce8 7F18     		adds r7, r7, r1
 21129              	
 21130 9cea DD46     		mov sp, r11
 21131 9cec 0FBC     		pop {r0-r3}
ARM GAS  1.s 			page 372


 21132 9cee EB46     		mov r11, sp
 21133 9cf0 D546     		mov sp, r10
 21134 9cf2 10BC     		pop {r4}
 21135 9cf4 EA46     		mov r10, sp
 21136 9cf6 2546     		mov r5, r4
 21137 9cf8 2404     		lsls r4, r4, # 16
 21138 9cfa 240C     		lsrs r4, r4, # 16
 21139 9cfc 2D0C     		lsrs r5, r5, # 16
 21140 9cfe 6043     		muls r0, r0, r4
 21141 9d00 6143     		muls r1, r1, r4
 21142 9d02 6A43     		muls r2, r2, r5
 21143 9d04 6B43     		muls r3, r3, r5
 21144 9d06 8011     		asrs r0, r0, # 6
 21145 9d08 8911     		asrs r1, r1, # 6
 21146 9d0a 9211     		asrs r2, r2, # 6
 21147 9d0c 9B11     		asrs r3, r3, # 6
 21148 9d0e 8018     		adds r0, r0, r2         @r
 21149 9d10 C918     		adds r1, r1, r3         @i
 21150 9d12 3618     		adds r6, r6, r0
 21151 9d14 7F18     		adds r7, r7, r1
 21152              	
 21153 9d16 DD46     		mov sp, r11
 21154 9d18 0FBC     		pop {r0-r3}
 21155 9d1a EB46     		mov r11, sp
 21156 9d1c D546     		mov sp, r10
 21157 9d1e 10BC     		pop {r4}
 21158 9d20 EA46     		mov r10, sp
 21159 9d22 2546     		mov r5, r4
 21160 9d24 2404     		lsls r4, r4, # 16
 21161 9d26 240C     		lsrs r4, r4, # 16
 21162 9d28 2D0C     		lsrs r5, r5, # 16
 21163 9d2a 6043     		muls r0, r0, r4
 21164 9d2c 6143     		muls r1, r1, r4
 21165 9d2e 6A43     		muls r2, r2, r5
 21166 9d30 6B43     		muls r3, r3, r5
 21167 9d32 8011     		asrs r0, r0, # 6
 21168 9d34 8911     		asrs r1, r1, # 6
 21169 9d36 9211     		asrs r2, r2, # 6
 21170 9d38 9B11     		asrs r3, r3, # 6
 21171 9d3a 8018     		adds r0, r0, r2  @r
 21172 9d3c C918     		adds r1, r1, r3  @i
 21173 9d3e 3618     		adds r6, r6, r0
 21174 9d40 7F18     		adds r7, r7, r1
 21175              	
 21176 9d42 DD46     		mov sp, r11
 21177 9d44 0FBC     		pop {r0-r3}
 21178 9d46 EB46     		mov r11, sp
 21179 9d48 D546     		mov sp, r10
 21180 9d4a 10BC     		pop {r4}
 21181 9d4c EA46     		mov r10, sp
 21182 9d4e 2546     		mov r5, r4
 21183 9d50 2404     		lsls r4, r4, # 16
 21184 9d52 240C     		lsrs r4, r4, # 16
 21185 9d54 2D0C     		lsrs r5, r5, # 16
 21186 9d56 6043     		muls r0, r0, r4
 21187 9d58 6143     		muls r1, r1, r4
 21188 9d5a 6A43     		muls r2, r2, r5
ARM GAS  1.s 			page 373


 21189 9d5c 6B43     		muls r3, r3, r5
 21190 9d5e 8011     		asrs r0, r0, # 6
 21191 9d60 8911     		asrs r1, r1, # 6
 21192 9d62 9211     		asrs r2, r2, # 6
 21193 9d64 9B11     		asrs r3, r3, # 6
 21194 9d66 8018     		adds r0, r0, r2         @r
 21195 9d68 C918     		adds r1, r1, r3         @i
 21196 9d6a 3618     		adds r6, r6, r0
 21197 9d6c 7F18     		adds r7, r7, r1
 21198              	
 21199              		@6
 21200 9d6e DD46     		mov sp, r11
 21201 9d70 0FBC     		pop {r0-r3}
 21202 9d72 EB46     		mov r11, sp
 21203 9d74 D546     		mov sp, r10
 21204 9d76 10BC     		pop {r4}
 21205 9d78 EA46     		mov r10, sp
 21206 9d7a 2546     		mov r5, r4
 21207 9d7c 2404     		lsls r4, r4, # 16
 21208 9d7e 240C     		lsrs r4, r4, # 16
 21209 9d80 2D0C     		lsrs r5, r5, # 16
 21210 9d82 6043     		muls r0, r0, r4		@R
 21211 9d84 6143     		muls r1, r1, r4		@I
 21212 9d86 6A43     		muls r2, r2, r5		@R
 21213 9d88 6B43     		muls r3, r3, r5		@I
 21214 9d8a 8011     		asrs r0, r0, # 6
 21215 9d8c 8911     		asrs r1, r1, # 6
 21216 9d8e 9211     		asrs r2, r2, # 6
 21217 9d90 9B11     		asrs r3, r3, # 6
 21218 9d92 8018     		adds r0, r0, r2	 @r
 21219 9d94 C918     		adds r1, r1, r3	 @i
 21220 9d96 3618     		adds r6, r6, r0
 21221 9d98 7F18     		adds r7, r7, r1
 21222              	
 21223 9d9a DD46     		mov sp, r11
 21224 9d9c 0FBC     		pop {r0-r3}
 21225 9d9e EB46     		mov r11, sp
 21226 9da0 D546     		mov sp, r10
 21227 9da2 10BC     		pop {r4}
 21228 9da4 EA46     		mov r10, sp
 21229 9da6 2546     		mov r5, r4
 21230 9da8 2404     		lsls r4, r4, # 16
 21231 9daa 240C     		lsrs r4, r4, # 16
 21232 9dac 2D0C     		lsrs r5, r5, # 16
 21233 9dae 6043     		muls r0, r0, r4
 21234 9db0 6143     		muls r1, r1, r4
 21235 9db2 6A43     		muls r2, r2, r5
 21236 9db4 6B43     		muls r3, r3, r5
 21237 9db6 8011     		asrs r0, r0, # 6
 21238 9db8 8911     		asrs r1, r1, # 6
 21239 9dba 9211     		asrs r2, r2, # 6
 21240 9dbc 9B11     		asrs r3, r3, # 6
 21241 9dbe 8018     		adds r0, r0, r2         @r
 21242 9dc0 C918     		adds r1, r1, r3         @i
 21243 9dc2 3618     		adds r6, r6, r0
 21244 9dc4 7F18     		adds r7, r7, r1
 21245              	
ARM GAS  1.s 			page 374


 21246 9dc6 DD46     		mov sp, r11
 21247 9dc8 0FBC     		pop {r0-r3}
 21248 9dca EB46     		mov r11, sp
 21249 9dcc D546     		mov sp, r10
 21250 9dce 10BC     		pop {r4}
 21251 9dd0 EA46     		mov r10, sp
 21252 9dd2 2546     		mov r5, r4
 21253 9dd4 2404     		lsls r4, r4, # 16
 21254 9dd6 240C     		lsrs r4, r4, # 16
 21255 9dd8 2D0C     		lsrs r5, r5, # 16
 21256 9dda 6043     		muls r0, r0, r4
 21257 9ddc 6143     		muls r1, r1, r4
 21258 9dde 6A43     		muls r2, r2, r5
 21259 9de0 6B43     		muls r3, r3, r5
 21260 9de2 8011     		asrs r0, r0, # 6
 21261 9de4 8911     		asrs r1, r1, # 6
 21262 9de6 9211     		asrs r2, r2, # 6
 21263 9de8 9B11     		asrs r3, r3, # 6
 21264 9dea 8018     		adds r0, r0, r2  @r
 21265 9dec C918     		adds r1, r1, r3  @i
 21266 9dee 3618     		adds r6, r6, r0
 21267 9df0 7F18     		adds r7, r7, r1
 21268              	
 21269 9df2 DD46     		mov sp, r11
 21270 9df4 0FBC     		pop {r0-r3}
 21271 9df6 EB46     		mov r11, sp
 21272 9df8 D546     		mov sp, r10
 21273 9dfa 10BC     		pop {r4}
 21274 9dfc EA46     		mov r10, sp
 21275 9dfe 2546     		mov r5, r4
 21276 9e00 2404     		lsls r4, r4, # 16
 21277 9e02 240C     		lsrs r4, r4, # 16
 21278 9e04 2D0C     		lsrs r5, r5, # 16
 21279 9e06 6043     		muls r0, r0, r4
 21280 9e08 6143     		muls r1, r1, r4
 21281 9e0a 6A43     		muls r2, r2, r5
 21282 9e0c 6B43     		muls r3, r3, r5
 21283 9e0e 8011     		asrs r0, r0, # 6
 21284 9e10 8911     		asrs r1, r1, # 6
 21285 9e12 9211     		asrs r2, r2, # 6
 21286 9e14 9B11     		asrs r3, r3, # 6
 21287 9e16 8018     		adds r0, r0, r2         @r
 21288 9e18 C918     		adds r1, r1, r3         @i
 21289 9e1a 3618     		adds r6, r6, r0
 21290 9e1c 7F18     		adds r7, r7, r1
 21291              	
 21292              		@7
 21293 9e1e DD46     		mov sp, r11
 21294 9e20 0FBC     		pop {r0-r3}
 21295 9e22 EB46     		mov r11, sp
 21296 9e24 D546     		mov sp, r10
 21297 9e26 10BC     		pop {r4}
 21298 9e28 EA46     		mov r10, sp
 21299 9e2a 2546     		mov r5, r4
 21300 9e2c 2404     		lsls r4, r4, # 16
 21301 9e2e 240C     		lsrs r4, r4, # 16
 21302 9e30 2D0C     		lsrs r5, r5, # 16
ARM GAS  1.s 			page 375


 21303 9e32 6043     		muls r0, r0, r4		@R
 21304 9e34 6143     		muls r1, r1, r4		@I
 21305 9e36 6A43     		muls r2, r2, r5		@R
 21306 9e38 6B43     		muls r3, r3, r5		@I
 21307 9e3a 8011     		asrs r0, r0, # 6
 21308 9e3c 8911     		asrs r1, r1, # 6
 21309 9e3e 9211     		asrs r2, r2, # 6
 21310 9e40 9B11     		asrs r3, r3, # 6
 21311 9e42 8018     		adds r0, r0, r2	 @r
 21312 9e44 C918     		adds r1, r1, r3	 @i
 21313 9e46 3618     		adds r6, r6, r0
 21314 9e48 7F18     		adds r7, r7, r1
 21315              	
 21316 9e4a DD46     		mov sp, r11
 21317 9e4c 0FBC     		pop {r0-r3}
 21318 9e4e EB46     		mov r11, sp
 21319 9e50 D546     		mov sp, r10
 21320 9e52 10BC     		pop {r4}
 21321 9e54 EA46     		mov r10, sp
 21322 9e56 2546     		mov r5, r4
 21323 9e58 2404     		lsls r4, r4, # 16
 21324 9e5a 240C     		lsrs r4, r4, # 16
 21325 9e5c 2D0C     		lsrs r5, r5, # 16
 21326 9e5e 6043     		muls r0, r0, r4
 21327 9e60 6143     		muls r1, r1, r4
 21328 9e62 6A43     		muls r2, r2, r5
 21329 9e64 6B43     		muls r3, r3, r5
 21330 9e66 8011     		asrs r0, r0, # 6
 21331 9e68 8911     		asrs r1, r1, # 6
 21332 9e6a 9211     		asrs r2, r2, # 6
 21333 9e6c 9B11     		asrs r3, r3, # 6
 21334 9e6e 8018     		adds r0, r0, r2         @r
 21335 9e70 C918     		adds r1, r1, r3         @i
 21336 9e72 3618     		adds r6, r6, r0
 21337 9e74 7F18     		adds r7, r7, r1
 21338              	
 21339 9e76 DD46     		mov sp, r11
 21340 9e78 0FBC     		pop {r0-r3}
 21341 9e7a EB46     		mov r11, sp
 21342 9e7c D546     		mov sp, r10
 21343 9e7e 10BC     		pop {r4}
 21344 9e80 EA46     		mov r10, sp
 21345 9e82 2546     		mov r5, r4
 21346 9e84 2404     		lsls r4, r4, # 16
 21347 9e86 240C     		lsrs r4, r4, # 16
 21348 9e88 2D0C     		lsrs r5, r5, # 16
 21349 9e8a 6043     		muls r0, r0, r4
 21350 9e8c 6143     		muls r1, r1, r4
 21351 9e8e 6A43     		muls r2, r2, r5
 21352 9e90 6B43     		muls r3, r3, r5
 21353 9e92 8011     		asrs r0, r0, # 6
 21354 9e94 8911     		asrs r1, r1, # 6
 21355 9e96 9211     		asrs r2, r2, # 6
 21356 9e98 9B11     		asrs r3, r3, # 6
 21357 9e9a 8018     		adds r0, r0, r2  @r
 21358 9e9c C918     		adds r1, r1, r3  @i
 21359 9e9e 3618     		adds r6, r6, r0
ARM GAS  1.s 			page 376


 21360 9ea0 7F18     		adds r7, r7, r1
 21361              	
 21362 9ea2 DD46     		mov sp, r11
 21363 9ea4 0FBC     		pop {r0-r3}
 21364 9ea6 EB46     		mov r11, sp
 21365 9ea8 D546     		mov sp, r10
 21366 9eaa 10BC     		pop {r4}
 21367 9eac EA46     		mov r10, sp
 21368 9eae 2546     		mov r5, r4
 21369 9eb0 2404     		lsls r4, r4, # 16
 21370 9eb2 240C     		lsrs r4, r4, # 16
 21371 9eb4 2D0C     		lsrs r5, r5, # 16
 21372 9eb6 6043     		muls r0, r0, r4
 21373 9eb8 6143     		muls r1, r1, r4
 21374 9eba 6A43     		muls r2, r2, r5
 21375 9ebc 6B43     		muls r3, r3, r5
 21376 9ebe 8011     		asrs r0, r0, # 6
 21377 9ec0 8911     		asrs r1, r1, # 6
 21378 9ec2 9211     		asrs r2, r2, # 6
 21379 9ec4 9B11     		asrs r3, r3, # 6
 21380 9ec6 8018     		adds r0, r0, r2         @r
 21381 9ec8 C918     		adds r1, r1, r3         @i
 21382 9eca 3618     		adds r6, r6, r0
 21383 9ecc 7F18     		adds r7, r7, r1
 21384              	
 21385              		@8
 21386 9ece DD46     		mov sp, r11
 21387 9ed0 0FBC     		pop {r0-r3}
 21388 9ed2 EB46     		mov r11, sp
 21389 9ed4 D546     		mov sp, r10
 21390 9ed6 10BC     		pop {r4}
 21391 9ed8 EA46     		mov r10, sp
 21392 9eda 2546     		mov r5, r4
 21393 9edc 2404     		lsls r4, r4, # 16
 21394 9ede 240C     		lsrs r4, r4, # 16
 21395 9ee0 2D0C     		lsrs r5, r5, # 16
 21396 9ee2 6043     		muls r0, r0, r4		@R
 21397 9ee4 6143     		muls r1, r1, r4		@I
 21398 9ee6 6A43     		muls r2, r2, r5		@R
 21399 9ee8 6B43     		muls r3, r3, r5		@I
 21400 9eea 8011     		asrs r0, r0, # 6
 21401 9eec 8911     		asrs r1, r1, # 6
 21402 9eee 9211     		asrs r2, r2, # 6
 21403 9ef0 9B11     		asrs r3, r3, # 6
 21404 9ef2 8018     		adds r0, r0, r2	 @r
 21405 9ef4 C918     		adds r1, r1, r3	 @i
 21406 9ef6 3618     		adds r6, r6, r0
 21407 9ef8 7F18     		adds r7, r7, r1
 21408              	
 21409 9efa DD46     		mov sp, r11
 21410 9efc 0FBC     		pop {r0-r3}
 21411 9efe EB46     		mov r11, sp
 21412 9f00 D546     		mov sp, r10
 21413 9f02 10BC     		pop {r4}
 21414 9f04 EA46     		mov r10, sp
 21415 9f06 2546     		mov r5, r4
 21416 9f08 2404     		lsls r4, r4, # 16
ARM GAS  1.s 			page 377


 21417 9f0a 240C     		lsrs r4, r4, # 16
 21418 9f0c 2D0C     		lsrs r5, r5, # 16
 21419 9f0e 6043     		muls r0, r0, r4
 21420 9f10 6143     		muls r1, r1, r4
 21421 9f12 6A43     		muls r2, r2, r5
 21422 9f14 6B43     		muls r3, r3, r5
 21423 9f16 8011     		asrs r0, r0, # 6
 21424 9f18 8911     		asrs r1, r1, # 6
 21425 9f1a 9211     		asrs r2, r2, # 6
 21426 9f1c 9B11     		asrs r3, r3, # 6
 21427 9f1e 8018     		adds r0, r0, r2         @r
 21428 9f20 C918     		adds r1, r1, r3         @i
 21429 9f22 3618     		adds r6, r6, r0
 21430 9f24 7F18     		adds r7, r7, r1
 21431              	
 21432 9f26 DD46     		mov sp, r11
 21433 9f28 0FBC     		pop {r0-r3}
 21434 9f2a EB46     		mov r11, sp
 21435 9f2c D546     		mov sp, r10
 21436 9f2e 10BC     		pop {r4}
 21437 9f30 EA46     		mov r10, sp
 21438 9f32 2546     		mov r5, r4
 21439 9f34 2404     		lsls r4, r4, # 16
 21440 9f36 240C     		lsrs r4, r4, # 16
 21441 9f38 2D0C     		lsrs r5, r5, # 16
 21442 9f3a 6043     		muls r0, r0, r4
 21443 9f3c 6143     		muls r1, r1, r4
 21444 9f3e 6A43     		muls r2, r2, r5
 21445 9f40 6B43     		muls r3, r3, r5
 21446 9f42 8011     		asrs r0, r0, # 6
 21447 9f44 8911     		asrs r1, r1, # 6
 21448 9f46 9211     		asrs r2, r2, # 6
 21449 9f48 9B11     		asrs r3, r3, # 6
 21450 9f4a 8018     		adds r0, r0, r2  @r
 21451 9f4c C918     		adds r1, r1, r3  @i
 21452 9f4e 3618     		adds r6, r6, r0
 21453 9f50 7F18     		adds r7, r7, r1
 21454              	
 21455 9f52 DD46     		mov sp, r11
 21456 9f54 0FBC     		pop {r0-r3}
 21457 9f56 EB46     		mov r11, sp
 21458 9f58 D546     		mov sp, r10
 21459 9f5a 10BC     		pop {r4}
 21460 9f5c EA46     		mov r10, sp
 21461 9f5e 2546     		mov r5, r4
 21462 9f60 2404     		lsls r4, r4, # 16
 21463 9f62 240C     		lsrs r4, r4, # 16
 21464 9f64 2D0C     		lsrs r5, r5, # 16
 21465 9f66 6043     		muls r0, r0, r4
 21466 9f68 6143     		muls r1, r1, r4
 21467 9f6a 6A43     		muls r2, r2, r5
 21468 9f6c 6B43     		muls r3, r3, r5
 21469 9f6e 8011     		asrs r0, r0, # 6
 21470 9f70 8911     		asrs r1, r1, # 6
 21471 9f72 9211     		asrs r2, r2, # 6
 21472 9f74 9B11     		asrs r3, r3, # 6
 21473 9f76 8018     		adds r0, r0, r2         @r
ARM GAS  1.s 			page 378


 21474 9f78 C918     		adds r1, r1, r3         @i
 21475 9f7a 3618     		adds r6, r6, r0
 21476 9f7c 7F18     		adds r7, r7, r1
 21477              	
 21478              		@9
 21479 9f7e DD46     		mov sp, r11
 21480 9f80 0FBC     		pop {r0-r3}
 21481 9f82 EB46     		mov r11, sp
 21482 9f84 D546     		mov sp, r10
 21483 9f86 10BC     		pop {r4}
 21484 9f88 EA46     		mov r10, sp
 21485 9f8a 2546     		mov r5, r4
 21486 9f8c 2404     		lsls r4, r4, # 16
 21487 9f8e 240C     		lsrs r4, r4, # 16
 21488 9f90 2D0C     		lsrs r5, r5, # 16
 21489 9f92 6043     		muls r0, r0, r4		@R
 21490 9f94 6143     		muls r1, r1, r4		@I
 21491 9f96 6A43     		muls r2, r2, r5		@R
 21492 9f98 6B43     		muls r3, r3, r5		@I
 21493 9f9a 8011     		asrs r0, r0, # 6
 21494 9f9c 8911     		asrs r1, r1, # 6
 21495 9f9e 9211     		asrs r2, r2, # 6
 21496 9fa0 9B11     		asrs r3, r3, # 6
 21497 9fa2 8018     		adds r0, r0, r2	 @r
 21498 9fa4 C918     		adds r1, r1, r3	 @i
 21499 9fa6 3618     		adds r6, r6, r0
 21500 9fa8 7F18     		adds r7, r7, r1
 21501              	
 21502 9faa DD46     		mov sp, r11
 21503 9fac 0FBC     		pop {r0-r3}
 21504 9fae EB46     		mov r11, sp
 21505 9fb0 D546     		mov sp, r10
 21506 9fb2 10BC     		pop {r4}
 21507 9fb4 EA46     		mov r10, sp
 21508 9fb6 2546     		mov r5, r4
 21509 9fb8 2404     		lsls r4, r4, # 16
 21510 9fba 240C     		lsrs r4, r4, # 16
 21511 9fbc 2D0C     		lsrs r5, r5, # 16
 21512 9fbe 6043     		muls r0, r0, r4
 21513 9fc0 6143     		muls r1, r1, r4
 21514 9fc2 6A43     		muls r2, r2, r5
 21515 9fc4 6B43     		muls r3, r3, r5
 21516 9fc6 8011     		asrs r0, r0, # 6
 21517 9fc8 8911     		asrs r1, r1, # 6
 21518 9fca 9211     		asrs r2, r2, # 6
 21519 9fcc 9B11     		asrs r3, r3, # 6
 21520 9fce 8018     		adds r0, r0, r2         @r
 21521 9fd0 C918     		adds r1, r1, r3         @i
 21522 9fd2 3618     		adds r6, r6, r0
 21523 9fd4 7F18     		adds r7, r7, r1
 21524              	
 21525 9fd6 DD46     		mov sp, r11
 21526 9fd8 0FBC     		pop {r0-r3}
 21527 9fda EB46     		mov r11, sp
 21528 9fdc D546     		mov sp, r10
 21529 9fde 10BC     		pop {r4}
 21530 9fe0 EA46     		mov r10, sp
ARM GAS  1.s 			page 379


 21531 9fe2 2546     		mov r5, r4
 21532 9fe4 2404     		lsls r4, r4, # 16
 21533 9fe6 240C     		lsrs r4, r4, # 16
 21534 9fe8 2D0C     		lsrs r5, r5, # 16
 21535 9fea 6043     		muls r0, r0, r4
 21536 9fec 6143     		muls r1, r1, r4
 21537 9fee 6A43     		muls r2, r2, r5
 21538 9ff0 6B43     		muls r3, r3, r5
 21539 9ff2 8011     		asrs r0, r0, # 6
 21540 9ff4 8911     		asrs r1, r1, # 6
 21541 9ff6 9211     		asrs r2, r2, # 6
 21542 9ff8 9B11     		asrs r3, r3, # 6
 21543 9ffa 8018     		adds r0, r0, r2  @r
 21544 9ffc C918     		adds r1, r1, r3  @i
 21545 9ffe 3618     		adds r6, r6, r0
 21546 a000 7F18     		adds r7, r7, r1
 21547              	
 21548 a002 DD46     		mov sp, r11
 21549 a004 0FBC     		pop {r0-r3}
 21550 a006 EB46     		mov r11, sp
 21551 a008 D546     		mov sp, r10
 21552 a00a 10BC     		pop {r4}
 21553 a00c EA46     		mov r10, sp
 21554 a00e 2546     		mov r5, r4
 21555 a010 2404     		lsls r4, r4, # 16
 21556 a012 240C     		lsrs r4, r4, # 16
 21557 a014 2D0C     		lsrs r5, r5, # 16
 21558 a016 6043     		muls r0, r0, r4
 21559 a018 6143     		muls r1, r1, r4
 21560 a01a 6A43     		muls r2, r2, r5
 21561 a01c 6B43     		muls r3, r3, r5
 21562 a01e 8011     		asrs r0, r0, # 6
 21563 a020 8911     		asrs r1, r1, # 6
 21564 a022 9211     		asrs r2, r2, # 6
 21565 a024 9B11     		asrs r3, r3, # 6
 21566 a026 8018     		adds r0, r0, r2         @r
 21567 a028 C918     		adds r1, r1, r3         @i
 21568 a02a 3618     		adds r6, r6, r0
 21569 a02c 7F18     		adds r7, r7, r1
 21570              	
 21571              	@yjm22
 21572              		@0
 21573 a02e DD46     		mov sp, r11
 21574 a030 0FBC     		pop {r0-r3}
 21575 a032 EB46     		mov r11, sp
 21576 a034 D546     		mov sp, r10
 21577 a036 10BC     		pop {r4}
 21578 a038 EA46     		mov r10, sp
 21579 a03a 2546     		mov r5, r4
 21580 a03c 2404     		lsls r4, r4, # 16
 21581 a03e 240C     		lsrs r4, r4, # 16
 21582 a040 2D0C     		lsrs r5, r5, # 16
 21583 a042 6043     		muls r0, r0, r4		@R
 21584 a044 6143     		muls r1, r1, r4		@I
 21585 a046 6A43     		muls r2, r2, r5		@R
 21586 a048 6B43     		muls r3, r3, r5		@I
 21587 a04a 8011     		asrs r0, r0, # 6
ARM GAS  1.s 			page 380


 21588 a04c 8911     		asrs r1, r1, # 6
 21589 a04e 9211     		asrs r2, r2, # 6
 21590 a050 9B11     		asrs r3, r3, # 6
 21591 a052 8018     		adds r0, r0, r2	 @r
 21592 a054 C918     		adds r1, r1, r3	 @i
 21593 a056 3618     		adds r6, r6, r0
 21594 a058 7F18     		adds r7, r7, r1
 21595              	
 21596 a05a DD46     		mov sp, r11
 21597 a05c 0FBC     		pop {r0-r3}
 21598 a05e EB46     		mov r11, sp
 21599 a060 D546     		mov sp, r10
 21600 a062 10BC     		pop {r4}
 21601 a064 EA46     		mov r10, sp
 21602 a066 2546     		mov r5, r4
 21603 a068 2404     		lsls r4, r4, # 16
 21604 a06a 240C     		lsrs r4, r4, # 16
 21605 a06c 2D0C     		lsrs r5, r5, # 16
 21606 a06e 6043     		muls r0, r0, r4
 21607 a070 6143     		muls r1, r1, r4
 21608 a072 6A43     		muls r2, r2, r5
 21609 a074 6B43     		muls r3, r3, r5
 21610 a076 8011     		asrs r0, r0, # 6
 21611 a078 8911     		asrs r1, r1, # 6
 21612 a07a 9211     		asrs r2, r2, # 6
 21613 a07c 9B11     		asrs r3, r3, # 6
 21614 a07e 8018     		adds r0, r0, r2         @r
 21615 a080 C918     		adds r1, r1, r3         @i
 21616 a082 3618     		adds r6, r6, r0
 21617 a084 7F18     		adds r7, r7, r1
 21618              	
 21619 a086 DD46     		mov sp, r11
 21620 a088 0FBC     		pop {r0-r3}
 21621 a08a EB46     		mov r11, sp
 21622 a08c D546     		mov sp, r10
 21623 a08e 10BC     		pop {r4}
 21624 a090 EA46     		mov r10, sp
 21625 a092 2546     		mov r5, r4
 21626 a094 2404     		lsls r4, r4, # 16
 21627 a096 240C     		lsrs r4, r4, # 16
 21628 a098 2D0C     		lsrs r5, r5, # 16
 21629 a09a 6043     		muls r0, r0, r4
 21630 a09c 6143     		muls r1, r1, r4
 21631 a09e 6A43     		muls r2, r2, r5
 21632 a0a0 6B43     		muls r3, r3, r5
 21633 a0a2 8011     		asrs r0, r0, # 6
 21634 a0a4 8911     		asrs r1, r1, # 6
 21635 a0a6 9211     		asrs r2, r2, # 6
 21636 a0a8 9B11     		asrs r3, r3, # 6
 21637 a0aa 8018     		adds r0, r0, r2  @r
 21638 a0ac C918     		adds r1, r1, r3  @i
 21639 a0ae 3618     		adds r6, r6, r0
 21640 a0b0 7F18     		adds r7, r7, r1
 21641              	
 21642 a0b2 DD46     		mov sp, r11
 21643 a0b4 0FBC     		pop {r0-r3}
 21644 a0b6 EB46     		mov r11, sp
ARM GAS  1.s 			page 381


 21645 a0b8 D546     		mov sp, r10
 21646 a0ba 10BC     		pop {r4}
 21647 a0bc EA46     		mov r10, sp
 21648 a0be 2546     		mov r5, r4
 21649 a0c0 2404     		lsls r4, r4, # 16
 21650 a0c2 240C     		lsrs r4, r4, # 16
 21651 a0c4 2D0C     		lsrs r5, r5, # 16
 21652 a0c6 6043     		muls r0, r0, r4
 21653 a0c8 6143     		muls r1, r1, r4
 21654 a0ca 6A43     		muls r2, r2, r5
 21655 a0cc 6B43     		muls r3, r3, r5
 21656 a0ce 8011     		asrs r0, r0, # 6
 21657 a0d0 8911     		asrs r1, r1, # 6
 21658 a0d2 9211     		asrs r2, r2, # 6
 21659 a0d4 9B11     		asrs r3, r3, # 6
 21660 a0d6 8018     		adds r0, r0, r2         @r
 21661 a0d8 C918     		adds r1, r1, r3         @i
 21662 a0da 3618     		adds r6, r6, r0
 21663 a0dc 7F18     		adds r7, r7, r1
 21664              	
 21665              		@1
 21666 a0de DD46     		mov sp, r11
 21667 a0e0 0FBC     		pop {r0-r3}
 21668 a0e2 EB46     		mov r11, sp
 21669 a0e4 D546     		mov sp, r10
 21670 a0e6 10BC     		pop {r4}
 21671 a0e8 EA46     		mov r10, sp
 21672 a0ea 2546     		mov r5, r4
 21673 a0ec 2404     		lsls r4, r4, # 16
 21674 a0ee 240C     		lsrs r4, r4, # 16
 21675 a0f0 2D0C     		lsrs r5, r5, # 16
 21676 a0f2 6043     		muls r0, r0, r4		@R
 21677 a0f4 6143     		muls r1, r1, r4		@I
 21678 a0f6 6A43     		muls r2, r2, r5		@R
 21679 a0f8 6B43     		muls r3, r3, r5		@I
 21680 a0fa 8011     		asrs r0, r0, # 6
 21681 a0fc 8911     		asrs r1, r1, # 6
 21682 a0fe 9211     		asrs r2, r2, # 6
 21683 a100 9B11     		asrs r3, r3, # 6
 21684 a102 8018     		adds r0, r0, r2	 @r
 21685 a104 C918     		adds r1, r1, r3	 @i
 21686 a106 3618     		adds r6, r6, r0
 21687 a108 7F18     		adds r7, r7, r1
 21688              	
 21689 a10a DD46     		mov sp, r11
 21690 a10c 0FBC     		pop {r0-r3}
 21691 a10e EB46     		mov r11, sp
 21692 a110 D546     		mov sp, r10
 21693 a112 10BC     		pop {r4}
 21694 a114 EA46     		mov r10, sp
 21695 a116 2546     		mov r5, r4
 21696 a118 2404     		lsls r4, r4, # 16
 21697 a11a 240C     		lsrs r4, r4, # 16
 21698 a11c 2D0C     		lsrs r5, r5, # 16
 21699 a11e 6043     		muls r0, r0, r4
 21700 a120 6143     		muls r1, r1, r4
 21701 a122 6A43     		muls r2, r2, r5
ARM GAS  1.s 			page 382


 21702 a124 6B43     		muls r3, r3, r5
 21703 a126 8011     		asrs r0, r0, # 6
 21704 a128 8911     		asrs r1, r1, # 6
 21705 a12a 9211     		asrs r2, r2, # 6
 21706 a12c 9B11     		asrs r3, r3, # 6
 21707 a12e 8018     		adds r0, r0, r2         @r
 21708 a130 C918     		adds r1, r1, r3         @i
 21709 a132 3618     		adds r6, r6, r0
 21710 a134 7F18     		adds r7, r7, r1
 21711              	
 21712 a136 DD46     		mov sp, r11
 21713 a138 0FBC     		pop {r0-r3}
 21714 a13a EB46     		mov r11, sp
 21715 a13c D546     		mov sp, r10
 21716 a13e 10BC     		pop {r4}
 21717 a140 EA46     		mov r10, sp
 21718 a142 2546     		mov r5, r4
 21719 a144 2404     		lsls r4, r4, # 16
 21720 a146 240C     		lsrs r4, r4, # 16
 21721 a148 2D0C     		lsrs r5, r5, # 16
 21722 a14a 6043     		muls r0, r0, r4
 21723 a14c 6143     		muls r1, r1, r4
 21724 a14e 6A43     		muls r2, r2, r5
 21725 a150 6B43     		muls r3, r3, r5
 21726 a152 8011     		asrs r0, r0, # 6
 21727 a154 8911     		asrs r1, r1, # 6
 21728 a156 9211     		asrs r2, r2, # 6
 21729 a158 9B11     		asrs r3, r3, # 6
 21730 a15a 8018     		adds r0, r0, r2  @r
 21731 a15c C918     		adds r1, r1, r3  @i
 21732 a15e 3618     		adds r6, r6, r0
 21733 a160 7F18     		adds r7, r7, r1
 21734              	
 21735 a162 DD46     		mov sp, r11
 21736 a164 0FBC     		pop {r0-r3}
 21737 a166 EB46     		mov r11, sp
 21738 a168 D546     		mov sp, r10
 21739 a16a 10BC     		pop {r4}
 21740 a16c EA46     		mov r10, sp
 21741 a16e 2546     		mov r5, r4
 21742 a170 2404     		lsls r4, r4, # 16
 21743 a172 240C     		lsrs r4, r4, # 16
 21744 a174 2D0C     		lsrs r5, r5, # 16
 21745 a176 6043     		muls r0, r0, r4
 21746 a178 6143     		muls r1, r1, r4
 21747 a17a 6A43     		muls r2, r2, r5
 21748 a17c 6B43     		muls r3, r3, r5
 21749 a17e 8011     		asrs r0, r0, # 6
 21750 a180 8911     		asrs r1, r1, # 6
 21751 a182 9211     		asrs r2, r2, # 6
 21752 a184 9B11     		asrs r3, r3, # 6
 21753 a186 8018     		adds r0, r0, r2         @r
 21754 a188 C918     		adds r1, r1, r3         @i
 21755 a18a 3618     		adds r6, r6, r0
 21756 a18c 7F18     		adds r7, r7, r1
 21757              	
 21758              		@2
ARM GAS  1.s 			page 383


 21759 a18e DD46     		mov sp, r11
 21760 a190 0FBC     		pop {r0-r3}
 21761 a192 EB46     		mov r11, sp
 21762 a194 D546     		mov sp, r10
 21763 a196 10BC     		pop {r4}
 21764 a198 EA46     		mov r10, sp
 21765 a19a 2546     		mov r5, r4
 21766 a19c 2404     		lsls r4, r4, # 16
 21767 a19e 240C     		lsrs r4, r4, # 16
 21768 a1a0 2D0C     		lsrs r5, r5, # 16
 21769 a1a2 6043     		muls r0, r0, r4		@R
 21770 a1a4 6143     		muls r1, r1, r4		@I
 21771 a1a6 6A43     		muls r2, r2, r5		@R
 21772 a1a8 6B43     		muls r3, r3, r5		@I
 21773 a1aa 8011     		asrs r0, r0, # 6
 21774 a1ac 8911     		asrs r1, r1, # 6
 21775 a1ae 9211     		asrs r2, r2, # 6
 21776 a1b0 9B11     		asrs r3, r3, # 6
 21777 a1b2 8018     		adds r0, r0, r2	 @r
 21778 a1b4 C918     		adds r1, r1, r3	 @i
 21779 a1b6 3618     		adds r6, r6, r0
 21780 a1b8 7F18     		adds r7, r7, r1
 21781              	
 21782 a1ba DD46     		mov sp, r11
 21783 a1bc 0FBC     		pop {r0-r3}
 21784 a1be EB46     		mov r11, sp
 21785 a1c0 D546     		mov sp, r10
 21786 a1c2 10BC     		pop {r4}
 21787 a1c4 EA46     		mov r10, sp
 21788 a1c6 2546     		mov r5, r4
 21789 a1c8 2404     		lsls r4, r4, # 16
 21790 a1ca 240C     		lsrs r4, r4, # 16
 21791 a1cc 2D0C     		lsrs r5, r5, # 16
 21792 a1ce 6043     		muls r0, r0, r4
 21793 a1d0 6143     		muls r1, r1, r4
 21794 a1d2 6A43     		muls r2, r2, r5
 21795 a1d4 6B43     		muls r3, r3, r5
 21796 a1d6 8011     		asrs r0, r0, # 6
 21797 a1d8 8911     		asrs r1, r1, # 6
 21798 a1da 9211     		asrs r2, r2, # 6
 21799 a1dc 9B11     		asrs r3, r3, # 6
 21800 a1de 8018     		adds r0, r0, r2         @r
 21801 a1e0 C918     		adds r1, r1, r3         @i
 21802 a1e2 3618     		adds r6, r6, r0
 21803 a1e4 7F18     		adds r7, r7, r1
 21804              	
 21805 a1e6 DD46     		mov sp, r11
 21806 a1e8 0FBC     		pop {r0-r3}
 21807 a1ea EB46     		mov r11, sp
 21808 a1ec D546     		mov sp, r10
 21809 a1ee 10BC     		pop {r4}
 21810 a1f0 EA46     		mov r10, sp
 21811 a1f2 2546     		mov r5, r4
 21812 a1f4 2404     		lsls r4, r4, # 16
 21813 a1f6 240C     		lsrs r4, r4, # 16
 21814 a1f8 2D0C     		lsrs r5, r5, # 16
 21815 a1fa 6043     		muls r0, r0, r4
ARM GAS  1.s 			page 384


 21816 a1fc 6143     		muls r1, r1, r4
 21817 a1fe 6A43     		muls r2, r2, r5
 21818 a200 6B43     		muls r3, r3, r5
 21819 a202 8011     		asrs r0, r0, # 6
 21820 a204 8911     		asrs r1, r1, # 6
 21821 a206 9211     		asrs r2, r2, # 6
 21822 a208 9B11     		asrs r3, r3, # 6
 21823 a20a 8018     		adds r0, r0, r2  @r
 21824 a20c C918     		adds r1, r1, r3  @i
 21825 a20e 3618     		adds r6, r6, r0
 21826 a210 7F18     		adds r7, r7, r1
 21827              	
 21828 a212 DD46     		mov sp, r11
 21829 a214 0FBC     		pop {r0-r3}
 21830 a216 EB46     		mov r11, sp
 21831 a218 D546     		mov sp, r10
 21832 a21a 10BC     		pop {r4}
 21833 a21c EA46     		mov r10, sp
 21834 a21e 2546     		mov r5, r4
 21835 a220 2404     		lsls r4, r4, # 16
 21836 a222 240C     		lsrs r4, r4, # 16
 21837 a224 2D0C     		lsrs r5, r5, # 16
 21838 a226 6043     		muls r0, r0, r4
 21839 a228 6143     		muls r1, r1, r4
 21840 a22a 6A43     		muls r2, r2, r5
 21841 a22c 6B43     		muls r3, r3, r5
 21842 a22e 8011     		asrs r0, r0, # 6
 21843 a230 8911     		asrs r1, r1, # 6
 21844 a232 9211     		asrs r2, r2, # 6
 21845 a234 9B11     		asrs r3, r3, # 6
 21846 a236 8018     		adds r0, r0, r2         @r
 21847 a238 C918     		adds r1, r1, r3         @i
 21848 a23a 3618     		adds r6, r6, r0
 21849 a23c 7F18     		adds r7, r7, r1
 21850              	
 21851              		@3
 21852 a23e DD46     		mov sp, r11
 21853 a240 0FBC     		pop {r0-r3}
 21854 a242 EB46     		mov r11, sp
 21855 a244 D546     		mov sp, r10
 21856 a246 10BC     		pop {r4}
 21857 a248 EA46     		mov r10, sp
 21858 a24a 2546     		mov r5, r4
 21859 a24c 2404     		lsls r4, r4, # 16
 21860 a24e 240C     		lsrs r4, r4, # 16
 21861 a250 2D0C     		lsrs r5, r5, # 16
 21862 a252 6043     		muls r0, r0, r4		@R
 21863 a254 6143     		muls r1, r1, r4		@I
 21864 a256 6A43     		muls r2, r2, r5		@R
 21865 a258 6B43     		muls r3, r3, r5		@I
 21866 a25a 8011     		asrs r0, r0, # 6
 21867 a25c 8911     		asrs r1, r1, # 6
 21868 a25e 9211     		asrs r2, r2, # 6
 21869 a260 9B11     		asrs r3, r3, # 6
 21870 a262 8018     		adds r0, r0, r2	 @r
 21871 a264 C918     		adds r1, r1, r3	 @i
 21872 a266 3618     		adds r6, r6, r0
ARM GAS  1.s 			page 385


 21873 a268 7F18     		adds r7, r7, r1
 21874              	
 21875 a26a DD46     		mov sp, r11
 21876 a26c 0FBC     		pop {r0-r3}
 21877 a26e EB46     		mov r11, sp
 21878 a270 D546     		mov sp, r10
 21879 a272 10BC     		pop {r4}
 21880 a274 EA46     		mov r10, sp
 21881 a276 2546     		mov r5, r4
 21882 a278 2404     		lsls r4, r4, # 16
 21883 a27a 240C     		lsrs r4, r4, # 16
 21884 a27c 2D0C     		lsrs r5, r5, # 16
 21885 a27e 6043     		muls r0, r0, r4
 21886 a280 6143     		muls r1, r1, r4
 21887 a282 6A43     		muls r2, r2, r5
 21888 a284 6B43     		muls r3, r3, r5
 21889 a286 8011     		asrs r0, r0, # 6
 21890 a288 8911     		asrs r1, r1, # 6
 21891 a28a 9211     		asrs r2, r2, # 6
 21892 a28c 9B11     		asrs r3, r3, # 6
 21893 a28e 8018     		adds r0, r0, r2         @r
 21894 a290 C918     		adds r1, r1, r3         @i
 21895 a292 3618     		adds r6, r6, r0
 21896 a294 7F18     		adds r7, r7, r1
 21897              	
 21898 a296 DD46     		mov sp, r11
 21899 a298 0FBC     		pop {r0-r3}
 21900 a29a EB46     		mov r11, sp
 21901 a29c D546     		mov sp, r10
 21902 a29e 10BC     		pop {r4}
 21903 a2a0 EA46     		mov r10, sp
 21904 a2a2 2546     		mov r5, r4
 21905 a2a4 2404     		lsls r4, r4, # 16
 21906 a2a6 240C     		lsrs r4, r4, # 16
 21907 a2a8 2D0C     		lsrs r5, r5, # 16
 21908 a2aa 6043     		muls r0, r0, r4
 21909 a2ac 6143     		muls r1, r1, r4
 21910 a2ae 6A43     		muls r2, r2, r5
 21911 a2b0 6B43     		muls r3, r3, r5
 21912 a2b2 8011     		asrs r0, r0, # 6
 21913 a2b4 8911     		asrs r1, r1, # 6
 21914 a2b6 9211     		asrs r2, r2, # 6
 21915 a2b8 9B11     		asrs r3, r3, # 6
 21916 a2ba 8018     		adds r0, r0, r2  @r
 21917 a2bc C918     		adds r1, r1, r3  @i
 21918 a2be 3618     		adds r6, r6, r0
 21919 a2c0 7F18     		adds r7, r7, r1
 21920              	
 21921 a2c2 DD46     		mov sp, r11
 21922 a2c4 0FBC     		pop {r0-r3}
 21923 a2c6 EB46     		mov r11, sp
 21924 a2c8 D546     		mov sp, r10
 21925 a2ca 10BC     		pop {r4}
 21926 a2cc EA46     		mov r10, sp
 21927 a2ce 2546     		mov r5, r4
 21928 a2d0 2404     		lsls r4, r4, # 16
 21929 a2d2 240C     		lsrs r4, r4, # 16
ARM GAS  1.s 			page 386


 21930 a2d4 2D0C     		lsrs r5, r5, # 16
 21931 a2d6 6043     		muls r0, r0, r4
 21932 a2d8 6143     		muls r1, r1, r4
 21933 a2da 6A43     		muls r2, r2, r5
 21934 a2dc 6B43     		muls r3, r3, r5
 21935 a2de 8011     		asrs r0, r0, # 6
 21936 a2e0 8911     		asrs r1, r1, # 6
 21937 a2e2 9211     		asrs r2, r2, # 6
 21938 a2e4 9B11     		asrs r3, r3, # 6
 21939 a2e6 8018     		adds r0, r0, r2         @r
 21940 a2e8 C918     		adds r1, r1, r3         @i
 21941 a2ea 3618     		adds r6, r6, r0
 21942 a2ec 7F18     		adds r7, r7, r1
 21943              	
 21944              		@4
 21945 a2ee DD46     		mov sp, r11
 21946 a2f0 0FBC     		pop {r0-r3}
 21947 a2f2 EB46     		mov r11, sp
 21948 a2f4 D546     		mov sp, r10
 21949 a2f6 10BC     		pop {r4}
 21950 a2f8 EA46     		mov r10, sp
 21951 a2fa 2546     		mov r5, r4
 21952 a2fc 2404     		lsls r4, r4, # 16
 21953 a2fe 240C     		lsrs r4, r4, # 16
 21954 a300 2D0C     		lsrs r5, r5, # 16
 21955 a302 6043     		muls r0, r0, r4		@R
 21956 a304 6143     		muls r1, r1, r4		@I
 21957 a306 6A43     		muls r2, r2, r5		@R
 21958 a308 6B43     		muls r3, r3, r5		@I
 21959 a30a 8011     		asrs r0, r0, # 6
 21960 a30c 8911     		asrs r1, r1, # 6
 21961 a30e 9211     		asrs r2, r2, # 6
 21962 a310 9B11     		asrs r3, r3, # 6
 21963 a312 8018     		adds r0, r0, r2	 @r
 21964 a314 C918     		adds r1, r1, r3	 @i
 21965 a316 3618     		adds r6, r6, r0
 21966 a318 7F18     		adds r7, r7, r1
 21967              	
 21968 a31a DD46     		mov sp, r11
 21969 a31c 0FBC     		pop {r0-r3}
 21970 a31e EB46     		mov r11, sp
 21971 a320 D546     		mov sp, r10
 21972 a322 10BC     		pop {r4}
 21973 a324 EA46     		mov r10, sp
 21974 a326 2546     		mov r5, r4
 21975 a328 2404     		lsls r4, r4, # 16
 21976 a32a 240C     		lsrs r4, r4, # 16
 21977 a32c 2D0C     		lsrs r5, r5, # 16
 21978 a32e 6043     		muls r0, r0, r4
 21979 a330 6143     		muls r1, r1, r4
 21980 a332 6A43     		muls r2, r2, r5
 21981 a334 6B43     		muls r3, r3, r5
 21982 a336 8011     		asrs r0, r0, # 6
 21983 a338 8911     		asrs r1, r1, # 6
 21984 a33a 9211     		asrs r2, r2, # 6
 21985 a33c 9B11     		asrs r3, r3, # 6
 21986 a33e 8018     		adds r0, r0, r2         @r
ARM GAS  1.s 			page 387


 21987 a340 C918     		adds r1, r1, r3         @i
 21988 a342 3618     		adds r6, r6, r0
 21989 a344 7F18     		adds r7, r7, r1
 21990              	
 21991 a346 DD46     		mov sp, r11
 21992 a348 0FBC     		pop {r0-r3}
 21993 a34a EB46     		mov r11, sp
 21994 a34c D546     		mov sp, r10
 21995 a34e 10BC     		pop {r4}
 21996 a350 EA46     		mov r10, sp
 21997 a352 2546     		mov r5, r4
 21998 a354 2404     		lsls r4, r4, # 16
 21999 a356 240C     		lsrs r4, r4, # 16
 22000 a358 2D0C     		lsrs r5, r5, # 16
 22001 a35a 6043     		muls r0, r0, r4
 22002 a35c 6143     		muls r1, r1, r4
 22003 a35e 6A43     		muls r2, r2, r5
 22004 a360 6B43     		muls r3, r3, r5
 22005 a362 8011     		asrs r0, r0, # 6
 22006 a364 8911     		asrs r1, r1, # 6
 22007 a366 9211     		asrs r2, r2, # 6
 22008 a368 9B11     		asrs r3, r3, # 6
 22009 a36a 8018     		adds r0, r0, r2  @r
 22010 a36c C918     		adds r1, r1, r3  @i
 22011 a36e 3618     		adds r6, r6, r0
 22012 a370 7F18     		adds r7, r7, r1
 22013              	
 22014 a372 DD46     		mov sp, r11
 22015 a374 0FBC     		pop {r0-r3}
 22016 a376 EB46     		mov r11, sp
 22017 a378 D546     		mov sp, r10
 22018 a37a 10BC     		pop {r4}
 22019 a37c EA46     		mov r10, sp
 22020 a37e 2546     		mov r5, r4
 22021 a380 2404     		lsls r4, r4, # 16
 22022 a382 240C     		lsrs r4, r4, # 16
 22023 a384 2D0C     		lsrs r5, r5, # 16
 22024 a386 6043     		muls r0, r0, r4
 22025 a388 6143     		muls r1, r1, r4
 22026 a38a 6A43     		muls r2, r2, r5
 22027 a38c 6B43     		muls r3, r3, r5
 22028 a38e 8011     		asrs r0, r0, # 6
 22029 a390 8911     		asrs r1, r1, # 6
 22030 a392 9211     		asrs r2, r2, # 6
 22031 a394 9B11     		asrs r3, r3, # 6
 22032 a396 8018     		adds r0, r0, r2         @r
 22033 a398 C918     		adds r1, r1, r3         @i
 22034 a39a 3618     		adds r6, r6, r0
 22035 a39c 7F18     		adds r7, r7, r1
 22036              	
 22037              		@5
 22038 a39e DD46     		mov sp, r11
 22039 a3a0 0FBC     		pop {r0-r3}
 22040 a3a2 EB46     		mov r11, sp
 22041 a3a4 D546     		mov sp, r10
 22042 a3a6 10BC     		pop {r4}
 22043 a3a8 EA46     		mov r10, sp
ARM GAS  1.s 			page 388


 22044 a3aa 2546     		mov r5, r4
 22045 a3ac 2404     		lsls r4, r4, # 16
 22046 a3ae 240C     		lsrs r4, r4, # 16
 22047 a3b0 2D0C     		lsrs r5, r5, # 16
 22048 a3b2 6043     		muls r0, r0, r4		@R
 22049 a3b4 6143     		muls r1, r1, r4		@I
 22050 a3b6 6A43     		muls r2, r2, r5		@R
 22051 a3b8 6B43     		muls r3, r3, r5		@I
 22052 a3ba 8011     		asrs r0, r0, # 6
 22053 a3bc 8911     		asrs r1, r1, # 6
 22054 a3be 9211     		asrs r2, r2, # 6
 22055 a3c0 9B11     		asrs r3, r3, # 6
 22056 a3c2 8018     		adds r0, r0, r2	 @r
 22057 a3c4 C918     		adds r1, r1, r3	 @i
 22058 a3c6 3618     		adds r6, r6, r0
 22059 a3c8 7F18     		adds r7, r7, r1
 22060              	
 22061 a3ca DD46     		mov sp, r11
 22062 a3cc 0FBC     		pop {r0-r3}
 22063 a3ce EB46     		mov r11, sp
 22064 a3d0 D546     		mov sp, r10
 22065 a3d2 10BC     		pop {r4}
 22066 a3d4 EA46     		mov r10, sp
 22067 a3d6 2546     		mov r5, r4
 22068 a3d8 2404     		lsls r4, r4, # 16
 22069 a3da 240C     		lsrs r4, r4, # 16
 22070 a3dc 2D0C     		lsrs r5, r5, # 16
 22071 a3de 6043     		muls r0, r0, r4
 22072 a3e0 6143     		muls r1, r1, r4
 22073 a3e2 6A43     		muls r2, r2, r5
 22074 a3e4 6B43     		muls r3, r3, r5
 22075 a3e6 8011     		asrs r0, r0, # 6
 22076 a3e8 8911     		asrs r1, r1, # 6
 22077 a3ea 9211     		asrs r2, r2, # 6
 22078 a3ec 9B11     		asrs r3, r3, # 6
 22079 a3ee 8018     		adds r0, r0, r2         @r
 22080 a3f0 C918     		adds r1, r1, r3         @i
 22081 a3f2 3618     		adds r6, r6, r0
 22082 a3f4 7F18     		adds r7, r7, r1
 22083              	
 22084 a3f6 DD46     		mov sp, r11
 22085 a3f8 0FBC     		pop {r0-r3}
 22086 a3fa EB46     		mov r11, sp
 22087 a3fc D546     		mov sp, r10
 22088 a3fe 10BC     		pop {r4}
 22089 a400 EA46     		mov r10, sp
 22090 a402 2546     		mov r5, r4
 22091 a404 2404     		lsls r4, r4, # 16
 22092 a406 240C     		lsrs r4, r4, # 16
 22093 a408 2D0C     		lsrs r5, r5, # 16
 22094 a40a 6043     		muls r0, r0, r4
 22095 a40c 6143     		muls r1, r1, r4
 22096 a40e 6A43     		muls r2, r2, r5
 22097 a410 6B43     		muls r3, r3, r5
 22098 a412 8011     		asrs r0, r0, # 6
 22099 a414 8911     		asrs r1, r1, # 6
 22100 a416 9211     		asrs r2, r2, # 6
ARM GAS  1.s 			page 389


 22101 a418 9B11     		asrs r3, r3, # 6
 22102 a41a 8018     		adds r0, r0, r2  @r
 22103 a41c C918     		adds r1, r1, r3  @i
 22104 a41e 3618     		adds r6, r6, r0
 22105 a420 7F18     		adds r7, r7, r1
 22106              	
 22107 a422 DD46     		mov sp, r11
 22108 a424 0FBC     		pop {r0-r3}
 22109 a426 EB46     		mov r11, sp
 22110 a428 D546     		mov sp, r10
 22111 a42a 10BC     		pop {r4}
 22112 a42c EA46     		mov r10, sp
 22113 a42e 2546     		mov r5, r4
 22114 a430 2404     		lsls r4, r4, # 16
 22115 a432 240C     		lsrs r4, r4, # 16
 22116 a434 2D0C     		lsrs r5, r5, # 16
 22117 a436 6043     		muls r0, r0, r4
 22118 a438 6143     		muls r1, r1, r4
 22119 a43a 6A43     		muls r2, r2, r5
 22120 a43c 6B43     		muls r3, r3, r5
 22121 a43e 8011     		asrs r0, r0, # 6
 22122 a440 8911     		asrs r1, r1, # 6
 22123 a442 9211     		asrs r2, r2, # 6
 22124 a444 9B11     		asrs r3, r3, # 6
 22125 a446 8018     		adds r0, r0, r2         @r
 22126 a448 C918     		adds r1, r1, r3         @i
 22127 a44a 3618     		adds r6, r6, r0
 22128 a44c 7F18     		adds r7, r7, r1
 22129              	
 22130              		@6
 22131 a44e DD46     		mov sp, r11
 22132 a450 0FBC     		pop {r0-r3}
 22133 a452 EB46     		mov r11, sp
 22134 a454 D546     		mov sp, r10
 22135 a456 10BC     		pop {r4}
 22136 a458 EA46     		mov r10, sp
 22137 a45a 2546     		mov r5, r4
 22138 a45c 2404     		lsls r4, r4, # 16
 22139 a45e 240C     		lsrs r4, r4, # 16
 22140 a460 2D0C     		lsrs r5, r5, # 16
 22141 a462 6043     		muls r0, r0, r4		@R
 22142 a464 6143     		muls r1, r1, r4		@I
 22143 a466 6A43     		muls r2, r2, r5		@R
 22144 a468 6B43     		muls r3, r3, r5		@I
 22145 a46a 8011     		asrs r0, r0, # 6
 22146 a46c 8911     		asrs r1, r1, # 6
 22147 a46e 9211     		asrs r2, r2, # 6
 22148 a470 9B11     		asrs r3, r3, # 6
 22149 a472 8018     		adds r0, r0, r2	 @r
 22150 a474 C918     		adds r1, r1, r3	 @i
 22151 a476 3618     		adds r6, r6, r0
 22152 a478 7F18     		adds r7, r7, r1
 22153              	
 22154 a47a DD46     		mov sp, r11
 22155 a47c 0FBC     		pop {r0-r3}
 22156 a47e EB46     		mov r11, sp
 22157 a480 D546     		mov sp, r10
ARM GAS  1.s 			page 390


 22158 a482 10BC     		pop {r4}
 22159 a484 EA46     		mov r10, sp
 22160 a486 2546     		mov r5, r4
 22161 a488 2404     		lsls r4, r4, # 16
 22162 a48a 240C     		lsrs r4, r4, # 16
 22163 a48c 2D0C     		lsrs r5, r5, # 16
 22164 a48e 6043     		muls r0, r0, r4
 22165 a490 6143     		muls r1, r1, r4
 22166 a492 6A43     		muls r2, r2, r5
 22167 a494 6B43     		muls r3, r3, r5
 22168 a496 8011     		asrs r0, r0, # 6
 22169 a498 8911     		asrs r1, r1, # 6
 22170 a49a 9211     		asrs r2, r2, # 6
 22171 a49c 9B11     		asrs r3, r3, # 6
 22172 a49e 8018     		adds r0, r0, r2         @r
 22173 a4a0 C918     		adds r1, r1, r3         @i
 22174 a4a2 3618     		adds r6, r6, r0
 22175 a4a4 7F18     		adds r7, r7, r1
 22176              	
 22177 a4a6 DD46     		mov sp, r11
 22178 a4a8 0FBC     		pop {r0-r3}
 22179 a4aa EB46     		mov r11, sp
 22180 a4ac D546     		mov sp, r10
 22181 a4ae 10BC     		pop {r4}
 22182 a4b0 EA46     		mov r10, sp
 22183 a4b2 2546     		mov r5, r4
 22184 a4b4 2404     		lsls r4, r4, # 16
 22185 a4b6 240C     		lsrs r4, r4, # 16
 22186 a4b8 2D0C     		lsrs r5, r5, # 16
 22187 a4ba 6043     		muls r0, r0, r4
 22188 a4bc 6143     		muls r1, r1, r4
 22189 a4be 6A43     		muls r2, r2, r5
 22190 a4c0 6B43     		muls r3, r3, r5
 22191 a4c2 8011     		asrs r0, r0, # 6
 22192 a4c4 8911     		asrs r1, r1, # 6
 22193 a4c6 9211     		asrs r2, r2, # 6
 22194 a4c8 9B11     		asrs r3, r3, # 6
 22195 a4ca 8018     		adds r0, r0, r2  @r
 22196 a4cc C918     		adds r1, r1, r3  @i
 22197 a4ce 3618     		adds r6, r6, r0
 22198 a4d0 7F18     		adds r7, r7, r1
 22199              	
 22200 a4d2 DD46     		mov sp, r11
 22201 a4d4 0FBC     		pop {r0-r3}
 22202 a4d6 EB46     		mov r11, sp
 22203 a4d8 D546     		mov sp, r10
 22204 a4da 10BC     		pop {r4}
 22205 a4dc EA46     		mov r10, sp
 22206 a4de 2546     		mov r5, r4
 22207 a4e0 2404     		lsls r4, r4, # 16
 22208 a4e2 240C     		lsrs r4, r4, # 16
 22209 a4e4 2D0C     		lsrs r5, r5, # 16
 22210 a4e6 6043     		muls r0, r0, r4
 22211 a4e8 6143     		muls r1, r1, r4
 22212 a4ea 6A43     		muls r2, r2, r5
 22213 a4ec 6B43     		muls r3, r3, r5
 22214 a4ee 8011     		asrs r0, r0, # 6
ARM GAS  1.s 			page 391


 22215 a4f0 8911     		asrs r1, r1, # 6
 22216 a4f2 9211     		asrs r2, r2, # 6
 22217 a4f4 9B11     		asrs r3, r3, # 6
 22218 a4f6 8018     		adds r0, r0, r2         @r
 22219 a4f8 C918     		adds r1, r1, r3         @i
 22220 a4fa 3618     		adds r6, r6, r0
 22221 a4fc 7F18     		adds r7, r7, r1
 22222              	
 22223              		@7
 22224 a4fe DD46     		mov sp, r11
 22225 a500 0FBC     		pop {r0-r3}
 22226 a502 EB46     		mov r11, sp
 22227 a504 D546     		mov sp, r10
 22228 a506 10BC     		pop {r4}
 22229 a508 EA46     		mov r10, sp
 22230 a50a 2546     		mov r5, r4
 22231 a50c 2404     		lsls r4, r4, # 16
 22232 a50e 240C     		lsrs r4, r4, # 16
 22233 a510 2D0C     		lsrs r5, r5, # 16
 22234 a512 6043     		muls r0, r0, r4		@R
 22235 a514 6143     		muls r1, r1, r4		@I
 22236 a516 6A43     		muls r2, r2, r5		@R
 22237 a518 6B43     		muls r3, r3, r5		@I
 22238 a51a 8011     		asrs r0, r0, # 6
 22239 a51c 8911     		asrs r1, r1, # 6
 22240 a51e 9211     		asrs r2, r2, # 6
 22241 a520 9B11     		asrs r3, r3, # 6
 22242 a522 8018     		adds r0, r0, r2	 @r
 22243 a524 C918     		adds r1, r1, r3	 @i
 22244 a526 3618     		adds r6, r6, r0
 22245 a528 7F18     		adds r7, r7, r1
 22246              	
 22247 a52a DD46     		mov sp, r11
 22248 a52c 0FBC     		pop {r0-r3}
 22249 a52e EB46     		mov r11, sp
 22250 a530 D546     		mov sp, r10
 22251 a532 10BC     		pop {r4}
 22252 a534 EA46     		mov r10, sp
 22253 a536 2546     		mov r5, r4
 22254 a538 2404     		lsls r4, r4, # 16
 22255 a53a 240C     		lsrs r4, r4, # 16
 22256 a53c 2D0C     		lsrs r5, r5, # 16
 22257 a53e 6043     		muls r0, r0, r4
 22258 a540 6143     		muls r1, r1, r4
 22259 a542 6A43     		muls r2, r2, r5
 22260 a544 6B43     		muls r3, r3, r5
 22261 a546 8011     		asrs r0, r0, # 6
 22262 a548 8911     		asrs r1, r1, # 6
 22263 a54a 9211     		asrs r2, r2, # 6
 22264 a54c 9B11     		asrs r3, r3, # 6
 22265 a54e 8018     		adds r0, r0, r2         @r
 22266 a550 C918     		adds r1, r1, r3         @i
 22267 a552 3618     		adds r6, r6, r0
 22268 a554 7F18     		adds r7, r7, r1
 22269              	
 22270 a556 DD46     		mov sp, r11
 22271 a558 0FBC     		pop {r0-r3}
ARM GAS  1.s 			page 392


 22272 a55a EB46     		mov r11, sp
 22273 a55c D546     		mov sp, r10
 22274 a55e 10BC     		pop {r4}
 22275 a560 EA46     		mov r10, sp
 22276 a562 2546     		mov r5, r4
 22277 a564 2404     		lsls r4, r4, # 16
 22278 a566 240C     		lsrs r4, r4, # 16
 22279 a568 2D0C     		lsrs r5, r5, # 16
 22280 a56a 6043     		muls r0, r0, r4
 22281 a56c 6143     		muls r1, r1, r4
 22282 a56e 6A43     		muls r2, r2, r5
 22283 a570 6B43     		muls r3, r3, r5
 22284 a572 8011     		asrs r0, r0, # 6
 22285 a574 8911     		asrs r1, r1, # 6
 22286 a576 9211     		asrs r2, r2, # 6
 22287 a578 9B11     		asrs r3, r3, # 6
 22288 a57a 8018     		adds r0, r0, r2  @r
 22289 a57c C918     		adds r1, r1, r3  @i
 22290 a57e 3618     		adds r6, r6, r0
 22291 a580 7F18     		adds r7, r7, r1
 22292              	
 22293 a582 DD46     		mov sp, r11
 22294 a584 0FBC     		pop {r0-r3}
 22295 a586 EB46     		mov r11, sp
 22296 a588 D546     		mov sp, r10
 22297 a58a 10BC     		pop {r4}
 22298 a58c EA46     		mov r10, sp
 22299 a58e 2546     		mov r5, r4
 22300 a590 2404     		lsls r4, r4, # 16
 22301 a592 240C     		lsrs r4, r4, # 16
 22302 a594 2D0C     		lsrs r5, r5, # 16
 22303 a596 6043     		muls r0, r0, r4
 22304 a598 6143     		muls r1, r1, r4
 22305 a59a 6A43     		muls r2, r2, r5
 22306 a59c 6B43     		muls r3, r3, r5
 22307 a59e 8011     		asrs r0, r0, # 6
 22308 a5a0 8911     		asrs r1, r1, # 6
 22309 a5a2 9211     		asrs r2, r2, # 6
 22310 a5a4 9B11     		asrs r3, r3, # 6
 22311 a5a6 8018     		adds r0, r0, r2         @r
 22312 a5a8 C918     		adds r1, r1, r3         @i
 22313 a5aa 3618     		adds r6, r6, r0
 22314 a5ac 7F18     		adds r7, r7, r1
 22315              	
 22316              		@8
 22317 a5ae DD46     		mov sp, r11
 22318 a5b0 0FBC     		pop {r0-r3}
 22319 a5b2 EB46     		mov r11, sp
 22320 a5b4 D546     		mov sp, r10
 22321 a5b6 10BC     		pop {r4}
 22322 a5b8 EA46     		mov r10, sp
 22323 a5ba 2546     		mov r5, r4
 22324 a5bc 2404     		lsls r4, r4, # 16
 22325 a5be 240C     		lsrs r4, r4, # 16
 22326 a5c0 2D0C     		lsrs r5, r5, # 16
 22327 a5c2 6043     		muls r0, r0, r4		@R
 22328 a5c4 6143     		muls r1, r1, r4		@I
ARM GAS  1.s 			page 393


 22329 a5c6 6A43     		muls r2, r2, r5		@R
 22330 a5c8 6B43     		muls r3, r3, r5		@I
 22331 a5ca 8011     		asrs r0, r0, # 6
 22332 a5cc 8911     		asrs r1, r1, # 6
 22333 a5ce 9211     		asrs r2, r2, # 6
 22334 a5d0 9B11     		asrs r3, r3, # 6
 22335 a5d2 8018     		adds r0, r0, r2	 @r
 22336 a5d4 C918     		adds r1, r1, r3	 @i
 22337 a5d6 3618     		adds r6, r6, r0
 22338 a5d8 7F18     		adds r7, r7, r1
 22339              	
 22340 a5da DD46     		mov sp, r11
 22341 a5dc 0FBC     		pop {r0-r3}
 22342 a5de EB46     		mov r11, sp
 22343 a5e0 D546     		mov sp, r10
 22344 a5e2 10BC     		pop {r4}
 22345 a5e4 EA46     		mov r10, sp
 22346 a5e6 2546     		mov r5, r4
 22347 a5e8 2404     		lsls r4, r4, # 16
 22348 a5ea 240C     		lsrs r4, r4, # 16
 22349 a5ec 2D0C     		lsrs r5, r5, # 16
 22350 a5ee 6043     		muls r0, r0, r4
 22351 a5f0 6143     		muls r1, r1, r4
 22352 a5f2 6A43     		muls r2, r2, r5
 22353 a5f4 6B43     		muls r3, r3, r5
 22354 a5f6 8011     		asrs r0, r0, # 6
 22355 a5f8 8911     		asrs r1, r1, # 6
 22356 a5fa 9211     		asrs r2, r2, # 6
 22357 a5fc 9B11     		asrs r3, r3, # 6
 22358 a5fe 8018     		adds r0, r0, r2         @r
 22359 a600 C918     		adds r1, r1, r3         @i
 22360 a602 3618     		adds r6, r6, r0
 22361 a604 7F18     		adds r7, r7, r1
 22362              	
 22363 a606 DD46     		mov sp, r11
 22364 a608 0FBC     		pop {r0-r3}
 22365 a60a EB46     		mov r11, sp
 22366 a60c D546     		mov sp, r10
 22367 a60e 10BC     		pop {r4}
 22368 a610 EA46     		mov r10, sp
 22369 a612 2546     		mov r5, r4
 22370 a614 2404     		lsls r4, r4, # 16
 22371 a616 240C     		lsrs r4, r4, # 16
 22372 a618 2D0C     		lsrs r5, r5, # 16
 22373 a61a 6043     		muls r0, r0, r4
 22374 a61c 6143     		muls r1, r1, r4
 22375 a61e 6A43     		muls r2, r2, r5
 22376 a620 6B43     		muls r3, r3, r5
 22377 a622 8011     		asrs r0, r0, # 6
 22378 a624 8911     		asrs r1, r1, # 6
 22379 a626 9211     		asrs r2, r2, # 6
 22380 a628 9B11     		asrs r3, r3, # 6
 22381 a62a 8018     		adds r0, r0, r2  @r
 22382 a62c C918     		adds r1, r1, r3  @i
 22383 a62e 3618     		adds r6, r6, r0
 22384 a630 7F18     		adds r7, r7, r1
 22385              	
ARM GAS  1.s 			page 394


 22386 a632 DD46     		mov sp, r11
 22387 a634 0FBC     		pop {r0-r3}
 22388 a636 EB46     		mov r11, sp
 22389 a638 D546     		mov sp, r10
 22390 a63a 10BC     		pop {r4}
 22391 a63c EA46     		mov r10, sp
 22392 a63e 2546     		mov r5, r4
 22393 a640 2404     		lsls r4, r4, # 16
 22394 a642 240C     		lsrs r4, r4, # 16
 22395 a644 2D0C     		lsrs r5, r5, # 16
 22396 a646 6043     		muls r0, r0, r4
 22397 a648 6143     		muls r1, r1, r4
 22398 a64a 6A43     		muls r2, r2, r5
 22399 a64c 6B43     		muls r3, r3, r5
 22400 a64e 8011     		asrs r0, r0, # 6
 22401 a650 8911     		asrs r1, r1, # 6
 22402 a652 9211     		asrs r2, r2, # 6
 22403 a654 9B11     		asrs r3, r3, # 6
 22404 a656 8018     		adds r0, r0, r2         @r
 22405 a658 C918     		adds r1, r1, r3         @i
 22406 a65a 3618     		adds r6, r6, r0
 22407 a65c 7F18     		adds r7, r7, r1
 22408              	
 22409              		@9
 22410 a65e DD46     		mov sp, r11
 22411 a660 0FBC     		pop {r0-r3}
 22412 a662 EB46     		mov r11, sp
 22413 a664 D546     		mov sp, r10
 22414 a666 10BC     		pop {r4}
 22415 a668 EA46     		mov r10, sp
 22416 a66a 2546     		mov r5, r4
 22417 a66c 2404     		lsls r4, r4, # 16
 22418 a66e 240C     		lsrs r4, r4, # 16
 22419 a670 2D0C     		lsrs r5, r5, # 16
 22420 a672 6043     		muls r0, r0, r4		@R
 22421 a674 6143     		muls r1, r1, r4		@I
 22422 a676 6A43     		muls r2, r2, r5		@R
 22423 a678 6B43     		muls r3, r3, r5		@I
 22424 a67a 8011     		asrs r0, r0, # 6
 22425 a67c 8911     		asrs r1, r1, # 6
 22426 a67e 9211     		asrs r2, r2, # 6
 22427 a680 9B11     		asrs r3, r3, # 6
 22428 a682 8018     		adds r0, r0, r2	 @r
 22429 a684 C918     		adds r1, r1, r3	 @i
 22430 a686 3618     		adds r6, r6, r0
 22431 a688 7F18     		adds r7, r7, r1
 22432              	
 22433 a68a DD46     		mov sp, r11
 22434 a68c 0FBC     		pop {r0-r3}
 22435 a68e EB46     		mov r11, sp
 22436 a690 D546     		mov sp, r10
 22437 a692 10BC     		pop {r4}
 22438 a694 EA46     		mov r10, sp
 22439 a696 2546     		mov r5, r4
 22440 a698 2404     		lsls r4, r4, # 16
 22441 a69a 240C     		lsrs r4, r4, # 16
 22442 a69c 2D0C     		lsrs r5, r5, # 16
ARM GAS  1.s 			page 395


 22443 a69e 6043     		muls r0, r0, r4
 22444 a6a0 6143     		muls r1, r1, r4
 22445 a6a2 6A43     		muls r2, r2, r5
 22446 a6a4 6B43     		muls r3, r3, r5
 22447 a6a6 8011     		asrs r0, r0, # 6
 22448 a6a8 8911     		asrs r1, r1, # 6
 22449 a6aa 9211     		asrs r2, r2, # 6
 22450 a6ac 9B11     		asrs r3, r3, # 6
 22451 a6ae 8018     		adds r0, r0, r2         @r
 22452 a6b0 C918     		adds r1, r1, r3         @i
 22453 a6b2 3618     		adds r6, r6, r0
 22454 a6b4 7F18     		adds r7, r7, r1
 22455              	
 22456 a6b6 DD46     		mov sp, r11
 22457 a6b8 0FBC     		pop {r0-r3}
 22458 a6ba EB46     		mov r11, sp
 22459 a6bc D546     		mov sp, r10
 22460 a6be 10BC     		pop {r4}
 22461 a6c0 EA46     		mov r10, sp
 22462 a6c2 2546     		mov r5, r4
 22463 a6c4 2404     		lsls r4, r4, # 16
 22464 a6c6 240C     		lsrs r4, r4, # 16
 22465 a6c8 2D0C     		lsrs r5, r5, # 16
 22466 a6ca 6043     		muls r0, r0, r4
 22467 a6cc 6143     		muls r1, r1, r4
 22468 a6ce 6A43     		muls r2, r2, r5
 22469 a6d0 6B43     		muls r3, r3, r5
 22470 a6d2 8011     		asrs r0, r0, # 6
 22471 a6d4 8911     		asrs r1, r1, # 6
 22472 a6d6 9211     		asrs r2, r2, # 6
 22473 a6d8 9B11     		asrs r3, r3, # 6
 22474 a6da 8018     		adds r0, r0, r2  @r
 22475 a6dc C918     		adds r1, r1, r3  @i
 22476 a6de 3618     		adds r6, r6, r0
 22477 a6e0 7F18     		adds r7, r7, r1
 22478              	
 22479 a6e2 DD46     		mov sp, r11
 22480 a6e4 0FBC     		pop {r0-r3}
 22481 a6e6 EB46     		mov r11, sp
 22482 a6e8 D546     		mov sp, r10
 22483 a6ea 10BC     		pop {r4}
 22484 a6ec EA46     		mov r10, sp
 22485 a6ee 2546     		mov r5, r4
 22486 a6f0 2404     		lsls r4, r4, # 16
 22487 a6f2 240C     		lsrs r4, r4, # 16
 22488 a6f4 2D0C     		lsrs r5, r5, # 16
 22489 a6f6 6043     		muls r0, r0, r4
 22490 a6f8 6143     		muls r1, r1, r4
 22491 a6fa 6A43     		muls r2, r2, r5
 22492 a6fc 6B43     		muls r3, r3, r5
 22493 a6fe 8011     		asrs r0, r0, # 6
 22494 a700 8911     		asrs r1, r1, # 6
 22495 a702 9211     		asrs r2, r2, # 6
 22496 a704 9B11     		asrs r3, r3, # 6
 22497 a706 8018     		adds r0, r0, r2         @r
 22498 a708 C918     		adds r1, r1, r3         @i
 22499 a70a 3618     		adds r6, r6, r0
ARM GAS  1.s 			page 396


 22500 a70c 7F18     		adds r7, r7, r1
 22501              	
 22502              	@yjm23
 22503              		@0
 22504 a70e DD46     		mov sp, r11
 22505 a710 0FBC     		pop {r0-r3}
 22506 a712 EB46     		mov r11, sp
 22507 a714 D546     		mov sp, r10
 22508 a716 10BC     		pop {r4}
 22509 a718 EA46     		mov r10, sp
 22510 a71a 2546     		mov r5, r4
 22511 a71c 2404     		lsls r4, r4, # 16
 22512 a71e 240C     		lsrs r4, r4, # 16
 22513 a720 2D0C     		lsrs r5, r5, # 16
 22514 a722 6043     		muls r0, r0, r4		@R
 22515 a724 6143     		muls r1, r1, r4		@I
 22516 a726 6A43     		muls r2, r2, r5		@R
 22517 a728 6B43     		muls r3, r3, r5		@I
 22518 a72a 8011     		asrs r0, r0, # 6
 22519 a72c 8911     		asrs r1, r1, # 6
 22520 a72e 9211     		asrs r2, r2, # 6
 22521 a730 9B11     		asrs r3, r3, # 6
 22522 a732 8018     		adds r0, r0, r2	 @r
 22523 a734 C918     		adds r1, r1, r3	 @i
 22524 a736 3618     		adds r6, r6, r0
 22525 a738 7F18     		adds r7, r7, r1
 22526              	
 22527 a73a DD46     		mov sp, r11
 22528 a73c 0FBC     		pop {r0-r3}
 22529 a73e EB46     		mov r11, sp
 22530 a740 D546     		mov sp, r10
 22531 a742 10BC     		pop {r4}
 22532 a744 EA46     		mov r10, sp
 22533 a746 2546     		mov r5, r4
 22534 a748 2404     		lsls r4, r4, # 16
 22535 a74a 240C     		lsrs r4, r4, # 16
 22536 a74c 2D0C     		lsrs r5, r5, # 16
 22537 a74e 6043     		muls r0, r0, r4
 22538 a750 6143     		muls r1, r1, r4
 22539 a752 6A43     		muls r2, r2, r5
 22540 a754 6B43     		muls r3, r3, r5
 22541 a756 8011     		asrs r0, r0, # 6
 22542 a758 8911     		asrs r1, r1, # 6
 22543 a75a 9211     		asrs r2, r2, # 6
 22544 a75c 9B11     		asrs r3, r3, # 6
 22545 a75e 8018     		adds r0, r0, r2         @r
 22546 a760 C918     		adds r1, r1, r3         @i
 22547 a762 3618     		adds r6, r6, r0
 22548 a764 7F18     		adds r7, r7, r1
 22549              	
 22550 a766 DD46     		mov sp, r11
 22551 a768 0FBC     		pop {r0-r3}
 22552 a76a EB46     		mov r11, sp
 22553 a76c D546     		mov sp, r10
 22554 a76e 10BC     		pop {r4}
 22555 a770 EA46     		mov r10, sp
 22556 a772 2546     		mov r5, r4
ARM GAS  1.s 			page 397


 22557 a774 2404     		lsls r4, r4, # 16
 22558 a776 240C     		lsrs r4, r4, # 16
 22559 a778 2D0C     		lsrs r5, r5, # 16
 22560 a77a 6043     		muls r0, r0, r4
 22561 a77c 6143     		muls r1, r1, r4
 22562 a77e 6A43     		muls r2, r2, r5
 22563 a780 6B43     		muls r3, r3, r5
 22564 a782 8011     		asrs r0, r0, # 6
 22565 a784 8911     		asrs r1, r1, # 6
 22566 a786 9211     		asrs r2, r2, # 6
 22567 a788 9B11     		asrs r3, r3, # 6
 22568 a78a 8018     		adds r0, r0, r2  @r
 22569 a78c C918     		adds r1, r1, r3  @i
 22570 a78e 3618     		adds r6, r6, r0
 22571 a790 7F18     		adds r7, r7, r1
 22572              	
 22573 a792 DD46     		mov sp, r11
 22574 a794 0FBC     		pop {r0-r3}
 22575 a796 EB46     		mov r11, sp
 22576 a798 D546     		mov sp, r10
 22577 a79a 10BC     		pop {r4}
 22578 a79c EA46     		mov r10, sp
 22579 a79e 2546     		mov r5, r4
 22580 a7a0 2404     		lsls r4, r4, # 16
 22581 a7a2 240C     		lsrs r4, r4, # 16
 22582 a7a4 2D0C     		lsrs r5, r5, # 16
 22583 a7a6 6043     		muls r0, r0, r4
 22584 a7a8 6143     		muls r1, r1, r4
 22585 a7aa 6A43     		muls r2, r2, r5
 22586 a7ac 6B43     		muls r3, r3, r5
 22587 a7ae 8011     		asrs r0, r0, # 6
 22588 a7b0 8911     		asrs r1, r1, # 6
 22589 a7b2 9211     		asrs r2, r2, # 6
 22590 a7b4 9B11     		asrs r3, r3, # 6
 22591 a7b6 8018     		adds r0, r0, r2         @r
 22592 a7b8 C918     		adds r1, r1, r3         @i
 22593 a7ba 3618     		adds r6, r6, r0
 22594 a7bc 7F18     		adds r7, r7, r1
 22595              	
 22596              		@1
 22597 a7be DD46     		mov sp, r11
 22598 a7c0 0FBC     		pop {r0-r3}
 22599 a7c2 EB46     		mov r11, sp
 22600 a7c4 D546     		mov sp, r10
 22601 a7c6 10BC     		pop {r4}
 22602 a7c8 EA46     		mov r10, sp
 22603 a7ca 2546     		mov r5, r4
 22604 a7cc 2404     		lsls r4, r4, # 16
 22605 a7ce 240C     		lsrs r4, r4, # 16
 22606 a7d0 2D0C     		lsrs r5, r5, # 16
 22607 a7d2 6043     		muls r0, r0, r4		@R
 22608 a7d4 6143     		muls r1, r1, r4		@I
 22609 a7d6 6A43     		muls r2, r2, r5		@R
 22610 a7d8 6B43     		muls r3, r3, r5		@I
 22611 a7da 8011     		asrs r0, r0, # 6
 22612 a7dc 8911     		asrs r1, r1, # 6
 22613 a7de 9211     		asrs r2, r2, # 6
ARM GAS  1.s 			page 398


 22614 a7e0 9B11     		asrs r3, r3, # 6
 22615 a7e2 8018     		adds r0, r0, r2	 @r
 22616 a7e4 C918     		adds r1, r1, r3	 @i
 22617 a7e6 3618     		adds r6, r6, r0
 22618 a7e8 7F18     		adds r7, r7, r1
 22619              	
 22620 a7ea DD46     		mov sp, r11
 22621 a7ec 0FBC     		pop {r0-r3}
 22622 a7ee EB46     		mov r11, sp
 22623 a7f0 D546     		mov sp, r10
 22624 a7f2 10BC     		pop {r4}
 22625 a7f4 EA46     		mov r10, sp
 22626 a7f6 2546     		mov r5, r4
 22627 a7f8 2404     		lsls r4, r4, # 16
 22628 a7fa 240C     		lsrs r4, r4, # 16
 22629 a7fc 2D0C     		lsrs r5, r5, # 16
 22630 a7fe 6043     		muls r0, r0, r4
 22631 a800 6143     		muls r1, r1, r4
 22632 a802 6A43     		muls r2, r2, r5
 22633 a804 6B43     		muls r3, r3, r5
 22634 a806 8011     		asrs r0, r0, # 6
 22635 a808 8911     		asrs r1, r1, # 6
 22636 a80a 9211     		asrs r2, r2, # 6
 22637 a80c 9B11     		asrs r3, r3, # 6
 22638 a80e 8018     		adds r0, r0, r2         @r
 22639 a810 C918     		adds r1, r1, r3         @i
 22640 a812 3618     		adds r6, r6, r0
 22641 a814 7F18     		adds r7, r7, r1
 22642              	
 22643 a816 DD46     		mov sp, r11
 22644 a818 0FBC     		pop {r0-r3}
 22645 a81a EB46     		mov r11, sp
 22646 a81c D546     		mov sp, r10
 22647 a81e 10BC     		pop {r4}
 22648 a820 EA46     		mov r10, sp
 22649 a822 2546     		mov r5, r4
 22650 a824 2404     		lsls r4, r4, # 16
 22651 a826 240C     		lsrs r4, r4, # 16
 22652 a828 2D0C     		lsrs r5, r5, # 16
 22653 a82a 6043     		muls r0, r0, r4
 22654 a82c 6143     		muls r1, r1, r4
 22655 a82e 6A43     		muls r2, r2, r5
 22656 a830 6B43     		muls r3, r3, r5
 22657 a832 8011     		asrs r0, r0, # 6
 22658 a834 8911     		asrs r1, r1, # 6
 22659 a836 9211     		asrs r2, r2, # 6
 22660 a838 9B11     		asrs r3, r3, # 6
 22661 a83a 8018     		adds r0, r0, r2  @r
 22662 a83c C918     		adds r1, r1, r3  @i
 22663 a83e 3618     		adds r6, r6, r0
 22664 a840 7F18     		adds r7, r7, r1
 22665              	
 22666 a842 DD46     		mov sp, r11
 22667 a844 0FBC     		pop {r0-r3}
 22668 a846 EB46     		mov r11, sp
 22669 a848 D546     		mov sp, r10
 22670 a84a 10BC     		pop {r4}
ARM GAS  1.s 			page 399


 22671 a84c EA46     		mov r10, sp
 22672 a84e 2546     		mov r5, r4
 22673 a850 2404     		lsls r4, r4, # 16
 22674 a852 240C     		lsrs r4, r4, # 16
 22675 a854 2D0C     		lsrs r5, r5, # 16
 22676 a856 6043     		muls r0, r0, r4
 22677 a858 6143     		muls r1, r1, r4
 22678 a85a 6A43     		muls r2, r2, r5
 22679 a85c 6B43     		muls r3, r3, r5
 22680 a85e 8011     		asrs r0, r0, # 6
 22681 a860 8911     		asrs r1, r1, # 6
 22682 a862 9211     		asrs r2, r2, # 6
 22683 a864 9B11     		asrs r3, r3, # 6
 22684 a866 8018     		adds r0, r0, r2         @r
 22685 a868 C918     		adds r1, r1, r3         @i
 22686 a86a 3618     		adds r6, r6, r0
 22687 a86c 7F18     		adds r7, r7, r1
 22688              	
 22689              		@2
 22690 a86e DD46     		mov sp, r11
 22691 a870 0FBC     		pop {r0-r3}
 22692 a872 EB46     		mov r11, sp
 22693 a874 D546     		mov sp, r10
 22694 a876 10BC     		pop {r4}
 22695 a878 EA46     		mov r10, sp
 22696 a87a 2546     		mov r5, r4
 22697 a87c 2404     		lsls r4, r4, # 16
 22698 a87e 240C     		lsrs r4, r4, # 16
 22699 a880 2D0C     		lsrs r5, r5, # 16
 22700 a882 6043     		muls r0, r0, r4		@R
 22701 a884 6143     		muls r1, r1, r4		@I
 22702 a886 6A43     		muls r2, r2, r5		@R
 22703 a888 6B43     		muls r3, r3, r5		@I
 22704 a88a 8011     		asrs r0, r0, # 6
 22705 a88c 8911     		asrs r1, r1, # 6
 22706 a88e 9211     		asrs r2, r2, # 6
 22707 a890 9B11     		asrs r3, r3, # 6
 22708 a892 8018     		adds r0, r0, r2	 @r
 22709 a894 C918     		adds r1, r1, r3	 @i
 22710 a896 3618     		adds r6, r6, r0
 22711 a898 7F18     		adds r7, r7, r1
 22712              	
 22713 a89a DD46     		mov sp, r11
 22714 a89c 0FBC     		pop {r0-r3}
 22715 a89e EB46     		mov r11, sp
 22716 a8a0 D546     		mov sp, r10
 22717 a8a2 10BC     		pop {r4}
 22718 a8a4 EA46     		mov r10, sp
 22719 a8a6 2546     		mov r5, r4
 22720 a8a8 2404     		lsls r4, r4, # 16
 22721 a8aa 240C     		lsrs r4, r4, # 16
 22722 a8ac 2D0C     		lsrs r5, r5, # 16
 22723 a8ae 6043     		muls r0, r0, r4
 22724 a8b0 6143     		muls r1, r1, r4
 22725 a8b2 6A43     		muls r2, r2, r5
 22726 a8b4 6B43     		muls r3, r3, r5
 22727 a8b6 8011     		asrs r0, r0, # 6
ARM GAS  1.s 			page 400


 22728 a8b8 8911     		asrs r1, r1, # 6
 22729 a8ba 9211     		asrs r2, r2, # 6
 22730 a8bc 9B11     		asrs r3, r3, # 6
 22731 a8be 8018     		adds r0, r0, r2         @r
 22732 a8c0 C918     		adds r1, r1, r3         @i
 22733 a8c2 3618     		adds r6, r6, r0
 22734 a8c4 7F18     		adds r7, r7, r1
 22735              	
 22736 a8c6 DD46     		mov sp, r11
 22737 a8c8 0FBC     		pop {r0-r3}
 22738 a8ca EB46     		mov r11, sp
 22739 a8cc D546     		mov sp, r10
 22740 a8ce 10BC     		pop {r4}
 22741 a8d0 EA46     		mov r10, sp
 22742 a8d2 2546     		mov r5, r4
 22743 a8d4 2404     		lsls r4, r4, # 16
 22744 a8d6 240C     		lsrs r4, r4, # 16
 22745 a8d8 2D0C     		lsrs r5, r5, # 16
 22746 a8da 6043     		muls r0, r0, r4
 22747 a8dc 6143     		muls r1, r1, r4
 22748 a8de 6A43     		muls r2, r2, r5
 22749 a8e0 6B43     		muls r3, r3, r5
 22750 a8e2 8011     		asrs r0, r0, # 6
 22751 a8e4 8911     		asrs r1, r1, # 6
 22752 a8e6 9211     		asrs r2, r2, # 6
 22753 a8e8 9B11     		asrs r3, r3, # 6
 22754 a8ea 8018     		adds r0, r0, r2  @r
 22755 a8ec C918     		adds r1, r1, r3  @i
 22756 a8ee 3618     		adds r6, r6, r0
 22757 a8f0 7F18     		adds r7, r7, r1
 22758              	
 22759 a8f2 DD46     		mov sp, r11
 22760 a8f4 0FBC     		pop {r0-r3}
 22761 a8f6 EB46     		mov r11, sp
 22762 a8f8 D546     		mov sp, r10
 22763 a8fa 10BC     		pop {r4}
 22764 a8fc EA46     		mov r10, sp
 22765 a8fe 2546     		mov r5, r4
 22766 a900 2404     		lsls r4, r4, # 16
 22767 a902 240C     		lsrs r4, r4, # 16
 22768 a904 2D0C     		lsrs r5, r5, # 16
 22769 a906 6043     		muls r0, r0, r4
 22770 a908 6143     		muls r1, r1, r4
 22771 a90a 6A43     		muls r2, r2, r5
 22772 a90c 6B43     		muls r3, r3, r5
 22773 a90e 8011     		asrs r0, r0, # 6
 22774 a910 8911     		asrs r1, r1, # 6
 22775 a912 9211     		asrs r2, r2, # 6
 22776 a914 9B11     		asrs r3, r3, # 6
 22777 a916 8018     		adds r0, r0, r2         @r
 22778 a918 C918     		adds r1, r1, r3         @i
 22779 a91a 3618     		adds r6, r6, r0
 22780 a91c 7F18     		adds r7, r7, r1
 22781              	
 22782              		@3
 22783 a91e DD46     		mov sp, r11
 22784 a920 0FBC     		pop {r0-r3}
ARM GAS  1.s 			page 401


 22785 a922 EB46     		mov r11, sp
 22786 a924 D546     		mov sp, r10
 22787 a926 10BC     		pop {r4}
 22788 a928 EA46     		mov r10, sp
 22789 a92a 2546     		mov r5, r4
 22790 a92c 2404     		lsls r4, r4, # 16
 22791 a92e 240C     		lsrs r4, r4, # 16
 22792 a930 2D0C     		lsrs r5, r5, # 16
 22793 a932 6043     		muls r0, r0, r4		@R
 22794 a934 6143     		muls r1, r1, r4		@I
 22795 a936 6A43     		muls r2, r2, r5		@R
 22796 a938 6B43     		muls r3, r3, r5		@I
 22797 a93a 8011     		asrs r0, r0, # 6
 22798 a93c 8911     		asrs r1, r1, # 6
 22799 a93e 9211     		asrs r2, r2, # 6
 22800 a940 9B11     		asrs r3, r3, # 6
 22801 a942 8018     		adds r0, r0, r2	 @r
 22802 a944 C918     		adds r1, r1, r3	 @i
 22803 a946 3618     		adds r6, r6, r0
 22804 a948 7F18     		adds r7, r7, r1
 22805              	
 22806 a94a DD46     		mov sp, r11
 22807 a94c 0FBC     		pop {r0-r3}
 22808 a94e EB46     		mov r11, sp
 22809 a950 D546     		mov sp, r10
 22810 a952 10BC     		pop {r4}
 22811 a954 EA46     		mov r10, sp
 22812 a956 2546     		mov r5, r4
 22813 a958 2404     		lsls r4, r4, # 16
 22814 a95a 240C     		lsrs r4, r4, # 16
 22815 a95c 2D0C     		lsrs r5, r5, # 16
 22816 a95e 6043     		muls r0, r0, r4
 22817 a960 6143     		muls r1, r1, r4
 22818 a962 6A43     		muls r2, r2, r5
 22819 a964 6B43     		muls r3, r3, r5
 22820 a966 8011     		asrs r0, r0, # 6
 22821 a968 8911     		asrs r1, r1, # 6
 22822 a96a 9211     		asrs r2, r2, # 6
 22823 a96c 9B11     		asrs r3, r3, # 6
 22824 a96e 8018     		adds r0, r0, r2         @r
 22825 a970 C918     		adds r1, r1, r3         @i
 22826 a972 3618     		adds r6, r6, r0
 22827 a974 7F18     		adds r7, r7, r1
 22828              	
 22829 a976 DD46     		mov sp, r11
 22830 a978 0FBC     		pop {r0-r3}
 22831 a97a EB46     		mov r11, sp
 22832 a97c D546     		mov sp, r10
 22833 a97e 10BC     		pop {r4}
 22834 a980 EA46     		mov r10, sp
 22835 a982 2546     		mov r5, r4
 22836 a984 2404     		lsls r4, r4, # 16
 22837 a986 240C     		lsrs r4, r4, # 16
 22838 a988 2D0C     		lsrs r5, r5, # 16
 22839 a98a 6043     		muls r0, r0, r4
 22840 a98c 6143     		muls r1, r1, r4
 22841 a98e 6A43     		muls r2, r2, r5
ARM GAS  1.s 			page 402


 22842 a990 6B43     		muls r3, r3, r5
 22843 a992 8011     		asrs r0, r0, # 6
 22844 a994 8911     		asrs r1, r1, # 6
 22845 a996 9211     		asrs r2, r2, # 6
 22846 a998 9B11     		asrs r3, r3, # 6
 22847 a99a 8018     		adds r0, r0, r2  @r
 22848 a99c C918     		adds r1, r1, r3  @i
 22849 a99e 3618     		adds r6, r6, r0
 22850 a9a0 7F18     		adds r7, r7, r1
 22851              	
 22852 a9a2 DD46     		mov sp, r11
 22853 a9a4 0FBC     		pop {r0-r3}
 22854 a9a6 EB46     		mov r11, sp
 22855 a9a8 D546     		mov sp, r10
 22856 a9aa 10BC     		pop {r4}
 22857 a9ac EA46     		mov r10, sp
 22858 a9ae 2546     		mov r5, r4
 22859 a9b0 2404     		lsls r4, r4, # 16
 22860 a9b2 240C     		lsrs r4, r4, # 16
 22861 a9b4 2D0C     		lsrs r5, r5, # 16
 22862 a9b6 6043     		muls r0, r0, r4
 22863 a9b8 6143     		muls r1, r1, r4
 22864 a9ba 6A43     		muls r2, r2, r5
 22865 a9bc 6B43     		muls r3, r3, r5
 22866 a9be 8011     		asrs r0, r0, # 6
 22867 a9c0 8911     		asrs r1, r1, # 6
 22868 a9c2 9211     		asrs r2, r2, # 6
 22869 a9c4 9B11     		asrs r3, r3, # 6
 22870 a9c6 8018     		adds r0, r0, r2         @r
 22871 a9c8 C918     		adds r1, r1, r3         @i
 22872 a9ca 3618     		adds r6, r6, r0
 22873 a9cc 7F18     		adds r7, r7, r1
 22874              	
 22875              		@4
 22876 a9ce DD46     		mov sp, r11
 22877 a9d0 0FBC     		pop {r0-r3}
 22878 a9d2 EB46     		mov r11, sp
 22879 a9d4 D546     		mov sp, r10
 22880 a9d6 10BC     		pop {r4}
 22881 a9d8 EA46     		mov r10, sp
 22882 a9da 2546     		mov r5, r4
 22883 a9dc 2404     		lsls r4, r4, # 16
 22884 a9de 240C     		lsrs r4, r4, # 16
 22885 a9e0 2D0C     		lsrs r5, r5, # 16
 22886 a9e2 6043     		muls r0, r0, r4		@R
 22887 a9e4 6143     		muls r1, r1, r4		@I
 22888 a9e6 6A43     		muls r2, r2, r5		@R
 22889 a9e8 6B43     		muls r3, r3, r5		@I
 22890 a9ea 8011     		asrs r0, r0, # 6
 22891 a9ec 8911     		asrs r1, r1, # 6
 22892 a9ee 9211     		asrs r2, r2, # 6
 22893 a9f0 9B11     		asrs r3, r3, # 6
 22894 a9f2 8018     		adds r0, r0, r2	 @r
 22895 a9f4 C918     		adds r1, r1, r3	 @i
 22896 a9f6 3618     		adds r6, r6, r0
 22897 a9f8 7F18     		adds r7, r7, r1
 22898              	
ARM GAS  1.s 			page 403


 22899 a9fa DD46     		mov sp, r11
 22900 a9fc 0FBC     		pop {r0-r3}
 22901 a9fe EB46     		mov r11, sp
 22902 aa00 D546     		mov sp, r10
 22903 aa02 10BC     		pop {r4}
 22904 aa04 EA46     		mov r10, sp
 22905 aa06 2546     		mov r5, r4
 22906 aa08 2404     		lsls r4, r4, # 16
 22907 aa0a 240C     		lsrs r4, r4, # 16
 22908 aa0c 2D0C     		lsrs r5, r5, # 16
 22909 aa0e 6043     		muls r0, r0, r4
 22910 aa10 6143     		muls r1, r1, r4
 22911 aa12 6A43     		muls r2, r2, r5
 22912 aa14 6B43     		muls r3, r3, r5
 22913 aa16 8011     		asrs r0, r0, # 6
 22914 aa18 8911     		asrs r1, r1, # 6
 22915 aa1a 9211     		asrs r2, r2, # 6
 22916 aa1c 9B11     		asrs r3, r3, # 6
 22917 aa1e 8018     		adds r0, r0, r2         @r
 22918 aa20 C918     		adds r1, r1, r3         @i
 22919 aa22 3618     		adds r6, r6, r0
 22920 aa24 7F18     		adds r7, r7, r1
 22921              	
 22922 aa26 DD46     		mov sp, r11
 22923 aa28 0FBC     		pop {r0-r3}
 22924 aa2a EB46     		mov r11, sp
 22925 aa2c D546     		mov sp, r10
 22926 aa2e 10BC     		pop {r4}
 22927 aa30 EA46     		mov r10, sp
 22928 aa32 2546     		mov r5, r4
 22929 aa34 2404     		lsls r4, r4, # 16
 22930 aa36 240C     		lsrs r4, r4, # 16
 22931 aa38 2D0C     		lsrs r5, r5, # 16
 22932 aa3a 6043     		muls r0, r0, r4
 22933 aa3c 6143     		muls r1, r1, r4
 22934 aa3e 6A43     		muls r2, r2, r5
 22935 aa40 6B43     		muls r3, r3, r5
 22936 aa42 8011     		asrs r0, r0, # 6
 22937 aa44 8911     		asrs r1, r1, # 6
 22938 aa46 9211     		asrs r2, r2, # 6
 22939 aa48 9B11     		asrs r3, r3, # 6
 22940 aa4a 8018     		adds r0, r0, r2  @r
 22941 aa4c C918     		adds r1, r1, r3  @i
 22942 aa4e 3618     		adds r6, r6, r0
 22943 aa50 7F18     		adds r7, r7, r1
 22944              	
 22945 aa52 DD46     		mov sp, r11
 22946 aa54 0FBC     		pop {r0-r3}
 22947 aa56 EB46     		mov r11, sp
 22948 aa58 D546     		mov sp, r10
 22949 aa5a 10BC     		pop {r4}
 22950 aa5c EA46     		mov r10, sp
 22951 aa5e 2546     		mov r5, r4
 22952 aa60 2404     		lsls r4, r4, # 16
 22953 aa62 240C     		lsrs r4, r4, # 16
 22954 aa64 2D0C     		lsrs r5, r5, # 16
 22955 aa66 6043     		muls r0, r0, r4
ARM GAS  1.s 			page 404


 22956 aa68 6143     		muls r1, r1, r4
 22957 aa6a 6A43     		muls r2, r2, r5
 22958 aa6c 6B43     		muls r3, r3, r5
 22959 aa6e 8011     		asrs r0, r0, # 6
 22960 aa70 8911     		asrs r1, r1, # 6
 22961 aa72 9211     		asrs r2, r2, # 6
 22962 aa74 9B11     		asrs r3, r3, # 6
 22963 aa76 8018     		adds r0, r0, r2         @r
 22964 aa78 C918     		adds r1, r1, r3         @i
 22965 aa7a 3618     		adds r6, r6, r0
 22966 aa7c 7F18     		adds r7, r7, r1
 22967              	
 22968              		@5
 22969 aa7e DD46     		mov sp, r11
 22970 aa80 0FBC     		pop {r0-r3}
 22971 aa82 EB46     		mov r11, sp
 22972 aa84 D546     		mov sp, r10
 22973 aa86 10BC     		pop {r4}
 22974 aa88 EA46     		mov r10, sp
 22975 aa8a 2546     		mov r5, r4
 22976 aa8c 2404     		lsls r4, r4, # 16
 22977 aa8e 240C     		lsrs r4, r4, # 16
 22978 aa90 2D0C     		lsrs r5, r5, # 16
 22979 aa92 6043     		muls r0, r0, r4		@R
 22980 aa94 6143     		muls r1, r1, r4		@I
 22981 aa96 6A43     		muls r2, r2, r5		@R
 22982 aa98 6B43     		muls r3, r3, r5		@I
 22983 aa9a 8011     		asrs r0, r0, # 6
 22984 aa9c 8911     		asrs r1, r1, # 6
 22985 aa9e 9211     		asrs r2, r2, # 6
 22986 aaa0 9B11     		asrs r3, r3, # 6
 22987 aaa2 8018     		adds r0, r0, r2	 @r
 22988 aaa4 C918     		adds r1, r1, r3	 @i
 22989 aaa6 3618     		adds r6, r6, r0
 22990 aaa8 7F18     		adds r7, r7, r1
 22991              	
 22992 aaaa DD46     		mov sp, r11
 22993 aaac 0FBC     		pop {r0-r3}
 22994 aaae EB46     		mov r11, sp
 22995 aab0 D546     		mov sp, r10
 22996 aab2 10BC     		pop {r4}
 22997 aab4 EA46     		mov r10, sp
 22998 aab6 2546     		mov r5, r4
 22999 aab8 2404     		lsls r4, r4, # 16
 23000 aaba 240C     		lsrs r4, r4, # 16
 23001 aabc 2D0C     		lsrs r5, r5, # 16
 23002 aabe 6043     		muls r0, r0, r4
 23003 aac0 6143     		muls r1, r1, r4
 23004 aac2 6A43     		muls r2, r2, r5
 23005 aac4 6B43     		muls r3, r3, r5
 23006 aac6 8011     		asrs r0, r0, # 6
 23007 aac8 8911     		asrs r1, r1, # 6
 23008 aaca 9211     		asrs r2, r2, # 6
 23009 aacc 9B11     		asrs r3, r3, # 6
 23010 aace 8018     		adds r0, r0, r2         @r
 23011 aad0 C918     		adds r1, r1, r3         @i
 23012 aad2 3618     		adds r6, r6, r0
ARM GAS  1.s 			page 405


 23013 aad4 7F18     		adds r7, r7, r1
 23014              	
 23015 aad6 DD46     		mov sp, r11
 23016 aad8 0FBC     		pop {r0-r3}
 23017 aada EB46     		mov r11, sp
 23018 aadc D546     		mov sp, r10
 23019 aade 10BC     		pop {r4}
 23020 aae0 EA46     		mov r10, sp
 23021 aae2 2546     		mov r5, r4
 23022 aae4 2404     		lsls r4, r4, # 16
 23023 aae6 240C     		lsrs r4, r4, # 16
 23024 aae8 2D0C     		lsrs r5, r5, # 16
 23025 aaea 6043     		muls r0, r0, r4
 23026 aaec 6143     		muls r1, r1, r4
 23027 aaee 6A43     		muls r2, r2, r5
 23028 aaf0 6B43     		muls r3, r3, r5
 23029 aaf2 8011     		asrs r0, r0, # 6
 23030 aaf4 8911     		asrs r1, r1, # 6
 23031 aaf6 9211     		asrs r2, r2, # 6
 23032 aaf8 9B11     		asrs r3, r3, # 6
 23033 aafa 8018     		adds r0, r0, r2  @r
 23034 aafc C918     		adds r1, r1, r3  @i
 23035 aafe 3618     		adds r6, r6, r0
 23036 ab00 7F18     		adds r7, r7, r1
 23037              	
 23038 ab02 DD46     		mov sp, r11
 23039 ab04 0FBC     		pop {r0-r3}
 23040 ab06 EB46     		mov r11, sp
 23041 ab08 D546     		mov sp, r10
 23042 ab0a 10BC     		pop {r4}
 23043 ab0c EA46     		mov r10, sp
 23044 ab0e 2546     		mov r5, r4
 23045 ab10 2404     		lsls r4, r4, # 16
 23046 ab12 240C     		lsrs r4, r4, # 16
 23047 ab14 2D0C     		lsrs r5, r5, # 16
 23048 ab16 6043     		muls r0, r0, r4
 23049 ab18 6143     		muls r1, r1, r4
 23050 ab1a 6A43     		muls r2, r2, r5
 23051 ab1c 6B43     		muls r3, r3, r5
 23052 ab1e 8011     		asrs r0, r0, # 6
 23053 ab20 8911     		asrs r1, r1, # 6
 23054 ab22 9211     		asrs r2, r2, # 6
 23055 ab24 9B11     		asrs r3, r3, # 6
 23056 ab26 8018     		adds r0, r0, r2         @r
 23057 ab28 C918     		adds r1, r1, r3         @i
 23058 ab2a 3618     		adds r6, r6, r0
 23059 ab2c 7F18     		adds r7, r7, r1
 23060              	
 23061              		@6
 23062 ab2e DD46     		mov sp, r11
 23063 ab30 0FBC     		pop {r0-r3}
 23064 ab32 EB46     		mov r11, sp
 23065 ab34 D546     		mov sp, r10
 23066 ab36 10BC     		pop {r4}
 23067 ab38 EA46     		mov r10, sp
 23068 ab3a 2546     		mov r5, r4
 23069 ab3c 2404     		lsls r4, r4, # 16
ARM GAS  1.s 			page 406


 23070 ab3e 240C     		lsrs r4, r4, # 16
 23071 ab40 2D0C     		lsrs r5, r5, # 16
 23072 ab42 6043     		muls r0, r0, r4		@R
 23073 ab44 6143     		muls r1, r1, r4		@I
 23074 ab46 6A43     		muls r2, r2, r5		@R
 23075 ab48 6B43     		muls r3, r3, r5		@I
 23076 ab4a 8011     		asrs r0, r0, # 6
 23077 ab4c 8911     		asrs r1, r1, # 6
 23078 ab4e 9211     		asrs r2, r2, # 6
 23079 ab50 9B11     		asrs r3, r3, # 6
 23080 ab52 8018     		adds r0, r0, r2	 @r
 23081 ab54 C918     		adds r1, r1, r3	 @i
 23082 ab56 3618     		adds r6, r6, r0
 23083 ab58 7F18     		adds r7, r7, r1
 23084              	
 23085 ab5a DD46     		mov sp, r11
 23086 ab5c 0FBC     		pop {r0-r3}
 23087 ab5e EB46     		mov r11, sp
 23088 ab60 D546     		mov sp, r10
 23089 ab62 10BC     		pop {r4}
 23090 ab64 EA46     		mov r10, sp
 23091 ab66 2546     		mov r5, r4
 23092 ab68 2404     		lsls r4, r4, # 16
 23093 ab6a 240C     		lsrs r4, r4, # 16
 23094 ab6c 2D0C     		lsrs r5, r5, # 16
 23095 ab6e 6043     		muls r0, r0, r4
 23096 ab70 6143     		muls r1, r1, r4
 23097 ab72 6A43     		muls r2, r2, r5
 23098 ab74 6B43     		muls r3, r3, r5
 23099 ab76 8011     		asrs r0, r0, # 6
 23100 ab78 8911     		asrs r1, r1, # 6
 23101 ab7a 9211     		asrs r2, r2, # 6
 23102 ab7c 9B11     		asrs r3, r3, # 6
 23103 ab7e 8018     		adds r0, r0, r2         @r
 23104 ab80 C918     		adds r1, r1, r3         @i
 23105 ab82 3618     		adds r6, r6, r0
 23106 ab84 7F18     		adds r7, r7, r1
 23107              	
 23108 ab86 DD46     		mov sp, r11
 23109 ab88 0FBC     		pop {r0-r3}
 23110 ab8a EB46     		mov r11, sp
 23111 ab8c D546     		mov sp, r10
 23112 ab8e 10BC     		pop {r4}
 23113 ab90 EA46     		mov r10, sp
 23114 ab92 2546     		mov r5, r4
 23115 ab94 2404     		lsls r4, r4, # 16
 23116 ab96 240C     		lsrs r4, r4, # 16
 23117 ab98 2D0C     		lsrs r5, r5, # 16
 23118 ab9a 6043     		muls r0, r0, r4
 23119 ab9c 6143     		muls r1, r1, r4
 23120 ab9e 6A43     		muls r2, r2, r5
 23121 aba0 6B43     		muls r3, r3, r5
 23122 aba2 8011     		asrs r0, r0, # 6
 23123 aba4 8911     		asrs r1, r1, # 6
 23124 aba6 9211     		asrs r2, r2, # 6
 23125 aba8 9B11     		asrs r3, r3, # 6
 23126 abaa 8018     		adds r0, r0, r2  @r
ARM GAS  1.s 			page 407


 23127 abac C918     		adds r1, r1, r3  @i
 23128 abae 3618     		adds r6, r6, r0
 23129 abb0 7F18     		adds r7, r7, r1
 23130              	
 23131 abb2 DD46     		mov sp, r11
 23132 abb4 0FBC     		pop {r0-r3}
 23133 abb6 EB46     		mov r11, sp
 23134 abb8 D546     		mov sp, r10
 23135 abba 10BC     		pop {r4}
 23136 abbc EA46     		mov r10, sp
 23137 abbe 2546     		mov r5, r4
 23138 abc0 2404     		lsls r4, r4, # 16
 23139 abc2 240C     		lsrs r4, r4, # 16
 23140 abc4 2D0C     		lsrs r5, r5, # 16
 23141 abc6 6043     		muls r0, r0, r4
 23142 abc8 6143     		muls r1, r1, r4
 23143 abca 6A43     		muls r2, r2, r5
 23144 abcc 6B43     		muls r3, r3, r5
 23145 abce 8011     		asrs r0, r0, # 6
 23146 abd0 8911     		asrs r1, r1, # 6
 23147 abd2 9211     		asrs r2, r2, # 6
 23148 abd4 9B11     		asrs r3, r3, # 6
 23149 abd6 8018     		adds r0, r0, r2         @r
 23150 abd8 C918     		adds r1, r1, r3         @i
 23151 abda 3618     		adds r6, r6, r0
 23152 abdc 7F18     		adds r7, r7, r1
 23153              	
 23154              		@7
 23155 abde DD46     		mov sp, r11
 23156 abe0 0FBC     		pop {r0-r3}
 23157 abe2 EB46     		mov r11, sp
 23158 abe4 D546     		mov sp, r10
 23159 abe6 10BC     		pop {r4}
 23160 abe8 EA46     		mov r10, sp
 23161 abea 2546     		mov r5, r4
 23162 abec 2404     		lsls r4, r4, # 16
 23163 abee 240C     		lsrs r4, r4, # 16
 23164 abf0 2D0C     		lsrs r5, r5, # 16
 23165 abf2 6043     		muls r0, r0, r4		@R
 23166 abf4 6143     		muls r1, r1, r4		@I
 23167 abf6 6A43     		muls r2, r2, r5		@R
 23168 abf8 6B43     		muls r3, r3, r5		@I
 23169 abfa 8011     		asrs r0, r0, # 6
 23170 abfc 8911     		asrs r1, r1, # 6
 23171 abfe 9211     		asrs r2, r2, # 6
 23172 ac00 9B11     		asrs r3, r3, # 6
 23173 ac02 8018     		adds r0, r0, r2	 @r
 23174 ac04 C918     		adds r1, r1, r3	 @i
 23175 ac06 3618     		adds r6, r6, r0
 23176 ac08 7F18     		adds r7, r7, r1
 23177              	
 23178 ac0a DD46     		mov sp, r11
 23179 ac0c 0FBC     		pop {r0-r3}
 23180 ac0e EB46     		mov r11, sp
 23181 ac10 D546     		mov sp, r10
 23182 ac12 10BC     		pop {r4}
 23183 ac14 EA46     		mov r10, sp
ARM GAS  1.s 			page 408


 23184 ac16 2546     		mov r5, r4
 23185 ac18 2404     		lsls r4, r4, # 16
 23186 ac1a 240C     		lsrs r4, r4, # 16
 23187 ac1c 2D0C     		lsrs r5, r5, # 16
 23188 ac1e 6043     		muls r0, r0, r4
 23189 ac20 6143     		muls r1, r1, r4
 23190 ac22 6A43     		muls r2, r2, r5
 23191 ac24 6B43     		muls r3, r3, r5
 23192 ac26 8011     		asrs r0, r0, # 6
 23193 ac28 8911     		asrs r1, r1, # 6
 23194 ac2a 9211     		asrs r2, r2, # 6
 23195 ac2c 9B11     		asrs r3, r3, # 6
 23196 ac2e 8018     		adds r0, r0, r2         @r
 23197 ac30 C918     		adds r1, r1, r3         @i
 23198 ac32 3618     		adds r6, r6, r0
 23199 ac34 7F18     		adds r7, r7, r1
 23200              	
 23201 ac36 DD46     		mov sp, r11
 23202 ac38 0FBC     		pop {r0-r3}
 23203 ac3a EB46     		mov r11, sp
 23204 ac3c D546     		mov sp, r10
 23205 ac3e 10BC     		pop {r4}
 23206 ac40 EA46     		mov r10, sp
 23207 ac42 2546     		mov r5, r4
 23208 ac44 2404     		lsls r4, r4, # 16
 23209 ac46 240C     		lsrs r4, r4, # 16
 23210 ac48 2D0C     		lsrs r5, r5, # 16
 23211 ac4a 6043     		muls r0, r0, r4
 23212 ac4c 6143     		muls r1, r1, r4
 23213 ac4e 6A43     		muls r2, r2, r5
 23214 ac50 6B43     		muls r3, r3, r5
 23215 ac52 8011     		asrs r0, r0, # 6
 23216 ac54 8911     		asrs r1, r1, # 6
 23217 ac56 9211     		asrs r2, r2, # 6
 23218 ac58 9B11     		asrs r3, r3, # 6
 23219 ac5a 8018     		adds r0, r0, r2  @r
 23220 ac5c C918     		adds r1, r1, r3  @i
 23221 ac5e 3618     		adds r6, r6, r0
 23222 ac60 7F18     		adds r7, r7, r1
 23223              	
 23224 ac62 DD46     		mov sp, r11
 23225 ac64 0FBC     		pop {r0-r3}
 23226 ac66 EB46     		mov r11, sp
 23227 ac68 D546     		mov sp, r10
 23228 ac6a 10BC     		pop {r4}
 23229 ac6c EA46     		mov r10, sp
 23230 ac6e 2546     		mov r5, r4
 23231 ac70 2404     		lsls r4, r4, # 16
 23232 ac72 240C     		lsrs r4, r4, # 16
 23233 ac74 2D0C     		lsrs r5, r5, # 16
 23234 ac76 6043     		muls r0, r0, r4
 23235 ac78 6143     		muls r1, r1, r4
 23236 ac7a 6A43     		muls r2, r2, r5
 23237 ac7c 6B43     		muls r3, r3, r5
 23238 ac7e 8011     		asrs r0, r0, # 6
 23239 ac80 8911     		asrs r1, r1, # 6
 23240 ac82 9211     		asrs r2, r2, # 6
ARM GAS  1.s 			page 409


 23241 ac84 9B11     		asrs r3, r3, # 6
 23242 ac86 8018     		adds r0, r0, r2         @r
 23243 ac88 C918     		adds r1, r1, r3         @i
 23244 ac8a 3618     		adds r6, r6, r0
 23245 ac8c 7F18     		adds r7, r7, r1
 23246              	
 23247              		@8
 23248 ac8e DD46     		mov sp, r11
 23249 ac90 0FBC     		pop {r0-r3}
 23250 ac92 EB46     		mov r11, sp
 23251 ac94 D546     		mov sp, r10
 23252 ac96 10BC     		pop {r4}
 23253 ac98 EA46     		mov r10, sp
 23254 ac9a 2546     		mov r5, r4
 23255 ac9c 2404     		lsls r4, r4, # 16
 23256 ac9e 240C     		lsrs r4, r4, # 16
 23257 aca0 2D0C     		lsrs r5, r5, # 16
 23258 aca2 6043     		muls r0, r0, r4		@R
 23259 aca4 6143     		muls r1, r1, r4		@I
 23260 aca6 6A43     		muls r2, r2, r5		@R
 23261 aca8 6B43     		muls r3, r3, r5		@I
 23262 acaa 8011     		asrs r0, r0, # 6
 23263 acac 8911     		asrs r1, r1, # 6
 23264 acae 9211     		asrs r2, r2, # 6
 23265 acb0 9B11     		asrs r3, r3, # 6
 23266 acb2 8018     		adds r0, r0, r2	 @r
 23267 acb4 C918     		adds r1, r1, r3	 @i
 23268 acb6 3618     		adds r6, r6, r0
 23269 acb8 7F18     		adds r7, r7, r1
 23270              	
 23271 acba DD46     		mov sp, r11
 23272 acbc 0FBC     		pop {r0-r3}
 23273 acbe EB46     		mov r11, sp
 23274 acc0 D546     		mov sp, r10
 23275 acc2 10BC     		pop {r4}
 23276 acc4 EA46     		mov r10, sp
 23277 acc6 2546     		mov r5, r4
 23278 acc8 2404     		lsls r4, r4, # 16
 23279 acca 240C     		lsrs r4, r4, # 16
 23280 accc 2D0C     		lsrs r5, r5, # 16
 23281 acce 6043     		muls r0, r0, r4
 23282 acd0 6143     		muls r1, r1, r4
 23283 acd2 6A43     		muls r2, r2, r5
 23284 acd4 6B43     		muls r3, r3, r5
 23285 acd6 8011     		asrs r0, r0, # 6
 23286 acd8 8911     		asrs r1, r1, # 6
 23287 acda 9211     		asrs r2, r2, # 6
 23288 acdc 9B11     		asrs r3, r3, # 6
 23289 acde 8018     		adds r0, r0, r2         @r
 23290 ace0 C918     		adds r1, r1, r3         @i
 23291 ace2 3618     		adds r6, r6, r0
 23292 ace4 7F18     		adds r7, r7, r1
 23293              	
 23294 ace6 DD46     		mov sp, r11
 23295 ace8 0FBC     		pop {r0-r3}
 23296 acea EB46     		mov r11, sp
 23297 acec D546     		mov sp, r10
ARM GAS  1.s 			page 410


 23298 acee 10BC     		pop {r4}
 23299 acf0 EA46     		mov r10, sp
 23300 acf2 2546     		mov r5, r4
 23301 acf4 2404     		lsls r4, r4, # 16
 23302 acf6 240C     		lsrs r4, r4, # 16
 23303 acf8 2D0C     		lsrs r5, r5, # 16
 23304 acfa 6043     		muls r0, r0, r4
 23305 acfc 6143     		muls r1, r1, r4
 23306 acfe 6A43     		muls r2, r2, r5
 23307 ad00 6B43     		muls r3, r3, r5
 23308 ad02 8011     		asrs r0, r0, # 6
 23309 ad04 8911     		asrs r1, r1, # 6
 23310 ad06 9211     		asrs r2, r2, # 6
 23311 ad08 9B11     		asrs r3, r3, # 6
 23312 ad0a 8018     		adds r0, r0, r2  @r
 23313 ad0c C918     		adds r1, r1, r3  @i
 23314 ad0e 3618     		adds r6, r6, r0
 23315 ad10 7F18     		adds r7, r7, r1
 23316              	
 23317 ad12 DD46     		mov sp, r11
 23318 ad14 0FBC     		pop {r0-r3}
 23319 ad16 EB46     		mov r11, sp
 23320 ad18 D546     		mov sp, r10
 23321 ad1a 10BC     		pop {r4}
 23322 ad1c EA46     		mov r10, sp
 23323 ad1e 2546     		mov r5, r4
 23324 ad20 2404     		lsls r4, r4, # 16
 23325 ad22 240C     		lsrs r4, r4, # 16
 23326 ad24 2D0C     		lsrs r5, r5, # 16
 23327 ad26 6043     		muls r0, r0, r4
 23328 ad28 6143     		muls r1, r1, r4
 23329 ad2a 6A43     		muls r2, r2, r5
 23330 ad2c 6B43     		muls r3, r3, r5
 23331 ad2e 8011     		asrs r0, r0, # 6
 23332 ad30 8911     		asrs r1, r1, # 6
 23333 ad32 9211     		asrs r2, r2, # 6
 23334 ad34 9B11     		asrs r3, r3, # 6
 23335 ad36 8018     		adds r0, r0, r2         @r
 23336 ad38 C918     		adds r1, r1, r3         @i
 23337 ad3a 3618     		adds r6, r6, r0
 23338 ad3c 7F18     		adds r7, r7, r1
 23339              	
 23340              		@9
 23341 ad3e DD46     		mov sp, r11
 23342 ad40 0FBC     		pop {r0-r3}
 23343 ad42 EB46     		mov r11, sp
 23344 ad44 D546     		mov sp, r10
 23345 ad46 10BC     		pop {r4}
 23346 ad48 EA46     		mov r10, sp
 23347 ad4a 2546     		mov r5, r4
 23348 ad4c 2404     		lsls r4, r4, # 16
 23349 ad4e 240C     		lsrs r4, r4, # 16
 23350 ad50 2D0C     		lsrs r5, r5, # 16
 23351 ad52 6043     		muls r0, r0, r4		@R
 23352 ad54 6143     		muls r1, r1, r4		@I
 23353 ad56 6A43     		muls r2, r2, r5		@R
 23354 ad58 6B43     		muls r3, r3, r5		@I
ARM GAS  1.s 			page 411


 23355 ad5a 8011     		asrs r0, r0, # 6
 23356 ad5c 8911     		asrs r1, r1, # 6
 23357 ad5e 9211     		asrs r2, r2, # 6
 23358 ad60 9B11     		asrs r3, r3, # 6
 23359 ad62 8018     		adds r0, r0, r2	 @r
 23360 ad64 C918     		adds r1, r1, r3	 @i
 23361 ad66 3618     		adds r6, r6, r0
 23362 ad68 7F18     		adds r7, r7, r1
 23363              	
 23364 ad6a DD46     		mov sp, r11
 23365 ad6c 0FBC     		pop {r0-r3}
 23366 ad6e EB46     		mov r11, sp
 23367 ad70 D546     		mov sp, r10
 23368 ad72 10BC     		pop {r4}
 23369 ad74 EA46     		mov r10, sp
 23370 ad76 2546     		mov r5, r4
 23371 ad78 2404     		lsls r4, r4, # 16
 23372 ad7a 240C     		lsrs r4, r4, # 16
 23373 ad7c 2D0C     		lsrs r5, r5, # 16
 23374 ad7e 6043     		muls r0, r0, r4
 23375 ad80 6143     		muls r1, r1, r4
 23376 ad82 6A43     		muls r2, r2, r5
 23377 ad84 6B43     		muls r3, r3, r5
 23378 ad86 8011     		asrs r0, r0, # 6
 23379 ad88 8911     		asrs r1, r1, # 6
 23380 ad8a 9211     		asrs r2, r2, # 6
 23381 ad8c 9B11     		asrs r3, r3, # 6
 23382 ad8e 8018     		adds r0, r0, r2         @r
 23383 ad90 C918     		adds r1, r1, r3         @i
 23384 ad92 3618     		adds r6, r6, r0
 23385 ad94 7F18     		adds r7, r7, r1
 23386              	
 23387 ad96 DD46     		mov sp, r11
 23388 ad98 0FBC     		pop {r0-r3}
 23389 ad9a EB46     		mov r11, sp
 23390 ad9c D546     		mov sp, r10
 23391 ad9e 10BC     		pop {r4}
 23392 ada0 EA46     		mov r10, sp
 23393 ada2 2546     		mov r5, r4
 23394 ada4 2404     		lsls r4, r4, # 16
 23395 ada6 240C     		lsrs r4, r4, # 16
 23396 ada8 2D0C     		lsrs r5, r5, # 16
 23397 adaa 6043     		muls r0, r0, r4
 23398 adac 6143     		muls r1, r1, r4
 23399 adae 6A43     		muls r2, r2, r5
 23400 adb0 6B43     		muls r3, r3, r5
 23401 adb2 8011     		asrs r0, r0, # 6
 23402 adb4 8911     		asrs r1, r1, # 6
 23403 adb6 9211     		asrs r2, r2, # 6
 23404 adb8 9B11     		asrs r3, r3, # 6
 23405 adba 8018     		adds r0, r0, r2  @r
 23406 adbc C918     		adds r1, r1, r3  @i
 23407 adbe 3618     		adds r6, r6, r0
 23408 adc0 7F18     		adds r7, r7, r1
 23409              	
 23410 adc2 DD46     		mov sp, r11
 23411 adc4 0FBC     		pop {r0-r3}
ARM GAS  1.s 			page 412


 23412 adc6 EB46     		mov r11, sp
 23413 adc8 D546     		mov sp, r10
 23414 adca 10BC     		pop {r4}
 23415 adcc EA46     		mov r10, sp
 23416 adce 2546     		mov r5, r4
 23417 add0 2404     		lsls r4, r4, # 16
 23418 add2 240C     		lsrs r4, r4, # 16
 23419 add4 2D0C     		lsrs r5, r5, # 16
 23420 add6 6043     		muls r0, r0, r4
 23421 add8 6143     		muls r1, r1, r4
 23422 adda 6A43     		muls r2, r2, r5
 23423 addc 6B43     		muls r3, r3, r5
 23424 adde 8011     		asrs r0, r0, # 6
 23425 ade0 8911     		asrs r1, r1, # 6
 23426 ade2 9211     		asrs r2, r2, # 6
 23427 ade4 9B11     		asrs r3, r3, # 6
 23428 ade6 8018     		adds r0, r0, r2         @r
 23429 ade8 C918     		adds r1, r1, r3         @i
 23430 adea 3618     		adds r6, r6, r0
 23431 adec 7F18     		adds r7, r7, r1
 23432              	
 23433              		@yjm24
 23434              		
 23435              		@0
 23436 adee DD46     		mov sp, r11
 23437 adf0 0FBC     		pop {r0-r3}
 23438 adf2 EB46     		mov r11, sp
 23439 adf4 D546     		mov sp, r10
 23440 adf6 10BC     		pop {r4}
 23441 adf8 EA46     		mov r10, sp
 23442 adfa 2546     		mov r5, r4
 23443 adfc 2404     		lsls r4, r4, # 16
 23444 adfe 240C     		lsrs r4, r4, # 16
 23445 ae00 2D0C     		lsrs r5, r5, # 16
 23446 ae02 6043     		muls r0, r0, r4		@R
 23447 ae04 6143     		muls r1, r1, r4		@I
 23448 ae06 6A43     		muls r2, r2, r5		@R
 23449 ae08 6B43     		muls r3, r3, r5		@I
 23450 ae0a 8011     		asrs r0, r0, # 6
 23451 ae0c 8911     		asrs r1, r1, # 6
 23452 ae0e 9211     		asrs r2, r2, # 6
 23453 ae10 9B11     		asrs r3, r3, # 6
 23454 ae12 8018     		adds r0, r0, r2	 @r
 23455 ae14 C918     		adds r1, r1, r3	 @i
 23456 ae16 3618     		adds r6, r6, r0
 23457 ae18 7F18     		adds r7, r7, r1
 23458              	
 23459 ae1a DD46     		mov sp, r11
 23460 ae1c 0FBC     		pop {r0-r3}
 23461 ae1e EB46     		mov r11, sp
 23462 ae20 D546     		mov sp, r10
 23463 ae22 10BC     		pop {r4}
 23464 ae24 EA46     		mov r10, sp
 23465 ae26 2546     		mov r5, r4
 23466 ae28 2404     		lsls r4, r4, # 16
 23467 ae2a 240C     		lsrs r4, r4, # 16
 23468 ae2c 2D0C     		lsrs r5, r5, # 16
ARM GAS  1.s 			page 413


 23469 ae2e 6043     		muls r0, r0, r4
 23470 ae30 6143     		muls r1, r1, r4
 23471 ae32 6A43     		muls r2, r2, r5
 23472 ae34 6B43     		muls r3, r3, r5
 23473 ae36 8011     		asrs r0, r0, # 6
 23474 ae38 8911     		asrs r1, r1, # 6
 23475 ae3a 9211     		asrs r2, r2, # 6
 23476 ae3c 9B11     		asrs r3, r3, # 6
 23477 ae3e 8018     		adds r0, r0, r2         @r
 23478 ae40 C918     		adds r1, r1, r3         @i
 23479 ae42 3618     		adds r6, r6, r0
 23480 ae44 7F18     		adds r7, r7, r1
 23481              	
 23482 ae46 DD46     		mov sp, r11
 23483 ae48 0FBC     		pop {r0-r3}
 23484 ae4a EB46     		mov r11, sp
 23485 ae4c D546     		mov sp, r10
 23486 ae4e 10BC     		pop {r4}
 23487 ae50 EA46     		mov r10, sp
 23488 ae52 2546     		mov r5, r4
 23489 ae54 2404     		lsls r4, r4, # 16
 23490 ae56 240C     		lsrs r4, r4, # 16
 23491 ae58 2D0C     		lsrs r5, r5, # 16
 23492 ae5a 6043     		muls r0, r0, r4
 23493 ae5c 6143     		muls r1, r1, r4
 23494 ae5e 6A43     		muls r2, r2, r5
 23495 ae60 6B43     		muls r3, r3, r5
 23496 ae62 8011     		asrs r0, r0, # 6
 23497 ae64 8911     		asrs r1, r1, # 6
 23498 ae66 9211     		asrs r2, r2, # 6
 23499 ae68 9B11     		asrs r3, r3, # 6
 23500 ae6a 8018     		adds r0, r0, r2  @r
 23501 ae6c C918     		adds r1, r1, r3  @i
 23502 ae6e 3618     		adds r6, r6, r0
 23503 ae70 7F18     		adds r7, r7, r1
 23504              	
 23505 ae72 DD46     		mov sp, r11
 23506 ae74 0FBC     		pop {r0-r3}
 23507 ae76 EB46     		mov r11, sp
 23508 ae78 D546     		mov sp, r10
 23509 ae7a 10BC     		pop {r4}
 23510 ae7c EA46     		mov r10, sp
 23511 ae7e 2546     		mov r5, r4
 23512 ae80 2404     		lsls r4, r4, # 16
 23513 ae82 240C     		lsrs r4, r4, # 16
 23514 ae84 2D0C     		lsrs r5, r5, # 16
 23515 ae86 6043     		muls r0, r0, r4
 23516 ae88 6143     		muls r1, r1, r4
 23517 ae8a 6A43     		muls r2, r2, r5
 23518 ae8c 6B43     		muls r3, r3, r5
 23519 ae8e 8011     		asrs r0, r0, # 6
 23520 ae90 8911     		asrs r1, r1, # 6
 23521 ae92 9211     		asrs r2, r2, # 6
 23522 ae94 9B11     		asrs r3, r3, # 6
 23523 ae96 8018     		adds r0, r0, r2         @r
 23524 ae98 C918     		adds r1, r1, r3         @i
 23525 ae9a 3618     		adds r6, r6, r0
ARM GAS  1.s 			page 414


 23526 ae9c 7F18     		adds r7, r7, r1
 23527              	
 23528              		@1
 23529 ae9e DD46     		mov sp, r11
 23530 aea0 0FBC     		pop {r0-r3}
 23531 aea2 EB46     		mov r11, sp
 23532 aea4 D546     		mov sp, r10
 23533 aea6 10BC     		pop {r4}
 23534 aea8 EA46     		mov r10, sp
 23535 aeaa 2546     		mov r5, r4
 23536 aeac 2404     		lsls r4, r4, # 16
 23537 aeae 240C     		lsrs r4, r4, # 16
 23538 aeb0 2D0C     		lsrs r5, r5, # 16
 23539 aeb2 6043     		muls r0, r0, r4		@R
 23540 aeb4 6143     		muls r1, r1, r4		@I
 23541 aeb6 6A43     		muls r2, r2, r5		@R
 23542 aeb8 6B43     		muls r3, r3, r5		@I
 23543 aeba 8011     		asrs r0, r0, # 6
 23544 aebc 8911     		asrs r1, r1, # 6
 23545 aebe 9211     		asrs r2, r2, # 6
 23546 aec0 9B11     		asrs r3, r3, # 6
 23547 aec2 8018     		adds r0, r0, r2	 @r
 23548 aec4 C918     		adds r1, r1, r3	 @i
 23549 aec6 3618     		adds r6, r6, r0
 23550 aec8 7F18     		adds r7, r7, r1
 23551              	
 23552 aeca DD46     		mov sp, r11
 23553 aecc 0FBC     		pop {r0-r3}
 23554 aece EB46     		mov r11, sp
 23555 aed0 D546     		mov sp, r10
 23556 aed2 10BC     		pop {r4}
 23557 aed4 EA46     		mov r10, sp
 23558 aed6 2546     		mov r5, r4
 23559 aed8 2404     		lsls r4, r4, # 16
 23560 aeda 240C     		lsrs r4, r4, # 16
 23561 aedc 2D0C     		lsrs r5, r5, # 16
 23562 aede 6043     		muls r0, r0, r4
 23563 aee0 6143     		muls r1, r1, r4
 23564 aee2 6A43     		muls r2, r2, r5
 23565 aee4 6B43     		muls r3, r3, r5
 23566 aee6 8011     		asrs r0, r0, # 6
 23567 aee8 8911     		asrs r1, r1, # 6
 23568 aeea 9211     		asrs r2, r2, # 6
 23569 aeec 9B11     		asrs r3, r3, # 6
 23570 aeee 8018     		adds r0, r0, r2         @r
 23571 aef0 C918     		adds r1, r1, r3         @i
 23572 aef2 3618     		adds r6, r6, r0
 23573 aef4 7F18     		adds r7, r7, r1
 23574              	
 23575 aef6 DD46     		mov sp, r11
 23576 aef8 0FBC     		pop {r0-r3}
 23577 aefa EB46     		mov r11, sp
 23578 aefc D546     		mov sp, r10
 23579 aefe 10BC     		pop {r4}
 23580 af00 EA46     		mov r10, sp
 23581 af02 2546     		mov r5, r4
 23582 af04 2404     		lsls r4, r4, # 16
ARM GAS  1.s 			page 415


 23583 af06 240C     		lsrs r4, r4, # 16
 23584 af08 2D0C     		lsrs r5, r5, # 16
 23585 af0a 6043     		muls r0, r0, r4
 23586 af0c 6143     		muls r1, r1, r4
 23587 af0e 6A43     		muls r2, r2, r5
 23588 af10 6B43     		muls r3, r3, r5
 23589 af12 8011     		asrs r0, r0, # 6
 23590 af14 8911     		asrs r1, r1, # 6
 23591 af16 9211     		asrs r2, r2, # 6
 23592 af18 9B11     		asrs r3, r3, # 6
 23593 af1a 8018     		adds r0, r0, r2  @r
 23594 af1c C918     		adds r1, r1, r3  @i
 23595 af1e 3618     		adds r6, r6, r0
 23596 af20 7F18     		adds r7, r7, r1
 23597              	
 23598 af22 DD46     		mov sp, r11
 23599 af24 0FBC     		pop {r0-r3}
 23600 af26 EB46     		mov r11, sp
 23601 af28 D546     		mov sp, r10
 23602 af2a 10BC     		pop {r4}
 23603 af2c EA46     		mov r10, sp
 23604 af2e 2546     		mov r5, r4
 23605 af30 2404     		lsls r4, r4, # 16
 23606 af32 240C     		lsrs r4, r4, # 16
 23607 af34 2D0C     		lsrs r5, r5, # 16
 23608 af36 6043     		muls r0, r0, r4
 23609 af38 6143     		muls r1, r1, r4
 23610 af3a 6A43     		muls r2, r2, r5
 23611 af3c 6B43     		muls r3, r3, r5
 23612 af3e 8011     		asrs r0, r0, # 6
 23613 af40 8911     		asrs r1, r1, # 6
 23614 af42 9211     		asrs r2, r2, # 6
 23615 af44 9B11     		asrs r3, r3, # 6
 23616 af46 8018     		adds r0, r0, r2         @r
 23617 af48 C918     		adds r1, r1, r3         @i
 23618 af4a 3618     		adds r6, r6, r0
 23619 af4c 7F18     		adds r7, r7, r1
 23620              	
 23621              		@2
 23622 af4e DD46     		mov sp, r11
 23623 af50 0FBC     		pop {r0-r3}
 23624 af52 EB46     		mov r11, sp
 23625 af54 D546     		mov sp, r10
 23626 af56 10BC     		pop {r4}
 23627 af58 EA46     		mov r10, sp
 23628 af5a 2546     		mov r5, r4
 23629 af5c 2404     		lsls r4, r4, # 16
 23630 af5e 240C     		lsrs r4, r4, # 16
 23631 af60 2D0C     		lsrs r5, r5, # 16
 23632 af62 6043     		muls r0, r0, r4		@R
 23633 af64 6143     		muls r1, r1, r4		@I
 23634 af66 6A43     		muls r2, r2, r5		@R
 23635 af68 6B43     		muls r3, r3, r5		@I
 23636 af6a 8011     		asrs r0, r0, # 6
 23637 af6c 8911     		asrs r1, r1, # 6
 23638 af6e 9211     		asrs r2, r2, # 6
 23639 af70 9B11     		asrs r3, r3, # 6
ARM GAS  1.s 			page 416


 23640 af72 8018     		adds r0, r0, r2	 @r
 23641 af74 C918     		adds r1, r1, r3	 @i
 23642 af76 3618     		adds r6, r6, r0
 23643 af78 7F18     		adds r7, r7, r1
 23644              	
 23645 af7a DD46     		mov sp, r11
 23646 af7c 0FBC     		pop {r0-r3}
 23647 af7e EB46     		mov r11, sp
 23648 af80 D546     		mov sp, r10
 23649 af82 10BC     		pop {r4}
 23650 af84 EA46     		mov r10, sp
 23651 af86 2546     		mov r5, r4
 23652 af88 2404     		lsls r4, r4, # 16
 23653 af8a 240C     		lsrs r4, r4, # 16
 23654 af8c 2D0C     		lsrs r5, r5, # 16
 23655 af8e 6043     		muls r0, r0, r4
 23656 af90 6143     		muls r1, r1, r4
 23657 af92 6A43     		muls r2, r2, r5
 23658 af94 6B43     		muls r3, r3, r5
 23659 af96 8011     		asrs r0, r0, # 6
 23660 af98 8911     		asrs r1, r1, # 6
 23661 af9a 9211     		asrs r2, r2, # 6
 23662 af9c 9B11     		asrs r3, r3, # 6
 23663 af9e 8018     		adds r0, r0, r2         @r
 23664 afa0 C918     		adds r1, r1, r3         @i
 23665 afa2 3618     		adds r6, r6, r0
 23666 afa4 7F18     		adds r7, r7, r1
 23667              	
 23668 afa6 DD46     		mov sp, r11
 23669 afa8 0FBC     		pop {r0-r3}
 23670 afaa EB46     		mov r11, sp
 23671 afac D546     		mov sp, r10
 23672 afae 10BC     		pop {r4}
 23673 afb0 EA46     		mov r10, sp
 23674 afb2 2546     		mov r5, r4
 23675 afb4 2404     		lsls r4, r4, # 16
 23676 afb6 240C     		lsrs r4, r4, # 16
 23677 afb8 2D0C     		lsrs r5, r5, # 16
 23678 afba 6043     		muls r0, r0, r4
 23679 afbc 6143     		muls r1, r1, r4
 23680 afbe 6A43     		muls r2, r2, r5
 23681 afc0 6B43     		muls r3, r3, r5
 23682 afc2 8011     		asrs r0, r0, # 6
 23683 afc4 8911     		asrs r1, r1, # 6
 23684 afc6 9211     		asrs r2, r2, # 6
 23685 afc8 9B11     		asrs r3, r3, # 6
 23686 afca 8018     		adds r0, r0, r2  @r
 23687 afcc C918     		adds r1, r1, r3  @i
 23688 afce 3618     		adds r6, r6, r0
 23689 afd0 7F18     		adds r7, r7, r1
 23690              	
 23691 afd2 DD46     		mov sp, r11
 23692 afd4 0FBC     		pop {r0-r3}
 23693 afd6 EB46     		mov r11, sp
 23694 afd8 D546     		mov sp, r10
 23695 afda 10BC     		pop {r4}
 23696 afdc EA46     		mov r10, sp
ARM GAS  1.s 			page 417


 23697 afde 2546     		mov r5, r4
 23698 afe0 2404     		lsls r4, r4, # 16
 23699 afe2 240C     		lsrs r4, r4, # 16
 23700 afe4 2D0C     		lsrs r5, r5, # 16
 23701 afe6 6043     		muls r0, r0, r4
 23702 afe8 6143     		muls r1, r1, r4
 23703 afea 6A43     		muls r2, r2, r5
 23704 afec 6B43     		muls r3, r3, r5
 23705 afee 8011     		asrs r0, r0, # 6
 23706 aff0 8911     		asrs r1, r1, # 6
 23707 aff2 9211     		asrs r2, r2, # 6
 23708 aff4 9B11     		asrs r3, r3, # 6
 23709 aff6 8018     		adds r0, r0, r2         @r
 23710 aff8 C918     		adds r1, r1, r3         @i
 23711 affa 3618     		adds r6, r6, r0
 23712 affc 7F18     		adds r7, r7, r1
 23713              	
 23714              		@3
 23715 affe DD46     		mov sp, r11
 23716 b000 0FBC     		pop {r0-r3}
 23717 b002 EB46     		mov r11, sp
 23718 b004 D546     		mov sp, r10
 23719 b006 10BC     		pop {r4}
 23720 b008 EA46     		mov r10, sp
 23721 b00a 2546     		mov r5, r4
 23722 b00c 2404     		lsls r4, r4, # 16
 23723 b00e 240C     		lsrs r4, r4, # 16
 23724 b010 2D0C     		lsrs r5, r5, # 16
 23725 b012 6043     		muls r0, r0, r4		@R
 23726 b014 6143     		muls r1, r1, r4		@I
 23727 b016 6A43     		muls r2, r2, r5		@R
 23728 b018 6B43     		muls r3, r3, r5		@I
 23729 b01a 8011     		asrs r0, r0, # 6
 23730 b01c 8911     		asrs r1, r1, # 6
 23731 b01e 9211     		asrs r2, r2, # 6
 23732 b020 9B11     		asrs r3, r3, # 6
 23733 b022 8018     		adds r0, r0, r2	 @r
 23734 b024 C918     		adds r1, r1, r3	 @i
 23735 b026 3618     		adds r6, r6, r0
 23736 b028 7F18     		adds r7, r7, r1
 23737              	
 23738 b02a DD46     		mov sp, r11
 23739 b02c 0FBC     		pop {r0-r3}
 23740 b02e EB46     		mov r11, sp
 23741 b030 D546     		mov sp, r10
 23742 b032 10BC     		pop {r4}
 23743 b034 EA46     		mov r10, sp
 23744 b036 2546     		mov r5, r4
 23745 b038 2404     		lsls r4, r4, # 16
 23746 b03a 240C     		lsrs r4, r4, # 16
 23747 b03c 2D0C     		lsrs r5, r5, # 16
 23748 b03e 6043     		muls r0, r0, r4
 23749 b040 6143     		muls r1, r1, r4
 23750 b042 6A43     		muls r2, r2, r5
 23751 b044 6B43     		muls r3, r3, r5
 23752 b046 8011     		asrs r0, r0, # 6
 23753 b048 8911     		asrs r1, r1, # 6
ARM GAS  1.s 			page 418


 23754 b04a 9211     		asrs r2, r2, # 6
 23755 b04c 9B11     		asrs r3, r3, # 6
 23756 b04e 8018     		adds r0, r0, r2         @r
 23757 b050 C918     		adds r1, r1, r3         @i
 23758 b052 3618     		adds r6, r6, r0
 23759 b054 7F18     		adds r7, r7, r1
 23760              	
 23761 b056 DD46     		mov sp, r11
 23762 b058 0FBC     		pop {r0-r3}
 23763 b05a EB46     		mov r11, sp
 23764 b05c D546     		mov sp, r10
 23765 b05e 10BC     		pop {r4}
 23766 b060 EA46     		mov r10, sp
 23767 b062 2546     		mov r5, r4
 23768 b064 2404     		lsls r4, r4, # 16
 23769 b066 240C     		lsrs r4, r4, # 16
 23770 b068 2D0C     		lsrs r5, r5, # 16
 23771 b06a 6043     		muls r0, r0, r4
 23772 b06c 6143     		muls r1, r1, r4
 23773 b06e 6A43     		muls r2, r2, r5
 23774 b070 6B43     		muls r3, r3, r5
 23775 b072 8011     		asrs r0, r0, # 6
 23776 b074 8911     		asrs r1, r1, # 6
 23777 b076 9211     		asrs r2, r2, # 6
 23778 b078 9B11     		asrs r3, r3, # 6
 23779 b07a 8018     		adds r0, r0, r2  @r
 23780 b07c C918     		adds r1, r1, r3  @i
 23781 b07e 3618     		adds r6, r6, r0
 23782 b080 7F18     		adds r7, r7, r1
 23783              	
 23784 b082 DD46     		mov sp, r11
 23785 b084 0FBC     		pop {r0-r3}
 23786 b086 EB46     		mov r11, sp
 23787 b088 D546     		mov sp, r10
 23788 b08a 10BC     		pop {r4}
 23789 b08c EA46     		mov r10, sp
 23790 b08e 2546     		mov r5, r4
 23791 b090 2404     		lsls r4, r4, # 16
 23792 b092 240C     		lsrs r4, r4, # 16
 23793 b094 2D0C     		lsrs r5, r5, # 16
 23794 b096 6043     		muls r0, r0, r4
 23795 b098 6143     		muls r1, r1, r4
 23796 b09a 6A43     		muls r2, r2, r5
 23797 b09c 6B43     		muls r3, r3, r5
 23798 b09e 8011     		asrs r0, r0, # 6
 23799 b0a0 8911     		asrs r1, r1, # 6
 23800 b0a2 9211     		asrs r2, r2, # 6
 23801 b0a4 9B11     		asrs r3, r3, # 6
 23802 b0a6 8018     		adds r0, r0, r2         @r
 23803 b0a8 C918     		adds r1, r1, r3         @i
 23804 b0aa 3618     		adds r6, r6, r0
 23805 b0ac 7F18     		adds r7, r7, r1
 23806              	
 23807              		@4
 23808 b0ae DD46     		mov sp, r11
 23809 b0b0 0FBC     		pop {r0-r3}
 23810 b0b2 EB46     		mov r11, sp
ARM GAS  1.s 			page 419


 23811 b0b4 D546     		mov sp, r10
 23812 b0b6 10BC     		pop {r4}
 23813 b0b8 EA46     		mov r10, sp
 23814 b0ba 2546     		mov r5, r4
 23815 b0bc 2404     		lsls r4, r4, # 16
 23816 b0be 240C     		lsrs r4, r4, # 16
 23817 b0c0 2D0C     		lsrs r5, r5, # 16
 23818 b0c2 6043     		muls r0, r0, r4		@R
 23819 b0c4 6143     		muls r1, r1, r4		@I
 23820 b0c6 6A43     		muls r2, r2, r5		@R
 23821 b0c8 6B43     		muls r3, r3, r5		@I
 23822 b0ca 8011     		asrs r0, r0, # 6
 23823 b0cc 8911     		asrs r1, r1, # 6
 23824 b0ce 9211     		asrs r2, r2, # 6
 23825 b0d0 9B11     		asrs r3, r3, # 6
 23826 b0d2 8018     		adds r0, r0, r2	 @r
 23827 b0d4 C918     		adds r1, r1, r3	 @i
 23828 b0d6 3618     		adds r6, r6, r0
 23829 b0d8 7F18     		adds r7, r7, r1
 23830              	
 23831 b0da DD46     		mov sp, r11
 23832 b0dc 0FBC     		pop {r0-r3}
 23833 b0de EB46     		mov r11, sp
 23834 b0e0 D546     		mov sp, r10
 23835 b0e2 10BC     		pop {r4}
 23836 b0e4 EA46     		mov r10, sp
 23837 b0e6 2546     		mov r5, r4
 23838 b0e8 2404     		lsls r4, r4, # 16
 23839 b0ea 240C     		lsrs r4, r4, # 16
 23840 b0ec 2D0C     		lsrs r5, r5, # 16
 23841 b0ee 6043     		muls r0, r0, r4
 23842 b0f0 6143     		muls r1, r1, r4
 23843 b0f2 6A43     		muls r2, r2, r5
 23844 b0f4 6B43     		muls r3, r3, r5
 23845 b0f6 8011     		asrs r0, r0, # 6
 23846 b0f8 8911     		asrs r1, r1, # 6
 23847 b0fa 9211     		asrs r2, r2, # 6
 23848 b0fc 9B11     		asrs r3, r3, # 6
 23849 b0fe 8018     		adds r0, r0, r2         @r
 23850 b100 C918     		adds r1, r1, r3         @i
 23851 b102 3618     		adds r6, r6, r0
 23852 b104 7F18     		adds r7, r7, r1
 23853              	
 23854 b106 DD46     		mov sp, r11
 23855 b108 0FBC     		pop {r0-r3}
 23856 b10a EB46     		mov r11, sp
 23857 b10c D546     		mov sp, r10
 23858 b10e 10BC     		pop {r4}
 23859 b110 EA46     		mov r10, sp
 23860 b112 2546     		mov r5, r4
 23861 b114 2404     		lsls r4, r4, # 16
 23862 b116 240C     		lsrs r4, r4, # 16
 23863 b118 2D0C     		lsrs r5, r5, # 16
 23864 b11a 6043     		muls r0, r0, r4
 23865 b11c 6143     		muls r1, r1, r4
 23866 b11e 6A43     		muls r2, r2, r5
 23867 b120 6B43     		muls r3, r3, r5
ARM GAS  1.s 			page 420


 23868 b122 8011     		asrs r0, r0, # 6
 23869 b124 8911     		asrs r1, r1, # 6
 23870 b126 9211     		asrs r2, r2, # 6
 23871 b128 9B11     		asrs r3, r3, # 6
 23872 b12a 8018     		adds r0, r0, r2  @r
 23873 b12c C918     		adds r1, r1, r3  @i
 23874 b12e 3618     		adds r6, r6, r0
 23875 b130 7F18     		adds r7, r7, r1
 23876              	
 23877 b132 DD46     		mov sp, r11
 23878 b134 0FBC     		pop {r0-r3}
 23879 b136 EB46     		mov r11, sp
 23880 b138 D546     		mov sp, r10
 23881 b13a 10BC     		pop {r4}
 23882 b13c EA46     		mov r10, sp
 23883 b13e 2546     		mov r5, r4
 23884 b140 2404     		lsls r4, r4, # 16
 23885 b142 240C     		lsrs r4, r4, # 16
 23886 b144 2D0C     		lsrs r5, r5, # 16
 23887 b146 6043     		muls r0, r0, r4
 23888 b148 6143     		muls r1, r1, r4
 23889 b14a 6A43     		muls r2, r2, r5
 23890 b14c 6B43     		muls r3, r3, r5
 23891 b14e 8011     		asrs r0, r0, # 6
 23892 b150 8911     		asrs r1, r1, # 6
 23893 b152 9211     		asrs r2, r2, # 6
 23894 b154 9B11     		asrs r3, r3, # 6
 23895 b156 8018     		adds r0, r0, r2         @r
 23896 b158 C918     		adds r1, r1, r3         @i
 23897 b15a 3618     		adds r6, r6, r0
 23898 b15c 7F18     		adds r7, r7, r1
 23899              	
 23900              		@5
 23901 b15e DD46     		mov sp, r11
 23902 b160 0FBC     		pop {r0-r3}
 23903 b162 EB46     		mov r11, sp
 23904 b164 D546     		mov sp, r10
 23905 b166 10BC     		pop {r4}
 23906 b168 EA46     		mov r10, sp
 23907 b16a 2546     		mov r5, r4
 23908 b16c 2404     		lsls r4, r4, # 16
 23909 b16e 240C     		lsrs r4, r4, # 16
 23910 b170 2D0C     		lsrs r5, r5, # 16
 23911 b172 6043     		muls r0, r0, r4		@R
 23912 b174 6143     		muls r1, r1, r4		@I
 23913 b176 6A43     		muls r2, r2, r5		@R
 23914 b178 6B43     		muls r3, r3, r5		@I
 23915 b17a 8011     		asrs r0, r0, # 6
 23916 b17c 8911     		asrs r1, r1, # 6
 23917 b17e 9211     		asrs r2, r2, # 6
 23918 b180 9B11     		asrs r3, r3, # 6
 23919 b182 8018     		adds r0, r0, r2	 @r
 23920 b184 C918     		adds r1, r1, r3	 @i
 23921 b186 3618     		adds r6, r6, r0
 23922 b188 7F18     		adds r7, r7, r1
 23923              	
 23924 b18a DD46     		mov sp, r11
ARM GAS  1.s 			page 421


 23925 b18c 0FBC     		pop {r0-r3}
 23926 b18e EB46     		mov r11, sp
 23927 b190 D546     		mov sp, r10
 23928 b192 10BC     		pop {r4}
 23929 b194 EA46     		mov r10, sp
 23930 b196 2546     		mov r5, r4
 23931 b198 2404     		lsls r4, r4, # 16
 23932 b19a 240C     		lsrs r4, r4, # 16
 23933 b19c 2D0C     		lsrs r5, r5, # 16
 23934 b19e 6043     		muls r0, r0, r4
 23935 b1a0 6143     		muls r1, r1, r4
 23936 b1a2 6A43     		muls r2, r2, r5
 23937 b1a4 6B43     		muls r3, r3, r5
 23938 b1a6 8011     		asrs r0, r0, # 6
 23939 b1a8 8911     		asrs r1, r1, # 6
 23940 b1aa 9211     		asrs r2, r2, # 6
 23941 b1ac 9B11     		asrs r3, r3, # 6
 23942 b1ae 8018     		adds r0, r0, r2         @r
 23943 b1b0 C918     		adds r1, r1, r3         @i
 23944 b1b2 3618     		adds r6, r6, r0
 23945 b1b4 7F18     		adds r7, r7, r1
 23946              	
 23947 b1b6 DD46     		mov sp, r11
 23948 b1b8 0FBC     		pop {r0-r3}
 23949 b1ba EB46     		mov r11, sp
 23950 b1bc D546     		mov sp, r10
 23951 b1be 10BC     		pop {r4}
 23952 b1c0 EA46     		mov r10, sp
 23953 b1c2 2546     		mov r5, r4
 23954 b1c4 2404     		lsls r4, r4, # 16
 23955 b1c6 240C     		lsrs r4, r4, # 16
 23956 b1c8 2D0C     		lsrs r5, r5, # 16
 23957 b1ca 6043     		muls r0, r0, r4
 23958 b1cc 6143     		muls r1, r1, r4
 23959 b1ce 6A43     		muls r2, r2, r5
 23960 b1d0 6B43     		muls r3, r3, r5
 23961 b1d2 8011     		asrs r0, r0, # 6
 23962 b1d4 8911     		asrs r1, r1, # 6
 23963 b1d6 9211     		asrs r2, r2, # 6
 23964 b1d8 9B11     		asrs r3, r3, # 6
 23965 b1da 8018     		adds r0, r0, r2  @r
 23966 b1dc C918     		adds r1, r1, r3  @i
 23967 b1de 3618     		adds r6, r6, r0
 23968 b1e0 7F18     		adds r7, r7, r1
 23969              	
 23970 b1e2 DD46     		mov sp, r11
 23971 b1e4 0FBC     		pop {r0-r3}
 23972 b1e6 EB46     		mov r11, sp
 23973 b1e8 D546     		mov sp, r10
 23974 b1ea 10BC     		pop {r4}
 23975 b1ec EA46     		mov r10, sp
 23976 b1ee 2546     		mov r5, r4
 23977 b1f0 2404     		lsls r4, r4, # 16
 23978 b1f2 240C     		lsrs r4, r4, # 16
 23979 b1f4 2D0C     		lsrs r5, r5, # 16
 23980 b1f6 6043     		muls r0, r0, r4
 23981 b1f8 6143     		muls r1, r1, r4
ARM GAS  1.s 			page 422


 23982 b1fa 6A43     		muls r2, r2, r5
 23983 b1fc 6B43     		muls r3, r3, r5
 23984 b1fe 8011     		asrs r0, r0, # 6
 23985 b200 8911     		asrs r1, r1, # 6
 23986 b202 9211     		asrs r2, r2, # 6
 23987 b204 9B11     		asrs r3, r3, # 6
 23988 b206 8018     		adds r0, r0, r2         @r
 23989 b208 C918     		adds r1, r1, r3         @i
 23990 b20a 3618     		adds r6, r6, r0
 23991 b20c 7F18     		adds r7, r7, r1
 23992              	
 23993              		@6
 23994 b20e DD46     		mov sp, r11
 23995 b210 0FBC     		pop {r0-r3}
 23996 b212 EB46     		mov r11, sp
 23997 b214 D546     		mov sp, r10
 23998 b216 10BC     		pop {r4}
 23999 b218 EA46     		mov r10, sp
 24000 b21a 2546     		mov r5, r4
 24001 b21c 2404     		lsls r4, r4, # 16
 24002 b21e 240C     		lsrs r4, r4, # 16
 24003 b220 2D0C     		lsrs r5, r5, # 16
 24004 b222 6043     		muls r0, r0, r4		@R
 24005 b224 6143     		muls r1, r1, r4		@I
 24006 b226 6A43     		muls r2, r2, r5		@R
 24007 b228 6B43     		muls r3, r3, r5		@I
 24008 b22a 8011     		asrs r0, r0, # 6
 24009 b22c 8911     		asrs r1, r1, # 6
 24010 b22e 9211     		asrs r2, r2, # 6
 24011 b230 9B11     		asrs r3, r3, # 6
 24012 b232 8018     		adds r0, r0, r2	 @r
 24013 b234 C918     		adds r1, r1, r3	 @i
 24014 b236 3618     		adds r6, r6, r0
 24015 b238 7F18     		adds r7, r7, r1
 24016              	
 24017 b23a DD46     		mov sp, r11
 24018 b23c 0FBC     		pop {r0-r3}
 24019 b23e EB46     		mov r11, sp
 24020 b240 D546     		mov sp, r10
 24021 b242 10BC     		pop {r4}
 24022 b244 EA46     		mov r10, sp
 24023 b246 2546     		mov r5, r4
 24024 b248 2404     		lsls r4, r4, # 16
 24025 b24a 240C     		lsrs r4, r4, # 16
 24026 b24c 2D0C     		lsrs r5, r5, # 16
 24027 b24e 6043     		muls r0, r0, r4
 24028 b250 6143     		muls r1, r1, r4
 24029 b252 6A43     		muls r2, r2, r5
 24030 b254 6B43     		muls r3, r3, r5
 24031 b256 8011     		asrs r0, r0, # 6
 24032 b258 8911     		asrs r1, r1, # 6
 24033 b25a 9211     		asrs r2, r2, # 6
 24034 b25c 9B11     		asrs r3, r3, # 6
 24035 b25e 8018     		adds r0, r0, r2         @r
 24036 b260 C918     		adds r1, r1, r3         @i
 24037 b262 3618     		adds r6, r6, r0
 24038 b264 7F18     		adds r7, r7, r1
ARM GAS  1.s 			page 423


 24039              	
 24040 b266 DD46     		mov sp, r11
 24041 b268 0FBC     		pop {r0-r3}
 24042 b26a EB46     		mov r11, sp
 24043 b26c D546     		mov sp, r10
 24044 b26e 10BC     		pop {r4}
 24045 b270 EA46     		mov r10, sp
 24046 b272 2546     		mov r5, r4
 24047 b274 2404     		lsls r4, r4, # 16
 24048 b276 240C     		lsrs r4, r4, # 16
 24049 b278 2D0C     		lsrs r5, r5, # 16
 24050 b27a 6043     		muls r0, r0, r4
 24051 b27c 6143     		muls r1, r1, r4
 24052 b27e 6A43     		muls r2, r2, r5
 24053 b280 6B43     		muls r3, r3, r5
 24054 b282 8011     		asrs r0, r0, # 6
 24055 b284 8911     		asrs r1, r1, # 6
 24056 b286 9211     		asrs r2, r2, # 6
 24057 b288 9B11     		asrs r3, r3, # 6
 24058 b28a 8018     		adds r0, r0, r2  @r
 24059 b28c C918     		adds r1, r1, r3  @i
 24060 b28e 3618     		adds r6, r6, r0
 24061 b290 7F18     		adds r7, r7, r1
 24062              	
 24063 b292 DD46     		mov sp, r11
 24064 b294 0FBC     		pop {r0-r3}
 24065 b296 EB46     		mov r11, sp
 24066 b298 D546     		mov sp, r10
 24067 b29a 10BC     		pop {r4}
 24068 b29c EA46     		mov r10, sp
 24069 b29e 2546     		mov r5, r4
 24070 b2a0 2404     		lsls r4, r4, # 16
 24071 b2a2 240C     		lsrs r4, r4, # 16
 24072 b2a4 2D0C     		lsrs r5, r5, # 16
 24073 b2a6 6043     		muls r0, r0, r4
 24074 b2a8 6143     		muls r1, r1, r4
 24075 b2aa 6A43     		muls r2, r2, r5
 24076 b2ac 6B43     		muls r3, r3, r5
 24077 b2ae 8011     		asrs r0, r0, # 6
 24078 b2b0 8911     		asrs r1, r1, # 6
 24079 b2b2 9211     		asrs r2, r2, # 6
 24080 b2b4 9B11     		asrs r3, r3, # 6
 24081 b2b6 8018     		adds r0, r0, r2         @r
 24082 b2b8 C918     		adds r1, r1, r3         @i
 24083 b2ba 3618     		adds r6, r6, r0
 24084 b2bc 7F18     		adds r7, r7, r1
 24085              	
 24086              		@7
 24087 b2be DD46     		mov sp, r11
 24088 b2c0 0FBC     		pop {r0-r3}
 24089 b2c2 EB46     		mov r11, sp
 24090 b2c4 D546     		mov sp, r10
 24091 b2c6 10BC     		pop {r4}
 24092 b2c8 EA46     		mov r10, sp
 24093 b2ca 2546     		mov r5, r4
 24094 b2cc 2404     		lsls r4, r4, # 16
 24095 b2ce 240C     		lsrs r4, r4, # 16
ARM GAS  1.s 			page 424


 24096 b2d0 2D0C     		lsrs r5, r5, # 16
 24097 b2d2 6043     		muls r0, r0, r4		@R
 24098 b2d4 6143     		muls r1, r1, r4		@I
 24099 b2d6 6A43     		muls r2, r2, r5		@R
 24100 b2d8 6B43     		muls r3, r3, r5		@I
 24101 b2da 8011     		asrs r0, r0, # 6
 24102 b2dc 8911     		asrs r1, r1, # 6
 24103 b2de 9211     		asrs r2, r2, # 6
 24104 b2e0 9B11     		asrs r3, r3, # 6
 24105 b2e2 8018     		adds r0, r0, r2	 @r
 24106 b2e4 C918     		adds r1, r1, r3	 @i
 24107 b2e6 3618     		adds r6, r6, r0
 24108 b2e8 7F18     		adds r7, r7, r1
 24109              	
 24110 b2ea DD46     		mov sp, r11
 24111 b2ec 0FBC     		pop {r0-r3}
 24112 b2ee EB46     		mov r11, sp
 24113 b2f0 D546     		mov sp, r10
 24114 b2f2 10BC     		pop {r4}
 24115 b2f4 EA46     		mov r10, sp
 24116 b2f6 2546     		mov r5, r4
 24117 b2f8 2404     		lsls r4, r4, # 16
 24118 b2fa 240C     		lsrs r4, r4, # 16
 24119 b2fc 2D0C     		lsrs r5, r5, # 16
 24120 b2fe 6043     		muls r0, r0, r4
 24121 b300 6143     		muls r1, r1, r4
 24122 b302 6A43     		muls r2, r2, r5
 24123 b304 6B43     		muls r3, r3, r5
 24124 b306 8011     		asrs r0, r0, # 6
 24125 b308 8911     		asrs r1, r1, # 6
 24126 b30a 9211     		asrs r2, r2, # 6
 24127 b30c 9B11     		asrs r3, r3, # 6
 24128 b30e 8018     		adds r0, r0, r2         @r
 24129 b310 C918     		adds r1, r1, r3         @i
 24130 b312 3618     		adds r6, r6, r0
 24131 b314 7F18     		adds r7, r7, r1
 24132              	
 24133 b316 DD46     		mov sp, r11
 24134 b318 0FBC     		pop {r0-r3}
 24135 b31a EB46     		mov r11, sp
 24136 b31c D546     		mov sp, r10
 24137 b31e 10BC     		pop {r4}
 24138 b320 EA46     		mov r10, sp
 24139 b322 2546     		mov r5, r4
 24140 b324 2404     		lsls r4, r4, # 16
 24141 b326 240C     		lsrs r4, r4, # 16
 24142 b328 2D0C     		lsrs r5, r5, # 16
 24143 b32a 6043     		muls r0, r0, r4
 24144 b32c 6143     		muls r1, r1, r4
 24145 b32e 6A43     		muls r2, r2, r5
 24146 b330 6B43     		muls r3, r3, r5
 24147 b332 8011     		asrs r0, r0, # 6
 24148 b334 8911     		asrs r1, r1, # 6
 24149 b336 9211     		asrs r2, r2, # 6
 24150 b338 9B11     		asrs r3, r3, # 6
 24151 b33a 8018     		adds r0, r0, r2  @r
 24152 b33c C918     		adds r1, r1, r3  @i
ARM GAS  1.s 			page 425


 24153 b33e 3618     		adds r6, r6, r0
 24154 b340 7F18     		adds r7, r7, r1
 24155              	
 24156 b342 DD46     		mov sp, r11
 24157 b344 0FBC     		pop {r0-r3}
 24158 b346 EB46     		mov r11, sp
 24159 b348 D546     		mov sp, r10
 24160 b34a 10BC     		pop {r4}
 24161 b34c EA46     		mov r10, sp
 24162 b34e 2546     		mov r5, r4
 24163 b350 2404     		lsls r4, r4, # 16
 24164 b352 240C     		lsrs r4, r4, # 16
 24165 b354 2D0C     		lsrs r5, r5, # 16
 24166 b356 6043     		muls r0, r0, r4
 24167 b358 6143     		muls r1, r1, r4
 24168 b35a 6A43     		muls r2, r2, r5
 24169 b35c 6B43     		muls r3, r3, r5
 24170 b35e 8011     		asrs r0, r0, # 6
 24171 b360 8911     		asrs r1, r1, # 6
 24172 b362 9211     		asrs r2, r2, # 6
 24173 b364 9B11     		asrs r3, r3, # 6
 24174 b366 8018     		adds r0, r0, r2         @r
 24175 b368 C918     		adds r1, r1, r3         @i
 24176 b36a 3618     		adds r6, r6, r0
 24177 b36c 7F18     		adds r7, r7, r1
 24178              	
 24179              		@8
 24180 b36e DD46     		mov sp, r11
 24181 b370 0FBC     		pop {r0-r3}
 24182 b372 EB46     		mov r11, sp
 24183 b374 D546     		mov sp, r10
 24184 b376 10BC     		pop {r4}
 24185 b378 EA46     		mov r10, sp
 24186 b37a 2546     		mov r5, r4
 24187 b37c 2404     		lsls r4, r4, # 16
 24188 b37e 240C     		lsrs r4, r4, # 16
 24189 b380 2D0C     		lsrs r5, r5, # 16
 24190 b382 6043     		muls r0, r0, r4		@R
 24191 b384 6143     		muls r1, r1, r4		@I
 24192 b386 6A43     		muls r2, r2, r5		@R
 24193 b388 6B43     		muls r3, r3, r5		@I
 24194 b38a 8011     		asrs r0, r0, # 6
 24195 b38c 8911     		asrs r1, r1, # 6
 24196 b38e 9211     		asrs r2, r2, # 6
 24197 b390 9B11     		asrs r3, r3, # 6
 24198 b392 8018     		adds r0, r0, r2	 @r
 24199 b394 C918     		adds r1, r1, r3	 @i
 24200 b396 3618     		adds r6, r6, r0
 24201 b398 7F18     		adds r7, r7, r1
 24202              	
 24203 b39a DD46     		mov sp, r11
 24204 b39c 0FBC     		pop {r0-r3}
 24205 b39e EB46     		mov r11, sp
 24206 b3a0 D546     		mov sp, r10
 24207 b3a2 10BC     		pop {r4}
 24208 b3a4 EA46     		mov r10, sp
 24209 b3a6 2546     		mov r5, r4
ARM GAS  1.s 			page 426


 24210 b3a8 2404     		lsls r4, r4, # 16
 24211 b3aa 240C     		lsrs r4, r4, # 16
 24212 b3ac 2D0C     		lsrs r5, r5, # 16
 24213 b3ae 6043     		muls r0, r0, r4
 24214 b3b0 6143     		muls r1, r1, r4
 24215 b3b2 6A43     		muls r2, r2, r5
 24216 b3b4 6B43     		muls r3, r3, r5
 24217 b3b6 8011     		asrs r0, r0, # 6
 24218 b3b8 8911     		asrs r1, r1, # 6
 24219 b3ba 9211     		asrs r2, r2, # 6
 24220 b3bc 9B11     		asrs r3, r3, # 6
 24221 b3be 8018     		adds r0, r0, r2         @r
 24222 b3c0 C918     		adds r1, r1, r3         @i
 24223 b3c2 3618     		adds r6, r6, r0
 24224 b3c4 7F18     		adds r7, r7, r1
 24225              	
 24226 b3c6 DD46     		mov sp, r11
 24227 b3c8 0FBC     		pop {r0-r3}
 24228 b3ca EB46     		mov r11, sp
 24229 b3cc D546     		mov sp, r10
 24230 b3ce 10BC     		pop {r4}
 24231 b3d0 EA46     		mov r10, sp
 24232 b3d2 2546     		mov r5, r4
 24233 b3d4 2404     		lsls r4, r4, # 16
 24234 b3d6 240C     		lsrs r4, r4, # 16
 24235 b3d8 2D0C     		lsrs r5, r5, # 16
 24236 b3da 6043     		muls r0, r0, r4
 24237 b3dc 6143     		muls r1, r1, r4
 24238 b3de 6A43     		muls r2, r2, r5
 24239 b3e0 6B43     		muls r3, r3, r5
 24240 b3e2 8011     		asrs r0, r0, # 6
 24241 b3e4 8911     		asrs r1, r1, # 6
 24242 b3e6 9211     		asrs r2, r2, # 6
 24243 b3e8 9B11     		asrs r3, r3, # 6
 24244 b3ea 8018     		adds r0, r0, r2  @r
 24245 b3ec C918     		adds r1, r1, r3  @i
 24246 b3ee 3618     		adds r6, r6, r0
 24247 b3f0 7F18     		adds r7, r7, r1
 24248              	
 24249 b3f2 DD46     		mov sp, r11
 24250 b3f4 0FBC     		pop {r0-r3}
 24251 b3f6 EB46     		mov r11, sp
 24252 b3f8 D546     		mov sp, r10
 24253 b3fa 10BC     		pop {r4}
 24254 b3fc EA46     		mov r10, sp
 24255 b3fe 2546     		mov r5, r4
 24256 b400 2404     		lsls r4, r4, # 16
 24257 b402 240C     		lsrs r4, r4, # 16
 24258 b404 2D0C     		lsrs r5, r5, # 16
 24259 b406 6043     		muls r0, r0, r4
 24260 b408 6143     		muls r1, r1, r4
 24261 b40a 6A43     		muls r2, r2, r5
 24262 b40c 6B43     		muls r3, r3, r5
 24263 b40e 8011     		asrs r0, r0, # 6
 24264 b410 8911     		asrs r1, r1, # 6
 24265 b412 9211     		asrs r2, r2, # 6
 24266 b414 9B11     		asrs r3, r3, # 6
ARM GAS  1.s 			page 427


 24267 b416 8018     		adds r0, r0, r2         @r
 24268 b418 C918     		adds r1, r1, r3         @i
 24269 b41a 3618     		adds r6, r6, r0
 24270 b41c 7F18     		adds r7, r7, r1
 24271              	
 24272              		@9
 24273 b41e DD46     		mov sp, r11
 24274 b420 0FBC     		pop {r0-r3}
 24275 b422 EB46     		mov r11, sp
 24276 b424 D546     		mov sp, r10
 24277 b426 10BC     		pop {r4}
 24278 b428 EA46     		mov r10, sp
 24279 b42a 2546     		mov r5, r4
 24280 b42c 2404     		lsls r4, r4, # 16
 24281 b42e 240C     		lsrs r4, r4, # 16
 24282 b430 2D0C     		lsrs r5, r5, # 16
 24283 b432 6043     		muls r0, r0, r4		@R
 24284 b434 6143     		muls r1, r1, r4		@I
 24285 b436 6A43     		muls r2, r2, r5		@R
 24286 b438 6B43     		muls r3, r3, r5		@I
 24287 b43a 8011     		asrs r0, r0, # 6
 24288 b43c 8911     		asrs r1, r1, # 6
 24289 b43e 9211     		asrs r2, r2, # 6
 24290 b440 9B11     		asrs r3, r3, # 6
 24291 b442 8018     		adds r0, r0, r2	 @r
 24292 b444 C918     		adds r1, r1, r3	 @i
 24293 b446 3618     		adds r6, r6, r0
 24294 b448 7F18     		adds r7, r7, r1
 24295              	
 24296 b44a DD46     		mov sp, r11
 24297 b44c 0FBC     		pop {r0-r3}
 24298 b44e EB46     		mov r11, sp
 24299 b450 D546     		mov sp, r10
 24300 b452 10BC     		pop {r4}
 24301 b454 EA46     		mov r10, sp
 24302 b456 2546     		mov r5, r4
 24303 b458 2404     		lsls r4, r4, # 16
 24304 b45a 240C     		lsrs r4, r4, # 16
 24305 b45c 2D0C     		lsrs r5, r5, # 16
 24306 b45e 6043     		muls r0, r0, r4
 24307 b460 6143     		muls r1, r1, r4
 24308 b462 6A43     		muls r2, r2, r5
 24309 b464 6B43     		muls r3, r3, r5
 24310 b466 8011     		asrs r0, r0, # 6
 24311 b468 8911     		asrs r1, r1, # 6
 24312 b46a 9211     		asrs r2, r2, # 6
 24313 b46c 9B11     		asrs r3, r3, # 6
 24314 b46e 8018     		adds r0, r0, r2         @r
 24315 b470 C918     		adds r1, r1, r3         @i
 24316 b472 3618     		adds r6, r6, r0
 24317 b474 7F18     		adds r7, r7, r1
 24318              	
 24319 b476 DD46     		mov sp, r11
 24320 b478 0FBC     		pop {r0-r3}
 24321 b47a EB46     		mov r11, sp
 24322 b47c D546     		mov sp, r10
 24323 b47e 10BC     		pop {r4}
ARM GAS  1.s 			page 428


 24324 b480 EA46     		mov r10, sp
 24325 b482 2546     		mov r5, r4
 24326 b484 2404     		lsls r4, r4, # 16
 24327 b486 240C     		lsrs r4, r4, # 16
 24328 b488 2D0C     		lsrs r5, r5, # 16
 24329 b48a 6043     		muls r0, r0, r4
 24330 b48c 6143     		muls r1, r1, r4
 24331 b48e 6A43     		muls r2, r2, r5
 24332 b490 6B43     		muls r3, r3, r5
 24333 b492 8011     		asrs r0, r0, # 6
 24334 b494 8911     		asrs r1, r1, # 6
 24335 b496 9211     		asrs r2, r2, # 6
 24336 b498 9B11     		asrs r3, r3, # 6
 24337 b49a 8018     		adds r0, r0, r2  @r
 24338 b49c C918     		adds r1, r1, r3  @i
 24339 b49e 3618     		adds r6, r6, r0
 24340 b4a0 7F18     		adds r7, r7, r1
 24341              	
 24342 b4a2 DD46     		mov sp, r11
 24343 b4a4 0FBC     		pop {r0-r3}
 24344 b4a6 EB46     		mov r11, sp
 24345 b4a8 D546     		mov sp, r10
 24346 b4aa 10BC     		pop {r4}
 24347 b4ac EA46     		mov r10, sp
 24348 b4ae 2546     		mov r5, r4
 24349 b4b0 2404     		lsls r4, r4, # 16
 24350 b4b2 240C     		lsrs r4, r4, # 16
 24351 b4b4 2D0C     		lsrs r5, r5, # 16
 24352 b4b6 6043     		muls r0, r0, r4
 24353 b4b8 6143     		muls r1, r1, r4
 24354 b4ba 6A43     		muls r2, r2, r5
 24355 b4bc 6B43     		muls r3, r3, r5
 24356 b4be 8011     		asrs r0, r0, # 6
 24357 b4c0 8911     		asrs r1, r1, # 6
 24358 b4c2 9211     		asrs r2, r2, # 6
 24359 b4c4 9B11     		asrs r3, r3, # 6
 24360 b4c6 8018     		adds r0, r0, r2         @r
 24361 b4c8 C918     		adds r1, r1, r3         @i
 24362 b4ca 3618     		adds r6, r6, r0
 24363 b4cc 7F18     		adds r7, r7, r1
 24364              	
 24365              	
 24366              	
 24367              	
 24368              	
 24369              	
 24370              	
 24371              	
 24372              	
 24373              	
 24374 b4ce 0848     		ldr r0, = 0x200010a0
 24375 b4d0 8245     		cmp r10, r0
 24376 b4d2 02D0     		beq __dft_fanhuile
 24377 b4d4 0748     		ldr r0, = __dft_xunhuan
 24378 b4d6 0130     		adds r0, r0, # 1
 24379 b4d8 8746     		mov pc, r0
 24380              	__dft_fanhuile:
ARM GAS  1.s 			page 429


 24381 b4da 3046     		mov r0, r6
 24382 b4dc 3946     		mov r1, r7
 24383 b4de 4012     		asrs r0, r0, # 9	@dfdf
 24384 b4e0 4912     		asrs r1, r1, # 9
 24385 b4e2 E546     		mov sp, r12
 24386 b4e4 1CBC     		pop {r2-r4}
 24387 b4e6 9246     		mov r10, r2
 24388 b4e8 9B46     		mov r11, r3
 24389 b4ea A446     		mov r12, r4
 24390 b4ec FCBD     		pop {r2-r7,pc}
 24391 b4ee 0000A010 		.ltorg
 24391      0020E408 
 24391      0000
 24392              	
 24393              	
 24394              	
 24395              	__lv_bo_qi:
 24396              		@地址顺序：指针，累加值，缓冲区
 24397              		@入口R0=缓冲区，R1=数据, r2,=指针
 24398              		@出口R0
 24399 b4f8 F8B5     		push {r3-r7,lr}
 24400 b4fa 0B4C     		ldr r4, = lvbo_changdu
 24401 b4fc 0B4F     		ldr r7, = lvbo_youyi
 24402 b4fe 2468     		ldr r4, [r4]
 24403 b500 3F68     		ldr r7, [r7]
 24404 b502 1568     		ldr r5, [r2]
 24405 b504 2B46     		mov r3, r5
 24406 b506 AB00     		lsls r3, r5, # 2
 24407 b508 C658     		ldr r6, [r0, r3]
 24408 b50a C150     		str r1, [r0, r3]
 24409 b50c 0135     		adds r5, r5, # 1
 24410 b50e 1560     		str r5, [r2]
 24411 b510 A542     		cmp r5, r4
 24412 b512 01D1     		bne __huanchong_leijia
 24413 b514 0025     		movs r5, # 0
 24414 b516 1560     		str r5, [r2]
 24415              	__huanchong_leijia:
 24416 b518 0438     		subs r0, r0, # 4
 24417 b51a 0568     		ldr r5, [r0]
 24418 b51c 4919     		adds r1, r1, r5
 24419 b51e 891B     		subs r1, r1, r6
 24420 b520 0160     		str r1, [r0]
 24421 b522 3941     		asrs r1, r1, r7	 @# 12 @12 @  7	@128
 24422 b524 0846     		mov r0, r1
 24423 b526 F8BD     		pop {r3-r7,pc}
 24424 b528 D81F0020 		.ltorg
 24424      D41F0020 
 24425              	__ji_suan_fu_du:			    @ 计算幅度
 24426              		@ 入r0= 实部，r1= 虚部
 24427              		@ 出r0 = 幅度
 24428              		@ Mag ~=Alpha * max(|I|, |Q|) + Beta * min(|I|, |Q|)
 24429              		@ Alpha * Max + Beta * Min
 24430 b530 0EB5     		push {r1-r3,lr}
 24431 b532 0000     		movs r0, r0
 24432 b534 01D5     		bpl _shibubushifushu
 24433 b536 C043     		mvns r0, r0                             @ 是负数转成正数
 24434 b538 0130     		adds r0, r0, # 1
ARM GAS  1.s 			page 430


 24435              	_shibubushifushu:			                               @ 实部不是负数
 24436 b53a 0900     		movs r1, r1
 24437 b53c 01D5     		bpl _xububushifushu
 24438 b53e C943     		mvns r1, r1                             @ 是负数转成正数
 24439 b540 0131     		adds r1, r1, # 1
 24440              	_xububushifushu:			                                @ 虚部不是负数
 24441 b542 0028     		cmp r0, # 0
 24442 b544 01D1     		bne _panduanxubushibushi0
 24443 b546 0846     		mov r0, r1
 24444 b548 0EBD     		pop {r1-r3,pc}
 24445              	_panduanxubushibushi0:
 24446 b54a 0029     		cmp r1, # 0
 24447 b54c 00D1     		bne _jisuanfudu1
 24448 b54e 0EBD     		pop {r1-r3,pc}
 24449              	_jisuanfudu1:
 24450 b550 3E4A     		ldr r2, = 31066		@ Alpha q15 0.948059448969
 24451 b552 3F4B     		ldr r3, = 12867		@ Beta q15 0.392699081699
 24452 b554 8142     		cmp r1, r0
 24453 b556 06D8     		bhi _alpha_min_beta_max
 24454              	_alpha_max_beta_min:
 24455 b558 5043     		muls r0, r0, r2
 24456 b55a 5943     		muls r1, r1, r3
 24457 b55c C013     		asrs r0, r0, # 15
 24458 b55e C913     		asrs r1, r1, # 15
 24459 b560 4018     		adds r0, r0, r1
 24460 b562 0121     		movs r1, # 1
 24461 b564 0EBD     		pop {r1-r3,pc}
 24462              	_alpha_min_beta_max:
 24463 b566 5843     		muls r0, r0, r3
 24464 b568 5143     		muls r1, r1, r2
 24465 b56a C013     		asrs r0, r0, # 15
 24466 b56c C913     		asrs r1, r1, # 15
 24467 b56e 4018     		adds r0, r0, r1
 24468 b570 0021     		movs r1, # 0
 24469 b572 0EBD     		pop {r1-r3,pc}
 24470              	
 24471              	
 24472              		
 24473              	
 24474              	
 24475              	
 24476              	
 24477              	
 24478              	
 24479              	
 24480              	
 24481              		
 24482              	__jishu:
 24483 b574 06B4     		push {r1-r2}
 24484 b576 3749     		ldr r1, = jishu
 24485 b578 0868     		ldr r0, [r1]
 24486 b57a 0138     		subs r0, r0, # 1
 24487 b57c 0860     		str r0, [r1]
 24488 b57e 01D1     		bne __jisuan_fanhui
 24489 b580 3548     		ldr r0, = 99999
 24490 b582 0860     		str r0, [r1]
 24491              	__jisuan_fanhui:
ARM GAS  1.s 			page 431


 24492 b584 06BC     		pop {r1-r2}
 24493 b586 7047     		bx lr
 24494              	
 24495              	_zhuanshumaguanma:		@ 16进制转数码管码
 24496              		@ R0要转的数据, r1小数点位置
 24497 b588 FCB5     		push {r2-r7,lr}
 24498 b58a 4346     		mov r3, r8
 24499 b58c 08B4     		push {r3}
 24500 b58e 8846     		mov r8, r1
 24501 b590 324A     		ldr r2, = shumaguanma
 24502 b592 334F     		ldr r7, = shumaguanmabiao
 24503 b594 0546     		mov r5, r0
 24504 b596 0523     		movs r3, # 5 @长度
 24505 b598 1E46     		mov r6, r3
 24506 b59a 0A21     		movs r1, # 10
 24507              	_xunhuanqiuma:
 24508 b59c 00F042F8 		bl _chufa
 24509 b5a0 0446     		mov r4, r0
 24510 b5a2 4C43     		muls r4, r1
 24511 b5a4 2B1B     		subs r3, r5, r4
 24512 b5a6 FC5C     		ldrb r4, [r7, r3]
 24513 b5a8 4645     		cmp r6, r8
 24514 b5aa 00D0     		beq __tian_jia_xiao_shu_dian
 24515 b5ac 00E0     		b __bao_cun_shu_ma_guan_ma
 24516              	__tian_jia_xiao_shu_dian:
 24517 b5ae 803C     		subs r4, r4, # 0x80
 24518              	__bao_cun_shu_ma_guan_ma:
 24519 b5b0 1470     		strb r4, [r2]
 24520 b5b2 0546     		mov r5, r0
 24521 b5b4 0132     		adds r2, r2, # 1
 24522 b5b6 013E     		subs r6, # 1
 24523 b5b8 F0D1     		bne _xunhuanqiuma
 24524 b5ba 08BC     		pop {r3}
 24525 b5bc 9846     		mov r8, r3
 24526 b5be FCBD     		pop {r2-r7,pc}
 24527              	_xieshumaguan:		 @
 24528 b5c0 7FB5     		push {r0-r6,lr}
 24529 b5c2 0026     		movs r6, # 0
 24530 b5c4 254D     		ldr r5, = shumaguanma
 24531 b5c6 2749     		ldr r1, = danwei
 24532 b5c8 0968     		ldr r1, [r1]
 24533 b5ca 0902     		lsls r1, r1, # 8
 24534 b5cc 264A     		ldr r2, = shumaguanshuaxinbiao
 24535              	_shumaguanshuaxin:
 24536 b5ce AB5D     		ldrb r3, [r5, r6]
 24537 b5d0 945D     		ldrb r4, [r2, r6]
 24538 b5d2 2402     		lsls r4, r4, # 8
 24539 b5d4 1C43     		orrs r4, r4, r3
 24540 b5d6 6418     		adds r4, r4, r1
 24541 b5d8 2046     		mov r0, r4
 24542 b5da 00F004F8 		bl __xie_spi
 24543 b5de 0136     		adds  r6, r6, # 1
 24544 b5e0 062E     		cmp r6, # 6
 24545 b5e2 F4D1     		bne _shumaguanshuaxin
 24546              	
 24547 b5e4 7FBD     		pop {r0-r6,pc}
 24548              	
ARM GAS  1.s 			page 432


 24549              		
 24550              	__xie_spi:
 24551 b5e6 06B4     		push {r1-r2}
 24552 b5e8 2049     		ldr r1, = 0x40013000
 24553 b5ea 0022     		movs r2, # 0x00
 24554 b5ec CA60     		str r2, [r1, # 0x0c]
 24555              	__deng_huan_chong_kong:
 24556 b5ee 0A69     		ldr r2, [r1, # 0x10]
 24557 b5f0 D207     		lsls r2, r2, # 31
 24558 b5f2 FCD5     		bpl __deng_huan_chong_kong
 24559 b5f4 8861     		str r0, [r1, # 0x18]
 24560              	__deng_huan_chong_kong1:
 24561 b5f6 0A69     		ldr r2, [r1, # 0x10]
 24562 b5f8 D207     		lsls r2, r2, # 31
 24563 b5fa FCD5     		bpl __deng_huan_chong_kong1
 24564              	__busy_zong_xian_mang:
 24565 b5fc 0A69     		ldr r2, [r1, # 0x10]
 24566 b5fe D205     		lsls r2, r2, # 23
 24567 b600 FCD4     		bmi __busy_zong_xian_mang
 24568 b602 0122     		movs r2, # 0x01
 24569 b604 CA60     		str r2, [r1, # 0x0c]
 24570 b606 06BC     		pop {r1-r2}
 24571 b608 7047     		bx lr
 24572              	
 24573              		
 24574              		
 24575              		
 24576              	
 24577              	
 24578              		
 24579              	__led_kai_guan:
 24580 b60a 07B4     		push {r0-r2}
 24581 b60c 1848     		ldr r0, = 0x48000800	@pa
 24582 b60e 1949     		ldr r1, = 0x2000
 24583 b610 C165     		str r1, [r0, # 0x5c]
 24584 b612 194A     		ldr r2, = 0xfffff
 24585              	__led_kai_yan_shi:
 24586 b614 013A     		subs r2, r2, # 1
 24587 b616 FDD1     		bne __led_kai_yan_shi
 24588 b618 8165     		str r1, [r0, # 0x58]
 24589 b61a 174A     		ldr r2, = 0xfffff
 24590              	__led_guan_yan_shi:
 24591 b61c 013A     		subs r2, r2, # 1
 24592 b61e FDD1     		bne __led_guan_yan_shi
 24593 b620 07BC     		pop {r0-r2}
 24594 b622 7047     		bx lr
 24595              	_chufa:						@软件除法
 24596              		@ r0 除以 r1 等于 商(r0)
 24597 b624 1EB5     		push {r1-r4,lr}
 24598 b626 0028     		cmp r0, # 0
 24599 b628 0ED0     		beq _chufafanhui
 24600 b62a 0029     		cmp r1, # 0
 24601 b62c 0CD0     		beq _chufafanhui
 24602 b62e 0246     		mov r2, r0
 24603 b630 0123     		movs r3, # 1
 24604 b632 DB07     		lsls r3, r3, # 31
 24605 b634 0020     		movs r0, # 0
ARM GAS  1.s 			page 433


 24606 b636 0446     		mov r4, r0
 24607              	_chufaxunhuan:
 24608 b638 5200     		lsls r2, r2, # 1
 24609 b63a 6441     		adcs r4, r4, r4
 24610 b63c 8C42     		cmp r4, r1
 24611 b63e 01D3     		bcc _chufaweishubudao0
 24612 b640 C018     		adds r0, r0, r3
 24613 b642 641A     		subs r4, r4, r1
 24614              	_chufaweishubudao0:
 24615 b644 5B08     		lsrs r3, r3, # 1
 24616 b646 F7D1     		bne _chufaxunhuan
 24617              	_chufafanhui:
 24618 b648 1EBD     		pop {r1-r4,pc}
 24619 b64a 00005A79 		.ltorg
 24619      00004332 
 24619      0000F81F 
 24619      00209F86 
 24619      0100F01F 
 24620              	_nmi:
 24621              	_Hard_Fault:
 24622              	_svc_handler:
 24623              	_pendsv_handler:	
 24624              	_systickzhongduan:
 24625 b67c 1FB5     		push {r0-r4,lr}
 24626 b67e 1A48     		ldr r0, = 0x40020000
 24627 b680 1A49     		ldr r1, = 0x107d0	@ 0x103e8
 24628 b682 4162     		str r1, [r0, # 0x24]    @传输数量
 24629 b684 1A49     		ldr r1, = dianyabiao
 24630 b686 C162     		str r1, [r0, # 0x2c]    @目的地
 24631 b688 6921     		movs r1, # 0x69
 24632 b68a 0162     		str r1, [r0, # 0x20]    @模式设置和开DMA
 24633              	
 24634              	__suan_dft:
 24635 b68c F5F7FEF8 		bl __dft
 24636 b690 184A     		ldr r2, = shangbi_rr
 24637 b692 194B     		ldr r3, = shangbi_ii
 24638 b694 1060     		str r0, [r2]
 24639 b696 1960     		str r1, [r3]
 24640 b698 0446     		mov r4, r0
 24641 b69a 184A     		ldr r2, = lvboqizhizhen1
 24642 b69c 1848     		ldr r0, =lvboqihuanchong1
 24643 b69e FFF72BFF 		bl __lv_bo_qi
 24644 b6a2 1849     		ldr r1, = shangbi_i
 24645 b6a4 0860     		str r0, [r1]
 24646 b6a6 2146     		mov r1, r4
 24647 b6a8 174A     		ldr r2, = lvboqizhizhen
 24648 b6aa 1848     		ldr r0, =lvboqihuanchong
 24649 b6ac FFF724FF 		bl __lv_bo_qi
 24650 b6b0 1749     		ldr r1, = shangbi_r
 24651 b6b2 0860     		str r0, [r1]
 24652              	
 24653              	
 24654              		
 24655 b6b4 1648     		ldr r0, = shangbi_r
 24656 b6b6 1349     		ldr r1, = shangbi_i
 24657 b6b8 0068     		ldr r0, [r0]
 24658 b6ba 0968     		ldr r1, [r1]
ARM GAS  1.s 			page 434


 24659 b6bc FFF738FF 		bl __ji_suan_fu_du
 24660 b6c0 144A     		ldr r2, = fudu
 24661 b6c2 1060     		str r0, [r2]
 24662              	
 24663 b6c4 1448     		ldr r0, = liangcheng
 24664 b6c6 154A     		ldr r2, = 0x48000800
 24665 b6c8 0368     		ldr r3, [r0]
 24666 b6ca 012B     		cmp r3, # 1
 24667 b6cc 02D0     		beq __haoou_dang
 24668              	__ou_dang:
 24669 b6ce 144B     		ldr r3, = 0x2000
 24670 b6d0 9365     		str r3, [r2, # 0x58]	@低
 24671 b6d2 01E0     		b __systick_fanhui
 24672              	__haoou_dang:
 24673 b6d4 124B     		ldr r3, = 0x2000
 24674 b6d6 D365     		str r3, [r2, # 0x5c]	@高
 24675              	
 24676              	
 24677              	
 24678              		
 24679              	
 24680              	
 24681              	
 24682              		
 24683              	__systick_fanhui:
 24684 b6d8 FFF772FF 		bl _xieshumaguan
 24685 b6dc 1148     		ldr r0, = 0xe0000d04
 24686 b6de 1249     		ldr r1, = 0x02000000
 24687 b6e0 0160     		str r1, [r0]                 @ 清除SYSTICK中断
 24688 b6e2 1FBD     		pop {r0-r4,pc}
 24689              	aaa:
 24690 b6e4 7047     		bx lr
 24691              	
 24692              		
 24693 b6e6 0000     		.section .data
 24694              		.equ f_chuchang_r,		0xf000
 24695              		.equ f_chuchang_mr,		0xf004
 24696              		.equ f_jiaodu_r,		0xf008
 24697              		.equ f_jiaodu_mr_r,		0xf00c
 24698              		.equ f_jiaodu_i,		0xf010
 24699              		.equ f_jiaodu_mr_i,		0xf014
 24700              		.equ f_r,			0xf018
 24701              		.equ f_mr,			0xf01c
 24702              		.equ f_qiwang_jiaodu_r,		0xf020
 24703              		.equ f_qiwang_jiaodu_mr,	0xf024
 24704              	
 24705              		
 24706              		.equ zhanding,		0x200000fc
 24707              		.equ dianyabiao,	0x20000100
 24708              		.equ lvboqizhizhen,             0x200010b0
 24709              		.equ lvboqihuanchong,           0x200010b8
 24710              		.equ lvboqizhizhen1,            0x20001800
 24711              		.equ lvboqihuanchong1,          0x20001808
 24712              	
 24713              	
 24714              	
 24715              	
ARM GAS  1.s 			page 435


 24716              		.equ chuchang_r,		0x20001f00
 24717              		.equ chuchang_mr,		0x20001f04
 24718              		.equ jiaodu_r,			0x20001f08
 24719              		.equ jiaodu_mr_r,		0x20001f0c
 24720              		.equ jiaodu_i,			0x20001f10
 24721              		.equ jiaodu_mr_i,		0x20001f14
 24722              		.equ r,				0x20001f18
 24723              		.equ mr,			0x20001f1c
 24724              		.equ qiwang_jiaodu_r,		0x20001f20
 24725              		.equ qiwang_jiaodu_mr,		0x20001f24
 24726              		
 24727              		.equ jiaodu,			0x20001fbc
 24728              		.equ jiaozhun_bianhao,		0x20001fc0
 24729              		.equ z_r,			0x20001fc4
 24730              		.equ z_i,			0x20001fc8
 24731              		.equ liangcheng,		0x20001fcc
 24732              		.equ fudu,			0x20001fd0
 24733              		.equ lvbo_youyi,		0x20001fd4
 24734              		.equ lvbo_changdu,		0x20001fd8
 24735              		.equ cossin,                    0x20001fdc
 24736              		.equ shangbi_r,			0x20001fe0	
 24737              		.equ shangbi_i,			0x20001fe4
 24738              		.equ shangbi_rr,		0x20001fe8
 24739              		.equ shangbi_ii,		0x20001fec
 24740              		.equ shumaguanma,		0x20001ff0
 24741              		.equ jishu,			0x20001ff8
 24742              		.equ danwei,			0x20001ffc
 24743              	
 24744              	
 24745              		@@@@@@@@@@@@@@@@@@@@@@@@@@@@@@@@@@@@@@@@@@@@@@@@@@@@@@@@@@@
 24746              		@sjb数据表
 24747              		.align 4
 24748              	p0:
 24749 0000 C0C0BF8C 		.int 0x8cbfc0c0
 24750              	p1:
 24751 0004 F9C0BF8C 		.int 0x8cbfc0f9
 24752              	p2:
 24753 0008 A4C0BF8C 		.int 0x8cbfc0a4
 24754              	wan:
 24755 000c A1AB86FF 		.int 0xff86aba1 
 24756              		.align 4
 24757              	jiaozhun_biao:
 24758 0010 89030000 		.word __qingling +1
 24759 0014 25040000 		.word __xiangwei +1
 24760 0018 EF040000 		.word __z_r	 +1
 24761 001c 00000000 		.align 4
 24762              	cordic_yong_atan_biao:			@弧度
 24763 0020 87640000 		.int 0x00006487,0x00003B58,0x00001F5B,0x00000FEA,0x000007FD,0x000003FF,0x000001FF,0x000000FF,0x000
 24763      583B0000 
 24763      5B1F0000 
 24763      EA0F0000 
 24763      FD070000 
 24764              	cordic_yong_cos_sin:
 24765 0060 00000000 		.int 0x0000,0x4000,0x2D41,0x2D41,0x3B20,0x187D,0x3EC5,0x0C7C,0x3FB1,0x0645,0x3FEC,0x0323,0x3FFB,0x
 24765      00400000 
 24765      412D0000 
 24765      412D0000 
ARM GAS  1.s 			page 436


 24765      203B0000 
 24766              	atan_biao:			@角度
 24767 00e0 00801600 		.int 0x00168000,0x000D4853,0x000704A3,0x00039000,0x0001C9C5,0x0000E51B,0x00007295,0x0000394B,0x000
 24767      53480D00 
 24767      A3040700 
 24767      00900300 
 24767      C5C90100 
 24768              		
 24769 0134 00000000 		.align 4
 24769      00000000 
 24769      00000000 
 24770              	chuchang_jiaozhun_r:
 24771 0140 37740000 		.int 29751
 24772              	chuchang_jiaozhun_mr:
 24773 0144 7F6F0000 		.int 28543
 24774              	chuchang_jiaodu_r:
 24775 0148 5FE4FFFF 		.int -7073
 24776              	chuchang_jiaodu_mr_r:
 24777 014c 5FE4FFFF 		.int -7073
 24778              	chuchang_jiaodu_i:
 24779 0150 0583FFFF 		.int -31995
 24780              	chuchang_jiaodu_mr_i:
 24781 0154 0583FFFF 		.int -31995
 24782              	chuchnag_duanlu_qingling_r:
 24783 0158 00000000 		.int 0
 24784              	chuchang_duanlu_qingling_mr:
 24785 015c 00000000 		.int 0
 24786              	chuchang_qiwang_jiaodu:
 24787 0160 28D8FFFF 		.int -10200
 24788              	chuchang_qiwang_jiaodu_r:
 24789 0164 28D8FFFF 		.int -10200
 24790              		
 24791 0168 00000000 		.align 4
 24791      00000000 
 24792              	danwei_biao:
 24793 0170 4080     		.byte 0x40,0x80
 24794              	xiaoshudian_weizhi:
 24795 0172 0103     		.byte 1,3
 24796              		
 24797 0174 00000000 		.align 4
 24797      00000000 
 24797      00000000 
 24798              	an_jian_biao:
 24799 0180 AB010000 		.word __anjian0	+1
 24800 0184 AD010000 		.word __anjian1	+1
 24801 0188 A7020000 		.word __anjian2	+1
 24802 018c F3020000 		.word __anjian3	+1
 24803              		.align 4
 24804              	shumaguanmabiao:
 24805 0190 C0F9A4B0 		.byte 0xc0,0xf9,0xa4,0xb0,0x99,0x92,0x82,0xf8,0x80,0x90
 24805      999282F8 
 24805      8090
 24806 019a 00000000 		.align 4
 24806      0000
 24807              	shumaguanshuaxinbiao:
 24808 01a0 20100804 		.byte 0x20,0x10,0x08,0x04,0x02,0x00
 24808      0200
ARM GAS  1.s 			page 437


 24809 01a6 00000000 		.align 4
 24809      00000000 
 24809      0000
 24810              	cos_sin_biao_1k:
 24811 01b0 00800000 		.int 0x8000,0x0000,0x7FFF,0xFFFFFF33,0x7FFD,0xFFFFFE65,0x7FFA,0xFFFFFD97,0x7FF5,0xFFFFFCC9,0x7FEF,
 24811      00000000 
 24811      FF7F0000 
 24811      33FFFFFF 
 24811      FD7F0000 
ARM GAS  1.s 			page 438


DEFINED SYMBOLS
                 1.s:8      .text:00000000 vectors
                            *ABS*:200000fc zhanding
                 1.s:57     .text:000000c0 kaishi
                 1.s:24620  .text:0000b67c _nmi
                 1.s:24621  .text:0000b67c _Hard_Fault
                 1.s:24622  .text:0000b67c _svc_handler
                 1.s:24623  .text:0000b67c _pendsv_handler
                 1.s:24624  .text:0000b67c _systickzhongduan
                 1.s:24689  .text:0000b6e4 aaa
                 1.s:59     .text:000000c0 shizhong
                            .text:00000000 $d
                 1.s:64     .text:000000c0 $t
                 1.s:67     .text:000000c6 deng_hse
                 1.s:75     .text:000000d4 deng_pll
                 1.s:84     .text:000000e2 __wai_she_shi_zhong
                 1.s:99     .text:000000ec _neicunqingling
                 1.s:103    .text:000000f2 _neicunqinglingxunhuan
                 1.s:108    .text:000000fa __pa_chu_shi_hua
                 1.s:123    .text:00000108 __pb_chu_shi_hua
                 1.s:139    .text:0000011a __pc_chu_shi_hua
                 1.s:146    .text:00000122 __spi1_chu_shi_hua
                 1.s:157    .text:00000128 __GTIM3_chu_shi_hua
                 1.s:181    .text:00000142 __adc_chu_shi_hua
                 1.s:187    .text:00000148 __deng_chu_shi_hua
                 1.s:203    .text:00000162 __DMA_chu_shi_hua
                            *ABS*:20000100 dianyabiao
                            *ABS*:20001fd8 lvbo_changdu
                            *ABS*:20001fd4 lvbo_youyi
                            *ABS*:20001fdc cossin
                 1.s:24810  .data:000001b0 cos_sin_biao_1k
                 1.s:227    .text:0000018a __huifu_chuchang
                            *ABS*:0000f000 f_chuchang_r
                 1.s:249    .text:000001aa __tiaoguo_chuchang_chushihua
                 1.s:24770  .data:00000140 chuchang_jiaozhun_r
                            *ABS*:20001f00 chuchang_r
                 1.s:236    .text:0000019a __du_chuchang_xunhuan
                 1.s:692    .text:00000596 __xie_flash
                 1.s:252    .text:000001aa __anjian0
                 1.s:748    .text:000005f0 ting
                 1.s:254    .text:000001ac __anjian1
                 1.s:255    .text:000001ac __dangwei_jia_deng_songshou
                 1.s:740    .text:000005e4 __jiaozhun_yanshi
                 1.s:1059   .text:00000880 __an_jian
                 1.s:283    .text:000002a4 __anjian_3
                 1.s:269    .text:000001ce __dangwei_jia_le
                 1.s:952    .text:000007c8 __xiangwei_xuanzhuan
                            *ABS*:20001fc4 z_r
                            *ABS*:0000f018 f_r
                 1.s:1011   .text:00000834 __xianshi_neizu
                            *ABS*:20001fcc liangcheng
                 1.s:279    .text:000001de __anjian1_fanhui
                 1.s:685    .text:0000058a __ren_wu_diao_du
                 1.s:281    .text:000001e0 $d
                 1.s:327    .text:000002f2 __anjian3
                 1.s:284    .text:000002a4 $t
                 1.s:285    .text:000002a6 __anjian2
ARM GAS  1.s 			page 439


                 1.s:286    .text:000002a6 __xianshi_jiaodu
                            *ABS*:20001fbc jiaodu
                            *ABS*:20001fe0 shangbi_r
                            *ABS*:20001fe4 shangbi_i
                 1.s:889    .text:0000073e __atan2_ji_suan
                 1.s:299    .text:000002c2 __xianshi_j_d
                 1.s:314    .text:000002dc __xian_shi_j_d
                 1.s:307    .text:000002d0 __j_d_shi_fu
                            *ABS*:20001ffc danwei
                 1.s:320    .text:000002e6 __xianshi_j_d1
                 1.s:24495  .text:0000b588 _zhuanshumaguanma
                 1.s:375    .text:00000350 __xianshi_jiaozhun_caidan
                 1.s:334    .text:00000302 __anjian3_xunhuan
                 1.s:342    .text:00000314 __jiaozhun_caidan_jia_deng_songshou
                 1.s:388    .text:00000366 __jinru_jiaozhun_caidan_deng_songshou
                 1.s:362    .text:0000033c __tiaochu_anjian3
                 1.s:351    .text:0000032a __jiaozhun_caidan_jia_le
                            *ABS*:20001fc0 jiaozhun_bianhao
                 1.s:360    .text:0000033a __anjian3_fanhui
                 1.s:364    .text:0000033e __yy1
                 1.s:24754  .data:0000000c wan
                            *ABS*:20001ff0 shumaguanma
                 1.s:24748  .data:00000000 p0
                 1.s:398    .text:0000037c __jinru_jiaozhun_caidan
                 1.s:24757  .data:00000010 jiaozhun_biao
                 1.s:408    .text:00000388 __qingling
                 1.s:762    .text:00000680 __du_jiaozhunbiao
                 1.s:413    .text:00000392 __duanlu_qingling
                 1.s:481    .text:00000410 __duanlu_qingling_xianshi
                 1.s:421    .text:000003a4 __qingling_jia
                 1.s:438    .text:000003c6 __qingling_jian
                 1.s:456    .text:000003e8 __qingling_baocun
                 1.s:429    .text:000003b6 __qingling_jiale
                            *ABS*:20001f18 r
                 1.s:446    .text:000003d8 __qingling_jianle
                 1.s:463    .text:000003f4 __duanlu_qingling_wan
                 1.s:468    .text:000003fa __yy
                 1.s:494    .text:00000424 __xiangwei
                 1.s:501    .text:0000042e __shezhi_jiaodu
                 1.s:502    .text:0000042e __shezhi_jiaodu1
                 1.s:567    .text:000004a8 __shezhi_jiaodu_xianshi
                 1.s:510    .text:00000440 __jiaodu_jia
                 1.s:527    .text:00000462 __jiaodu_jian
                 1.s:545    .text:00000484 __jiaodu_shezhi_baocun
                 1.s:518    .text:00000452 __jiaodu_jiale
                            *ABS*:20001f20 qiwang_jiaodu_r
                 1.s:552    .text:00000490 __jiaodu_shezhi_wan
                 1.s:535    .text:00000474 __jiaodu_jianle
                 1.s:554    .text:00000492 __yy2
                 1.s:24792  .data:00000170 danwei_biao
                 1.s:782    .text:00000694 __jisuan_cos_sin
                            *ABS*:20001f08 jiaodu_r
                            *ABS*:20001f10 jiaodu_i
                 1.s:981    .text:000007fe __xiangwei_xuanzhuan1
                            *ABS*:20001fc8 z_i
                 1.s:602    .text:000004ee __z_r
                 1.s:607    .text:000004f8 __shezhi_z_r
ARM GAS  1.s 			page 440


                 1.s:675    .text:00000576 __shezhi_z_r_xianshi
                 1.s:615    .text:0000050a __shezhi_z_r_jia
                 1.s:632    .text:0000052c __shezhi_z_r_jian
                 1.s:650    .text:0000054e __shezhi_z_r_baocun
                 1.s:623    .text:0000051c __shezhi_z_r_jiale
                 1.s:640    .text:0000053e __shezhi_z_r_jianle
                 1.s:657    .text:0000055a __shezhi_z_r_wan
                 1.s:662    .text:00000560 __yy3
                 1.s:24798  .data:00000180 an_jian_biao
                 1.s:731    .text:000005d8 __flash_mang
                 1.s:711    .text:000005b8 __xie_flash_xun_huan
                 1.s:743    .text:000005e8 __jiaozhun_yanshi_xunhuan
                 1.s:757    .text:00000602 $d
                 1.s:757    .text:00000604 $d
                 1.s:763    .text:00000680 $t
                 1.s:766    .text:00000686 __du_jiaozhunbiao_xunhuan
                 1.s:792    .text:000006a2 __xiaoyu_180
                 1.s:794    .text:000006a4 __js_cos_sin
                 1.s:803    .text:000006b4 __jisuan_jiaodu_bushi0
                 1.s:805    .text:000006b6 __jiance_chao90
                 1.s:812    .text:000006c2 __xiaoyu_90
                 1.s:814    .text:000006c4 __suan_cossin
                 1.s:24595  .text:0000b624 _chufa
                 1.s:827    .text:000006dc __suan_cos_sin1
                 1.s:842    .text:000006f6 __cordic_cos_sin
                 1.s:833    .text:000006e8 __cos_sin_fanhui
                 1.s:840    .text:000006f4 __cossin_fh
                 1.s:856    .text:00000706 cordicxunhuan
                 1.s:24762  .data:00000020 cordic_yong_atan_biao
                 1.s:24764  .data:00000060 cordic_yong_cos_sin
                 1.s:902    .text:00000754 __cordic_atan2_xun_huan
                 1.s:903    .text:00000754 __du_cos_sin
                 1.s:923    .text:00000778 __ni_shi_zhen_zhuan
                 1.s:916    .text:0000076c __shun_shi_zhen_zhuan
                 1.s:929    .text:00000782 __xuan_zhuan_wan
                 1.s:948    .text:000007a4 $d
                 1.s:953    .text:000007c8 $t
                            *ABS*:0000f008 f_jiaodu_r
                            *ABS*:0000f010 f_jiaodu_i
                 1.s:24794  .data:00000172 xiaoshudian_weizhi
                 1.s:1049   .text:00000878 __xian_shi_nei_zu
                 1.s:1070   .text:0000088c __dft
                 1.s:1086   .text:000008e4 __dft_xunhuan
                 1.s:1085   .text:000008a8 $d
                 1.s:1089   .text:000008e4 $t
                 1.s:24380  .text:0000b4da __dft_fanhuile
                 1.s:24391  .text:0000b4ee $d
                 1.s:24391  .text:0000b4f0 $d
                 1.s:24395  .text:0000b4f8 __lv_bo_qi
                 1.s:24399  .text:0000b4f8 $t
                 1.s:24415  .text:0000b518 __huanchong_leijia
                 1.s:24424  .text:0000b528 $d
                 1.s:24425  .text:0000b530 __ji_suan_fu_du
                 1.s:24430  .text:0000b530 $t
                 1.s:24435  .text:0000b53a _shibubushifushu
                 1.s:24440  .text:0000b542 _xububushifushu
                 1.s:24445  .text:0000b54a _panduanxubushibushi0
ARM GAS  1.s 			page 441


                 1.s:24449  .text:0000b550 _jisuanfudu1
                 1.s:24462  .text:0000b566 _alpha_min_beta_max
                 1.s:24454  .text:0000b558 _alpha_max_beta_min
                 1.s:24482  .text:0000b574 __jishu
                            *ABS*:20001ff8 jishu
                 1.s:24491  .text:0000b584 __jisuan_fanhui
                 1.s:24804  .data:00000190 shumaguanmabiao
                 1.s:24507  .text:0000b59c _xunhuanqiuma
                 1.s:24516  .text:0000b5ae __tian_jia_xiao_shu_dian
                 1.s:24518  .text:0000b5b0 __bao_cun_shu_ma_guan_ma
                 1.s:24527  .text:0000b5c0 _xieshumaguan
                 1.s:24807  .data:000001a0 shumaguanshuaxinbiao
                 1.s:24535  .text:0000b5ce _shumaguanshuaxin
                 1.s:24550  .text:0000b5e6 __xie_spi
                 1.s:24555  .text:0000b5ee __deng_huan_chong_kong
                 1.s:24560  .text:0000b5f6 __deng_huan_chong_kong1
                 1.s:24564  .text:0000b5fc __busy_zong_xian_mang
                 1.s:24579  .text:0000b60a __led_kai_guan
                 1.s:24585  .text:0000b614 __led_kai_yan_shi
                 1.s:24590  .text:0000b61c __led_guan_yan_shi
                 1.s:24617  .text:0000b648 _chufafanhui
                 1.s:24607  .text:0000b638 _chufaxunhuan
                 1.s:24614  .text:0000b644 _chufaweishubudao0
                 1.s:24619  .text:0000b64a $d
                 1.s:24619  .text:0000b64c $d
                 1.s:24625  .text:0000b67c $t
                 1.s:24634  .text:0000b68c __suan_dft
                            *ABS*:20001fe8 shangbi_rr
                            *ABS*:20001fec shangbi_ii
                            *ABS*:20001800 lvboqizhizhen1
                            *ABS*:20001808 lvboqihuanchong1
                            *ABS*:200010b0 lvboqizhizhen
                            *ABS*:200010b8 lvboqihuanchong
                            *ABS*:20001fd0 fudu
                 1.s:24672  .text:0000b6d4 __haoou_dang
                 1.s:24668  .text:0000b6ce __ou_dang
                 1.s:24683  .text:0000b6d8 __systick_fanhui
                 1.s:24695  *ABS*:0000f004 f_chuchang_mr
                 1.s:24697  *ABS*:0000f00c f_jiaodu_mr_r
                 1.s:24699  *ABS*:0000f014 f_jiaodu_mr_i
                 1.s:24701  *ABS*:0000f01c f_mr
                 1.s:24702  *ABS*:0000f020 f_qiwang_jiaodu_r
                 1.s:24703  *ABS*:0000f024 f_qiwang_jiaodu_mr
                 1.s:24717  *ABS*:20001f04 chuchang_mr
                 1.s:24719  *ABS*:20001f0c jiaodu_mr_r
                 1.s:24721  *ABS*:20001f14 jiaodu_mr_i
                 1.s:24723  *ABS*:20001f1c mr
                 1.s:24725  *ABS*:20001f24 qiwang_jiaodu_mr
                 1.s:24747  .data:00000000 $d
                 1.s:24750  .data:00000004 p1
                 1.s:24752  .data:00000008 p2
                 1.s:24766  .data:000000e0 atan_biao
                 1.s:24772  .data:00000144 chuchang_jiaozhun_mr
                 1.s:24774  .data:00000148 chuchang_jiaodu_r
                 1.s:24776  .data:0000014c chuchang_jiaodu_mr_r
                 1.s:24778  .data:00000150 chuchang_jiaodu_i
                 1.s:24780  .data:00000154 chuchang_jiaodu_mr_i
ARM GAS  1.s 			page 442


                 1.s:24782  .data:00000158 chuchnag_duanlu_qingling_r
                 1.s:24784  .data:0000015c chuchang_duanlu_qingling_mr
                 1.s:24786  .data:00000160 chuchang_qiwang_jiaodu
                 1.s:24788  .data:00000164 chuchang_qiwang_jiaodu_r
                 1.s:24693  .text:0000b6e6 $d
                 1.s:24811  .text:0000b6e8 $d

NO UNDEFINED SYMBOLS
