ARM GAS  1.s 			page 1


   1              		@cw32f030c8t6
   2              		@编译器ARM-NONE-EABI
   3              		@墙体探测仪
   4              		@yjmwxwx-2024-01-01
   5              		.thumb
   6              		.syntax unified
   7              		.section .text
   8              	vectors:
   9 0000 FC000020 		.word zhanding
  10 0004 C1000000 		.word kaishi + 1
  11 0008 7DB70000 		.word _nmi	+1
  12 000c 7DB70000 		.word _Hard_Fault +1
  13 0010 00000000 		.word 0
  14 0014 00000000 		.word 0
  15 0018 00000000 		.word 0
  16 001c 00000000 		.word 0
  17 0020 00000000 		.word 0
  18 0024 00000000 		.word 0
  19 0028 00000000 		.word 0
  20 002c 7DB70000 		.word _svc_handler +1
  21 0030 00000000 		.word 0
  22 0034 00000000 		.word 0
  23 0038 7DB70000 		.word _pendsv_handler +1
  24 003c 7FB70000 		.word _systickzhongduan +1  @ 15
  25 0040 7DB70000 		.word aaa +1                @ 0		WDT
  26 0044 7DB70000 		.word aaa +1                @ 1		LVD
  27 0048 7DB70000 		.word aaa +1                @ 2		RTC
  28 004c 7DB70000 		.word aaa +1                @ 3		FLASHRAM
  29 0050 7DB70000 		.word aaa +1                @ 4		RCC
  30 0054 7DB70000 		.word aaa +1         	    @ 5		GPIOA
  31 0058 7DB70000 		.word aaa +1                @ 6		GPIOB
  32 005c 7DB70000 		.word aaa +1                @ 7		GPIOC
  33 0060 7DB70000 		.word aaa +1                @ 8		GPIOF
  34 0064 7DB70000 		.word aaa +1		    @ 9		DMA1
  35 0068 7DB70000 		.word aaa +1                @ 10	DMA23
  36 006c 7DB70000 		.word aaa +1                @ 11	DMA45
  37 0070 7DB70000 		.word aaa +1                @ 12	ADC
  38 0074 7DB70000 		.word aaa +1                @ 13	ATIM
  39 0078 7DB70000 		.word aaa +1                @ 14	VC1
  40 007c 7DB70000 		.word aaa +1                @ 15	VC2
  41 0080 7DB70000 		.word aaa +1                @ 16	GTIM1
  42 0084 7DB70000 		.word aaa +1                @ 17	GITM2
  43 0088 7DB70000 		.word aaa +1                @ 18	GTIM3
  44 008c 7DB70000 		.word aaa +1                @ 19	GTIM4
  45 0090 7DB70000 		.word aaa +1                @ 20	BTIM1
  46 0094 7DB70000 		.word aaa +1                @ 21	BTIM2
  47 0098 7DB70000 		.word aaa +1                @ 22	BTIM3
  48 009c 7DB70000 		.word aaa +1                @ 23	I2C1
  49 00a0 7DB70000 		.word aaa +1                @ 24	I2C2
  50 00a4 7DB70000 		.word aaa +1                @ 25	SPI1
  51 00a8 7DB70000 		.word aaa +1                @ 26	SPI2
  52 00ac 7DB70000 		.word aaa +1                @ 27	UART1
  53 00b0 7DB70000 		.word aaa +1		    @ 28	UART2
  54 00b4 7DB70000 		.word aaa +1		    @ 29	UART3
  55 00b8 7DB70000 		.word aaa +1		    @ 30	AWT
  56 00bc 7DB70000 	 	.word aaa +1		    @ 31	FAULT
  57              	kaishi:
ARM GAS  1.s 			page 2


  58              	@	bkpt # 1
  59              	shizhong:
  60              	@	ldr r0, = 0x40022000   @FLASH访问控制
  61              	@	ldr r1, = 0x5a51001a
  62              	@	str r1, [r0, # 0x04]           @FLASH缓冲 缓冲开启	
  63 00c0 B848     		ldr r0, = 0x40010000 @ rcc
  64 00c2 B949     		ldr r1, = 0x5a5a0183
  65 00c4 4160     		str r1, [r0, # 0x04]
  66 00c6 B949     		ldr r1, = 0x7ff2e
  67 00c8 C161     		str r1, [r0, # 0x1c]
  68              	deng_hse:
  69 00ca C169     		ldr r1, [r0, # 0x1c]
  70 00cc 0903     		lsls r1, r1, # 12
  71 00ce FCD5     		bpl deng_hse
  72 00d0 B749     		ldr r1, = 0x5a5a0001
  73 00d2 0160     		str r1, [r0]	@HSE作为系统时钟	
  74 00d4 B749     		ldr r1, = 0x5a5a0182
  75 00d6 4160     		str r1, [r0, # 0x04]	@关HSI
  76              		
  77              	__wai_she_shi_zhong:
  78 00d8 B248     		ldr r0, = 0x40010000
  79              		@+0x30 0=DMA,1=FLASH,2=CRC,4=PA,5=PB,6=PC,9=PF
  80 00da B749     		ldr r1, = 0x273
  81 00dc 0163     		str r1, [r0, # 0x30]
  82              	
  83              		@+0X34 2=ADC,4=VC,7=ATIM,8=SPI1,9=UART1,10=GTIM3
  84              		@11=GTIM4,12=BTIM,13=AWT
  85              	
  86 00de B749     		ldr r1, = 0xd04
  87 00e0 4163     		str r1, [r0, # 0x34]
  88              		
  89              		@+0X38 1=GTIM1,2=GTIM2,3=RTC,4=WWDT,5=IWDT,6=SPI2
  90              		@7=UART2,8=UART3,11=I2C1,12=I2C2
  91              	
  92              	_neicunqingling:
  93 00e2 B748     		ldr r0, = 0x20002000
  94 00e4 B74A     		ldr r2, = 0x20000000
  95 00e6 0021     		movs r1, # 0
  96              	_neicunqinglingxunhuan:
  97 00e8 0438     		subs r0, r0, # 4
  98 00ea 0160     		str r1, [r0]
  99 00ec 9042     		cmp r0, r2
 100 00ee FBD1     		bne _neicunqinglingxunhuan
 101              	__pa_chu_shi_hua:
 102 00f0 B548     		ldr r0, = 0x48000000 @pa
 103 00f2 B649     		ldr r1, = 0x7Dff
 104 00f4 0160     		str r1, [r0]		@0=输出，1=输入
 105 00f6 B649     		ldr r1, = 0x1Dff
 106 00f8 C161     		str r1, [r0, # 0x1c]	@0=数字，1=模拟
 107              	
 108              	
 109              	
 110              	
 111              		
 112 00fa B649     		ldr r1, = 0x50000060
 113 00fc 4161     		str r1, [r0, # 0x14]	@复用8-15
 114              		@str r1, [r0, # 0x18]	@复用0-7
ARM GAS  1.s 			page 3


 115              	
 116              	
 117              	
 118              	__pb_chu_shi_hua:
 119              	
 120 00fe B648     		ldr r0, = 0x48000400 @pb
 121 0100 B649     		ldr r1, = 0x7fc7
 122 0102 0160     		str r1, [r0]            @0=输出，1=输入
 123 0104 B649     		ldr r1, = 0x7f07
 124 0106 C161     		str r1, [r0, # 0x1c]    @0=数字，1=模拟
 125              	
 126 0108 C021     		movs r1, # 0xc0
 127 010a 0161     		str r1, [r0, # 0x10]	@上拉
 128              	
 129 010c AD49     		ldr r1, = 0x20000000
 130 010e 4161     		str r1, [r0, # 0x14]    @复用8-15
 131 0110 B449     		ldr r1, = 0x505000
 132 0112 8161     		str r1, [r0, # 0x18]	@复用0-7
 133              	
 134              		
 135              	__pc_chu_shi_hua:	
 136 0114 B44B     		ldr r3, = 0xc000	
 137 0116 B548     		ldr r0, = 0x48000800 @pc
 138 0118 C361     		str r3, [r0, # 0x1c]
 139 011a 0360     		str r3, [r0]
 140              	
 141              	
 142              	__GTIM3_chu_shi_hua:
 143 011c B448     		ldr r0, = 0x40014000
 144 011e B549     		ldr r1, = 239		@31999
 145 0120 B54A     		ldr r2, = 0x300
 146 0122 8150     		str r1, [r0, r2]	@ARR
 147 0124 B54A     		ldr r2, = 0x320
 148 0126 B649     		ldr r1, = 120		@15999
 149 0128 8150     		str r1, [r0, r2]	@CCR1
 150 012a B649     		ldr r1, = 0x0e
 151 012c B64A     		ldr r2, = 0x308
 152 012e 8150     		str r1, [r0, r2]	@CCMR
 153 0130 0121     		movs r1, # 0x01
 154 0132 B64A     		ldr r2, = 0x310
 155 0134 8150     		str r1, [r0, r2]		@CR0
 156              	
 157              	__GTIM4_chu_shi_hua:
 158 0136 B648     		ldr r0, = 0x40014400
 159 0138 B649     		ldr r1, = 23999           @31999
 160 013a AF4A     		ldr r2, = 0x300
 161 013c 8150     		str r1, [r0, r2]        @ARR
 162 013e AF4A     		ldr r2, = 0x320
 163 0140 B549     		ldr r1, = 12000           @15999
 164 0142 8150     		str r1, [r0, r2]        @CCR1
 165 0144 AF49     		ldr r1, = 0x0e
 166 0146 B04A     		ldr r2, = 0x308
 167 0148 8150     		str r1, [r0, r2]        @CCMR
 168 014a 0121     		movs r1, # 0x01
 169 014c AF4A     		ldr r2, = 0x310
 170 014e 8150     		str r1, [r0, r2]                @CR0
 171              		
ARM GAS  1.s 			page 4


 172              	
 173              		
 174              	
 175              	__adc_chu_shi_hua:
 176 0150 B248     		ldr r0, = 0x40012400
 177 0152 C521     		movs r1, # 0xc5 	@0xc1	@0xc5
 178 0154 0160     		str r1, [r0]			@开ADC
 179              		@	movs r1, # 0x01
 180              		@	str r1, [r0, # 0x1c]		@ATIM触发ADC
 181              	__deng_chu_shi_hua:
 182 0156 C16B     		ldr r1, [r0, # 0x3c]
 183 0158 0906     		lsls r1, r1, # 24
 184 015a FCD5     		bpl __deng_chu_shi_hua		@等ADC初始化完成
 185 015c 8021     		movs r1, # 0x80
 186 015e 4160     		str r1, [r0, # 0x04]		@开DMA和通道选择
 187 0160 0121     		movs r1, # 0x01
 188 0162 8160     		str r1, [r0, # 0x08]		@开ADC转换
 189              	
 190 0164 AE4C     		ldr r4, = 0xe000e010
 191 0166 AF4B     		ldr r3, = 47999		@239999
 192 0168 6360     		str r3, [r4, # 4]
 193 016a A360     		str r3, [r4, # 8]
 194 016c 0723     		movs r3, # 0x07
 195 016e 2360     		str r3, [r4]    @systick 开
 196              	
 197              	__DMA_chu_shi_hua:
 198 0170 AD48     		ldr r0, = 0x40020000
 199 0172 AE49     		ldr r1, = 0x107d0	@0x103e8
 200 0174 4162     		str r1, [r0, # 0x24]    @传输数量
 201 0176 AE49     		ldr r1, = 0x40012420
 202 0178 8162     		str r1, [r0, # 0x28]    @传输源
 203 017a AE49     		ldr r1, = dianyabiao
 204 017c C162     		str r1, [r0, # 0x2c]    @目的地
 205 017e 2921     		movs r1, # 0x29
 206 0180 0163     		str r1, [r0, # 0x30]    @触发源
 207 0182 6921     		movs r1, # 0x69
 208 0184 0162     		str r1, [r0, # 0x20]    @模式设置和开DMA
 209              	
 210 0186 AC48     		ldr r0, = lvbo_changdu
 211 0188 AC49     		ldr r1, = lvbo_youyi
 212 018a AD4A     		ldr r2, =  400
 213 018c 0260     		str r2, [r0]
 214 018e 0E22     		movs r2, # 14
 215 0190 0A60     		str r2, [r1]
 216              	
 217 0192 AC48     		ldr r0, = cossin
 218 0194 AC49     		ldr r1, = cos_sin_biao_100k
 219 0196 0160     		str r1, [r0]
 220              	
 221              	
 222              	
 223              	
 224              	
 225              		
 226              	__spi1_chu_shi_hua:
 227 0198 AC48     		ldr r0, = 0x40013000
 228 019a AD49     		ldr r1, = 0x5e74	@8位	@0x7e74 16位
ARM GAS  1.s 			page 5


 229 019c 0160     		str r1, [r0]
 230              	
 231 019e 00F01DFB 		bl __lcd_chushihua
 232 01a2 00F07FFB 		bl __lcd_qingping
 233              	
 234 01a6 AB48     		ldr r0, = yjmwxwx
 235 01a8 1221     		movs r1, # 18           @显示几个字符
 236 01aa AB4A     		ldr r2, = 0x0000         @LCD位置lcd位置(高8位0-0x83,低8位0-7)
 237 01ac 00F0BFFB 		bl __xie_ascii
 238              		
 239 01b0 AA48     		ldr r0, = ling_min_du
 240 01b2 6422     		movs r2, # 100
 241 01b4 0260     		str r2, [r0]
 242              	
 243 01b6 AA48     		ldr r0, = 0xffffff
 244              	__xiangwei_xuanzhuan_yanshi:
 245 01b8 0138     		subs r0, r0, # 1
 246 01ba FDD1     		bne __xiangwei_xuanzhuan_yanshi
 247 01bc 00F072FB 		bl __lcd_qingping
 248              		
 249              		
 250 01c0 A848     	        ldr r0, = shangbi_r
 251 01c2 A949     		ldr r1, = shangbi_i
 252 01c4 0068     		ldr r0, [r0]
 253 01c6 0968     		ldr r1, [r1]
 254 01c8 8010     		asrs r0, r0, # 2
 255 01ca 8910     		asrs r1, r1, # 2
 256 01cc 00F0BDFA 		bl __atan2_ji_suan
 257 01d0 C013     		asrs r0, r0, # 15
 258 01d2 A649     		ldr r1, = -9000
 259 01d4 4018     		adds r0, r0, r1
 260 01d6 00F063FA 		bl __jisuan_cos_sin
 261 01da A54A     		ldr r2, = jiaodu_r
 262 01dc A54B     		ldr r3, = jiaodu_i
 263 01de 1060     		str r0, [r2]
 264 01e0 1960     		str r1, [r3]
 265              		
 266              	
 267              	
 268              		
 269              	__anjian0:
 270              		
 271              	
 272 01e2 87E0     		b ting
 273              	__anjian1:
 274              	
 275              	
 276 01e4 9F48     		ldr r0, = shangbi_r
 277 01e6 A049     		ldr r1, = shangbi_i
 278 01e8 0068     		ldr r0, [r0]
 279 01ea 0968     		ldr r1, [r1]
 280 01ec 8010     		asrs r0, r0, # 2
 281 01ee 8910     		asrs r1, r1, # 2
 282 01f0 00F0ABFA 		bl __atan2_ji_suan
 283 01f4 C013     		asrs r0, r0, # 15
 284 01f6 9D49     		ldr r1, = -9000
 285 01f8 4018     		adds r0, r0, r1
ARM GAS  1.s 			page 6


 286 01fa 00F051FA 		bl __jisuan_cos_sin
 287 01fe 9C4A     		ldr r2, = jiaodu_r
 288 0200 9C4B     		ldr r3, = jiaodu_i
 289 0202 1060     		str r0, [r2]
 290 0204 1960     		str r1, [r3]
 291 0206 00F037FA 		bl __xiangwei_xuanzhuan
 292              		
 293 020a 9B4A     		ldr r2, = qingling_r
 294 020c 9B4B     		ldr r3, = qingling_i
 295 020e 1060     		str r0, [r2]
 296 0210 1960     		str r1, [r3]
 297 0212 5DE0     		b __ren_wu_diao_du
 298              		
 299 0214 9348     		ldr r0, = shangbi_r
 300 0216 9449     		ldr r1, = shangbi_i
 301 0218 0068     		ldr r0, [r0]
 302 021a 0968     		ldr r1, [r1]
 303 021c 964A     		ldr r2, = qingling_r
 304 021e 974B     		ldr r3, = qingling_i
 305 0220 1060     		str r0, [r2]
 306 0222 1960     		str r1, [r3]
 307 0224 54E0     		b __ren_wu_diao_du
 308              		
 309              	__anjian2:
 310 0226 944A     		ldr r2, = qingling_r
 311 0228 944B     		ldr r3, = qingling_i
 312 022a 0020     		movs r0, # 0
 313 022c 1060     		str r0, [r2]
 314 022e 1860     		str r0, [r3]
 315              		
 316 0230 4EE0     		b __ren_wu_diao_du
 317              	__anjian3:
 318 0232 00F059F8 	        bl __an_jian
 319 0236 0328     		cmp r0, # 3
 320 0238 FBD0     		beq __anjian3
 321 023a 0028     		cmp r0, # 0
 322 023c F9D1     		bne __anjian3
 323              		
 324 023e 00F031FB 		bl __lcd_qingping
 325              	__anjian_0:	
 326 0242 8F48     		ldr r0, = lingmindu
 327 0244 0B21     		movs r1, # 11           @显示几个字符
 328 0246 844A     		ldr r2, = 0x0000         @LCD位置lcd位置(高8位0-0x83,低8位0-7)
 329 0248 00F071FB 		bl __xie_ascii
 330 024c 46E0     		b __ren_wu_diao_du1
 331              	__anjian_1:
 332 024e 00F02CF8 		bl __lingmin_du_yanshi
 333 0252 8C4A     		ldr r2, = 50000
 334 0254 8149     		ldr r1, = ling_min_du
 335 0256 0868     		ldr r0, [r1]
 336 0258 0130     		adds r0, r0, # 1
 337 025a 0860     		str r0, [r1]
 338 025c 9042     		cmp r0, r2
 339 025e 01D3     		bcc __anjian_1_fanhui
 340 0260 1000     		movs r0, r2
 341 0262 0860     		str r0, [r1]
 342              	__anjian_1_fanhui:
ARM GAS  1.s 			page 7


 343 0264 00F027F8 		bl __lingmin_du_xianshi
 344 0268 38E0     		b __ren_wu_diao_du1
 345              	__anjian_2:
 346 026a 00F01EF8 		bl __lingmin_du_yanshi
 347 026e 854A     	        ldr r2, = 50000
 348 0270 7A49     		ldr r1, = ling_min_du
 349 0272 0868     		ldr r0, [r1]
 350 0274 0138     		subs r0, r0, # 1
 351 0276 0860     		str r0, [r1]
 352 0278 9042     		cmp r0, r2
 353 027a 01D3     		bcc __anjian_2_fanhui
 354 027c 0020     		movs r0, # 0
 355 027e 0860     		str r0, [r1]
 356              	__anjian_2_fanhui:
 357 0280 00F019F8 		bl __lingmin_du_xianshi
 358 0284 2AE0     		b __ren_wu_diao_du1
 359              		
 360              	__anjian_3:
 361 0286 00F00DFB 		bl __lcd_qingping
 362              	__anjian__3:	
 363 028a 7F48     		ldr r0, = she_zhi_wan
 364 028c 0B21     		movs r1, # 11           @显示几个字符
 365 028e 724A     		ldr r2, = 0x0000         @LCD位置lcd位置(高8位0-0x83,低8位0-7)
 366 0290 00F04DFB 		bl __xie_ascii
 367              		
 368 0294 00F028F8 		bl __an_jian
 369 0298 0328     		cmp r0, # 3
 370 029a F6D0     		beq __anjian__3
 371 029c 0028     		cmp r0, # 0
 372 029e F4D1     		bne __anjian__3
 373 02a0 00F000FB 		bl __lcd_qingping
 374 02a4 00F001F8 		bl __lingmin_du_yanshi
 375 02a8 12E0     		b __ren_wu_diao_du
 376              		
 377              	__lingmin_du_yanshi:
 378 02aa 01B4     		push {r0}
 379 02ac 7748     		ldr r0, = 0x3ffff
 380              	__lingmin_du_yanshi_xunhuan:
 381 02ae 0138     		subs r0, r0, # 1
 382 02b0 FDD1     		bne __lingmin_du_yanshi_xunhuan
 383 02b2 01BC     		pop {r0}
 384 02b4 7047     		bx lr
 385              	__lingmin_du_xianshi:
 386              		@入口R0
 387 02b6 0EB5     		push {r1-r3,lr}
 388 02b8 0621     		movs r1, # 6
 389 02ba 754A     		ldr r2, = asciibiao
 390 02bc FF23     		movs r3, # 0xff            @小数点位置
 391 02be 00F0D2FB 		bl _zhuanascii
 392 02c2 0620     		movs r0, # 6            @写几个字
 393 02c4 3021     		movs r1, # 48           @字库单字长度
 394 02c6 0322     		movs r2, # 3            @宽度
 395 02c8 724B     		ldr r3, = 0x1102              @lcd位置
 396 02ca 00F07EFB 		bl __xie_lcd_ascii
 397 02ce 0EBD     		pop {r1-r3,pc}
 398              	
 399              	
ARM GAS  1.s 			page 8


 400              	
 401              		
 402              		
 403              	__ren_wu_diao_du:
 404 02d0 00F00AF8 		bl __an_jian
 405 02d4 8000     		lsls r0, r0, # 2
 406 02d6 7049     		ldr r1, = an_jian_biao
 407 02d8 0A58     		ldr r2, [r1, r0]
 408 02da 9746     		mov pc, r2
 409              	
 410              	__ren_wu_diao_du1:
 411 02dc 00F004F8 		bl __an_jian
 412 02e0 8000     		lsls r0, r0, # 2
 413 02e2 6E49     		ldr r1, = an_jian_biao1
 414 02e4 0A58     		ldr r2, [r1, r0]
 415 02e6 9746     		mov pc, r2
 416              		
 417              		
 418              	__an_jian:
 419              		@入口PA2=按键1，PA3=按键2
 420              		@出口R0
 421 02e8 6D48     		ldr r0, = 0x48000450
 422 02ea 0068     		ldr r0, [r0]	@pb6 pb7
 423 02ec C043     		mvns r0, r0
 424 02ee 0006     		lsls r0, r0, # 24
 425 02f0 800F     		lsrs r0, r0, # 30
 426 02f2 7047     		bx lr
 427              	ting:
 428              	
 429 02f4 6B48     	        ldr r0, = z_r
 430 02f6 6C49     		ldr r1, = z_i
 431 02f8 0068     		ldr r0, [r0]
 432 02fa 0968     		ldr r1, [r1]
 433              	
 434              	__zr_shi_bu_shi_fu:	
 435 02fc 0200     		movs r2, r0
 436 02fe 01D5     		bpl __zi_shi_bu_shi_fu
 437 0300 D243     		mvns r2, r2
 438 0302 0132     		adds r2, r2, # 1
 439              	__zi_shi_bu_shi_fu:
 440 0304 0B00     		movs r3, r1
 441 0306 01D5     		bpl __bi_jiao_zr_zi_da_xiao
 442 0308 DB43     		mvns r3, r3
 443 030a 0133     		adds r3, r3, # 1
 444              	__bi_jiao_zr_zi_da_xiao:	
 445 030c 9A42     		cmp r2, r3
 446 030e 00D8     	        bhi __zr_xian_shi
 447 0310 0846     	        mov r0, r1
 448              	__zr_xian_shi:
 449 0312 00F0D5F8 		bl __xianshi_jindu_tiao
 450              	
 451              	
 452              	
 453              		
 454 0316 00F0AFF9 		bl __xiangwei_xuanzhuan
 455 031a 624C     		ldr r4, = z_r
 456 031c 624D     		ldr r5, = z_i
ARM GAS  1.s 			page 9


 457 031e 564A     		ldr r2, = qingling_r
 458 0320 564B     		ldr r3, = qingling_i
 459 0322 1668     		ldr r6, [r2]
 460 0324 1F68     		ldr r7, [r3]
 461 0326 801B     		subs r0, r0, r6
 462 0328 C91B     		subs r1, r1, r7
 463 032a 2060     		str r0, [r4]
 464 032c 2960     		str r1, [r5]
 465              		
 466              	@	asrs r0, r0, # 2
 467              	@	asrs r1, r1, # 2
 468              	@	bl __atan2_ji_suan
 469              	@	asrs r0, r0, # 15
 470              	@	ldr r1, = z_jiao_du
 471              	@	str r0, [r1]
 472              	@	bl __xianshi_jiaodu
 473              		
 474              			
 475 032e 5D48     		ldr r0, = z_r
 476 0330 0468     		ldr r4, [r0]
 477 0332 2400     		movs r4, r4
 478 0334 07D5     		bpl __xianshi_zr
 479              	__z_r_shi_fu:
 480 0336 E443     		mvns r4, r4
 481 0338 0134     		adds r4, r4, # 1
 482 033a 5C48     		ldr r0, = _fu
 483 033c 0121     		movs r1, # 1           @显示几个字符
 484 033e 5C4A     		ldr r2, = 0x0003         @LCD位置lcd位置(高8位0-0x83,低8位0-7)
 485 0340 00F0F5FA 		bl __xie_ascii
 486 0344 04E0     		b __xianshi_z_r
 487              	__xianshi_zr:
 488 0346 5B48     		ldr r0, = kong
 489 0348 0121     		movs r1, # 1           @显示几个字符
 490 034a 594A     		ldr r2, = 0x0003         @LCD位置lcd位置(高8位0-0x83,低8位0-7)
 491 034c 00F0EFFA 		bl __xie_ascii
 492              	__xianshi_z_r:
 493 0350 2046     		mov r0, r4
 494 0352 0621     		movs r1, # 6
 495 0354 4E4A     		ldr r2, = asciibiao
 496 0356 FF23     		movs r3, # 0xff            @小数点位置
 497 0358 00F085FB 		bl _zhuanascii
 498 035c 0620     		movs r0, # 6            @写几个字
 499 035e 3021     		movs r1, # 48           @字库单字长度
 500 0360 0322     		movs r2, # 3            @宽度
 501 0362 4C4B     		ldr r3, = 0x1102              @lcd位置
 502 0364 00F031FB 		bl __xie_lcd_ascii
 503              	
 504              	
 505 0368 4F48     	        ldr r0, = z_i
 506 036a 0468     		ldr r4, [r0]
 507 036c 2400     		movs r4, r4
 508 036e 07D5     		bpl __xianshi_zi
 509              	__z_i_shi_fu:
 510 0370 E443     		mvns r4, r4
 511 0372 0134     		adds r4, r4, # 1
 512 0374 4D48     		ldr r0, = _fu
 513 0376 0121     		movs r1, # 1           @显示几个字符
ARM GAS  1.s 			page 10


 514 0378 4F4A     		ldr r2, = 0x0006         @LCD位置lcd位置(高8位0-0x83,低8位0-7)
 515 037a 00F0D8FA 		bl __xie_ascii
 516 037e 04E0     		b __xianshi_z_i
 517              	__xianshi_zi:
 518 0380 4C48     		ldr r0, = kong
 519 0382 0121     		movs r1, # 1           @显示几个字符
 520 0384 4C4A     		ldr r2, = 0x0006         @LCD位置lcd位置(高8位0-0x83,低8位0-7)
 521 0386 00F0D2FA 		bl __xie_ascii
 522              	__xianshi_z_i:
 523 038a 2046     		mov r0, r4
 524 038c 0621     		movs r1, # 6
 525 038e 404A     		ldr r2, = asciibiao
 526 0390 FF23     		movs r3, # 0xff            @小数点位置
 527 0392 00F068FB 		bl _zhuanascii
 528 0396 0620     		movs r0, # 6            @写几个字
 529 0398 3021     		movs r1, # 48           @字库单字长度
 530 039a 0322     		movs r2, # 3            @宽度
 531 039c 474B     		ldr r3, = 0x1105              @lcd位置
 532 039e 00F014FB 		bl __xie_lcd_ascii
 533              		
 534              	
 535 03a2 95E7     	        b __ren_wu_diao_du
 536              		
 537 03a4 00000140 		.ltorg
 537      83015A5A 
 537      2EFF0700 
 537      01005A5A 
 537      82015A5A 
 538              	
 539              	
 540              	
 541              	
 542              	
 543              	__xianshi_jindu_tiao:
 544              		@入口R0 = 0-133
 545 04c0 1EB5     	        push {r1-r4,lr}
 546              	
 547 04c2 4E49     		ldr r1, = ling_min_du
 548 04c4 0968     		ldr r1, [r1]
 549 04c6 4911     		asrs r1, r1, # 5
 550 04c8 0841     		asrs r0, r0, r1
 551              	
 552 04ca 4030     		adds r0, r0, # 64
 553 04cc 0446     		mov r4, r0
 554 04ce 00F079F8 		bl __xianshi_fudu
 555              		
 556 04d2 4B48     	        ldr r0, = 0x40013000
 557 04d4 0021     	        movs r1, # 0x00
 558 04d6 C160     	        str r1, [r0, # 0x0c]            @A0=0
 559 04d8 4A4A     	        ldr r2, = 0xff
 560 04da 00F0ADF9 	        bl __lcd_yanshi
 561 04de 1020     	        movs r0, # 0x10
 562 04e0 00F0ADF9 	        bl __xie_spi1
 563 04e4 0020     	        movs r0, # 0
 564 04e6 00F0AAF9 	        bl __xie_spi1
 565 04ea B020     	        movs r0, # 0xb0
 566 04ec 00F0A7F9 	        bl __xie_spi1
ARM GAS  1.s 			page 11


 567 04f0 FF22     	        movs r2, # 0xff
 568 04f2 00F0A1F9 	        bl __lcd_yanshi
 569              	
 570 04f6 4248     	        ldr r0, = 0x40013000
 571 04f8 0121     	        movs r1, # 0x01
 572 04fa C160     	        str r1, [r0, # 0x0c]            @A0=1
 573 04fc 414A     	        ldr r2, = 0xff
 574 04fe 00F09BF9 	        bl __lcd_yanshi
 575 0502 4021     	        movs r1, # 64
 576              	@	movs r4, # 30
 577 0504 8C42     		cmp r4, r1
 578 0506 13D8     		bhi __jindu_tiao_zheng
 579 0508 0021     		movs r1, # 0
 580              	__jindu_tiao_fu_heng_sao:
 581 050a A142     		cmp r1, r4
 582 050c 01D8     		bhi __jindu_tiao_liang
 583 050e 0020     		movs r0, # 0
 584 0510 00E0     		b __xie_jin_du_tiao
 585              	__jindu_tiao_liang:	
 586 0512 FF20     		movs r0, # 0xff
 587              	__xie_jin_du_tiao:	
 588 0514 00F093F9 	        bl __xie_spi1
 589 0518 0131     	        adds r1, r1, # 1
 590 051a 4029     		cmp r1, # 64
 591 051c F5D1     	        bne __jindu_tiao_fu_heng_sao
 592              		
 593 051e 4021     		movs r1, # 64
 594 0520 8522     		movs r2, # 133
 595              	__jindu_tiao_zheng_qingling:	
 596 0522 0020     		movs r0, # 0
 597 0524 00F08BF9 		bl __xie_spi1
 598 0528 0131     	        adds r1, r1, # 1
 599 052a 9142     		cmp r1, r2
 600 052c F9D1     	        bne __jindu_tiao_zheng_qingling
 601 052e 1EBD     		pop {r1-r4,pc}
 602              	
 603              	__jindu_tiao_zheng:
 604 0530 4021     	        movs r1, # 64
 605              	__jindu_tiao_fu_qingling:
 606 0532 0020     	        movs r0, # 0
 607 0534 00F083F9 	        bl __xie_spi1
 608 0538 0139     		subs r1, r1, # 1
 609 053a 9142     	        cmp r1, r2
 610 053c F9D1     	        bne __jindu_tiao_fu_qingling
 611 053e 4021     		movs r1, # 64
 612 0540 8522     		movs r2, # 133
 613              	__jindu_tiao_zheng_heng_sao:
 614 0542 A142     	        cmp r1, r4
 615 0544 01D9     	        bls __jindu_tiao_liang1
 616 0546 0020     	        movs r0, # 0
 617 0548 00E0     	        b __xie_jin_du_tiao1
 618              	__jindu_tiao_liang1:
 619 054a FF20     	        movs r0, # 0xff
 620              	__xie_jin_du_tiao1:
 621 054c 00F077F9 	        bl __xie_spi1
 622 0550 0131     	        adds r1, r1, # 1
 623 0552 9142     		cmp r1, r2
ARM GAS  1.s 			page 12


 624 0554 F5D1     	        bne __jindu_tiao_zheng_heng_sao
 625              	
 626 0556 1EBD     		pop {r1-r4,pc}
 627              	
 628              	
 629              	
 630              	
 631              	
 632              		
 633              	
 634              	__laba:
 635              		@入口R0
 636 0558 06B4     		push {r1-r2}
 637 055a 2849     		ldr r1, = ling_min_du
 638 055c 0968     		ldr r1, [r1]
 639 055e 0000     		movs r0, r0
 640 0560 01D5     		bpl __laba_bijiao_daxiao
 641 0562 C043     		mvns r0, r0
 642 0564 0130     		adds r0, r0, # 1
 643              	__laba_bijiao_daxiao:
 644 0566 8842     		cmp r0, r1
 645 0568 04D8     		bhi __laba_kai
 646              	__laba_guan:
 647 056a 2748     		ldr r0, = 0x40014400
 648 056c 0021     		movs r1, # 0    @0x0e
 649 056e 274A     		ldr r2, = 0x308
 650 0570 8150     		str r1, [r0, r2]        @CCMR
 651 0572 03E0     		b __laba_fanhui
 652              	__laba_kai:
 653 0574 2448     		ldr r0, = 0x40014400
 654 0576 0E21     		movs r1, # 0x0e
 655 0578 244A     		ldr r2, = 0x308
 656 057a 8150     		str r1, [r0, r2]        @CCMR
 657              	__laba_fanhui:
 658 057c 06BC     		pop {r1-r2}
 659 057e 7047     		bx lr
 660              		
 661              	
 662              	
 663              	__ji_suan_fu_du:				    @ 计算幅度
 664              		@ 入r0= 实部，r1= 虚部
 665              		@ 出r0 = 幅度
 666              		@ Mag ~=Alpha * max(|I|, |Q|) + Beta * min(|I|, |Q|)
 667              		@ Alpha * Max + Beta * Min
 668 0580 0EB5     		push {r1-r3,lr}
 669 0582 0000     		movs r0, r0
 670 0584 01D5     		bpl _shibubushifushu
 671 0586 C043     		mvns r0, r0                             @ 是负数转成正数
 672 0588 0130     		adds r0, r0, # 1
 673              	_shibubushifushu:				                               @ 实部不是负数
 674 058a 0900     		movs r1, r1
 675 058c 01D5     		bpl _xububushifushu
 676 058e C943     		mvns r1, r1                             @ 是负数转成正数
 677 0590 0131     		adds r1, r1, # 1
 678              	_xububushifushu:				                                @ 虚部不是负数
 679 0592 0028     		cmp r0, # 0
 680 0594 01D1     		bne _panduanxubushibushi0
ARM GAS  1.s 			page 13


 681 0596 0846     		mov r0, r1
 682 0598 0EBD     		pop {r1-r3,pc}
 683              	_panduanxubushibushi0:
 684 059a 0029     		cmp r1, # 0
 685 059c 00D1     		bne _jisuanfudu1
 686 059e 0EBD     		pop {r1-r3,pc}
 687              	_jisuanfudu1:
 688 05a0 1B4A     		ldr r2, = 31066		@ Alpha q15 0.948059448969
 689 05a2 1C4B     		ldr r3, = 12867		@ Beta q15 0.392699081699
 690 05a4 8142     		cmp r1, r0
 691 05a6 06D8     		bhi _alpha_min_beta_max
 692              	_alpha_max_beta_min:
 693 05a8 5043     		muls r0, r0, r2
 694 05aa 5943     		muls r1, r1, r3
 695 05ac C013     		asrs r0, r0, # 15
 696 05ae C913     		asrs r1, r1, # 15
 697 05b0 4018     		adds r0, r0, r1
 698 05b2 0121     		movs r1, # 1
 699 05b4 0EBD     		pop {r1-r3,pc}
 700              	_alpha_min_beta_max:
 701 05b6 5843     		muls r0, r0, r3
 702 05b8 5143     		muls r1, r1, r2
 703 05ba C013     		asrs r0, r0, # 15
 704 05bc C913     		asrs r1, r1, # 15
 705 05be 4018     		adds r0, r0, r1
 706 05c0 0021     		movs r1, # 0
 707 05c2 0EBD     		pop {r1-r3,pc}
 708              	
 709              	
 710              	
 711              	
 712              	__xianshi_fudu:
 713 05c4 1EB5     	        push {r1-r4,lr}
 714 05c6 0400     	        movs r4, r0
 715 05c8 05D4     	        bmi __fudu_shi_fu
 716              	__fudu_bushi_fu:
 717 05ca 1348     	        ldr r0, = kong
 718 05cc 0121     	        movs r1, # 1           @显示几个字符
 719 05ce 0122     	        movs r2, # 0x01         @LCD位置lcd位置(高8位0-0x83,低8位0-7)
 720 05d0 00F0ADF9 	        bl __xie_ascii
 721 05d4 06E0     	        b __xianshi_z_fudu
 722              	__fudu_shi_fu:
 723 05d6 1148     	        ldr r0, = _fu
 724 05d8 0121     	        movs r1, # 1           @显示几个字符
 725 05da 0122     	        movs r2, # 0x01         @LCD位置lcd位置(高8位0-0x83,低8位0-7)
 726 05dc 00F0A7F9 	        bl __xie_ascii
 727 05e0 E443     	        mvns r4, r4
 728 05e2 0134     	        adds r4, r4, # 1
 729              	__xianshi_z_fudu:
 730 05e4 2046     	        mov r0, r4
 731 05e6 0621     	        movs r1, # 6    @转换几个字符
 732 05e8 0D4A     	        ldr r2, = asciibiao
 733 05ea 0323     	        movs r3, # 3             @小数点位置
 734 05ec 00F053FA 	        bl __zhuanascii
 735 05f0 0B48     	        ldr r0, = asciibiao
 736 05f2 0621     	        movs r1, # 6           @显示几个字符
 737 05f4 0B4A     	        ldr r2, = 0x1001         @LCD位置lcd位置(高8位0-0x83,低8位0-7)
ARM GAS  1.s 			page 14


 738 05f6 00F09AF9 	        bl __xie_ascii
 739 05fa 1EBD     	        pop {r1-r4,pc}
 740 05fc AC1F0020 	        .ltorg
 740      00300140 
 740      FF000000 
 740      00440140 
 740      08030000 
 741              	
 742              	
 743              		
 744              	
 745              	__xianshi_jiaodu:
 746 0628 1FB5     		push {r0-r4,lr}
 747 062a 0E48     		ldr r0, = z_jiao_du
 748 062c 0068     		ldr r0, [r0]
 749 062e 0400     		movs r4, r0
 750 0630 05D4     		bmi __z_jiaodu_shi_fu
 751              	__z_jiaodu_bushi_fu:
 752 0632 0D48     		ldr r0, = kong
 753 0634 0121     		movs r1, # 1           @显示几个字符
 754 0636 0022     		movs r2, # 0x00         @LCD位置lcd位置(高8位0-0x83,低8位0-7)
 755 0638 00F079F9 		bl __xie_ascii
 756 063c 06E0     		b __xianshi_z_jiaodu
 757              	__z_jiaodu_shi_fu:
 758 063e 0B48     		ldr r0, = _fu
 759 0640 0121     		movs r1, # 1           @显示几个字符
 760 0642 0022     		movs r2, # 0x00         @LCD位置lcd位置(高8位0-0x83,低8位0-7)
 761 0644 00F073F9 		bl __xie_ascii
 762 0648 E443     		mvns r4, r4
 763 064a 0134     		adds r4, r4, # 1
 764              	__xianshi_z_jiaodu:
 765 064c 2046     		mov r0, r4
 766 064e 0621     		movs r1, # 6    @转换几个字符
 767 0650 074A     		ldr r2, = asciibiao
 768 0652 0323     		movs r3, # 3             @小数点位置
 769 0654 00F01FFA 		bl __zhuanascii
 770 0658 0548     		ldr r0, = asciibiao
 771 065a 0621     		movs r1, # 6           @显示几个字符
 772 065c 054A     		ldr r2, = 0x1000         @LCD位置lcd位置(高8位0-0x83,低8位0-7)
 773 065e 00F066F9 		bl __xie_ascii
 774 0662 1FBD     		pop {r0-r4,pc}
 775 0664 C01F0020 		.ltorg
 775      28000000 
 775      2C000000 
 775      E01F0020 
 775      00100000 
 776              		
 777              	
 778              	
 779              	__xiangwei_xuanzhuan:
 780 0678 FCB5     		push {r2-r7,lr}
 781 067a 4D48     		ldr r0, = jiaodu_r  @-3697
 782 067c 4D49     		ldr r1, = jiaodu_i  @32558
 783 067e 0068     		ldr r0, [r0]
 784 0680 0968     		ldr r1, [r1]
 785 0682 4D4A     		ldr r2, = shangbi_r
 786 0684 4D4B     		ldr r3, = shangbi_i
ARM GAS  1.s 			page 15


 787 0686 1468     		ldr r4, [r2]
 788 0688 1D68     		ldr r5, [r3]
 789 068a 0646     		mov r6, r0
 790 068c 0F46     		mov r7, r1
 791 068e 6043     		muls r0, r0, r4 @X*COS
 792 0690 6F43     		muls r7, r7, r5 @Y*SIN
 793 0692 6143     		muls r1, r1, r4 @X*SIN
 794 0694 6E43     		muls r6, r6, r5 @Y*COS
 795 0696 C019     		adds r0, r0, r7
 796 0698 711A     		subs r1, r6, r1
 797 069a C013     		asrs r0, r0, # 15
 798 069c C913     		asrs r1, r1, # 15
 799              	@	ldr r2, = z_r
 800              	@	ldr r3, = z_i
 801              	@	str r0, [r2]
 802              	@	str r1, [r3]
 803 069e FCBD     		pop {r2-r7,pc}
 804              	
 805              		
 806              	__jisuan_cos_sin:								@jd
 807              		@入口R0=角度 （-18000到+18000）
 808              		@出口R0=COS，R1=SIN
 809 06a0 FCB5     		push {r2-r7,lr}
 810 06a2 4749     		ldr r1, = 18000
 811 06a4 8842     		cmp r0, r1
 812 06a6 02D9     		bls __xiaoyu_180
 813 06a8 4018     		adds r0, r0, r1
 814 06aa 0127     		movs r7, # 1
 815 06ac 00E0     		b __js_cos_sin
 816              	__xiaoyu_180:
 817 06ae 0027     		movs r7, # 0
 818              	__js_cos_sin:
 819 06b0 4449     		ldr r1, = 9000
 820 06b2 454A     		ldr r2, = 51471
 821 06b4 0000     		movs r0, r0
 822 06b6 03D5     		bpl __jisuan_jiaodu_bushi0
 823 06b8 C043     		mvns r0, r0
 824 06ba 0130     		adds r0, r0, # 1
 825 06bc 0124     		movs r4, # 1
 826 06be 00E0     		b __jiance_chao90
 827              	__jisuan_jiaodu_bushi0:
 828 06c0 0024     		movs r4, # 0
 829              	__jiance_chao90:
 830 06c2 8842     		cmp r0, r1
 831 06c4 03D9     		bls __xiaoyu_90
 832 06c6 3E4E     		ldr r6, = 18000
 833 06c8 301A     		subs r0, r6, r0
 834 06ca 0126     		movs r6, # 1
 835 06cc 00E0     		b __suan_cossin
 836              	__xiaoyu_90:
 837 06ce 0026     		movs r6, # 0
 838              	__suan_cossin:
 839 06d0 3E4D     		ldr r5, = 10000
 840 06d2 6843     		muls r0, r0, r5
 841              		@bl _chufa
 842 06d4 00F006FA 		bl _chufa
 843 06d8 5043     		muls r0, r0, r2
ARM GAS  1.s 			page 16


 844 06da 2946     		mov r1, r5
 845              		@bl _chufa
 846 06dc 00F002FA 		bl _chufa
 847 06e0 012C     		cmp r4, # 1
 848 06e2 01D1     		bne __suan_cos_sin1
 849 06e4 C043     		mvns r0, r0
 850 06e6 0130     		adds r0, r0, # 1
 851              	__suan_cos_sin1:
 852 06e8 00F00BF8 		bl __cordic_cos_sin
 853 06ec 012E     		cmp r6, # 1
 854 06ee 01D1     		bne __cos_sin_fanhui
 855 06f0 C043     		mvns r0, r0
 856 06f2 0130     		adds r0, r0, # 1
 857              	__cos_sin_fanhui:
 858 06f4 012F     		cmp r7, # 1
 859 06f6 03D1     		bne __cossin_fh
 860 06f8 C043     		mvns r0, r0
 861 06fa C943     		mvns r1, r1
 862 06fc 0130     		adds r0, r0, # 1
 863 06fe 0131     		adds r1, r1, # 1
 864              	__cossin_fh:
 865 0700 FCBD     		pop {r2-r7,pc}
 866              	__cordic_cos_sin:
 867              		@入口R0
 868              		@出口R0=COS，R1=SIN
 869              		@ x= 0x4dba
 870              		@ r1=x,r2=y,r0=z,r4=d,r5=k,r6=cordic_mabiao
 871              	
 872 0702 FCB5     		push {r2-r7,lr}
 873 0704 4246     		mov r2, r8
 874 0706 4B46     		mov r3, r9
 875 0708 0CB4     		push {r2-r3}
 876 070a 0025     		movs r5, # 0
 877 070c 2A46     		mov r2, r5
 878 070e 2C46     		mov r4, r5
 879 0710 2F49     		ldr r1, = 0x4dba
 880              	cordicxunhuan:								 @ 循环
 881 0712 C413     		asrs r4, r0, # 15
 882              		@ x
 883 0714 1746     		mov r7, r2
 884 0716 2A41     		asrs r2, r2, r5
 885 0718 6240     		eors r2, r2, r4
 886 071a 121B     		subs r2, r2, r4
 887 071c 8B1A     		subs r3, r1, r2
 888              		@ y
 889 071e 0E46     		mov r6, r1
 890 0720 2941     		asrs r1, r1, r5
 891 0722 6140     		eors r1, r1, r4
 892 0724 091B     		subs r1, r1, r4
 893 0726 7F18     		adds r7, r7, r1
 894              		@ z
 895 0728 2A4E     		ldr r6, = cordic_yong_atan_biao
 896 072a AA00     		lsls r2, r5, # 2
 897 072c B158     		ldr r1, [r6, r2]
 898 072e 6140     		eors r1, r1, r4
 899 0730 091B     		subs r1, r1, r4
 900 0732 401A     		subs r0, r0, r1
ARM GAS  1.s 			page 17


 901 0734 1946     		mov r1, r3
 902 0736 3A46     		mov r2, r7
 903 0738 0135     		adds r5, # 1
 904 073a 102D     		cmp r5, # 16
 905 073c E9D1     		bne cordicxunhuan
 906 073e 1846     		mov r0, r3
 907 0740 3946     		mov r1, r7
 908 0742 0CBC     		pop {r2-r3}
 909 0744 9046     		mov r8, r2
 910 0746 9946     		mov r9, r3
 911 0748 FCBD     		pop {r2-r7,pc}
 912              	__atan2_ji_suan:							@jt
 913              		@入口R0=实部，R1=虚部，结果=R0
 914 074a FCB5     		push {r2-r7,lr}
 915 074c 4246     		mov r2, r8
 916 074e 04B4     		push {r2}
 917 0750 214B     		ldr r3, = cordic_yong_cos_sin
 918 0752 0A22     		movs r2, # 10
 919 0754 5043     		muls r0, r0, r2
 920 0756 5143     		muls r1, r1, r2
 921 0758 0022     		movs r2, # 0
 922 075a 9046     		mov r8, r2
 923 075c 194C     		ldr r4, = 9000
 924 075e E403     		lsls r4, r4, # 15
 925              	__cordic_atan2_xun_huan:
 926              	__du_cos_sin:
 927 0760 1D68     		ldr r5, [r3]	@cos
 928 0762 0433     		adds r3, r3, # 4
 929 0764 2F46     		mov r7, r5
 930 0766 1E68     		ldr r6, [r3]	@sin
 931 0768 0433     		adds r3, r3, # 4
 932 076a 3246     		mov r2, r6
 933 076c 4543     		muls r5, r5, r0         @x*cos
 934 076e 4243     		muls r2, r2, r0         @x*sin
 935 0770 4E43     		muls r6, r6, r1         @y*sin
 936 0772 4F43     		muls r7, r7, r1         @y*cos
 937 0774 0900     		movs r1, r1
 938 0776 05D5     		bpl __ni_shi_zhen_zhuan
 939              	__shun_shi_zhen_zhuan:
 940 0778 AD1B     		subs r5, r5, r6
 941 077a BF18     		adds r7, r7, r2
 942 077c 4646     		mov r6, r8
 943 077e 3619     		adds r6, r6, r4
 944 0780 B046     		mov r8, r6
 945 0782 04E0     		b __xuan_zhuan_wan
 946              	__ni_shi_zhen_zhuan:
 947 0784 AD19     		adds r5, r5, r6
 948 0786 BF1A     		subs r7, r7, r2
 949 0788 4646     		mov r6, r8
 950 078a 361B     		subs r6, r6, r4
 951 078c B046     		mov r8, r6
 952              	__xuan_zhuan_wan:
 953 078e 124E     		ldr r6, = cordic_yong_cos_sin
 954 0790 2022     		movs r2, # 32
 955 0792 9200     		lsls r2, r2, # 2
 956 0794 B618     		adds r6, r6, r2
 957 0796 AD13     		asrs r5, r5, # 14
ARM GAS  1.s 			page 18


 958 0798 BF13     		asrs r7, r7, # 14
 959 079a 2846     		mov r0, r5
 960 079c 3946     		mov r1, r7
 961 079e 6408     		lsrs r4, r4, # 1	@旋转
 962 07a0 B342     		cmp r3,	r6
 963 07a2 DDD1     		bne __cordic_atan2_xun_huan
 964 07a4 4046     		mov r0, r8
 965 07a6 C043     		mvns r0, r0
 966 07a8 0130     		adds r0, r0, # 1
 967              		@	asrs r0, r0, # 15      @除32768等于角度
 968 07aa 04BC     		pop {r2}
 969 07ac 9046     		mov r8, r2
 970 07ae FCBD     		pop {r2-r7,pc}
 971 07b0 A41F0020 		.ltorg
 971      A81F0020 
 971      C41F0020 
 971      C81F0020 
 971      50460000 
 972              	
 973              	
 974              	
 975              	
 976              	
 977              	
 978              	
 979              	
 980              	
 981              		
 982              	__lcd_chushihua:
 983 07dc 07B5     		push {r0-r2,lr}
 984 07de BA48     		ldr r0,  = 0x48000400
 985 07e0 1021     		movs r1, # 0x10
 986 07e2 C165     		str r1, [r0, 0x5c]            @RST=1
 987 07e4 B94A     		ldr r2, = 0x1ffff
 988 07e6 00F027F8 		bl __lcd_yanshi
 989              	
 990 07ea 8165     		str r1, [r0, 0x58]            @RST=0
 991 07ec B74A     		ldr r2, = 0x1ffff
 992 07ee 00F023F8 		bl __lcd_yanshi
 993              	
 994 07f2 C165     		str r1, [r0, # 0x5c]            @RST=1
 995 07f4 B54A     		ldr r2, = 0x1ffff
 996 07f6 00F01FF8 		bl __lcd_yanshi
 997              	
 998 07fa B548     		ldr r0, = 0x40013000
 999 07fc 0021     		movs r1, # 0x00
 1000 07fe C160     		str r1, [r0, # 0x0c]		@A0=0
 1001              		
 1002 0800 B24A     		ldr r2, = 0x1ffff
 1003 0802 00F019F8 		bl __lcd_yanshi
 1004              	
 1005 0806 A220     		movs r0, # 0xa2         @ 偏置选择
 1006 0808 00F019F8 		bl __xie_spi1
 1007 080c A020     		movs r0, # 0xa0         @SEG方向（横 0=0到131，1=131到0）
 1008 080e 00F016F8 		bl __xie_spi1
 1009 0812 C820     		movs r0, # 0xc8         @选择COM方向（竖 0=0到63, 1=63到1）
 1010 0814 00F013F8 		bl __xie_spi1
ARM GAS  1.s 			page 19


 1011 0818 2F20     		movs r0, # 0x2f         @选择调节率
 1012 081a 00F010F8 		bl __xie_spi1
 1013 081e 8120     		movs r0, # 0x81         @设置EV命令
 1014 0820 00F00DF8 		bl __xie_spi1
 1015 0824 2520     		movs r0, # 0x25         @设置EV（0x00-0x3f 对比度）
 1016 0826 00F00AF8 		bl __xie_spi1
 1017 082a 2F20     		movs r0, # 0x2f         @助推器开启
 1018 082c 00F007F8 		bl __xie_spi1           @调节器开、追踪器开
 1019 0830 AF20     		movs r0, # 0xaf         @显示开
 1020 0832 00F004F8 		bl __xie_spi1
 1021 0836 07BD     		pop {r0-r2,pc}
 1022              	
 1023              	__lcd_yanshi:
 1024 0838 013A     		subs r2, r2, # 1
 1025 083a FDD1     		bne __lcd_yanshi
 1026 083c 7047     		bx lr
 1027              		
 1028              	__xie_spi1:
 1029 083e 06B4     		push {r1-r2}
 1030 0840 A349     		ldr r1, = 0x40013000
 1031              	@	movs r2, # 0x00
 1032              	@	str r2, [r1, # 0x0c]
 1033              	__deng_huan_chong_kong:
 1034 0842 0A69     		ldr r2, [r1, # 0x10]
 1035 0844 D207     		lsls r2, r2, # 31
 1036 0846 FCD5     		bpl __deng_huan_chong_kong
 1037 0848 8861     		str r0, [r1, # 0x18]
 1038              	__deng_huan_chong_kong1:
 1039 084a 0A69     		ldr r2, [r1, # 0x10]
 1040 084c D207     		lsls r2, r2, # 31
 1041 084e FCD5     		bpl __deng_huan_chong_kong1
 1042              	__busy_zong_xian_mang:
 1043 0850 0A69     		ldr r2, [r1, # 0x10]
 1044 0852 D205     		lsls r2, r2, # 23
 1045 0854 FCD4     		bmi __busy_zong_xian_mang
 1046              	@	movs r2, # 0x01
 1047              	@	str r2, [r1, # 0x0c]
 1048 0856 06BC     		pop {r1-r2}
 1049 0858 7047     		bx lr
 1050              	
 1051              	__xie_lcd_ye:
 1052              		@入口R0=数据首地址
 1053 085a 1EB5     		push {r1-r4,lr}
 1054 085c B023     		movs r3, # 0xb0
 1055 085e 013B     		subs r3, r3, # 1
 1056 0860 0446     		mov r4, r0
 1057              	__ye_jia:
 1058 0862 9B48     	        ldr r0, = 0x40013000
 1059 0864 0121     		movs r1, # 0x01
 1060 0866 C160     		str r1, [r0, # 0x0c]            @A0=1
 1061 0868 9A4A     		ldr r2, = 0xff
 1062 086a FFF7E5FF 		bl __lcd_yanshi
 1063 086e 0133     		adds r3, r3, # 1
 1064 0870 B92B     		cmp r3, # 0xb9
 1065 0872 00D1     		bne __xie_ye_dizhi
 1066 0874 1EBD     		pop {r1-r4,pc}
 1067              		@       movs r3, # 0xb0
ARM GAS  1.s 			page 20


 1068              		@       mvns r4, r4
 1069              		@       lsls r4, r4, # 24
 1070              		@       lsrs r4, r4, # 24
 1071              	__xie_ye_dizhi:
 1072 0876 1020     		movs r0, # 0x10
 1073 0878 FFF7E1FF 		bl __xie_spi1
 1074 087c 0020     		movs r0, # 0
 1075 087e FFF7DEFF 		bl __xie_spi1
 1076 0882 1846     		mov r0, r3
 1077 0884 FFF7DBFF 		bl __xie_spi1
 1078              	
 1079 0888 9148     	        ldr r0, = 0x40013000
 1080 088a 0121     		movs r1, # 0x01
 1081 088c C160     		str r1, [r0, # 0x0c]            @A0=1
 1082 088e 914A     		ldr r2, = 0xff
 1083 0890 FFF7D2FF 		bl __lcd_yanshi
 1084              	
 1085 0894 8421     		movs r1, # 132
 1086              	__heng_sao:
 1087 0896 2078     		ldrb r0, [r4]
 1088              		@       mov r0, r4
 1089 0898 FFF7D1FF 		bl __xie_spi1
 1090 089c 0134     		adds r4, r4, # 1
 1091 089e 0139     		subs r1, r1, # 1
 1092 08a0 F9D1     		bne __heng_sao
 1093 08a2 DEE7     		b __ye_jia
 1094              	
 1095              	__lcd_qingping:
 1096 08a4 1FB5     		push {r0-r4,lr}
 1097 08a6 B023     		movs r3, # 0xb0
 1098 08a8 013B     		subs r3, r3, # 1
 1099 08aa 0024     		movs r4, # 0
 1100              	__ye_jia1:
 1101 08ac 8848     	        ldr r0, = 0x40013000
 1102 08ae 0021     		movs r1, # 0x00
 1103 08b0 C160     		str r1, [r0, # 0x0c]            @A0=0
 1104 08b2 884A     		ldr r2, = 0xff
 1105 08b4 FFF7C0FF 		bl __lcd_yanshi
 1106 08b8 0133     		adds r3, r3, # 1
 1107 08ba B92B     		cmp r3, # 0xb9
 1108 08bc 00D1     		bne __xie_ye_dizhi1
 1109 08be 1FBD     		pop {r0-r4,pc}
 1110              	__xie_ye_dizhi1:
 1111 08c0 1020     		movs r0, # 0x10
 1112 08c2 FFF7BCFF 		bl __xie_spi1
 1113 08c6 0020     		movs r0, # 0
 1114 08c8 FFF7B9FF 		bl __xie_spi1
 1115 08cc 1846     		mov r0, r3
 1116 08ce FFF7B6FF 		bl __xie_spi1
 1117 08d2 FF22     		movs r2, # 0xff
 1118 08d4 FFF7B0FF 		bl __lcd_yanshi
 1119              	
 1120 08d8 7D48     	        ldr r0, = 0x40013000
 1121 08da 0121     		movs r1, # 0x01
 1122 08dc C160     		str r1, [r0, # 0x0c]            @A0=1
 1123 08de 7D4A     		ldr r2, = 0xff
 1124 08e0 FFF7AAFF 		bl __lcd_yanshi
ARM GAS  1.s 			page 21


 1125 08e4 8521     		movs r1, # 133
 1126              	__heng_sao1:
 1127 08e6 2046     		mov r0, r4
 1128 08e8 FFF7A9FF 		bl __xie_spi1
 1129 08ec 0139     		subs r1, r1, # 1
 1130 08ee FAD1     		bne __heng_sao1
 1131 08f0 DCE7     		b __ye_jia1
 1132              	
 1133              	
 1134              	__xie_lcd_weizhi:
 1135              		@入口R0=要写的地址(低8=X，高8=Y=（0-131(r5=高4,R4=低4))
 1136 08f2 3EB5     		push {r1-r5,lr}
 1137 08f4 0546     		mov r5, r0
 1138 08f6 0446     		mov r4, r0
 1139 08f8 0006     		lsls r0, r0, # 24
 1140 08fa 000E     		lsrs r0, r0, # 24
 1141 08fc 2D0B     		lsrs r5, r5, # 12	@高4
 1142 08fe 2405     		lsls r4, r4, # 20
 1143 0900 240F     		lsrs r4, r4, # 28
 1144 0902 7349     	        ldr r1, = 0x40013000
 1145 0904 0023     		movs r3, # 0x00
 1146 0906 CB60     		str r3, [r1, # 0x0c]            @A0=0
 1147 0908 724A     		ldr r2, = 0xff
 1148 090a FFF795FF 		bl __lcd_yanshi
 1149 090e B030     		adds r0, r0, # 0xb0     @写页命令0XB0
 1150 0910 FFF795FF 		bl __xie_spi1		@写页地址0-8页
 1151              	
 1152 0914 1020     		movs r0, # 0x10
 1153 0916 2843     		orrs r0, r0, r5
 1154 0918 FFF791FF 		bl __xie_spi1
 1155              	
 1156 091c 2046     		mov r0, r4
 1157 091e FFF78EFF 		bl __xie_spi1
 1158              	
 1159 0922 0123     		movs r3, # 0x01
 1160 0924 8B81     		strh r3, [r1, # 0x0c]            @A0=1
 1161 0926 6B4A     		ldr r2, = 0xff
 1162 0928 FFF786FF 		bl __lcd_yanshi
 1163 092c 3EBD     		pop {r1-r5,pc}
 1164              	
 1165              	
 1166              	__xie_ascii:
 1167 092e F8B5     		push {r3-r7,lr}
 1168              		@入口r0=ascii地址
 1169              		@r1=写几个字
 1170              		@r2=要写的地址
 1171 0930 4E46     		mov r6, r9
 1172 0932 40B4     		push {r6}
 1173 0934 9146     		mov r9, r2
 1174 0936 0F46     		mov r7, r1
 1175 0938 0621     		movs r1, # 6
 1176 093a 0122     		movs r2, # 1
 1177 093c 0546     		mov r5, r0
 1178 093e 0026     		movs r6, # 0
 1179              	__xie_lcd_dizhi2:
 1180 0940 4846     		mov r0, r9
 1181 0942 FFF7D6FF 		bl __xie_lcd_weizhi
ARM GAS  1.s 			page 22


 1182              	__du_ascii2:
 1183 0946 A85D     		ldrb r0, [r5, r6]
 1184 0948 2038     		subs r0, r0, # 32
 1185 094a 4843     		muls r0, r0, r1
 1186 094c 624B     		ldr r3, = ascii_biao
 1187 094e 0344     		add r3, r3, r0
 1188              	__du_ziku_chushihua2:
 1189 0950 0024     		movs r4, # 0
 1190              	__du_ziku1:
 1191 0952 185D     		ldrb r0, [r3, r4]
 1192 0954 1444     		add r4, r4, r2
 1193 0956 8C42     		cmp r4, r1
 1194 0958 02D8     		bhi __duwan_ziku1
 1195 095a FFF770FF 		bl __xie_spi1
 1196 095e F8E7     		b __du_ziku1
 1197              	__duwan_ziku1:
 1198 0960 0136     		adds r6, r6, # 1
 1199 0962 BE42     		cmp r6, r7
 1200 0964 EFD1     		bne __du_ascii2
 1201 0966 40BC     		pop {r6}
 1202 0968 4E46     		mov r6, r9
 1203 096a F8BD     		pop {r3-r7,pc}
 1204              	
 1205              	__xie_alabo:
 1206 096c E0B5     		push {r5-r7,lr}
 1207              		@入口r0=写几个字
 1208              		@r1=字库单字长度
 1209              		@r2=y宽（几行）
 1210              		@r3=要写的地址
 1211 096e 4D46     		mov r5, r9
 1212 0970 5646     		mov r6, r10
 1213 0972 5F46     		mov r7, r11
 1214 0974 E0B4     		push {r5-r7}
 1215 0976 6546     		mov r5, r12
 1216 0978 20B4     		push {r5}
 1217 097a 584D     		ldr r5, = asciibiao
 1218 097c A446     		mov r12, r4
 1219 097e 9946     		mov r9, r3
 1220 0980 0026     		movs r6, # 0
 1221 0982 3746     		mov r7, r6
 1222 0984 8246     		mov r10, r0
 1223 0986 9346     		mov r11, r2
 1224              	__xie_lcd_dizhi1:
 1225 0988 4846     		mov r0, r9
 1226 098a FFF7B2FF 		bl __xie_lcd_weizhi
 1227              	__du_ascii1:
 1228 098e A85D     		ldrb r0, [r5, r6]
 1229 0990 4843     		muls r0, r0, r1
 1230 0992 6346     		mov r3, r12
 1231 0994 0344     		add r3, r3, r0
 1232 0996 DB19     		adds r3, r3, r7
 1233              	__du_ziku_chushihua1:
 1234 0998 0024     		movs r4, # 0
 1235              	__du_ziku:
 1236 099a 185D     		ldrb r0, [r3, r4]
 1237 099c 1444     		add r4, r4, r2
 1238 099e 8C42     		cmp r4, r1
ARM GAS  1.s 			page 23


 1239 09a0 02D8     		bhi __duwan_ziku
 1240 09a2 FFF74CFF 		bl __xie_spi1
 1241 09a6 F8E7     		b __du_ziku
 1242              	__duwan_ziku:
 1243 09a8 0136     		adds r6, r6, # 1
 1244 09aa 5645     		cmp r6, r10
 1245 09ac EFD1     		bne __du_ascii1
 1246 09ae 0026     		movs r6, # 0
 1247 09b0 0137     		adds r7, r7, # 1        @字库地址偏移
 1248 09b2 4846     		mov r0, r9
 1249 09b4 0130     		adds r0, r0, # 1        @Y偏移
 1250 09b6 8146     		mov r9, r0
 1251 09b8 5F45     		cmp r7, r11
 1252 09ba E5D1     		bne __xie_lcd_dizhi1
 1253 09bc 20BC     		pop {r5}
 1254 09be AC46     		mov r12, r5
 1255 09c0 E0BC     		pop {r5-r7}
 1256 09c2 A946     		mov r9, r5
 1257 09c4 B246     		mov r10, r6
 1258 09c6 BB46     		mov r11, r7
 1259 09c8 E0BD     		pop {r5-r7,pc}
 1260              	
 1261              	
 1262              	
 1263              	__xie_lcd_ascii:
 1264 09ca F0B5     		push {r4-r7,lr}
 1265              		@入口r0=写几个字
 1266              		@r1=字库单字长度
 1267              		@r2=y宽（几行）
 1268              		@r3=要写的地址
 1269 09cc 4C46     		mov r4, r9
 1270 09ce 5546     		mov r5, r10
 1271 09d0 5E46     		mov r6, r11
 1272 09d2 6746     		mov r7, r12
 1273 09d4 F0B4     		push {r4-r7}
 1274 09d6 414D     		ldr r5, = asciibiao
 1275 09d8 9946     		mov r9, r3
 1276 09da 0026     		movs r6, # 0
 1277 09dc 3746     		mov r7, r6
 1278 09de B446     		mov r12, r6
 1279 09e0 8246     		mov r10, r0
 1280 09e2 9346     		mov r11, r2
 1281              	__xie_lcd_dizhi:
 1282 09e4 4846     		mov r0, r9
 1283 09e6 FFF784FF 		bl __xie_lcd_weizhi
 1284              	__du_ascii:
 1285 09ea A85D     		ldrb r0, [r5, r6]
 1286 09ec 2E28     		cmp r0, # 0x2e
 1287 09ee 1BD0     		beq __xie_ascii_xiaoshudian
 1288 09f0 4843     		muls r0, r0, r1
 1289              	
 1290 09f2 3B4B     		ldr r3, = da_a_labo_hack  @da_a_labo_shuzi
 1291 09f4 0344     		add r3, r3, r0
 1292 09f6 DB19     		adds r3, r3, r7
 1293              	__du_ziku_16_chushihua:
 1294 09f8 0024     		movs r4, # 0
 1295              	__du_ziku_16:
ARM GAS  1.s 			page 24


 1296 09fa 185D     		ldrb r0, [r3, r4]
 1297 09fc 1444     		add r4, r4, r2
 1298 09fe 8C42     		cmp r4, r1
 1299 0a00 02D8     		bhi __duwan_16
 1300 0a02 FFF71CFF 		bl __xie_spi1
 1301 0a06 F8E7     		b __du_ziku_16
 1302              	__duwan_16:
 1303 0a08 0136     		adds r6, r6, # 1
 1304 0a0a 5645     		cmp r6, r10
 1305 0a0c EDD1     		bne __du_ascii
 1306 0a0e 0026     		movs r6, # 0
 1307 0a10 0137     		adds r7, r7, # 1	@字库地址偏移
 1308 0a12 4846     		mov r0, r9
 1309 0a14 0130     		adds r0, r0, # 1	@Y偏移
 1310 0a16 8146     		mov r9, r0
 1311 0a18 5F45     		cmp r7, r11
 1312 0a1a E3D1     		bne __xie_lcd_dizhi
 1313 0a1c F0BC     		pop {r4-r7}
 1314 0a1e A146     		mov r9, r4
 1315 0a20 AA46     		mov r10, r5
 1316 0a22 B346     		mov r11, r6
 1317 0a24 BC46     		mov r12, r7
 1318 0a26 F0BD     		pop {r4-r7,pc}
 1319              	
 1320              	__xie_ascii_xiaoshudian:
 1321 0a28 6046     		mov r0, r12
 1322 0a2a 0130     		adds r0, r0, # 1
 1323 0a2c 8446     		mov r12, r0
 1324 0a2e 9445     		cmp r12, r2
 1325 0a30 0CD0     		beq __xie_ru_xiaoshudian
 1326 0a32 0020     		movs r0, # 0
 1327 0a34 FFF703FF 		bl __xie_spi1
 1328 0a38 0020     		movs r0, # 0
 1329 0a3a FFF700FF 		bl __xie_spi1
 1330 0a3e 0020     		movs r0, # 0
 1331 0a40 FFF7FDFE 		bl __xie_spi1
 1332 0a44 0020     		movs r0, # 0
 1333 0a46 FFF7FAFE 		bl __xie_spi1
 1334              	
 1335 0a4a DDE7     		b __duwan_16
 1336              	__xie_ru_xiaoshudian:
 1337 0a4c 0020     		movs r0, # 0
 1338 0a4e FFF7F6FE 		bl __xie_spi1
 1339 0a52 7020     		movs r0, # 0x70
 1340 0a54 FFF7F3FE 		bl __xie_spi1
 1341 0a58 7020     		movs r0, # 0x70
 1342 0a5a FFF7F0FE 		bl __xie_spi1
 1343 0a5e 7020     		movs r0, # 0x70
 1344 0a60 FFF7EDFE 		bl __xie_spi1
 1345 0a64 D0E7     		b __duwan_16
 1346              	
 1347              	_zhuanascii:														@ 16进制转ASCII
 1348              		@ R0要转的数据， R1长度，R2结果表首地址, r3=小数点位置
 1349 0a66 F0B5     		push {r4-r7,lr}
 1350 0a68 1F46     		mov r7, r3
 1351 0a6a 0546     		mov r5, r0
 1352 0a6c 0E46     		mov r6, r1
ARM GAS  1.s 			page 25


 1353 0a6e 0A21     		movs r1, # 10
 1354              	_xunhuanqiuma:
 1355 0a70 00F038F8 		bl _chufa
 1356 0a74 0446     		mov r4, r0
 1357 0a76 4C43     		muls r4, r1
 1358 0a78 2B1B     		subs r3, r5, r4
 1359              		@	adds r3, r3, # 0x30	@ascii偏移
 1360 0a7a 0546     		mov r5, r0
 1361 0a7c 013E     		subs r6, r6, # 1
 1362 0a7e 08D0     		beq _qiumafanhui
 1363 0a80 BE42     		cmp r6, r7
 1364 0a82 02D1     		bne _meidaoxiaoshudian
 1365 0a84 2E24     		movs r4, # 0x2e		@小数点
 1366 0a86 9455     		strb r4, [r2,r6]	@插入小数点
 1367 0a88 013E     		subs r6, r6, # 1
 1368              	_meidaoxiaoshudian:
 1369 0a8a 9355     		strb r3, [r2,r6]
 1370 0a8c 3600     		movs r6, r6
 1371 0a8e EFD1     		bne _xunhuanqiuma
 1372 0a90 F0BD     		pop {r4-r7,pc}
 1373              	_qiumafanhui:
 1374 0a92 9355     		strb r3, [r2, r6]
 1375 0a94 F0BD     		pop {r4-r7,pc}
 1376              	
 1377              	__zhuanascii:								              @ 转ASCII
 1378              		@ R0要转的数据， R1长度，R2结果表首地址, r3=小数点位置
 1379 0a96 F0B5     		push {r4-r7,lr}
 1380 0a98 1F46     		mov r7, r3
 1381 0a9a 0546     		mov r5, r0
 1382 0a9c 0E46     		mov r6, r1
 1383 0a9e 0A21     		movs r1, # 10
 1384              	__xunhuanqiuma:
 1385 0aa0 00F020F8 		bl _chufa
 1386 0aa4 0446     		mov r4, r0
 1387 0aa6 4C43     		muls r4, r1
 1388 0aa8 2B1B     		subs r3, r5, r4
 1389 0aaa 3033     		adds r3, r3, # 0x30     @ascii偏移
 1390 0aac 0546     		mov r5, r0
 1391 0aae 013E     		subs r6, r6, # 1
 1392 0ab0 08D0     		beq __qiumafanhui
 1393 0ab2 BE42     		cmp r6, r7
 1394 0ab4 02D1     		bne __meidaoxiaoshudian
 1395 0ab6 2E24     		movs r4, # 0x2e         @小数点
 1396 0ab8 9455     		strb r4, [r2,r6]        @插入小数点
 1397 0aba 013E     		subs r6, r6, # 1
 1398              	__meidaoxiaoshudian:
 1399 0abc 9355     		strb r3, [r2,r6]
 1400 0abe 3600     		movs r6, r6
 1401 0ac0 EED1     		bne __xunhuanqiuma
 1402 0ac2 F0BD     		pop {r4-r7,pc}
 1403              	__qiumafanhui:
 1404 0ac4 9355     		strb r3, [r2, r6]
 1405 0ac6 F0BD     		pop {r4-r7,pc}
 1406 0ac8 00040048 		.ltorg
 1406      FFFF0100 
 1406      00300140 
 1406      FF000000 
ARM GAS  1.s 			page 26


 1406      70410000 
 1407              	
 1408              	_chufa:						@软件除法
 1409              		@ r0 除以 r1 等于 商(r0)
 1410 0ae4 1EB5     		push {r1-r4,lr}
 1411 0ae6 0028     		cmp r0, # 0
 1412 0ae8 0ED0     		beq _chufafanhui
 1413 0aea 0029     		cmp r1, # 0
 1414 0aec 0CD0     		beq _chufafanhui
 1415 0aee 0246     		mov r2, r0
 1416 0af0 0123     		movs r3, # 1
 1417 0af2 DB07     		lsls r3, r3, # 31
 1418 0af4 0020     		movs r0, # 0
 1419 0af6 0446     		mov r4, r0
 1420              	_chufaxunhuan:
 1421 0af8 5200     		lsls r2, r2, # 1
 1422 0afa 6441     		adcs r4, r4, r4
 1423 0afc 8C42     		cmp r4, r1
 1424 0afe 01D3     		bcc _chufaweishubudao0
 1425 0b00 C018     		adds r0, r0, r3
 1426 0b02 641A     		subs r4, r4, r1
 1427              	_chufaweishubudao0:
 1428 0b04 5B08     		lsrs r3, r3, # 1
 1429 0b06 F7D1     		bne _chufaxunhuan
 1430              	_chufafanhui:
 1431 0b08 1EBD     		pop {r1-r4,pc}
 1432              		.ltorg
 1433              	
 1434              	
 1435              	
 1436              	
 1437              	__dft:
 1438 0b0a FCB5     		push {r2-r7,lr}
 1439 0b0c 5546     		mov r5, r10
 1440 0b0e 5E46     		mov r6, r11
 1441 0b10 6746     		mov r7, r12
 1442 0b12 E0B4     		push {r5-r7}
 1443 0b14 0448     		ldr r0, = cossin
 1444 0b16 0549     		ldr r1, = dianyabiao
 1445 0b18 0068     		ldr r0, [r0]
 1446 0b1a 0026     		movs r6, # 0
 1447 0b1c 3746     		mov r7, r6
 1448 0b1e EC46     		mov r12, sp
 1449 0b20 8346     		mov r11, r0
 1450 0b22 8A46     		mov r10, r1
 1451 0b24 04E0     		b __dft_xunhuan
 1452 0b26 0000DC1F 		.ltorg
 1452      00200001 
 1452      0020
 1453              	__dft_xunhuan:
 1454              		@0
 1455              	
 1456 0b30 DD46     		mov sp, r11
 1457 0b32 0FBC     		pop {r0-r3}
 1458 0b34 EB46     		mov r11, sp
 1459 0b36 D546     		mov sp, r10
 1460 0b38 10BC     		pop {r4}
ARM GAS  1.s 			page 27


 1461 0b3a EA46     		mov r10, sp
 1462 0b3c 2546     		mov r5, r4
 1463 0b3e 2404     		lsls r4, r4, # 16
 1464 0b40 240C     		lsrs r4, r4, # 16
 1465 0b42 2D0C     		lsrs r5, r5, # 16
 1466 0b44 6043     		muls r0, r0, r4		@R
 1467 0b46 6143     		muls r1, r1, r4		@I
 1468 0b48 6A43     		muls r2, r2, r5		@R
 1469 0b4a 6B43     		muls r3, r3, r5		@I
 1470 0b4c 8011     		asrs r0, r0, # 6
 1471 0b4e 8911     		asrs r1, r1, # 6
 1472 0b50 9211     		asrs r2, r2, # 6
 1473 0b52 9B11     		asrs r3, r3, # 6
 1474 0b54 8018     		adds r0, r0, r2	 @r
 1475 0b56 C918     		adds r1, r1, r3	 @i
 1476 0b58 3618     		adds r6, r6, r0
 1477 0b5a 7F18     		adds r7, r7, r1
 1478              	
 1479 0b5c DD46     		mov sp, r11
 1480 0b5e 0FBC     		pop {r0-r3}
 1481 0b60 EB46     		mov r11, sp
 1482 0b62 D546     		mov sp, r10
 1483 0b64 10BC     		pop {r4}
 1484 0b66 EA46     		mov r10, sp
 1485 0b68 2546     		mov r5, r4
 1486 0b6a 2404     		lsls r4, r4, # 16
 1487 0b6c 240C     		lsrs r4, r4, # 16
 1488 0b6e 2D0C     		lsrs r5, r5, # 16
 1489 0b70 6043     		muls r0, r0, r4
 1490 0b72 6143     		muls r1, r1, r4
 1491 0b74 6A43     		muls r2, r2, r5
 1492 0b76 6B43     		muls r3, r3, r5
 1493 0b78 8011     		asrs r0, r0, # 6
 1494 0b7a 8911     		asrs r1, r1, # 6
 1495 0b7c 9211     		asrs r2, r2, # 6
 1496 0b7e 9B11     		asrs r3, r3, # 6
 1497 0b80 8018     		adds r0, r0, r2         @r
 1498 0b82 C918     		adds r1, r1, r3         @i
 1499 0b84 3618     		adds r6, r6, r0
 1500 0b86 7F18     		adds r7, r7, r1
 1501              	
 1502 0b88 DD46     		mov sp, r11
 1503 0b8a 0FBC     		pop {r0-r3}
 1504 0b8c EB46     		mov r11, sp
 1505 0b8e D546     		mov sp, r10
 1506 0b90 10BC     		pop {r4}
 1507 0b92 EA46     		mov r10, sp
 1508 0b94 2546     		mov r5, r4
 1509 0b96 2404     		lsls r4, r4, # 16
 1510 0b98 240C     		lsrs r4, r4, # 16
 1511 0b9a 2D0C     		lsrs r5, r5, # 16
 1512 0b9c 6043     		muls r0, r0, r4
 1513 0b9e 6143     		muls r1, r1, r4
 1514 0ba0 6A43     		muls r2, r2, r5
 1515 0ba2 6B43     		muls r3, r3, r5
 1516 0ba4 8011     		asrs r0, r0, # 6
 1517 0ba6 8911     		asrs r1, r1, # 6
ARM GAS  1.s 			page 28


 1518 0ba8 9211     		asrs r2, r2, # 6
 1519 0baa 9B11     		asrs r3, r3, # 6
 1520 0bac 8018     		adds r0, r0, r2  @r
 1521 0bae C918     		adds r1, r1, r3  @i
 1522 0bb0 3618     		adds r6, r6, r0
 1523 0bb2 7F18     		adds r7, r7, r1
 1524              	
 1525 0bb4 DD46     		mov sp, r11
 1526 0bb6 0FBC     		pop {r0-r3}
 1527 0bb8 EB46     		mov r11, sp
 1528 0bba D546     		mov sp, r10
 1529 0bbc 10BC     		pop {r4}
 1530 0bbe EA46     		mov r10, sp
 1531 0bc0 2546     		mov r5, r4
 1532 0bc2 2404     		lsls r4, r4, # 16
 1533 0bc4 240C     		lsrs r4, r4, # 16
 1534 0bc6 2D0C     		lsrs r5, r5, # 16
 1535 0bc8 6043     		muls r0, r0, r4
 1536 0bca 6143     		muls r1, r1, r4
 1537 0bcc 6A43     		muls r2, r2, r5
 1538 0bce 6B43     		muls r3, r3, r5
 1539 0bd0 8011     		asrs r0, r0, # 6
 1540 0bd2 8911     		asrs r1, r1, # 6
 1541 0bd4 9211     		asrs r2, r2, # 6
 1542 0bd6 9B11     		asrs r3, r3, # 6
 1543 0bd8 8018     		adds r0, r0, r2         @r
 1544 0bda C918     		adds r1, r1, r3         @i
 1545 0bdc 3618     		adds r6, r6, r0
 1546 0bde 7F18     		adds r7, r7, r1
 1547              	
 1548              		@1
 1549 0be0 DD46     		mov sp, r11
 1550 0be2 0FBC     		pop {r0-r3}
 1551 0be4 EB46     		mov r11, sp
 1552 0be6 D546     		mov sp, r10
 1553 0be8 10BC     		pop {r4}
 1554 0bea EA46     		mov r10, sp
 1555 0bec 2546     		mov r5, r4
 1556 0bee 2404     		lsls r4, r4, # 16
 1557 0bf0 240C     		lsrs r4, r4, # 16
 1558 0bf2 2D0C     		lsrs r5, r5, # 16
 1559 0bf4 6043     		muls r0, r0, r4		@R
 1560 0bf6 6143     		muls r1, r1, r4		@I
 1561 0bf8 6A43     		muls r2, r2, r5		@R
 1562 0bfa 6B43     		muls r3, r3, r5		@I
 1563 0bfc 8011     		asrs r0, r0, # 6
 1564 0bfe 8911     		asrs r1, r1, # 6
 1565 0c00 9211     		asrs r2, r2, # 6
 1566 0c02 9B11     		asrs r3, r3, # 6
 1567 0c04 8018     		adds r0, r0, r2	 @r
 1568 0c06 C918     		adds r1, r1, r3	 @i
 1569 0c08 3618     		adds r6, r6, r0
 1570 0c0a 7F18     		adds r7, r7, r1
 1571              	
 1572 0c0c DD46     		mov sp, r11
 1573 0c0e 0FBC     		pop {r0-r3}
 1574 0c10 EB46     		mov r11, sp
ARM GAS  1.s 			page 29


 1575 0c12 D546     		mov sp, r10
 1576 0c14 10BC     		pop {r4}
 1577 0c16 EA46     		mov r10, sp
 1578 0c18 2546     		mov r5, r4
 1579 0c1a 2404     		lsls r4, r4, # 16
 1580 0c1c 240C     		lsrs r4, r4, # 16
 1581 0c1e 2D0C     		lsrs r5, r5, # 16
 1582 0c20 6043     		muls r0, r0, r4
 1583 0c22 6143     		muls r1, r1, r4
 1584 0c24 6A43     		muls r2, r2, r5
 1585 0c26 6B43     		muls r3, r3, r5
 1586 0c28 8011     		asrs r0, r0, # 6
 1587 0c2a 8911     		asrs r1, r1, # 6
 1588 0c2c 9211     		asrs r2, r2, # 6
 1589 0c2e 9B11     		asrs r3, r3, # 6
 1590 0c30 8018     		adds r0, r0, r2         @r
 1591 0c32 C918     		adds r1, r1, r3         @i
 1592 0c34 3618     		adds r6, r6, r0
 1593 0c36 7F18     		adds r7, r7, r1
 1594              	
 1595 0c38 DD46     		mov sp, r11
 1596 0c3a 0FBC     		pop {r0-r3}
 1597 0c3c EB46     		mov r11, sp
 1598 0c3e D546     		mov sp, r10
 1599 0c40 10BC     		pop {r4}
 1600 0c42 EA46     		mov r10, sp
 1601 0c44 2546     		mov r5, r4
 1602 0c46 2404     		lsls r4, r4, # 16
 1603 0c48 240C     		lsrs r4, r4, # 16
 1604 0c4a 2D0C     		lsrs r5, r5, # 16
 1605 0c4c 6043     		muls r0, r0, r4
 1606 0c4e 6143     		muls r1, r1, r4
 1607 0c50 6A43     		muls r2, r2, r5
 1608 0c52 6B43     		muls r3, r3, r5
 1609 0c54 8011     		asrs r0, r0, # 6
 1610 0c56 8911     		asrs r1, r1, # 6
 1611 0c58 9211     		asrs r2, r2, # 6
 1612 0c5a 9B11     		asrs r3, r3, # 6
 1613 0c5c 8018     		adds r0, r0, r2  @r
 1614 0c5e C918     		adds r1, r1, r3  @i
 1615 0c60 3618     		adds r6, r6, r0
 1616 0c62 7F18     		adds r7, r7, r1
 1617              	
 1618 0c64 DD46     		mov sp, r11
 1619 0c66 0FBC     		pop {r0-r3}
 1620 0c68 EB46     		mov r11, sp
 1621 0c6a D546     		mov sp, r10
 1622 0c6c 10BC     		pop {r4}
 1623 0c6e EA46     		mov r10, sp
 1624 0c70 2546     		mov r5, r4
 1625 0c72 2404     		lsls r4, r4, # 16
 1626 0c74 240C     		lsrs r4, r4, # 16
 1627 0c76 2D0C     		lsrs r5, r5, # 16
 1628 0c78 6043     		muls r0, r0, r4
 1629 0c7a 6143     		muls r1, r1, r4
 1630 0c7c 6A43     		muls r2, r2, r5
 1631 0c7e 6B43     		muls r3, r3, r5
ARM GAS  1.s 			page 30


 1632 0c80 8011     		asrs r0, r0, # 6
 1633 0c82 8911     		asrs r1, r1, # 6
 1634 0c84 9211     		asrs r2, r2, # 6
 1635 0c86 9B11     		asrs r3, r3, # 6
 1636 0c88 8018     		adds r0, r0, r2         @r
 1637 0c8a C918     		adds r1, r1, r3         @i
 1638 0c8c 3618     		adds r6, r6, r0
 1639 0c8e 7F18     		adds r7, r7, r1
 1640              	
 1641              		@2
 1642 0c90 DD46     		mov sp, r11
 1643 0c92 0FBC     		pop {r0-r3}
 1644 0c94 EB46     		mov r11, sp
 1645 0c96 D546     		mov sp, r10
 1646 0c98 10BC     		pop {r4}
 1647 0c9a EA46     		mov r10, sp
 1648 0c9c 2546     		mov r5, r4
 1649 0c9e 2404     		lsls r4, r4, # 16
 1650 0ca0 240C     		lsrs r4, r4, # 16
 1651 0ca2 2D0C     		lsrs r5, r5, # 16
 1652 0ca4 6043     		muls r0, r0, r4		@R
 1653 0ca6 6143     		muls r1, r1, r4		@I
 1654 0ca8 6A43     		muls r2, r2, r5		@R
 1655 0caa 6B43     		muls r3, r3, r5		@I
 1656 0cac 8011     		asrs r0, r0, # 6
 1657 0cae 8911     		asrs r1, r1, # 6
 1658 0cb0 9211     		asrs r2, r2, # 6
 1659 0cb2 9B11     		asrs r3, r3, # 6
 1660 0cb4 8018     		adds r0, r0, r2	 @r
 1661 0cb6 C918     		adds r1, r1, r3	 @i
 1662 0cb8 3618     		adds r6, r6, r0
 1663 0cba 7F18     		adds r7, r7, r1
 1664              	
 1665 0cbc DD46     		mov sp, r11
 1666 0cbe 0FBC     		pop {r0-r3}
 1667 0cc0 EB46     		mov r11, sp
 1668 0cc2 D546     		mov sp, r10
 1669 0cc4 10BC     		pop {r4}
 1670 0cc6 EA46     		mov r10, sp
 1671 0cc8 2546     		mov r5, r4
 1672 0cca 2404     		lsls r4, r4, # 16
 1673 0ccc 240C     		lsrs r4, r4, # 16
 1674 0cce 2D0C     		lsrs r5, r5, # 16
 1675 0cd0 6043     		muls r0, r0, r4
 1676 0cd2 6143     		muls r1, r1, r4
 1677 0cd4 6A43     		muls r2, r2, r5
 1678 0cd6 6B43     		muls r3, r3, r5
 1679 0cd8 8011     		asrs r0, r0, # 6
 1680 0cda 8911     		asrs r1, r1, # 6
 1681 0cdc 9211     		asrs r2, r2, # 6
 1682 0cde 9B11     		asrs r3, r3, # 6
 1683 0ce0 8018     		adds r0, r0, r2         @r
 1684 0ce2 C918     		adds r1, r1, r3         @i
 1685 0ce4 3618     		adds r6, r6, r0
 1686 0ce6 7F18     		adds r7, r7, r1
 1687              	
 1688 0ce8 DD46     		mov sp, r11
ARM GAS  1.s 			page 31


 1689 0cea 0FBC     		pop {r0-r3}
 1690 0cec EB46     		mov r11, sp
 1691 0cee D546     		mov sp, r10
 1692 0cf0 10BC     		pop {r4}
 1693 0cf2 EA46     		mov r10, sp
 1694 0cf4 2546     		mov r5, r4
 1695 0cf6 2404     		lsls r4, r4, # 16
 1696 0cf8 240C     		lsrs r4, r4, # 16
 1697 0cfa 2D0C     		lsrs r5, r5, # 16
 1698 0cfc 6043     		muls r0, r0, r4
 1699 0cfe 6143     		muls r1, r1, r4
 1700 0d00 6A43     		muls r2, r2, r5
 1701 0d02 6B43     		muls r3, r3, r5
 1702 0d04 8011     		asrs r0, r0, # 6
 1703 0d06 8911     		asrs r1, r1, # 6
 1704 0d08 9211     		asrs r2, r2, # 6
 1705 0d0a 9B11     		asrs r3, r3, # 6
 1706 0d0c 8018     		adds r0, r0, r2  @r
 1707 0d0e C918     		adds r1, r1, r3  @i
 1708 0d10 3618     		adds r6, r6, r0
 1709 0d12 7F18     		adds r7, r7, r1
 1710              	
 1711 0d14 DD46     		mov sp, r11
 1712 0d16 0FBC     		pop {r0-r3}
 1713 0d18 EB46     		mov r11, sp
 1714 0d1a D546     		mov sp, r10
 1715 0d1c 10BC     		pop {r4}
 1716 0d1e EA46     		mov r10, sp
 1717 0d20 2546     		mov r5, r4
 1718 0d22 2404     		lsls r4, r4, # 16
 1719 0d24 240C     		lsrs r4, r4, # 16
 1720 0d26 2D0C     		lsrs r5, r5, # 16
 1721 0d28 6043     		muls r0, r0, r4
 1722 0d2a 6143     		muls r1, r1, r4
 1723 0d2c 6A43     		muls r2, r2, r5
 1724 0d2e 6B43     		muls r3, r3, r5
 1725 0d30 8011     		asrs r0, r0, # 6
 1726 0d32 8911     		asrs r1, r1, # 6
 1727 0d34 9211     		asrs r2, r2, # 6
 1728 0d36 9B11     		asrs r3, r3, # 6
 1729 0d38 8018     		adds r0, r0, r2         @r
 1730 0d3a C918     		adds r1, r1, r3         @i
 1731 0d3c 3618     		adds r6, r6, r0
 1732 0d3e 7F18     		adds r7, r7, r1
 1733              	
 1734              		@3
 1735 0d40 DD46     		mov sp, r11
 1736 0d42 0FBC     		pop {r0-r3}
 1737 0d44 EB46     		mov r11, sp
 1738 0d46 D546     		mov sp, r10
 1739 0d48 10BC     		pop {r4}
 1740 0d4a EA46     		mov r10, sp
 1741 0d4c 2546     		mov r5, r4
 1742 0d4e 2404     		lsls r4, r4, # 16
 1743 0d50 240C     		lsrs r4, r4, # 16
 1744 0d52 2D0C     		lsrs r5, r5, # 16
 1745 0d54 6043     		muls r0, r0, r4		@R
ARM GAS  1.s 			page 32


 1746 0d56 6143     		muls r1, r1, r4		@I
 1747 0d58 6A43     		muls r2, r2, r5		@R
 1748 0d5a 6B43     		muls r3, r3, r5		@I
 1749 0d5c 8011     		asrs r0, r0, # 6
 1750 0d5e 8911     		asrs r1, r1, # 6
 1751 0d60 9211     		asrs r2, r2, # 6
 1752 0d62 9B11     		asrs r3, r3, # 6
 1753 0d64 8018     		adds r0, r0, r2	 @r
 1754 0d66 C918     		adds r1, r1, r3	 @i
 1755 0d68 3618     		adds r6, r6, r0
 1756 0d6a 7F18     		adds r7, r7, r1
 1757              	
 1758 0d6c DD46     		mov sp, r11
 1759 0d6e 0FBC     		pop {r0-r3}
 1760 0d70 EB46     		mov r11, sp
 1761 0d72 D546     		mov sp, r10
 1762 0d74 10BC     		pop {r4}
 1763 0d76 EA46     		mov r10, sp
 1764 0d78 2546     		mov r5, r4
 1765 0d7a 2404     		lsls r4, r4, # 16
 1766 0d7c 240C     		lsrs r4, r4, # 16
 1767 0d7e 2D0C     		lsrs r5, r5, # 16
 1768 0d80 6043     		muls r0, r0, r4
 1769 0d82 6143     		muls r1, r1, r4
 1770 0d84 6A43     		muls r2, r2, r5
 1771 0d86 6B43     		muls r3, r3, r5
 1772 0d88 8011     		asrs r0, r0, # 6
 1773 0d8a 8911     		asrs r1, r1, # 6
 1774 0d8c 9211     		asrs r2, r2, # 6
 1775 0d8e 9B11     		asrs r3, r3, # 6
 1776 0d90 8018     		adds r0, r0, r2         @r
 1777 0d92 C918     		adds r1, r1, r3         @i
 1778 0d94 3618     		adds r6, r6, r0
 1779 0d96 7F18     		adds r7, r7, r1
 1780              	
 1781 0d98 DD46     		mov sp, r11
 1782 0d9a 0FBC     		pop {r0-r3}
 1783 0d9c EB46     		mov r11, sp
 1784 0d9e D546     		mov sp, r10
 1785 0da0 10BC     		pop {r4}
 1786 0da2 EA46     		mov r10, sp
 1787 0da4 2546     		mov r5, r4
 1788 0da6 2404     		lsls r4, r4, # 16
 1789 0da8 240C     		lsrs r4, r4, # 16
 1790 0daa 2D0C     		lsrs r5, r5, # 16
 1791 0dac 6043     		muls r0, r0, r4
 1792 0dae 6143     		muls r1, r1, r4
 1793 0db0 6A43     		muls r2, r2, r5
 1794 0db2 6B43     		muls r3, r3, r5
 1795 0db4 8011     		asrs r0, r0, # 6
 1796 0db6 8911     		asrs r1, r1, # 6
 1797 0db8 9211     		asrs r2, r2, # 6
 1798 0dba 9B11     		asrs r3, r3, # 6
 1799 0dbc 8018     		adds r0, r0, r2  @r
 1800 0dbe C918     		adds r1, r1, r3  @i
 1801 0dc0 3618     		adds r6, r6, r0
 1802 0dc2 7F18     		adds r7, r7, r1
ARM GAS  1.s 			page 33


 1803              	
 1804 0dc4 DD46     		mov sp, r11
 1805 0dc6 0FBC     		pop {r0-r3}
 1806 0dc8 EB46     		mov r11, sp
 1807 0dca D546     		mov sp, r10
 1808 0dcc 10BC     		pop {r4}
 1809 0dce EA46     		mov r10, sp
 1810 0dd0 2546     		mov r5, r4
 1811 0dd2 2404     		lsls r4, r4, # 16
 1812 0dd4 240C     		lsrs r4, r4, # 16
 1813 0dd6 2D0C     		lsrs r5, r5, # 16
 1814 0dd8 6043     		muls r0, r0, r4
 1815 0dda 6143     		muls r1, r1, r4
 1816 0ddc 6A43     		muls r2, r2, r5
 1817 0dde 6B43     		muls r3, r3, r5
 1818 0de0 8011     		asrs r0, r0, # 6
 1819 0de2 8911     		asrs r1, r1, # 6
 1820 0de4 9211     		asrs r2, r2, # 6
 1821 0de6 9B11     		asrs r3, r3, # 6
 1822 0de8 8018     		adds r0, r0, r2         @r
 1823 0dea C918     		adds r1, r1, r3         @i
 1824 0dec 3618     		adds r6, r6, r0
 1825 0dee 7F18     		adds r7, r7, r1
 1826              	
 1827              		@4
 1828 0df0 DD46     		mov sp, r11
 1829 0df2 0FBC     		pop {r0-r3}
 1830 0df4 EB46     		mov r11, sp
 1831 0df6 D546     		mov sp, r10
 1832 0df8 10BC     		pop {r4}
 1833 0dfa EA46     		mov r10, sp
 1834 0dfc 2546     		mov r5, r4
 1835 0dfe 2404     		lsls r4, r4, # 16
 1836 0e00 240C     		lsrs r4, r4, # 16
 1837 0e02 2D0C     		lsrs r5, r5, # 16
 1838 0e04 6043     		muls r0, r0, r4		@R
 1839 0e06 6143     		muls r1, r1, r4		@I
 1840 0e08 6A43     		muls r2, r2, r5		@R
 1841 0e0a 6B43     		muls r3, r3, r5		@I
 1842 0e0c 8011     		asrs r0, r0, # 6
 1843 0e0e 8911     		asrs r1, r1, # 6
 1844 0e10 9211     		asrs r2, r2, # 6
 1845 0e12 9B11     		asrs r3, r3, # 6
 1846 0e14 8018     		adds r0, r0, r2	 @r
 1847 0e16 C918     		adds r1, r1, r3	 @i
 1848 0e18 3618     		adds r6, r6, r0
 1849 0e1a 7F18     		adds r7, r7, r1
 1850              	
 1851 0e1c DD46     		mov sp, r11
 1852 0e1e 0FBC     		pop {r0-r3}
 1853 0e20 EB46     		mov r11, sp
 1854 0e22 D546     		mov sp, r10
 1855 0e24 10BC     		pop {r4}
 1856 0e26 EA46     		mov r10, sp
 1857 0e28 2546     		mov r5, r4
 1858 0e2a 2404     		lsls r4, r4, # 16
 1859 0e2c 240C     		lsrs r4, r4, # 16
ARM GAS  1.s 			page 34


 1860 0e2e 2D0C     		lsrs r5, r5, # 16
 1861 0e30 6043     		muls r0, r0, r4
 1862 0e32 6143     		muls r1, r1, r4
 1863 0e34 6A43     		muls r2, r2, r5
 1864 0e36 6B43     		muls r3, r3, r5
 1865 0e38 8011     		asrs r0, r0, # 6
 1866 0e3a 8911     		asrs r1, r1, # 6
 1867 0e3c 9211     		asrs r2, r2, # 6
 1868 0e3e 9B11     		asrs r3, r3, # 6
 1869 0e40 8018     		adds r0, r0, r2         @r
 1870 0e42 C918     		adds r1, r1, r3         @i
 1871 0e44 3618     		adds r6, r6, r0
 1872 0e46 7F18     		adds r7, r7, r1
 1873              	
 1874 0e48 DD46     		mov sp, r11
 1875 0e4a 0FBC     		pop {r0-r3}
 1876 0e4c EB46     		mov r11, sp
 1877 0e4e D546     		mov sp, r10
 1878 0e50 10BC     		pop {r4}
 1879 0e52 EA46     		mov r10, sp
 1880 0e54 2546     		mov r5, r4
 1881 0e56 2404     		lsls r4, r4, # 16
 1882 0e58 240C     		lsrs r4, r4, # 16
 1883 0e5a 2D0C     		lsrs r5, r5, # 16
 1884 0e5c 6043     		muls r0, r0, r4
 1885 0e5e 6143     		muls r1, r1, r4
 1886 0e60 6A43     		muls r2, r2, r5
 1887 0e62 6B43     		muls r3, r3, r5
 1888 0e64 8011     		asrs r0, r0, # 6
 1889 0e66 8911     		asrs r1, r1, # 6
 1890 0e68 9211     		asrs r2, r2, # 6
 1891 0e6a 9B11     		asrs r3, r3, # 6
 1892 0e6c 8018     		adds r0, r0, r2  @r
 1893 0e6e C918     		adds r1, r1, r3  @i
 1894 0e70 3618     		adds r6, r6, r0
 1895 0e72 7F18     		adds r7, r7, r1
 1896              	
 1897 0e74 DD46     		mov sp, r11
 1898 0e76 0FBC     		pop {r0-r3}
 1899 0e78 EB46     		mov r11, sp
 1900 0e7a D546     		mov sp, r10
 1901 0e7c 10BC     		pop {r4}
 1902 0e7e EA46     		mov r10, sp
 1903 0e80 2546     		mov r5, r4
 1904 0e82 2404     		lsls r4, r4, # 16
 1905 0e84 240C     		lsrs r4, r4, # 16
 1906 0e86 2D0C     		lsrs r5, r5, # 16
 1907 0e88 6043     		muls r0, r0, r4
 1908 0e8a 6143     		muls r1, r1, r4
 1909 0e8c 6A43     		muls r2, r2, r5
 1910 0e8e 6B43     		muls r3, r3, r5
 1911 0e90 8011     		asrs r0, r0, # 6
 1912 0e92 8911     		asrs r1, r1, # 6
 1913 0e94 9211     		asrs r2, r2, # 6
 1914 0e96 9B11     		asrs r3, r3, # 6
 1915 0e98 8018     		adds r0, r0, r2         @r
 1916 0e9a C918     		adds r1, r1, r3         @i
ARM GAS  1.s 			page 35


 1917 0e9c 3618     		adds r6, r6, r0
 1918 0e9e 7F18     		adds r7, r7, r1
 1919              	
 1920              		@5
 1921 0ea0 DD46     		mov sp, r11
 1922 0ea2 0FBC     		pop {r0-r3}
 1923 0ea4 EB46     		mov r11, sp
 1924 0ea6 D546     		mov sp, r10
 1925 0ea8 10BC     		pop {r4}
 1926 0eaa EA46     		mov r10, sp
 1927 0eac 2546     		mov r5, r4
 1928 0eae 2404     		lsls r4, r4, # 16
 1929 0eb0 240C     		lsrs r4, r4, # 16
 1930 0eb2 2D0C     		lsrs r5, r5, # 16
 1931 0eb4 6043     		muls r0, r0, r4		@R
 1932 0eb6 6143     		muls r1, r1, r4		@I
 1933 0eb8 6A43     		muls r2, r2, r5		@R
 1934 0eba 6B43     		muls r3, r3, r5		@I
 1935 0ebc 8011     		asrs r0, r0, # 6
 1936 0ebe 8911     		asrs r1, r1, # 6
 1937 0ec0 9211     		asrs r2, r2, # 6
 1938 0ec2 9B11     		asrs r3, r3, # 6
 1939 0ec4 8018     		adds r0, r0, r2	 @r
 1940 0ec6 C918     		adds r1, r1, r3	 @i
 1941 0ec8 3618     		adds r6, r6, r0
 1942 0eca 7F18     		adds r7, r7, r1
 1943              	
 1944 0ecc DD46     		mov sp, r11
 1945 0ece 0FBC     		pop {r0-r3}
 1946 0ed0 EB46     		mov r11, sp
 1947 0ed2 D546     		mov sp, r10
 1948 0ed4 10BC     		pop {r4}
 1949 0ed6 EA46     		mov r10, sp
 1950 0ed8 2546     		mov r5, r4
 1951 0eda 2404     		lsls r4, r4, # 16
 1952 0edc 240C     		lsrs r4, r4, # 16
 1953 0ede 2D0C     		lsrs r5, r5, # 16
 1954 0ee0 6043     		muls r0, r0, r4
 1955 0ee2 6143     		muls r1, r1, r4
 1956 0ee4 6A43     		muls r2, r2, r5
 1957 0ee6 6B43     		muls r3, r3, r5
 1958 0ee8 8011     		asrs r0, r0, # 6
 1959 0eea 8911     		asrs r1, r1, # 6
 1960 0eec 9211     		asrs r2, r2, # 6
 1961 0eee 9B11     		asrs r3, r3, # 6
 1962 0ef0 8018     		adds r0, r0, r2         @r
 1963 0ef2 C918     		adds r1, r1, r3         @i
 1964 0ef4 3618     		adds r6, r6, r0
 1965 0ef6 7F18     		adds r7, r7, r1
 1966              	
 1967 0ef8 DD46     		mov sp, r11
 1968 0efa 0FBC     		pop {r0-r3}
 1969 0efc EB46     		mov r11, sp
 1970 0efe D546     		mov sp, r10
 1971 0f00 10BC     		pop {r4}
 1972 0f02 EA46     		mov r10, sp
 1973 0f04 2546     		mov r5, r4
ARM GAS  1.s 			page 36


 1974 0f06 2404     		lsls r4, r4, # 16
 1975 0f08 240C     		lsrs r4, r4, # 16
 1976 0f0a 2D0C     		lsrs r5, r5, # 16
 1977 0f0c 6043     		muls r0, r0, r4
 1978 0f0e 6143     		muls r1, r1, r4
 1979 0f10 6A43     		muls r2, r2, r5
 1980 0f12 6B43     		muls r3, r3, r5
 1981 0f14 8011     		asrs r0, r0, # 6
 1982 0f16 8911     		asrs r1, r1, # 6
 1983 0f18 9211     		asrs r2, r2, # 6
 1984 0f1a 9B11     		asrs r3, r3, # 6
 1985 0f1c 8018     		adds r0, r0, r2  @r
 1986 0f1e C918     		adds r1, r1, r3  @i
 1987 0f20 3618     		adds r6, r6, r0
 1988 0f22 7F18     		adds r7, r7, r1
 1989              	
 1990 0f24 DD46     		mov sp, r11
 1991 0f26 0FBC     		pop {r0-r3}
 1992 0f28 EB46     		mov r11, sp
 1993 0f2a D546     		mov sp, r10
 1994 0f2c 10BC     		pop {r4}
 1995 0f2e EA46     		mov r10, sp
 1996 0f30 2546     		mov r5, r4
 1997 0f32 2404     		lsls r4, r4, # 16
 1998 0f34 240C     		lsrs r4, r4, # 16
 1999 0f36 2D0C     		lsrs r5, r5, # 16
 2000 0f38 6043     		muls r0, r0, r4
 2001 0f3a 6143     		muls r1, r1, r4
 2002 0f3c 6A43     		muls r2, r2, r5
 2003 0f3e 6B43     		muls r3, r3, r5
 2004 0f40 8011     		asrs r0, r0, # 6
 2005 0f42 8911     		asrs r1, r1, # 6
 2006 0f44 9211     		asrs r2, r2, # 6
 2007 0f46 9B11     		asrs r3, r3, # 6
 2008 0f48 8018     		adds r0, r0, r2         @r
 2009 0f4a C918     		adds r1, r1, r3         @i
 2010 0f4c 3618     		adds r6, r6, r0
 2011 0f4e 7F18     		adds r7, r7, r1
 2012              	
 2013              		@6
 2014 0f50 DD46     		mov sp, r11
 2015 0f52 0FBC     		pop {r0-r3}
 2016 0f54 EB46     		mov r11, sp
 2017 0f56 D546     		mov sp, r10
 2018 0f58 10BC     		pop {r4}
 2019 0f5a EA46     		mov r10, sp
 2020 0f5c 2546     		mov r5, r4
 2021 0f5e 2404     		lsls r4, r4, # 16
 2022 0f60 240C     		lsrs r4, r4, # 16
 2023 0f62 2D0C     		lsrs r5, r5, # 16
 2024 0f64 6043     		muls r0, r0, r4		@R
 2025 0f66 6143     		muls r1, r1, r4		@I
 2026 0f68 6A43     		muls r2, r2, r5		@R
 2027 0f6a 6B43     		muls r3, r3, r5		@I
 2028 0f6c 8011     		asrs r0, r0, # 6
 2029 0f6e 8911     		asrs r1, r1, # 6
 2030 0f70 9211     		asrs r2, r2, # 6
ARM GAS  1.s 			page 37


 2031 0f72 9B11     		asrs r3, r3, # 6
 2032 0f74 8018     		adds r0, r0, r2	 @r
 2033 0f76 C918     		adds r1, r1, r3	 @i
 2034 0f78 3618     		adds r6, r6, r0
 2035 0f7a 7F18     		adds r7, r7, r1
 2036              	
 2037 0f7c DD46     		mov sp, r11
 2038 0f7e 0FBC     		pop {r0-r3}
 2039 0f80 EB46     		mov r11, sp
 2040 0f82 D546     		mov sp, r10
 2041 0f84 10BC     		pop {r4}
 2042 0f86 EA46     		mov r10, sp
 2043 0f88 2546     		mov r5, r4
 2044 0f8a 2404     		lsls r4, r4, # 16
 2045 0f8c 240C     		lsrs r4, r4, # 16
 2046 0f8e 2D0C     		lsrs r5, r5, # 16
 2047 0f90 6043     		muls r0, r0, r4
 2048 0f92 6143     		muls r1, r1, r4
 2049 0f94 6A43     		muls r2, r2, r5
 2050 0f96 6B43     		muls r3, r3, r5
 2051 0f98 8011     		asrs r0, r0, # 6
 2052 0f9a 8911     		asrs r1, r1, # 6
 2053 0f9c 9211     		asrs r2, r2, # 6
 2054 0f9e 9B11     		asrs r3, r3, # 6
 2055 0fa0 8018     		adds r0, r0, r2         @r
 2056 0fa2 C918     		adds r1, r1, r3         @i
 2057 0fa4 3618     		adds r6, r6, r0
 2058 0fa6 7F18     		adds r7, r7, r1
 2059              	
 2060 0fa8 DD46     		mov sp, r11
 2061 0faa 0FBC     		pop {r0-r3}
 2062 0fac EB46     		mov r11, sp
 2063 0fae D546     		mov sp, r10
 2064 0fb0 10BC     		pop {r4}
 2065 0fb2 EA46     		mov r10, sp
 2066 0fb4 2546     		mov r5, r4
 2067 0fb6 2404     		lsls r4, r4, # 16
 2068 0fb8 240C     		lsrs r4, r4, # 16
 2069 0fba 2D0C     		lsrs r5, r5, # 16
 2070 0fbc 6043     		muls r0, r0, r4
 2071 0fbe 6143     		muls r1, r1, r4
 2072 0fc0 6A43     		muls r2, r2, r5
 2073 0fc2 6B43     		muls r3, r3, r5
 2074 0fc4 8011     		asrs r0, r0, # 6
 2075 0fc6 8911     		asrs r1, r1, # 6
 2076 0fc8 9211     		asrs r2, r2, # 6
 2077 0fca 9B11     		asrs r3, r3, # 6
 2078 0fcc 8018     		adds r0, r0, r2  @r
 2079 0fce C918     		adds r1, r1, r3  @i
 2080 0fd0 3618     		adds r6, r6, r0
 2081 0fd2 7F18     		adds r7, r7, r1
 2082              	
 2083 0fd4 DD46     		mov sp, r11
 2084 0fd6 0FBC     		pop {r0-r3}
 2085 0fd8 EB46     		mov r11, sp
 2086 0fda D546     		mov sp, r10
 2087 0fdc 10BC     		pop {r4}
ARM GAS  1.s 			page 38


 2088 0fde EA46     		mov r10, sp
 2089 0fe0 2546     		mov r5, r4
 2090 0fe2 2404     		lsls r4, r4, # 16
 2091 0fe4 240C     		lsrs r4, r4, # 16
 2092 0fe6 2D0C     		lsrs r5, r5, # 16
 2093 0fe8 6043     		muls r0, r0, r4
 2094 0fea 6143     		muls r1, r1, r4
 2095 0fec 6A43     		muls r2, r2, r5
 2096 0fee 6B43     		muls r3, r3, r5
 2097 0ff0 8011     		asrs r0, r0, # 6
 2098 0ff2 8911     		asrs r1, r1, # 6
 2099 0ff4 9211     		asrs r2, r2, # 6
 2100 0ff6 9B11     		asrs r3, r3, # 6
 2101 0ff8 8018     		adds r0, r0, r2         @r
 2102 0ffa C918     		adds r1, r1, r3         @i
 2103 0ffc 3618     		adds r6, r6, r0
 2104 0ffe 7F18     		adds r7, r7, r1
 2105              	
 2106              		@7
 2107 1000 DD46     		mov sp, r11
 2108 1002 0FBC     		pop {r0-r3}
 2109 1004 EB46     		mov r11, sp
 2110 1006 D546     		mov sp, r10
 2111 1008 10BC     		pop {r4}
 2112 100a EA46     		mov r10, sp
 2113 100c 2546     		mov r5, r4
 2114 100e 2404     		lsls r4, r4, # 16
 2115 1010 240C     		lsrs r4, r4, # 16
 2116 1012 2D0C     		lsrs r5, r5, # 16
 2117 1014 6043     		muls r0, r0, r4		@R
 2118 1016 6143     		muls r1, r1, r4		@I
 2119 1018 6A43     		muls r2, r2, r5		@R
 2120 101a 6B43     		muls r3, r3, r5		@I
 2121 101c 8011     		asrs r0, r0, # 6
 2122 101e 8911     		asrs r1, r1, # 6
 2123 1020 9211     		asrs r2, r2, # 6
 2124 1022 9B11     		asrs r3, r3, # 6
 2125 1024 8018     		adds r0, r0, r2	 @r
 2126 1026 C918     		adds r1, r1, r3	 @i
 2127 1028 3618     		adds r6, r6, r0
 2128 102a 7F18     		adds r7, r7, r1
 2129              	
 2130 102c DD46     		mov sp, r11
 2131 102e 0FBC     		pop {r0-r3}
 2132 1030 EB46     		mov r11, sp
 2133 1032 D546     		mov sp, r10
 2134 1034 10BC     		pop {r4}
 2135 1036 EA46     		mov r10, sp
 2136 1038 2546     		mov r5, r4
 2137 103a 2404     		lsls r4, r4, # 16
 2138 103c 240C     		lsrs r4, r4, # 16
 2139 103e 2D0C     		lsrs r5, r5, # 16
 2140 1040 6043     		muls r0, r0, r4
 2141 1042 6143     		muls r1, r1, r4
 2142 1044 6A43     		muls r2, r2, r5
 2143 1046 6B43     		muls r3, r3, r5
 2144 1048 8011     		asrs r0, r0, # 6
ARM GAS  1.s 			page 39


 2145 104a 8911     		asrs r1, r1, # 6
 2146 104c 9211     		asrs r2, r2, # 6
 2147 104e 9B11     		asrs r3, r3, # 6
 2148 1050 8018     		adds r0, r0, r2         @r
 2149 1052 C918     		adds r1, r1, r3         @i
 2150 1054 3618     		adds r6, r6, r0
 2151 1056 7F18     		adds r7, r7, r1
 2152              	
 2153 1058 DD46     		mov sp, r11
 2154 105a 0FBC     		pop {r0-r3}
 2155 105c EB46     		mov r11, sp
 2156 105e D546     		mov sp, r10
 2157 1060 10BC     		pop {r4}
 2158 1062 EA46     		mov r10, sp
 2159 1064 2546     		mov r5, r4
 2160 1066 2404     		lsls r4, r4, # 16
 2161 1068 240C     		lsrs r4, r4, # 16
 2162 106a 2D0C     		lsrs r5, r5, # 16
 2163 106c 6043     		muls r0, r0, r4
 2164 106e 6143     		muls r1, r1, r4
 2165 1070 6A43     		muls r2, r2, r5
 2166 1072 6B43     		muls r3, r3, r5
 2167 1074 8011     		asrs r0, r0, # 6
 2168 1076 8911     		asrs r1, r1, # 6
 2169 1078 9211     		asrs r2, r2, # 6
 2170 107a 9B11     		asrs r3, r3, # 6
 2171 107c 8018     		adds r0, r0, r2  @r
 2172 107e C918     		adds r1, r1, r3  @i
 2173 1080 3618     		adds r6, r6, r0
 2174 1082 7F18     		adds r7, r7, r1
 2175              	
 2176 1084 DD46     		mov sp, r11
 2177 1086 0FBC     		pop {r0-r3}
 2178 1088 EB46     		mov r11, sp
 2179 108a D546     		mov sp, r10
 2180 108c 10BC     		pop {r4}
 2181 108e EA46     		mov r10, sp
 2182 1090 2546     		mov r5, r4
 2183 1092 2404     		lsls r4, r4, # 16
 2184 1094 240C     		lsrs r4, r4, # 16
 2185 1096 2D0C     		lsrs r5, r5, # 16
 2186 1098 6043     		muls r0, r0, r4
 2187 109a 6143     		muls r1, r1, r4
 2188 109c 6A43     		muls r2, r2, r5
 2189 109e 6B43     		muls r3, r3, r5
 2190 10a0 8011     		asrs r0, r0, # 6
 2191 10a2 8911     		asrs r1, r1, # 6
 2192 10a4 9211     		asrs r2, r2, # 6
 2193 10a6 9B11     		asrs r3, r3, # 6
 2194 10a8 8018     		adds r0, r0, r2         @r
 2195 10aa C918     		adds r1, r1, r3         @i
 2196 10ac 3618     		adds r6, r6, r0
 2197 10ae 7F18     		adds r7, r7, r1
 2198              	
 2199              		@8
 2200 10b0 DD46     		mov sp, r11
 2201 10b2 0FBC     		pop {r0-r3}
ARM GAS  1.s 			page 40


 2202 10b4 EB46     		mov r11, sp
 2203 10b6 D546     		mov sp, r10
 2204 10b8 10BC     		pop {r4}
 2205 10ba EA46     		mov r10, sp
 2206 10bc 2546     		mov r5, r4
 2207 10be 2404     		lsls r4, r4, # 16
 2208 10c0 240C     		lsrs r4, r4, # 16
 2209 10c2 2D0C     		lsrs r5, r5, # 16
 2210 10c4 6043     		muls r0, r0, r4		@R
 2211 10c6 6143     		muls r1, r1, r4		@I
 2212 10c8 6A43     		muls r2, r2, r5		@R
 2213 10ca 6B43     		muls r3, r3, r5		@I
 2214 10cc 8011     		asrs r0, r0, # 6
 2215 10ce 8911     		asrs r1, r1, # 6
 2216 10d0 9211     		asrs r2, r2, # 6
 2217 10d2 9B11     		asrs r3, r3, # 6
 2218 10d4 8018     		adds r0, r0, r2	 @r
 2219 10d6 C918     		adds r1, r1, r3	 @i
 2220 10d8 3618     		adds r6, r6, r0
 2221 10da 7F18     		adds r7, r7, r1
 2222              	
 2223 10dc DD46     		mov sp, r11
 2224 10de 0FBC     		pop {r0-r3}
 2225 10e0 EB46     		mov r11, sp
 2226 10e2 D546     		mov sp, r10
 2227 10e4 10BC     		pop {r4}
 2228 10e6 EA46     		mov r10, sp
 2229 10e8 2546     		mov r5, r4
 2230 10ea 2404     		lsls r4, r4, # 16
 2231 10ec 240C     		lsrs r4, r4, # 16
 2232 10ee 2D0C     		lsrs r5, r5, # 16
 2233 10f0 6043     		muls r0, r0, r4
 2234 10f2 6143     		muls r1, r1, r4
 2235 10f4 6A43     		muls r2, r2, r5
 2236 10f6 6B43     		muls r3, r3, r5
 2237 10f8 8011     		asrs r0, r0, # 6
 2238 10fa 8911     		asrs r1, r1, # 6
 2239 10fc 9211     		asrs r2, r2, # 6
 2240 10fe 9B11     		asrs r3, r3, # 6
 2241 1100 8018     		adds r0, r0, r2         @r
 2242 1102 C918     		adds r1, r1, r3         @i
 2243 1104 3618     		adds r6, r6, r0
 2244 1106 7F18     		adds r7, r7, r1
 2245              	
 2246 1108 DD46     		mov sp, r11
 2247 110a 0FBC     		pop {r0-r3}
 2248 110c EB46     		mov r11, sp
 2249 110e D546     		mov sp, r10
 2250 1110 10BC     		pop {r4}
 2251 1112 EA46     		mov r10, sp
 2252 1114 2546     		mov r5, r4
 2253 1116 2404     		lsls r4, r4, # 16
 2254 1118 240C     		lsrs r4, r4, # 16
 2255 111a 2D0C     		lsrs r5, r5, # 16
 2256 111c 6043     		muls r0, r0, r4
 2257 111e 6143     		muls r1, r1, r4
 2258 1120 6A43     		muls r2, r2, r5
ARM GAS  1.s 			page 41


 2259 1122 6B43     		muls r3, r3, r5
 2260 1124 8011     		asrs r0, r0, # 6
 2261 1126 8911     		asrs r1, r1, # 6
 2262 1128 9211     		asrs r2, r2, # 6
 2263 112a 9B11     		asrs r3, r3, # 6
 2264 112c 8018     		adds r0, r0, r2  @r
 2265 112e C918     		adds r1, r1, r3  @i
 2266 1130 3618     		adds r6, r6, r0
 2267 1132 7F18     		adds r7, r7, r1
 2268              	
 2269 1134 DD46     		mov sp, r11
 2270 1136 0FBC     		pop {r0-r3}
 2271 1138 EB46     		mov r11, sp
 2272 113a D546     		mov sp, r10
 2273 113c 10BC     		pop {r4}
 2274 113e EA46     		mov r10, sp
 2275 1140 2546     		mov r5, r4
 2276 1142 2404     		lsls r4, r4, # 16
 2277 1144 240C     		lsrs r4, r4, # 16
 2278 1146 2D0C     		lsrs r5, r5, # 16
 2279 1148 6043     		muls r0, r0, r4
 2280 114a 6143     		muls r1, r1, r4
 2281 114c 6A43     		muls r2, r2, r5
 2282 114e 6B43     		muls r3, r3, r5
 2283 1150 8011     		asrs r0, r0, # 6
 2284 1152 8911     		asrs r1, r1, # 6
 2285 1154 9211     		asrs r2, r2, # 6
 2286 1156 9B11     		asrs r3, r3, # 6
 2287 1158 8018     		adds r0, r0, r2         @r
 2288 115a C918     		adds r1, r1, r3         @i
 2289 115c 3618     		adds r6, r6, r0
 2290 115e 7F18     		adds r7, r7, r1
 2291              	
 2292              		@9
 2293 1160 DD46     		mov sp, r11
 2294 1162 0FBC     		pop {r0-r3}
 2295 1164 EB46     		mov r11, sp
 2296 1166 D546     		mov sp, r10
 2297 1168 10BC     		pop {r4}
 2298 116a EA46     		mov r10, sp
 2299 116c 2546     		mov r5, r4
 2300 116e 2404     		lsls r4, r4, # 16
 2301 1170 240C     		lsrs r4, r4, # 16
 2302 1172 2D0C     		lsrs r5, r5, # 16
 2303 1174 6043     		muls r0, r0, r4		@R
 2304 1176 6143     		muls r1, r1, r4		@I
 2305 1178 6A43     		muls r2, r2, r5		@R
 2306 117a 6B43     		muls r3, r3, r5		@I
 2307 117c 8011     		asrs r0, r0, # 6
 2308 117e 8911     		asrs r1, r1, # 6
 2309 1180 9211     		asrs r2, r2, # 6
 2310 1182 9B11     		asrs r3, r3, # 6
 2311 1184 8018     		adds r0, r0, r2	 @r
 2312 1186 C918     		adds r1, r1, r3	 @i
 2313 1188 3618     		adds r6, r6, r0
 2314 118a 7F18     		adds r7, r7, r1
 2315              	
ARM GAS  1.s 			page 42


 2316 118c DD46     		mov sp, r11
 2317 118e 0FBC     		pop {r0-r3}
 2318 1190 EB46     		mov r11, sp
 2319 1192 D546     		mov sp, r10
 2320 1194 10BC     		pop {r4}
 2321 1196 EA46     		mov r10, sp
 2322 1198 2546     		mov r5, r4
 2323 119a 2404     		lsls r4, r4, # 16
 2324 119c 240C     		lsrs r4, r4, # 16
 2325 119e 2D0C     		lsrs r5, r5, # 16
 2326 11a0 6043     		muls r0, r0, r4
 2327 11a2 6143     		muls r1, r1, r4
 2328 11a4 6A43     		muls r2, r2, r5
 2329 11a6 6B43     		muls r3, r3, r5
 2330 11a8 8011     		asrs r0, r0, # 6
 2331 11aa 8911     		asrs r1, r1, # 6
 2332 11ac 9211     		asrs r2, r2, # 6
 2333 11ae 9B11     		asrs r3, r3, # 6
 2334 11b0 8018     		adds r0, r0, r2         @r
 2335 11b2 C918     		adds r1, r1, r3         @i
 2336 11b4 3618     		adds r6, r6, r0
 2337 11b6 7F18     		adds r7, r7, r1
 2338              	
 2339 11b8 DD46     		mov sp, r11
 2340 11ba 0FBC     		pop {r0-r3}
 2341 11bc EB46     		mov r11, sp
 2342 11be D546     		mov sp, r10
 2343 11c0 10BC     		pop {r4}
 2344 11c2 EA46     		mov r10, sp
 2345 11c4 2546     		mov r5, r4
 2346 11c6 2404     		lsls r4, r4, # 16
 2347 11c8 240C     		lsrs r4, r4, # 16
 2348 11ca 2D0C     		lsrs r5, r5, # 16
 2349 11cc 6043     		muls r0, r0, r4
 2350 11ce 6143     		muls r1, r1, r4
 2351 11d0 6A43     		muls r2, r2, r5
 2352 11d2 6B43     		muls r3, r3, r5
 2353 11d4 8011     		asrs r0, r0, # 6
 2354 11d6 8911     		asrs r1, r1, # 6
 2355 11d8 9211     		asrs r2, r2, # 6
 2356 11da 9B11     		asrs r3, r3, # 6
 2357 11dc 8018     		adds r0, r0, r2  @r
 2358 11de C918     		adds r1, r1, r3  @i
 2359 11e0 3618     		adds r6, r6, r0
 2360 11e2 7F18     		adds r7, r7, r1
 2361              	
 2362 11e4 DD46     		mov sp, r11
 2363 11e6 0FBC     		pop {r0-r3}
 2364 11e8 EB46     		mov r11, sp
 2365 11ea D546     		mov sp, r10
 2366 11ec 10BC     		pop {r4}
 2367 11ee EA46     		mov r10, sp
 2368 11f0 2546     		mov r5, r4
 2369 11f2 2404     		lsls r4, r4, # 16
 2370 11f4 240C     		lsrs r4, r4, # 16
 2371 11f6 2D0C     		lsrs r5, r5, # 16
 2372 11f8 6043     		muls r0, r0, r4
ARM GAS  1.s 			page 43


 2373 11fa 6143     		muls r1, r1, r4
 2374 11fc 6A43     		muls r2, r2, r5
 2375 11fe 6B43     		muls r3, r3, r5
 2376 1200 8011     		asrs r0, r0, # 6
 2377 1202 8911     		asrs r1, r1, # 6
 2378 1204 9211     		asrs r2, r2, # 6
 2379 1206 9B11     		asrs r3, r3, # 6
 2380 1208 8018     		adds r0, r0, r2         @r
 2381 120a C918     		adds r1, r1, r3         @i
 2382 120c 3618     		adds r6, r6, r0
 2383 120e 7F18     		adds r7, r7, r1
 2384              		@yjm1
 2385              		@0
 2386 1210 DD46     		mov sp, r11
 2387 1212 0FBC     		pop {r0-r3}
 2388 1214 EB46     		mov r11, sp
 2389 1216 D546     		mov sp, r10
 2390 1218 10BC     		pop {r4}
 2391 121a EA46     		mov r10, sp
 2392 121c 2546     		mov r5, r4
 2393 121e 2404     		lsls r4, r4, # 16
 2394 1220 240C     		lsrs r4, r4, # 16
 2395 1222 2D0C     		lsrs r5, r5, # 16
 2396 1224 6043     		muls r0, r0, r4		@R
 2397 1226 6143     		muls r1, r1, r4		@I
 2398 1228 6A43     		muls r2, r2, r5		@R
 2399 122a 6B43     		muls r3, r3, r5		@I
 2400 122c 8011     		asrs r0, r0, # 6
 2401 122e 8911     		asrs r1, r1, # 6
 2402 1230 9211     		asrs r2, r2, # 6
 2403 1232 9B11     		asrs r3, r3, # 6
 2404 1234 8018     		adds r0, r0, r2	 @r
 2405 1236 C918     		adds r1, r1, r3	 @i
 2406 1238 3618     		adds r6, r6, r0
 2407 123a 7F18     		adds r7, r7, r1
 2408              	
 2409 123c DD46     		mov sp, r11
 2410 123e 0FBC     		pop {r0-r3}
 2411 1240 EB46     		mov r11, sp
 2412 1242 D546     		mov sp, r10
 2413 1244 10BC     		pop {r4}
 2414 1246 EA46     		mov r10, sp
 2415 1248 2546     		mov r5, r4
 2416 124a 2404     		lsls r4, r4, # 16
 2417 124c 240C     		lsrs r4, r4, # 16
 2418 124e 2D0C     		lsrs r5, r5, # 16
 2419 1250 6043     		muls r0, r0, r4
 2420 1252 6143     		muls r1, r1, r4
 2421 1254 6A43     		muls r2, r2, r5
 2422 1256 6B43     		muls r3, r3, r5
 2423 1258 8011     		asrs r0, r0, # 6
 2424 125a 8911     		asrs r1, r1, # 6
 2425 125c 9211     		asrs r2, r2, # 6
 2426 125e 9B11     		asrs r3, r3, # 6
 2427 1260 8018     		adds r0, r0, r2         @r
 2428 1262 C918     		adds r1, r1, r3         @i
 2429 1264 3618     		adds r6, r6, r0
ARM GAS  1.s 			page 44


 2430 1266 7F18     		adds r7, r7, r1
 2431              	
 2432 1268 DD46     		mov sp, r11
 2433 126a 0FBC     		pop {r0-r3}
 2434 126c EB46     		mov r11, sp
 2435 126e D546     		mov sp, r10
 2436 1270 10BC     		pop {r4}
 2437 1272 EA46     		mov r10, sp
 2438 1274 2546     		mov r5, r4
 2439 1276 2404     		lsls r4, r4, # 16
 2440 1278 240C     		lsrs r4, r4, # 16
 2441 127a 2D0C     		lsrs r5, r5, # 16
 2442 127c 6043     		muls r0, r0, r4
 2443 127e 6143     		muls r1, r1, r4
 2444 1280 6A43     		muls r2, r2, r5
 2445 1282 6B43     		muls r3, r3, r5
 2446 1284 8011     		asrs r0, r0, # 6
 2447 1286 8911     		asrs r1, r1, # 6
 2448 1288 9211     		asrs r2, r2, # 6
 2449 128a 9B11     		asrs r3, r3, # 6
 2450 128c 8018     		adds r0, r0, r2  @r
 2451 128e C918     		adds r1, r1, r3  @i
 2452 1290 3618     		adds r6, r6, r0
 2453 1292 7F18     		adds r7, r7, r1
 2454              	
 2455 1294 DD46     		mov sp, r11
 2456 1296 0FBC     		pop {r0-r3}
 2457 1298 EB46     		mov r11, sp
 2458 129a D546     		mov sp, r10
 2459 129c 10BC     		pop {r4}
 2460 129e EA46     		mov r10, sp
 2461 12a0 2546     		mov r5, r4
 2462 12a2 2404     		lsls r4, r4, # 16
 2463 12a4 240C     		lsrs r4, r4, # 16
 2464 12a6 2D0C     		lsrs r5, r5, # 16
 2465 12a8 6043     		muls r0, r0, r4
 2466 12aa 6143     		muls r1, r1, r4
 2467 12ac 6A43     		muls r2, r2, r5
 2468 12ae 6B43     		muls r3, r3, r5
 2469 12b0 8011     		asrs r0, r0, # 6
 2470 12b2 8911     		asrs r1, r1, # 6
 2471 12b4 9211     		asrs r2, r2, # 6
 2472 12b6 9B11     		asrs r3, r3, # 6
 2473 12b8 8018     		adds r0, r0, r2         @r
 2474 12ba C918     		adds r1, r1, r3         @i
 2475 12bc 3618     		adds r6, r6, r0
 2476 12be 7F18     		adds r7, r7, r1
 2477              	
 2478              		@1
 2479 12c0 DD46     		mov sp, r11
 2480 12c2 0FBC     		pop {r0-r3}
 2481 12c4 EB46     		mov r11, sp
 2482 12c6 D546     		mov sp, r10
 2483 12c8 10BC     		pop {r4}
 2484 12ca EA46     		mov r10, sp
 2485 12cc 2546     		mov r5, r4
 2486 12ce 2404     		lsls r4, r4, # 16
ARM GAS  1.s 			page 45


 2487 12d0 240C     		lsrs r4, r4, # 16
 2488 12d2 2D0C     		lsrs r5, r5, # 16
 2489 12d4 6043     		muls r0, r0, r4		@R
 2490 12d6 6143     		muls r1, r1, r4		@I
 2491 12d8 6A43     		muls r2, r2, r5		@R
 2492 12da 6B43     		muls r3, r3, r5		@I
 2493 12dc 8011     		asrs r0, r0, # 6
 2494 12de 8911     		asrs r1, r1, # 6
 2495 12e0 9211     		asrs r2, r2, # 6
 2496 12e2 9B11     		asrs r3, r3, # 6
 2497 12e4 8018     		adds r0, r0, r2	 @r
 2498 12e6 C918     		adds r1, r1, r3	 @i
 2499 12e8 3618     		adds r6, r6, r0
 2500 12ea 7F18     		adds r7, r7, r1
 2501              	
 2502 12ec DD46     		mov sp, r11
 2503 12ee 0FBC     		pop {r0-r3}
 2504 12f0 EB46     		mov r11, sp
 2505 12f2 D546     		mov sp, r10
 2506 12f4 10BC     		pop {r4}
 2507 12f6 EA46     		mov r10, sp
 2508 12f8 2546     		mov r5, r4
 2509 12fa 2404     		lsls r4, r4, # 16
 2510 12fc 240C     		lsrs r4, r4, # 16
 2511 12fe 2D0C     		lsrs r5, r5, # 16
 2512 1300 6043     		muls r0, r0, r4
 2513 1302 6143     		muls r1, r1, r4
 2514 1304 6A43     		muls r2, r2, r5
 2515 1306 6B43     		muls r3, r3, r5
 2516 1308 8011     		asrs r0, r0, # 6
 2517 130a 8911     		asrs r1, r1, # 6
 2518 130c 9211     		asrs r2, r2, # 6
 2519 130e 9B11     		asrs r3, r3, # 6
 2520 1310 8018     		adds r0, r0, r2         @r
 2521 1312 C918     		adds r1, r1, r3         @i
 2522 1314 3618     		adds r6, r6, r0
 2523 1316 7F18     		adds r7, r7, r1
 2524              	
 2525 1318 DD46     		mov sp, r11
 2526 131a 0FBC     		pop {r0-r3}
 2527 131c EB46     		mov r11, sp
 2528 131e D546     		mov sp, r10
 2529 1320 10BC     		pop {r4}
 2530 1322 EA46     		mov r10, sp
 2531 1324 2546     		mov r5, r4
 2532 1326 2404     		lsls r4, r4, # 16
 2533 1328 240C     		lsrs r4, r4, # 16
 2534 132a 2D0C     		lsrs r5, r5, # 16
 2535 132c 6043     		muls r0, r0, r4
 2536 132e 6143     		muls r1, r1, r4
 2537 1330 6A43     		muls r2, r2, r5
 2538 1332 6B43     		muls r3, r3, r5
 2539 1334 8011     		asrs r0, r0, # 6
 2540 1336 8911     		asrs r1, r1, # 6
 2541 1338 9211     		asrs r2, r2, # 6
 2542 133a 9B11     		asrs r3, r3, # 6
 2543 133c 8018     		adds r0, r0, r2  @r
ARM GAS  1.s 			page 46


 2544 133e C918     		adds r1, r1, r3  @i
 2545 1340 3618     		adds r6, r6, r0
 2546 1342 7F18     		adds r7, r7, r1
 2547              	
 2548 1344 DD46     		mov sp, r11
 2549 1346 0FBC     		pop {r0-r3}
 2550 1348 EB46     		mov r11, sp
 2551 134a D546     		mov sp, r10
 2552 134c 10BC     		pop {r4}
 2553 134e EA46     		mov r10, sp
 2554 1350 2546     		mov r5, r4
 2555 1352 2404     		lsls r4, r4, # 16
 2556 1354 240C     		lsrs r4, r4, # 16
 2557 1356 2D0C     		lsrs r5, r5, # 16
 2558 1358 6043     		muls r0, r0, r4
 2559 135a 6143     		muls r1, r1, r4
 2560 135c 6A43     		muls r2, r2, r5
 2561 135e 6B43     		muls r3, r3, r5
 2562 1360 8011     		asrs r0, r0, # 6
 2563 1362 8911     		asrs r1, r1, # 6
 2564 1364 9211     		asrs r2, r2, # 6
 2565 1366 9B11     		asrs r3, r3, # 6
 2566 1368 8018     		adds r0, r0, r2         @r
 2567 136a C918     		adds r1, r1, r3         @i
 2568 136c 3618     		adds r6, r6, r0
 2569 136e 7F18     		adds r7, r7, r1
 2570              	
 2571              		@2
 2572 1370 DD46     		mov sp, r11
 2573 1372 0FBC     		pop {r0-r3}
 2574 1374 EB46     		mov r11, sp
 2575 1376 D546     		mov sp, r10
 2576 1378 10BC     		pop {r4}
 2577 137a EA46     		mov r10, sp
 2578 137c 2546     		mov r5, r4
 2579 137e 2404     		lsls r4, r4, # 16
 2580 1380 240C     		lsrs r4, r4, # 16
 2581 1382 2D0C     		lsrs r5, r5, # 16
 2582 1384 6043     		muls r0, r0, r4		@R
 2583 1386 6143     		muls r1, r1, r4		@I
 2584 1388 6A43     		muls r2, r2, r5		@R
 2585 138a 6B43     		muls r3, r3, r5		@I
 2586 138c 8011     		asrs r0, r0, # 6
 2587 138e 8911     		asrs r1, r1, # 6
 2588 1390 9211     		asrs r2, r2, # 6
 2589 1392 9B11     		asrs r3, r3, # 6
 2590 1394 8018     		adds r0, r0, r2	 @r
 2591 1396 C918     		adds r1, r1, r3	 @i
 2592 1398 3618     		adds r6, r6, r0
 2593 139a 7F18     		adds r7, r7, r1
 2594              	
 2595 139c DD46     		mov sp, r11
 2596 139e 0FBC     		pop {r0-r3}
 2597 13a0 EB46     		mov r11, sp
 2598 13a2 D546     		mov sp, r10
 2599 13a4 10BC     		pop {r4}
 2600 13a6 EA46     		mov r10, sp
ARM GAS  1.s 			page 47


 2601 13a8 2546     		mov r5, r4
 2602 13aa 2404     		lsls r4, r4, # 16
 2603 13ac 240C     		lsrs r4, r4, # 16
 2604 13ae 2D0C     		lsrs r5, r5, # 16
 2605 13b0 6043     		muls r0, r0, r4
 2606 13b2 6143     		muls r1, r1, r4
 2607 13b4 6A43     		muls r2, r2, r5
 2608 13b6 6B43     		muls r3, r3, r5
 2609 13b8 8011     		asrs r0, r0, # 6
 2610 13ba 8911     		asrs r1, r1, # 6
 2611 13bc 9211     		asrs r2, r2, # 6
 2612 13be 9B11     		asrs r3, r3, # 6
 2613 13c0 8018     		adds r0, r0, r2         @r
 2614 13c2 C918     		adds r1, r1, r3         @i
 2615 13c4 3618     		adds r6, r6, r0
 2616 13c6 7F18     		adds r7, r7, r1
 2617              	
 2618 13c8 DD46     		mov sp, r11
 2619 13ca 0FBC     		pop {r0-r3}
 2620 13cc EB46     		mov r11, sp
 2621 13ce D546     		mov sp, r10
 2622 13d0 10BC     		pop {r4}
 2623 13d2 EA46     		mov r10, sp
 2624 13d4 2546     		mov r5, r4
 2625 13d6 2404     		lsls r4, r4, # 16
 2626 13d8 240C     		lsrs r4, r4, # 16
 2627 13da 2D0C     		lsrs r5, r5, # 16
 2628 13dc 6043     		muls r0, r0, r4
 2629 13de 6143     		muls r1, r1, r4
 2630 13e0 6A43     		muls r2, r2, r5
 2631 13e2 6B43     		muls r3, r3, r5
 2632 13e4 8011     		asrs r0, r0, # 6
 2633 13e6 8911     		asrs r1, r1, # 6
 2634 13e8 9211     		asrs r2, r2, # 6
 2635 13ea 9B11     		asrs r3, r3, # 6
 2636 13ec 8018     		adds r0, r0, r2  @r
 2637 13ee C918     		adds r1, r1, r3  @i
 2638 13f0 3618     		adds r6, r6, r0
 2639 13f2 7F18     		adds r7, r7, r1
 2640              	
 2641 13f4 DD46     		mov sp, r11
 2642 13f6 0FBC     		pop {r0-r3}
 2643 13f8 EB46     		mov r11, sp
 2644 13fa D546     		mov sp, r10
 2645 13fc 10BC     		pop {r4}
 2646 13fe EA46     		mov r10, sp
 2647 1400 2546     		mov r5, r4
 2648 1402 2404     		lsls r4, r4, # 16
 2649 1404 240C     		lsrs r4, r4, # 16
 2650 1406 2D0C     		lsrs r5, r5, # 16
 2651 1408 6043     		muls r0, r0, r4
 2652 140a 6143     		muls r1, r1, r4
 2653 140c 6A43     		muls r2, r2, r5
 2654 140e 6B43     		muls r3, r3, r5
 2655 1410 8011     		asrs r0, r0, # 6
 2656 1412 8911     		asrs r1, r1, # 6
 2657 1414 9211     		asrs r2, r2, # 6
ARM GAS  1.s 			page 48


 2658 1416 9B11     		asrs r3, r3, # 6
 2659 1418 8018     		adds r0, r0, r2         @r
 2660 141a C918     		adds r1, r1, r3         @i
 2661 141c 3618     		adds r6, r6, r0
 2662 141e 7F18     		adds r7, r7, r1
 2663              	
 2664              		@3
 2665 1420 DD46     		mov sp, r11
 2666 1422 0FBC     		pop {r0-r3}
 2667 1424 EB46     		mov r11, sp
 2668 1426 D546     		mov sp, r10
 2669 1428 10BC     		pop {r4}
 2670 142a EA46     		mov r10, sp
 2671 142c 2546     		mov r5, r4
 2672 142e 2404     		lsls r4, r4, # 16
 2673 1430 240C     		lsrs r4, r4, # 16
 2674 1432 2D0C     		lsrs r5, r5, # 16
 2675 1434 6043     		muls r0, r0, r4		@R
 2676 1436 6143     		muls r1, r1, r4		@I
 2677 1438 6A43     		muls r2, r2, r5		@R
 2678 143a 6B43     		muls r3, r3, r5		@I
 2679 143c 8011     		asrs r0, r0, # 6
 2680 143e 8911     		asrs r1, r1, # 6
 2681 1440 9211     		asrs r2, r2, # 6
 2682 1442 9B11     		asrs r3, r3, # 6
 2683 1444 8018     		adds r0, r0, r2	 @r
 2684 1446 C918     		adds r1, r1, r3	 @i
 2685 1448 3618     		adds r6, r6, r0
 2686 144a 7F18     		adds r7, r7, r1
 2687              	
 2688 144c DD46     		mov sp, r11
 2689 144e 0FBC     		pop {r0-r3}
 2690 1450 EB46     		mov r11, sp
 2691 1452 D546     		mov sp, r10
 2692 1454 10BC     		pop {r4}
 2693 1456 EA46     		mov r10, sp
 2694 1458 2546     		mov r5, r4
 2695 145a 2404     		lsls r4, r4, # 16
 2696 145c 240C     		lsrs r4, r4, # 16
 2697 145e 2D0C     		lsrs r5, r5, # 16
 2698 1460 6043     		muls r0, r0, r4
 2699 1462 6143     		muls r1, r1, r4
 2700 1464 6A43     		muls r2, r2, r5
 2701 1466 6B43     		muls r3, r3, r5
 2702 1468 8011     		asrs r0, r0, # 6
 2703 146a 8911     		asrs r1, r1, # 6
 2704 146c 9211     		asrs r2, r2, # 6
 2705 146e 9B11     		asrs r3, r3, # 6
 2706 1470 8018     		adds r0, r0, r2         @r
 2707 1472 C918     		adds r1, r1, r3         @i
 2708 1474 3618     		adds r6, r6, r0
 2709 1476 7F18     		adds r7, r7, r1
 2710              	
 2711 1478 DD46     		mov sp, r11
 2712 147a 0FBC     		pop {r0-r3}
 2713 147c EB46     		mov r11, sp
 2714 147e D546     		mov sp, r10
ARM GAS  1.s 			page 49


 2715 1480 10BC     		pop {r4}
 2716 1482 EA46     		mov r10, sp
 2717 1484 2546     		mov r5, r4
 2718 1486 2404     		lsls r4, r4, # 16
 2719 1488 240C     		lsrs r4, r4, # 16
 2720 148a 2D0C     		lsrs r5, r5, # 16
 2721 148c 6043     		muls r0, r0, r4
 2722 148e 6143     		muls r1, r1, r4
 2723 1490 6A43     		muls r2, r2, r5
 2724 1492 6B43     		muls r3, r3, r5
 2725 1494 8011     		asrs r0, r0, # 6
 2726 1496 8911     		asrs r1, r1, # 6
 2727 1498 9211     		asrs r2, r2, # 6
 2728 149a 9B11     		asrs r3, r3, # 6
 2729 149c 8018     		adds r0, r0, r2  @r
 2730 149e C918     		adds r1, r1, r3  @i
 2731 14a0 3618     		adds r6, r6, r0
 2732 14a2 7F18     		adds r7, r7, r1
 2733              	
 2734 14a4 DD46     		mov sp, r11
 2735 14a6 0FBC     		pop {r0-r3}
 2736 14a8 EB46     		mov r11, sp
 2737 14aa D546     		mov sp, r10
 2738 14ac 10BC     		pop {r4}
 2739 14ae EA46     		mov r10, sp
 2740 14b0 2546     		mov r5, r4
 2741 14b2 2404     		lsls r4, r4, # 16
 2742 14b4 240C     		lsrs r4, r4, # 16
 2743 14b6 2D0C     		lsrs r5, r5, # 16
 2744 14b8 6043     		muls r0, r0, r4
 2745 14ba 6143     		muls r1, r1, r4
 2746 14bc 6A43     		muls r2, r2, r5
 2747 14be 6B43     		muls r3, r3, r5
 2748 14c0 8011     		asrs r0, r0, # 6
 2749 14c2 8911     		asrs r1, r1, # 6
 2750 14c4 9211     		asrs r2, r2, # 6
 2751 14c6 9B11     		asrs r3, r3, # 6
 2752 14c8 8018     		adds r0, r0, r2         @r
 2753 14ca C918     		adds r1, r1, r3         @i
 2754 14cc 3618     		adds r6, r6, r0
 2755 14ce 7F18     		adds r7, r7, r1
 2756              	
 2757              		@4
 2758 14d0 DD46     		mov sp, r11
 2759 14d2 0FBC     		pop {r0-r3}
 2760 14d4 EB46     		mov r11, sp
 2761 14d6 D546     		mov sp, r10
 2762 14d8 10BC     		pop {r4}
 2763 14da EA46     		mov r10, sp
 2764 14dc 2546     		mov r5, r4
 2765 14de 2404     		lsls r4, r4, # 16
 2766 14e0 240C     		lsrs r4, r4, # 16
 2767 14e2 2D0C     		lsrs r5, r5, # 16
 2768 14e4 6043     		muls r0, r0, r4		@R
 2769 14e6 6143     		muls r1, r1, r4		@I
 2770 14e8 6A43     		muls r2, r2, r5		@R
 2771 14ea 6B43     		muls r3, r3, r5		@I
ARM GAS  1.s 			page 50


 2772 14ec 8011     		asrs r0, r0, # 6
 2773 14ee 8911     		asrs r1, r1, # 6
 2774 14f0 9211     		asrs r2, r2, # 6
 2775 14f2 9B11     		asrs r3, r3, # 6
 2776 14f4 8018     		adds r0, r0, r2	 @r
 2777 14f6 C918     		adds r1, r1, r3	 @i
 2778 14f8 3618     		adds r6, r6, r0
 2779 14fa 7F18     		adds r7, r7, r1
 2780              	
 2781 14fc DD46     		mov sp, r11
 2782 14fe 0FBC     		pop {r0-r3}
 2783 1500 EB46     		mov r11, sp
 2784 1502 D546     		mov sp, r10
 2785 1504 10BC     		pop {r4}
 2786 1506 EA46     		mov r10, sp
 2787 1508 2546     		mov r5, r4
 2788 150a 2404     		lsls r4, r4, # 16
 2789 150c 240C     		lsrs r4, r4, # 16
 2790 150e 2D0C     		lsrs r5, r5, # 16
 2791 1510 6043     		muls r0, r0, r4
 2792 1512 6143     		muls r1, r1, r4
 2793 1514 6A43     		muls r2, r2, r5
 2794 1516 6B43     		muls r3, r3, r5
 2795 1518 8011     		asrs r0, r0, # 6
 2796 151a 8911     		asrs r1, r1, # 6
 2797 151c 9211     		asrs r2, r2, # 6
 2798 151e 9B11     		asrs r3, r3, # 6
 2799 1520 8018     		adds r0, r0, r2         @r
 2800 1522 C918     		adds r1, r1, r3         @i
 2801 1524 3618     		adds r6, r6, r0
 2802 1526 7F18     		adds r7, r7, r1
 2803              	
 2804 1528 DD46     		mov sp, r11
 2805 152a 0FBC     		pop {r0-r3}
 2806 152c EB46     		mov r11, sp
 2807 152e D546     		mov sp, r10
 2808 1530 10BC     		pop {r4}
 2809 1532 EA46     		mov r10, sp
 2810 1534 2546     		mov r5, r4
 2811 1536 2404     		lsls r4, r4, # 16
 2812 1538 240C     		lsrs r4, r4, # 16
 2813 153a 2D0C     		lsrs r5, r5, # 16
 2814 153c 6043     		muls r0, r0, r4
 2815 153e 6143     		muls r1, r1, r4
 2816 1540 6A43     		muls r2, r2, r5
 2817 1542 6B43     		muls r3, r3, r5
 2818 1544 8011     		asrs r0, r0, # 6
 2819 1546 8911     		asrs r1, r1, # 6
 2820 1548 9211     		asrs r2, r2, # 6
 2821 154a 9B11     		asrs r3, r3, # 6
 2822 154c 8018     		adds r0, r0, r2  @r
 2823 154e C918     		adds r1, r1, r3  @i
 2824 1550 3618     		adds r6, r6, r0
 2825 1552 7F18     		adds r7, r7, r1
 2826              	
 2827 1554 DD46     		mov sp, r11
 2828 1556 0FBC     		pop {r0-r3}
ARM GAS  1.s 			page 51


 2829 1558 EB46     		mov r11, sp
 2830 155a D546     		mov sp, r10
 2831 155c 10BC     		pop {r4}
 2832 155e EA46     		mov r10, sp
 2833 1560 2546     		mov r5, r4
 2834 1562 2404     		lsls r4, r4, # 16
 2835 1564 240C     		lsrs r4, r4, # 16
 2836 1566 2D0C     		lsrs r5, r5, # 16
 2837 1568 6043     		muls r0, r0, r4
 2838 156a 6143     		muls r1, r1, r4
 2839 156c 6A43     		muls r2, r2, r5
 2840 156e 6B43     		muls r3, r3, r5
 2841 1570 8011     		asrs r0, r0, # 6
 2842 1572 8911     		asrs r1, r1, # 6
 2843 1574 9211     		asrs r2, r2, # 6
 2844 1576 9B11     		asrs r3, r3, # 6
 2845 1578 8018     		adds r0, r0, r2         @r
 2846 157a C918     		adds r1, r1, r3         @i
 2847 157c 3618     		adds r6, r6, r0
 2848 157e 7F18     		adds r7, r7, r1
 2849              	
 2850              		@5
 2851 1580 DD46     		mov sp, r11
 2852 1582 0FBC     		pop {r0-r3}
 2853 1584 EB46     		mov r11, sp
 2854 1586 D546     		mov sp, r10
 2855 1588 10BC     		pop {r4}
 2856 158a EA46     		mov r10, sp
 2857 158c 2546     		mov r5, r4
 2858 158e 2404     		lsls r4, r4, # 16
 2859 1590 240C     		lsrs r4, r4, # 16
 2860 1592 2D0C     		lsrs r5, r5, # 16
 2861 1594 6043     		muls r0, r0, r4		@R
 2862 1596 6143     		muls r1, r1, r4		@I
 2863 1598 6A43     		muls r2, r2, r5		@R
 2864 159a 6B43     		muls r3, r3, r5		@I
 2865 159c 8011     		asrs r0, r0, # 6
 2866 159e 8911     		asrs r1, r1, # 6
 2867 15a0 9211     		asrs r2, r2, # 6
 2868 15a2 9B11     		asrs r3, r3, # 6
 2869 15a4 8018     		adds r0, r0, r2	 @r
 2870 15a6 C918     		adds r1, r1, r3	 @i
 2871 15a8 3618     		adds r6, r6, r0
 2872 15aa 7F18     		adds r7, r7, r1
 2873              	
 2874 15ac DD46     		mov sp, r11
 2875 15ae 0FBC     		pop {r0-r3}
 2876 15b0 EB46     		mov r11, sp
 2877 15b2 D546     		mov sp, r10
 2878 15b4 10BC     		pop {r4}
 2879 15b6 EA46     		mov r10, sp
 2880 15b8 2546     		mov r5, r4
 2881 15ba 2404     		lsls r4, r4, # 16
 2882 15bc 240C     		lsrs r4, r4, # 16
 2883 15be 2D0C     		lsrs r5, r5, # 16
 2884 15c0 6043     		muls r0, r0, r4
 2885 15c2 6143     		muls r1, r1, r4
ARM GAS  1.s 			page 52


 2886 15c4 6A43     		muls r2, r2, r5
 2887 15c6 6B43     		muls r3, r3, r5
 2888 15c8 8011     		asrs r0, r0, # 6
 2889 15ca 8911     		asrs r1, r1, # 6
 2890 15cc 9211     		asrs r2, r2, # 6
 2891 15ce 9B11     		asrs r3, r3, # 6
 2892 15d0 8018     		adds r0, r0, r2         @r
 2893 15d2 C918     		adds r1, r1, r3         @i
 2894 15d4 3618     		adds r6, r6, r0
 2895 15d6 7F18     		adds r7, r7, r1
 2896              	
 2897 15d8 DD46     		mov sp, r11
 2898 15da 0FBC     		pop {r0-r3}
 2899 15dc EB46     		mov r11, sp
 2900 15de D546     		mov sp, r10
 2901 15e0 10BC     		pop {r4}
 2902 15e2 EA46     		mov r10, sp
 2903 15e4 2546     		mov r5, r4
 2904 15e6 2404     		lsls r4, r4, # 16
 2905 15e8 240C     		lsrs r4, r4, # 16
 2906 15ea 2D0C     		lsrs r5, r5, # 16
 2907 15ec 6043     		muls r0, r0, r4
 2908 15ee 6143     		muls r1, r1, r4
 2909 15f0 6A43     		muls r2, r2, r5
 2910 15f2 6B43     		muls r3, r3, r5
 2911 15f4 8011     		asrs r0, r0, # 6
 2912 15f6 8911     		asrs r1, r1, # 6
 2913 15f8 9211     		asrs r2, r2, # 6
 2914 15fa 9B11     		asrs r3, r3, # 6
 2915 15fc 8018     		adds r0, r0, r2  @r
 2916 15fe C918     		adds r1, r1, r3  @i
 2917 1600 3618     		adds r6, r6, r0
 2918 1602 7F18     		adds r7, r7, r1
 2919              	
 2920 1604 DD46     		mov sp, r11
 2921 1606 0FBC     		pop {r0-r3}
 2922 1608 EB46     		mov r11, sp
 2923 160a D546     		mov sp, r10
 2924 160c 10BC     		pop {r4}
 2925 160e EA46     		mov r10, sp
 2926 1610 2546     		mov r5, r4
 2927 1612 2404     		lsls r4, r4, # 16
 2928 1614 240C     		lsrs r4, r4, # 16
 2929 1616 2D0C     		lsrs r5, r5, # 16
 2930 1618 6043     		muls r0, r0, r4
 2931 161a 6143     		muls r1, r1, r4
 2932 161c 6A43     		muls r2, r2, r5
 2933 161e 6B43     		muls r3, r3, r5
 2934 1620 8011     		asrs r0, r0, # 6
 2935 1622 8911     		asrs r1, r1, # 6
 2936 1624 9211     		asrs r2, r2, # 6
 2937 1626 9B11     		asrs r3, r3, # 6
 2938 1628 8018     		adds r0, r0, r2         @r
 2939 162a C918     		adds r1, r1, r3         @i
 2940 162c 3618     		adds r6, r6, r0
 2941 162e 7F18     		adds r7, r7, r1
 2942              	
ARM GAS  1.s 			page 53


 2943              		@6
 2944 1630 DD46     		mov sp, r11
 2945 1632 0FBC     		pop {r0-r3}
 2946 1634 EB46     		mov r11, sp
 2947 1636 D546     		mov sp, r10
 2948 1638 10BC     		pop {r4}
 2949 163a EA46     		mov r10, sp
 2950 163c 2546     		mov r5, r4
 2951 163e 2404     		lsls r4, r4, # 16
 2952 1640 240C     		lsrs r4, r4, # 16
 2953 1642 2D0C     		lsrs r5, r5, # 16
 2954 1644 6043     		muls r0, r0, r4		@R
 2955 1646 6143     		muls r1, r1, r4		@I
 2956 1648 6A43     		muls r2, r2, r5		@R
 2957 164a 6B43     		muls r3, r3, r5		@I
 2958 164c 8011     		asrs r0, r0, # 6
 2959 164e 8911     		asrs r1, r1, # 6
 2960 1650 9211     		asrs r2, r2, # 6
 2961 1652 9B11     		asrs r3, r3, # 6
 2962 1654 8018     		adds r0, r0, r2	 @r
 2963 1656 C918     		adds r1, r1, r3	 @i
 2964 1658 3618     		adds r6, r6, r0
 2965 165a 7F18     		adds r7, r7, r1
 2966              	
 2967 165c DD46     		mov sp, r11
 2968 165e 0FBC     		pop {r0-r3}
 2969 1660 EB46     		mov r11, sp
 2970 1662 D546     		mov sp, r10
 2971 1664 10BC     		pop {r4}
 2972 1666 EA46     		mov r10, sp
 2973 1668 2546     		mov r5, r4
 2974 166a 2404     		lsls r4, r4, # 16
 2975 166c 240C     		lsrs r4, r4, # 16
 2976 166e 2D0C     		lsrs r5, r5, # 16
 2977 1670 6043     		muls r0, r0, r4
 2978 1672 6143     		muls r1, r1, r4
 2979 1674 6A43     		muls r2, r2, r5
 2980 1676 6B43     		muls r3, r3, r5
 2981 1678 8011     		asrs r0, r0, # 6
 2982 167a 8911     		asrs r1, r1, # 6
 2983 167c 9211     		asrs r2, r2, # 6
 2984 167e 9B11     		asrs r3, r3, # 6
 2985 1680 8018     		adds r0, r0, r2         @r
 2986 1682 C918     		adds r1, r1, r3         @i
 2987 1684 3618     		adds r6, r6, r0
 2988 1686 7F18     		adds r7, r7, r1
 2989              	
 2990 1688 DD46     		mov sp, r11
 2991 168a 0FBC     		pop {r0-r3}
 2992 168c EB46     		mov r11, sp
 2993 168e D546     		mov sp, r10
 2994 1690 10BC     		pop {r4}
 2995 1692 EA46     		mov r10, sp
 2996 1694 2546     		mov r5, r4
 2997 1696 2404     		lsls r4, r4, # 16
 2998 1698 240C     		lsrs r4, r4, # 16
 2999 169a 2D0C     		lsrs r5, r5, # 16
ARM GAS  1.s 			page 54


 3000 169c 6043     		muls r0, r0, r4
 3001 169e 6143     		muls r1, r1, r4
 3002 16a0 6A43     		muls r2, r2, r5
 3003 16a2 6B43     		muls r3, r3, r5
 3004 16a4 8011     		asrs r0, r0, # 6
 3005 16a6 8911     		asrs r1, r1, # 6
 3006 16a8 9211     		asrs r2, r2, # 6
 3007 16aa 9B11     		asrs r3, r3, # 6
 3008 16ac 8018     		adds r0, r0, r2  @r
 3009 16ae C918     		adds r1, r1, r3  @i
 3010 16b0 3618     		adds r6, r6, r0
 3011 16b2 7F18     		adds r7, r7, r1
 3012              	
 3013 16b4 DD46     		mov sp, r11
 3014 16b6 0FBC     		pop {r0-r3}
 3015 16b8 EB46     		mov r11, sp
 3016 16ba D546     		mov sp, r10
 3017 16bc 10BC     		pop {r4}
 3018 16be EA46     		mov r10, sp
 3019 16c0 2546     		mov r5, r4
 3020 16c2 2404     		lsls r4, r4, # 16
 3021 16c4 240C     		lsrs r4, r4, # 16
 3022 16c6 2D0C     		lsrs r5, r5, # 16
 3023 16c8 6043     		muls r0, r0, r4
 3024 16ca 6143     		muls r1, r1, r4
 3025 16cc 6A43     		muls r2, r2, r5
 3026 16ce 6B43     		muls r3, r3, r5
 3027 16d0 8011     		asrs r0, r0, # 6
 3028 16d2 8911     		asrs r1, r1, # 6
 3029 16d4 9211     		asrs r2, r2, # 6
 3030 16d6 9B11     		asrs r3, r3, # 6
 3031 16d8 8018     		adds r0, r0, r2         @r
 3032 16da C918     		adds r1, r1, r3         @i
 3033 16dc 3618     		adds r6, r6, r0
 3034 16de 7F18     		adds r7, r7, r1
 3035              	
 3036              		@7
 3037 16e0 DD46     		mov sp, r11
 3038 16e2 0FBC     		pop {r0-r3}
 3039 16e4 EB46     		mov r11, sp
 3040 16e6 D546     		mov sp, r10
 3041 16e8 10BC     		pop {r4}
 3042 16ea EA46     		mov r10, sp
 3043 16ec 2546     		mov r5, r4
 3044 16ee 2404     		lsls r4, r4, # 16
 3045 16f0 240C     		lsrs r4, r4, # 16
 3046 16f2 2D0C     		lsrs r5, r5, # 16
 3047 16f4 6043     		muls r0, r0, r4		@R
 3048 16f6 6143     		muls r1, r1, r4		@I
 3049 16f8 6A43     		muls r2, r2, r5		@R
 3050 16fa 6B43     		muls r3, r3, r5		@I
 3051 16fc 8011     		asrs r0, r0, # 6
 3052 16fe 8911     		asrs r1, r1, # 6
 3053 1700 9211     		asrs r2, r2, # 6
 3054 1702 9B11     		asrs r3, r3, # 6
 3055 1704 8018     		adds r0, r0, r2	 @r
 3056 1706 C918     		adds r1, r1, r3	 @i
ARM GAS  1.s 			page 55


 3057 1708 3618     		adds r6, r6, r0
 3058 170a 7F18     		adds r7, r7, r1
 3059              	
 3060 170c DD46     		mov sp, r11
 3061 170e 0FBC     		pop {r0-r3}
 3062 1710 EB46     		mov r11, sp
 3063 1712 D546     		mov sp, r10
 3064 1714 10BC     		pop {r4}
 3065 1716 EA46     		mov r10, sp
 3066 1718 2546     		mov r5, r4
 3067 171a 2404     		lsls r4, r4, # 16
 3068 171c 240C     		lsrs r4, r4, # 16
 3069 171e 2D0C     		lsrs r5, r5, # 16
 3070 1720 6043     		muls r0, r0, r4
 3071 1722 6143     		muls r1, r1, r4
 3072 1724 6A43     		muls r2, r2, r5
 3073 1726 6B43     		muls r3, r3, r5
 3074 1728 8011     		asrs r0, r0, # 6
 3075 172a 8911     		asrs r1, r1, # 6
 3076 172c 9211     		asrs r2, r2, # 6
 3077 172e 9B11     		asrs r3, r3, # 6
 3078 1730 8018     		adds r0, r0, r2         @r
 3079 1732 C918     		adds r1, r1, r3         @i
 3080 1734 3618     		adds r6, r6, r0
 3081 1736 7F18     		adds r7, r7, r1
 3082              	
 3083 1738 DD46     		mov sp, r11
 3084 173a 0FBC     		pop {r0-r3}
 3085 173c EB46     		mov r11, sp
 3086 173e D546     		mov sp, r10
 3087 1740 10BC     		pop {r4}
 3088 1742 EA46     		mov r10, sp
 3089 1744 2546     		mov r5, r4
 3090 1746 2404     		lsls r4, r4, # 16
 3091 1748 240C     		lsrs r4, r4, # 16
 3092 174a 2D0C     		lsrs r5, r5, # 16
 3093 174c 6043     		muls r0, r0, r4
 3094 174e 6143     		muls r1, r1, r4
 3095 1750 6A43     		muls r2, r2, r5
 3096 1752 6B43     		muls r3, r3, r5
 3097 1754 8011     		asrs r0, r0, # 6
 3098 1756 8911     		asrs r1, r1, # 6
 3099 1758 9211     		asrs r2, r2, # 6
 3100 175a 9B11     		asrs r3, r3, # 6
 3101 175c 8018     		adds r0, r0, r2  @r
 3102 175e C918     		adds r1, r1, r3  @i
 3103 1760 3618     		adds r6, r6, r0
 3104 1762 7F18     		adds r7, r7, r1
 3105              	
 3106 1764 DD46     		mov sp, r11
 3107 1766 0FBC     		pop {r0-r3}
 3108 1768 EB46     		mov r11, sp
 3109 176a D546     		mov sp, r10
 3110 176c 10BC     		pop {r4}
 3111 176e EA46     		mov r10, sp
 3112 1770 2546     		mov r5, r4
 3113 1772 2404     		lsls r4, r4, # 16
ARM GAS  1.s 			page 56


 3114 1774 240C     		lsrs r4, r4, # 16
 3115 1776 2D0C     		lsrs r5, r5, # 16
 3116 1778 6043     		muls r0, r0, r4
 3117 177a 6143     		muls r1, r1, r4
 3118 177c 6A43     		muls r2, r2, r5
 3119 177e 6B43     		muls r3, r3, r5
 3120 1780 8011     		asrs r0, r0, # 6
 3121 1782 8911     		asrs r1, r1, # 6
 3122 1784 9211     		asrs r2, r2, # 6
 3123 1786 9B11     		asrs r3, r3, # 6
 3124 1788 8018     		adds r0, r0, r2         @r
 3125 178a C918     		adds r1, r1, r3         @i
 3126 178c 3618     		adds r6, r6, r0
 3127 178e 7F18     		adds r7, r7, r1
 3128              	
 3129              		@8
 3130 1790 DD46     		mov sp, r11
 3131 1792 0FBC     		pop {r0-r3}
 3132 1794 EB46     		mov r11, sp
 3133 1796 D546     		mov sp, r10
 3134 1798 10BC     		pop {r4}
 3135 179a EA46     		mov r10, sp
 3136 179c 2546     		mov r5, r4
 3137 179e 2404     		lsls r4, r4, # 16
 3138 17a0 240C     		lsrs r4, r4, # 16
 3139 17a2 2D0C     		lsrs r5, r5, # 16
 3140 17a4 6043     		muls r0, r0, r4		@R
 3141 17a6 6143     		muls r1, r1, r4		@I
 3142 17a8 6A43     		muls r2, r2, r5		@R
 3143 17aa 6B43     		muls r3, r3, r5		@I
 3144 17ac 8011     		asrs r0, r0, # 6
 3145 17ae 8911     		asrs r1, r1, # 6
 3146 17b0 9211     		asrs r2, r2, # 6
 3147 17b2 9B11     		asrs r3, r3, # 6
 3148 17b4 8018     		adds r0, r0, r2	 @r
 3149 17b6 C918     		adds r1, r1, r3	 @i
 3150 17b8 3618     		adds r6, r6, r0
 3151 17ba 7F18     		adds r7, r7, r1
 3152              	
 3153 17bc DD46     		mov sp, r11
 3154 17be 0FBC     		pop {r0-r3}
 3155 17c0 EB46     		mov r11, sp
 3156 17c2 D546     		mov sp, r10
 3157 17c4 10BC     		pop {r4}
 3158 17c6 EA46     		mov r10, sp
 3159 17c8 2546     		mov r5, r4
 3160 17ca 2404     		lsls r4, r4, # 16
 3161 17cc 240C     		lsrs r4, r4, # 16
 3162 17ce 2D0C     		lsrs r5, r5, # 16
 3163 17d0 6043     		muls r0, r0, r4
 3164 17d2 6143     		muls r1, r1, r4
 3165 17d4 6A43     		muls r2, r2, r5
 3166 17d6 6B43     		muls r3, r3, r5
 3167 17d8 8011     		asrs r0, r0, # 6
 3168 17da 8911     		asrs r1, r1, # 6
 3169 17dc 9211     		asrs r2, r2, # 6
 3170 17de 9B11     		asrs r3, r3, # 6
ARM GAS  1.s 			page 57


 3171 17e0 8018     		adds r0, r0, r2         @r
 3172 17e2 C918     		adds r1, r1, r3         @i
 3173 17e4 3618     		adds r6, r6, r0
 3174 17e6 7F18     		adds r7, r7, r1
 3175              	
 3176 17e8 DD46     		mov sp, r11
 3177 17ea 0FBC     		pop {r0-r3}
 3178 17ec EB46     		mov r11, sp
 3179 17ee D546     		mov sp, r10
 3180 17f0 10BC     		pop {r4}
 3181 17f2 EA46     		mov r10, sp
 3182 17f4 2546     		mov r5, r4
 3183 17f6 2404     		lsls r4, r4, # 16
 3184 17f8 240C     		lsrs r4, r4, # 16
 3185 17fa 2D0C     		lsrs r5, r5, # 16
 3186 17fc 6043     		muls r0, r0, r4
 3187 17fe 6143     		muls r1, r1, r4
 3188 1800 6A43     		muls r2, r2, r5
 3189 1802 6B43     		muls r3, r3, r5
 3190 1804 8011     		asrs r0, r0, # 6
 3191 1806 8911     		asrs r1, r1, # 6
 3192 1808 9211     		asrs r2, r2, # 6
 3193 180a 9B11     		asrs r3, r3, # 6
 3194 180c 8018     		adds r0, r0, r2  @r
 3195 180e C918     		adds r1, r1, r3  @i
 3196 1810 3618     		adds r6, r6, r0
 3197 1812 7F18     		adds r7, r7, r1
 3198              	
 3199 1814 DD46     		mov sp, r11
 3200 1816 0FBC     		pop {r0-r3}
 3201 1818 EB46     		mov r11, sp
 3202 181a D546     		mov sp, r10
 3203 181c 10BC     		pop {r4}
 3204 181e EA46     		mov r10, sp
 3205 1820 2546     		mov r5, r4
 3206 1822 2404     		lsls r4, r4, # 16
 3207 1824 240C     		lsrs r4, r4, # 16
 3208 1826 2D0C     		lsrs r5, r5, # 16
 3209 1828 6043     		muls r0, r0, r4
 3210 182a 6143     		muls r1, r1, r4
 3211 182c 6A43     		muls r2, r2, r5
 3212 182e 6B43     		muls r3, r3, r5
 3213 1830 8011     		asrs r0, r0, # 6
 3214 1832 8911     		asrs r1, r1, # 6
 3215 1834 9211     		asrs r2, r2, # 6
 3216 1836 9B11     		asrs r3, r3, # 6
 3217 1838 8018     		adds r0, r0, r2         @r
 3218 183a C918     		adds r1, r1, r3         @i
 3219 183c 3618     		adds r6, r6, r0
 3220 183e 7F18     		adds r7, r7, r1
 3221              	
 3222              		@9
 3223 1840 DD46     		mov sp, r11
 3224 1842 0FBC     		pop {r0-r3}
 3225 1844 EB46     		mov r11, sp
 3226 1846 D546     		mov sp, r10
 3227 1848 10BC     		pop {r4}
ARM GAS  1.s 			page 58


 3228 184a EA46     		mov r10, sp
 3229 184c 2546     		mov r5, r4
 3230 184e 2404     		lsls r4, r4, # 16
 3231 1850 240C     		lsrs r4, r4, # 16
 3232 1852 2D0C     		lsrs r5, r5, # 16
 3233 1854 6043     		muls r0, r0, r4		@R
 3234 1856 6143     		muls r1, r1, r4		@I
 3235 1858 6A43     		muls r2, r2, r5		@R
 3236 185a 6B43     		muls r3, r3, r5		@I
 3237 185c 8011     		asrs r0, r0, # 6
 3238 185e 8911     		asrs r1, r1, # 6
 3239 1860 9211     		asrs r2, r2, # 6
 3240 1862 9B11     		asrs r3, r3, # 6
 3241 1864 8018     		adds r0, r0, r2	 @r
 3242 1866 C918     		adds r1, r1, r3	 @i
 3243 1868 3618     		adds r6, r6, r0
 3244 186a 7F18     		adds r7, r7, r1
 3245              	
 3246 186c DD46     		mov sp, r11
 3247 186e 0FBC     		pop {r0-r3}
 3248 1870 EB46     		mov r11, sp
 3249 1872 D546     		mov sp, r10
 3250 1874 10BC     		pop {r4}
 3251 1876 EA46     		mov r10, sp
 3252 1878 2546     		mov r5, r4
 3253 187a 2404     		lsls r4, r4, # 16
 3254 187c 240C     		lsrs r4, r4, # 16
 3255 187e 2D0C     		lsrs r5, r5, # 16
 3256 1880 6043     		muls r0, r0, r4
 3257 1882 6143     		muls r1, r1, r4
 3258 1884 6A43     		muls r2, r2, r5
 3259 1886 6B43     		muls r3, r3, r5
 3260 1888 8011     		asrs r0, r0, # 6
 3261 188a 8911     		asrs r1, r1, # 6
 3262 188c 9211     		asrs r2, r2, # 6
 3263 188e 9B11     		asrs r3, r3, # 6
 3264 1890 8018     		adds r0, r0, r2         @r
 3265 1892 C918     		adds r1, r1, r3         @i
 3266 1894 3618     		adds r6, r6, r0
 3267 1896 7F18     		adds r7, r7, r1
 3268              	
 3269 1898 DD46     		mov sp, r11
 3270 189a 0FBC     		pop {r0-r3}
 3271 189c EB46     		mov r11, sp
 3272 189e D546     		mov sp, r10
 3273 18a0 10BC     		pop {r4}
 3274 18a2 EA46     		mov r10, sp
 3275 18a4 2546     		mov r5, r4
 3276 18a6 2404     		lsls r4, r4, # 16
 3277 18a8 240C     		lsrs r4, r4, # 16
 3278 18aa 2D0C     		lsrs r5, r5, # 16
 3279 18ac 6043     		muls r0, r0, r4
 3280 18ae 6143     		muls r1, r1, r4
 3281 18b0 6A43     		muls r2, r2, r5
 3282 18b2 6B43     		muls r3, r3, r5
 3283 18b4 8011     		asrs r0, r0, # 6
 3284 18b6 8911     		asrs r1, r1, # 6
ARM GAS  1.s 			page 59


 3285 18b8 9211     		asrs r2, r2, # 6
 3286 18ba 9B11     		asrs r3, r3, # 6
 3287 18bc 8018     		adds r0, r0, r2  @r
 3288 18be C918     		adds r1, r1, r3  @i
 3289 18c0 3618     		adds r6, r6, r0
 3290 18c2 7F18     		adds r7, r7, r1
 3291              	
 3292 18c4 DD46     		mov sp, r11
 3293 18c6 0FBC     		pop {r0-r3}
 3294 18c8 EB46     		mov r11, sp
 3295 18ca D546     		mov sp, r10
 3296 18cc 10BC     		pop {r4}
 3297 18ce EA46     		mov r10, sp
 3298 18d0 2546     		mov r5, r4
 3299 18d2 2404     		lsls r4, r4, # 16
 3300 18d4 240C     		lsrs r4, r4, # 16
 3301 18d6 2D0C     		lsrs r5, r5, # 16
 3302 18d8 6043     		muls r0, r0, r4
 3303 18da 6143     		muls r1, r1, r4
 3304 18dc 6A43     		muls r2, r2, r5
 3305 18de 6B43     		muls r3, r3, r5
 3306 18e0 8011     		asrs r0, r0, # 6
 3307 18e2 8911     		asrs r1, r1, # 6
 3308 18e4 9211     		asrs r2, r2, # 6
 3309 18e6 9B11     		asrs r3, r3, # 6
 3310 18e8 8018     		adds r0, r0, r2         @r
 3311 18ea C918     		adds r1, r1, r3         @i
 3312 18ec 3618     		adds r6, r6, r0
 3313 18ee 7F18     		adds r7, r7, r1
 3314              	
 3315              		@yjm2
 3316              		@0
 3317 18f0 DD46     		mov sp, r11
 3318 18f2 0FBC     		pop {r0-r3}
 3319 18f4 EB46     		mov r11, sp
 3320 18f6 D546     		mov sp, r10
 3321 18f8 10BC     		pop {r4}
 3322 18fa EA46     		mov r10, sp
 3323 18fc 2546     		mov r5, r4
 3324 18fe 2404     		lsls r4, r4, # 16
 3325 1900 240C     		lsrs r4, r4, # 16
 3326 1902 2D0C     		lsrs r5, r5, # 16
 3327 1904 6043     		muls r0, r0, r4		@R
 3328 1906 6143     		muls r1, r1, r4		@I
 3329 1908 6A43     		muls r2, r2, r5		@R
 3330 190a 6B43     		muls r3, r3, r5		@I
 3331 190c 8011     		asrs r0, r0, # 6
 3332 190e 8911     		asrs r1, r1, # 6
 3333 1910 9211     		asrs r2, r2, # 6
 3334 1912 9B11     		asrs r3, r3, # 6
 3335 1914 8018     		adds r0, r0, r2	 @r
 3336 1916 C918     		adds r1, r1, r3	 @i
 3337 1918 3618     		adds r6, r6, r0
 3338 191a 7F18     		adds r7, r7, r1
 3339              	
 3340 191c DD46     		mov sp, r11
 3341 191e 0FBC     		pop {r0-r3}
ARM GAS  1.s 			page 60


 3342 1920 EB46     		mov r11, sp
 3343 1922 D546     		mov sp, r10
 3344 1924 10BC     		pop {r4}
 3345 1926 EA46     		mov r10, sp
 3346 1928 2546     		mov r5, r4
 3347 192a 2404     		lsls r4, r4, # 16
 3348 192c 240C     		lsrs r4, r4, # 16
 3349 192e 2D0C     		lsrs r5, r5, # 16
 3350 1930 6043     		muls r0, r0, r4
 3351 1932 6143     		muls r1, r1, r4
 3352 1934 6A43     		muls r2, r2, r5
 3353 1936 6B43     		muls r3, r3, r5
 3354 1938 8011     		asrs r0, r0, # 6
 3355 193a 8911     		asrs r1, r1, # 6
 3356 193c 9211     		asrs r2, r2, # 6
 3357 193e 9B11     		asrs r3, r3, # 6
 3358 1940 8018     		adds r0, r0, r2         @r
 3359 1942 C918     		adds r1, r1, r3         @i
 3360 1944 3618     		adds r6, r6, r0
 3361 1946 7F18     		adds r7, r7, r1
 3362              	
 3363 1948 DD46     		mov sp, r11
 3364 194a 0FBC     		pop {r0-r3}
 3365 194c EB46     		mov r11, sp
 3366 194e D546     		mov sp, r10
 3367 1950 10BC     		pop {r4}
 3368 1952 EA46     		mov r10, sp
 3369 1954 2546     		mov r5, r4
 3370 1956 2404     		lsls r4, r4, # 16
 3371 1958 240C     		lsrs r4, r4, # 16
 3372 195a 2D0C     		lsrs r5, r5, # 16
 3373 195c 6043     		muls r0, r0, r4
 3374 195e 6143     		muls r1, r1, r4
 3375 1960 6A43     		muls r2, r2, r5
 3376 1962 6B43     		muls r3, r3, r5
 3377 1964 8011     		asrs r0, r0, # 6
 3378 1966 8911     		asrs r1, r1, # 6
 3379 1968 9211     		asrs r2, r2, # 6
 3380 196a 9B11     		asrs r3, r3, # 6
 3381 196c 8018     		adds r0, r0, r2  @r
 3382 196e C918     		adds r1, r1, r3  @i
 3383 1970 3618     		adds r6, r6, r0
 3384 1972 7F18     		adds r7, r7, r1
 3385              	
 3386 1974 DD46     		mov sp, r11
 3387 1976 0FBC     		pop {r0-r3}
 3388 1978 EB46     		mov r11, sp
 3389 197a D546     		mov sp, r10
 3390 197c 10BC     		pop {r4}
 3391 197e EA46     		mov r10, sp
 3392 1980 2546     		mov r5, r4
 3393 1982 2404     		lsls r4, r4, # 16
 3394 1984 240C     		lsrs r4, r4, # 16
 3395 1986 2D0C     		lsrs r5, r5, # 16
 3396 1988 6043     		muls r0, r0, r4
 3397 198a 6143     		muls r1, r1, r4
 3398 198c 6A43     		muls r2, r2, r5
ARM GAS  1.s 			page 61


 3399 198e 6B43     		muls r3, r3, r5
 3400 1990 8011     		asrs r0, r0, # 6
 3401 1992 8911     		asrs r1, r1, # 6
 3402 1994 9211     		asrs r2, r2, # 6
 3403 1996 9B11     		asrs r3, r3, # 6
 3404 1998 8018     		adds r0, r0, r2         @r
 3405 199a C918     		adds r1, r1, r3         @i
 3406 199c 3618     		adds r6, r6, r0
 3407 199e 7F18     		adds r7, r7, r1
 3408              	
 3409              		@1
 3410 19a0 DD46     		mov sp, r11
 3411 19a2 0FBC     		pop {r0-r3}
 3412 19a4 EB46     		mov r11, sp
 3413 19a6 D546     		mov sp, r10
 3414 19a8 10BC     		pop {r4}
 3415 19aa EA46     		mov r10, sp
 3416 19ac 2546     		mov r5, r4
 3417 19ae 2404     		lsls r4, r4, # 16
 3418 19b0 240C     		lsrs r4, r4, # 16
 3419 19b2 2D0C     		lsrs r5, r5, # 16
 3420 19b4 6043     		muls r0, r0, r4		@R
 3421 19b6 6143     		muls r1, r1, r4		@I
 3422 19b8 6A43     		muls r2, r2, r5		@R
 3423 19ba 6B43     		muls r3, r3, r5		@I
 3424 19bc 8011     		asrs r0, r0, # 6
 3425 19be 8911     		asrs r1, r1, # 6
 3426 19c0 9211     		asrs r2, r2, # 6
 3427 19c2 9B11     		asrs r3, r3, # 6
 3428 19c4 8018     		adds r0, r0, r2	 @r
 3429 19c6 C918     		adds r1, r1, r3	 @i
 3430 19c8 3618     		adds r6, r6, r0
 3431 19ca 7F18     		adds r7, r7, r1
 3432              	
 3433 19cc DD46     		mov sp, r11
 3434 19ce 0FBC     		pop {r0-r3}
 3435 19d0 EB46     		mov r11, sp
 3436 19d2 D546     		mov sp, r10
 3437 19d4 10BC     		pop {r4}
 3438 19d6 EA46     		mov r10, sp
 3439 19d8 2546     		mov r5, r4
 3440 19da 2404     		lsls r4, r4, # 16
 3441 19dc 240C     		lsrs r4, r4, # 16
 3442 19de 2D0C     		lsrs r5, r5, # 16
 3443 19e0 6043     		muls r0, r0, r4
 3444 19e2 6143     		muls r1, r1, r4
 3445 19e4 6A43     		muls r2, r2, r5
 3446 19e6 6B43     		muls r3, r3, r5
 3447 19e8 8011     		asrs r0, r0, # 6
 3448 19ea 8911     		asrs r1, r1, # 6
 3449 19ec 9211     		asrs r2, r2, # 6
 3450 19ee 9B11     		asrs r3, r3, # 6
 3451 19f0 8018     		adds r0, r0, r2         @r
 3452 19f2 C918     		adds r1, r1, r3         @i
 3453 19f4 3618     		adds r6, r6, r0
 3454 19f6 7F18     		adds r7, r7, r1
 3455              	
ARM GAS  1.s 			page 62


 3456 19f8 DD46     		mov sp, r11
 3457 19fa 0FBC     		pop {r0-r3}
 3458 19fc EB46     		mov r11, sp
 3459 19fe D546     		mov sp, r10
 3460 1a00 10BC     		pop {r4}
 3461 1a02 EA46     		mov r10, sp
 3462 1a04 2546     		mov r5, r4
 3463 1a06 2404     		lsls r4, r4, # 16
 3464 1a08 240C     		lsrs r4, r4, # 16
 3465 1a0a 2D0C     		lsrs r5, r5, # 16
 3466 1a0c 6043     		muls r0, r0, r4
 3467 1a0e 6143     		muls r1, r1, r4
 3468 1a10 6A43     		muls r2, r2, r5
 3469 1a12 6B43     		muls r3, r3, r5
 3470 1a14 8011     		asrs r0, r0, # 6
 3471 1a16 8911     		asrs r1, r1, # 6
 3472 1a18 9211     		asrs r2, r2, # 6
 3473 1a1a 9B11     		asrs r3, r3, # 6
 3474 1a1c 8018     		adds r0, r0, r2  @r
 3475 1a1e C918     		adds r1, r1, r3  @i
 3476 1a20 3618     		adds r6, r6, r0
 3477 1a22 7F18     		adds r7, r7, r1
 3478              	
 3479 1a24 DD46     		mov sp, r11
 3480 1a26 0FBC     		pop {r0-r3}
 3481 1a28 EB46     		mov r11, sp
 3482 1a2a D546     		mov sp, r10
 3483 1a2c 10BC     		pop {r4}
 3484 1a2e EA46     		mov r10, sp
 3485 1a30 2546     		mov r5, r4
 3486 1a32 2404     		lsls r4, r4, # 16
 3487 1a34 240C     		lsrs r4, r4, # 16
 3488 1a36 2D0C     		lsrs r5, r5, # 16
 3489 1a38 6043     		muls r0, r0, r4
 3490 1a3a 6143     		muls r1, r1, r4
 3491 1a3c 6A43     		muls r2, r2, r5
 3492 1a3e 6B43     		muls r3, r3, r5
 3493 1a40 8011     		asrs r0, r0, # 6
 3494 1a42 8911     		asrs r1, r1, # 6
 3495 1a44 9211     		asrs r2, r2, # 6
 3496 1a46 9B11     		asrs r3, r3, # 6
 3497 1a48 8018     		adds r0, r0, r2         @r
 3498 1a4a C918     		adds r1, r1, r3         @i
 3499 1a4c 3618     		adds r6, r6, r0
 3500 1a4e 7F18     		adds r7, r7, r1
 3501              	
 3502              		@2
 3503 1a50 DD46     		mov sp, r11
 3504 1a52 0FBC     		pop {r0-r3}
 3505 1a54 EB46     		mov r11, sp
 3506 1a56 D546     		mov sp, r10
 3507 1a58 10BC     		pop {r4}
 3508 1a5a EA46     		mov r10, sp
 3509 1a5c 2546     		mov r5, r4
 3510 1a5e 2404     		lsls r4, r4, # 16
 3511 1a60 240C     		lsrs r4, r4, # 16
 3512 1a62 2D0C     		lsrs r5, r5, # 16
ARM GAS  1.s 			page 63


 3513 1a64 6043     		muls r0, r0, r4		@R
 3514 1a66 6143     		muls r1, r1, r4		@I
 3515 1a68 6A43     		muls r2, r2, r5		@R
 3516 1a6a 6B43     		muls r3, r3, r5		@I
 3517 1a6c 8011     		asrs r0, r0, # 6
 3518 1a6e 8911     		asrs r1, r1, # 6
 3519 1a70 9211     		asrs r2, r2, # 6
 3520 1a72 9B11     		asrs r3, r3, # 6
 3521 1a74 8018     		adds r0, r0, r2	 @r
 3522 1a76 C918     		adds r1, r1, r3	 @i
 3523 1a78 3618     		adds r6, r6, r0
 3524 1a7a 7F18     		adds r7, r7, r1
 3525              	
 3526 1a7c DD46     		mov sp, r11
 3527 1a7e 0FBC     		pop {r0-r3}
 3528 1a80 EB46     		mov r11, sp
 3529 1a82 D546     		mov sp, r10
 3530 1a84 10BC     		pop {r4}
 3531 1a86 EA46     		mov r10, sp
 3532 1a88 2546     		mov r5, r4
 3533 1a8a 2404     		lsls r4, r4, # 16
 3534 1a8c 240C     		lsrs r4, r4, # 16
 3535 1a8e 2D0C     		lsrs r5, r5, # 16
 3536 1a90 6043     		muls r0, r0, r4
 3537 1a92 6143     		muls r1, r1, r4
 3538 1a94 6A43     		muls r2, r2, r5
 3539 1a96 6B43     		muls r3, r3, r5
 3540 1a98 8011     		asrs r0, r0, # 6
 3541 1a9a 8911     		asrs r1, r1, # 6
 3542 1a9c 9211     		asrs r2, r2, # 6
 3543 1a9e 9B11     		asrs r3, r3, # 6
 3544 1aa0 8018     		adds r0, r0, r2         @r
 3545 1aa2 C918     		adds r1, r1, r3         @i
 3546 1aa4 3618     		adds r6, r6, r0
 3547 1aa6 7F18     		adds r7, r7, r1
 3548              	
 3549 1aa8 DD46     		mov sp, r11
 3550 1aaa 0FBC     		pop {r0-r3}
 3551 1aac EB46     		mov r11, sp
 3552 1aae D546     		mov sp, r10
 3553 1ab0 10BC     		pop {r4}
 3554 1ab2 EA46     		mov r10, sp
 3555 1ab4 2546     		mov r5, r4
 3556 1ab6 2404     		lsls r4, r4, # 16
 3557 1ab8 240C     		lsrs r4, r4, # 16
 3558 1aba 2D0C     		lsrs r5, r5, # 16
 3559 1abc 6043     		muls r0, r0, r4
 3560 1abe 6143     		muls r1, r1, r4
 3561 1ac0 6A43     		muls r2, r2, r5
 3562 1ac2 6B43     		muls r3, r3, r5
 3563 1ac4 8011     		asrs r0, r0, # 6
 3564 1ac6 8911     		asrs r1, r1, # 6
 3565 1ac8 9211     		asrs r2, r2, # 6
 3566 1aca 9B11     		asrs r3, r3, # 6
 3567 1acc 8018     		adds r0, r0, r2  @r
 3568 1ace C918     		adds r1, r1, r3  @i
 3569 1ad0 3618     		adds r6, r6, r0
ARM GAS  1.s 			page 64


 3570 1ad2 7F18     		adds r7, r7, r1
 3571              	
 3572 1ad4 DD46     		mov sp, r11
 3573 1ad6 0FBC     		pop {r0-r3}
 3574 1ad8 EB46     		mov r11, sp
 3575 1ada D546     		mov sp, r10
 3576 1adc 10BC     		pop {r4}
 3577 1ade EA46     		mov r10, sp
 3578 1ae0 2546     		mov r5, r4
 3579 1ae2 2404     		lsls r4, r4, # 16
 3580 1ae4 240C     		lsrs r4, r4, # 16
 3581 1ae6 2D0C     		lsrs r5, r5, # 16
 3582 1ae8 6043     		muls r0, r0, r4
 3583 1aea 6143     		muls r1, r1, r4
 3584 1aec 6A43     		muls r2, r2, r5
 3585 1aee 6B43     		muls r3, r3, r5
 3586 1af0 8011     		asrs r0, r0, # 6
 3587 1af2 8911     		asrs r1, r1, # 6
 3588 1af4 9211     		asrs r2, r2, # 6
 3589 1af6 9B11     		asrs r3, r3, # 6
 3590 1af8 8018     		adds r0, r0, r2         @r
 3591 1afa C918     		adds r1, r1, r3         @i
 3592 1afc 3618     		adds r6, r6, r0
 3593 1afe 7F18     		adds r7, r7, r1
 3594              	
 3595              		@3
 3596 1b00 DD46     		mov sp, r11
 3597 1b02 0FBC     		pop {r0-r3}
 3598 1b04 EB46     		mov r11, sp
 3599 1b06 D546     		mov sp, r10
 3600 1b08 10BC     		pop {r4}
 3601 1b0a EA46     		mov r10, sp
 3602 1b0c 2546     		mov r5, r4
 3603 1b0e 2404     		lsls r4, r4, # 16
 3604 1b10 240C     		lsrs r4, r4, # 16
 3605 1b12 2D0C     		lsrs r5, r5, # 16
 3606 1b14 6043     		muls r0, r0, r4		@R
 3607 1b16 6143     		muls r1, r1, r4		@I
 3608 1b18 6A43     		muls r2, r2, r5		@R
 3609 1b1a 6B43     		muls r3, r3, r5		@I
 3610 1b1c 8011     		asrs r0, r0, # 6
 3611 1b1e 8911     		asrs r1, r1, # 6
 3612 1b20 9211     		asrs r2, r2, # 6
 3613 1b22 9B11     		asrs r3, r3, # 6
 3614 1b24 8018     		adds r0, r0, r2	 @r
 3615 1b26 C918     		adds r1, r1, r3	 @i
 3616 1b28 3618     		adds r6, r6, r0
 3617 1b2a 7F18     		adds r7, r7, r1
 3618              	
 3619 1b2c DD46     		mov sp, r11
 3620 1b2e 0FBC     		pop {r0-r3}
 3621 1b30 EB46     		mov r11, sp
 3622 1b32 D546     		mov sp, r10
 3623 1b34 10BC     		pop {r4}
 3624 1b36 EA46     		mov r10, sp
 3625 1b38 2546     		mov r5, r4
 3626 1b3a 2404     		lsls r4, r4, # 16
ARM GAS  1.s 			page 65


 3627 1b3c 240C     		lsrs r4, r4, # 16
 3628 1b3e 2D0C     		lsrs r5, r5, # 16
 3629 1b40 6043     		muls r0, r0, r4
 3630 1b42 6143     		muls r1, r1, r4
 3631 1b44 6A43     		muls r2, r2, r5
 3632 1b46 6B43     		muls r3, r3, r5
 3633 1b48 8011     		asrs r0, r0, # 6
 3634 1b4a 8911     		asrs r1, r1, # 6
 3635 1b4c 9211     		asrs r2, r2, # 6
 3636 1b4e 9B11     		asrs r3, r3, # 6
 3637 1b50 8018     		adds r0, r0, r2         @r
 3638 1b52 C918     		adds r1, r1, r3         @i
 3639 1b54 3618     		adds r6, r6, r0
 3640 1b56 7F18     		adds r7, r7, r1
 3641              	
 3642 1b58 DD46     		mov sp, r11
 3643 1b5a 0FBC     		pop {r0-r3}
 3644 1b5c EB46     		mov r11, sp
 3645 1b5e D546     		mov sp, r10
 3646 1b60 10BC     		pop {r4}
 3647 1b62 EA46     		mov r10, sp
 3648 1b64 2546     		mov r5, r4
 3649 1b66 2404     		lsls r4, r4, # 16
 3650 1b68 240C     		lsrs r4, r4, # 16
 3651 1b6a 2D0C     		lsrs r5, r5, # 16
 3652 1b6c 6043     		muls r0, r0, r4
 3653 1b6e 6143     		muls r1, r1, r4
 3654 1b70 6A43     		muls r2, r2, r5
 3655 1b72 6B43     		muls r3, r3, r5
 3656 1b74 8011     		asrs r0, r0, # 6
 3657 1b76 8911     		asrs r1, r1, # 6
 3658 1b78 9211     		asrs r2, r2, # 6
 3659 1b7a 9B11     		asrs r3, r3, # 6
 3660 1b7c 8018     		adds r0, r0, r2  @r
 3661 1b7e C918     		adds r1, r1, r3  @i
 3662 1b80 3618     		adds r6, r6, r0
 3663 1b82 7F18     		adds r7, r7, r1
 3664              	
 3665 1b84 DD46     		mov sp, r11
 3666 1b86 0FBC     		pop {r0-r3}
 3667 1b88 EB46     		mov r11, sp
 3668 1b8a D546     		mov sp, r10
 3669 1b8c 10BC     		pop {r4}
 3670 1b8e EA46     		mov r10, sp
 3671 1b90 2546     		mov r5, r4
 3672 1b92 2404     		lsls r4, r4, # 16
 3673 1b94 240C     		lsrs r4, r4, # 16
 3674 1b96 2D0C     		lsrs r5, r5, # 16
 3675 1b98 6043     		muls r0, r0, r4
 3676 1b9a 6143     		muls r1, r1, r4
 3677 1b9c 6A43     		muls r2, r2, r5
 3678 1b9e 6B43     		muls r3, r3, r5
 3679 1ba0 8011     		asrs r0, r0, # 6
 3680 1ba2 8911     		asrs r1, r1, # 6
 3681 1ba4 9211     		asrs r2, r2, # 6
 3682 1ba6 9B11     		asrs r3, r3, # 6
 3683 1ba8 8018     		adds r0, r0, r2         @r
ARM GAS  1.s 			page 66


 3684 1baa C918     		adds r1, r1, r3         @i
 3685 1bac 3618     		adds r6, r6, r0
 3686 1bae 7F18     		adds r7, r7, r1
 3687              	
 3688              		@4
 3689 1bb0 DD46     		mov sp, r11
 3690 1bb2 0FBC     		pop {r0-r3}
 3691 1bb4 EB46     		mov r11, sp
 3692 1bb6 D546     		mov sp, r10
 3693 1bb8 10BC     		pop {r4}
 3694 1bba EA46     		mov r10, sp
 3695 1bbc 2546     		mov r5, r4
 3696 1bbe 2404     		lsls r4, r4, # 16
 3697 1bc0 240C     		lsrs r4, r4, # 16
 3698 1bc2 2D0C     		lsrs r5, r5, # 16
 3699 1bc4 6043     		muls r0, r0, r4		@R
 3700 1bc6 6143     		muls r1, r1, r4		@I
 3701 1bc8 6A43     		muls r2, r2, r5		@R
 3702 1bca 6B43     		muls r3, r3, r5		@I
 3703 1bcc 8011     		asrs r0, r0, # 6
 3704 1bce 8911     		asrs r1, r1, # 6
 3705 1bd0 9211     		asrs r2, r2, # 6
 3706 1bd2 9B11     		asrs r3, r3, # 6
 3707 1bd4 8018     		adds r0, r0, r2	 @r
 3708 1bd6 C918     		adds r1, r1, r3	 @i
 3709 1bd8 3618     		adds r6, r6, r0
 3710 1bda 7F18     		adds r7, r7, r1
 3711              	
 3712 1bdc DD46     		mov sp, r11
 3713 1bde 0FBC     		pop {r0-r3}
 3714 1be0 EB46     		mov r11, sp
 3715 1be2 D546     		mov sp, r10
 3716 1be4 10BC     		pop {r4}
 3717 1be6 EA46     		mov r10, sp
 3718 1be8 2546     		mov r5, r4
 3719 1bea 2404     		lsls r4, r4, # 16
 3720 1bec 240C     		lsrs r4, r4, # 16
 3721 1bee 2D0C     		lsrs r5, r5, # 16
 3722 1bf0 6043     		muls r0, r0, r4
 3723 1bf2 6143     		muls r1, r1, r4
 3724 1bf4 6A43     		muls r2, r2, r5
 3725 1bf6 6B43     		muls r3, r3, r5
 3726 1bf8 8011     		asrs r0, r0, # 6
 3727 1bfa 8911     		asrs r1, r1, # 6
 3728 1bfc 9211     		asrs r2, r2, # 6
 3729 1bfe 9B11     		asrs r3, r3, # 6
 3730 1c00 8018     		adds r0, r0, r2         @r
 3731 1c02 C918     		adds r1, r1, r3         @i
 3732 1c04 3618     		adds r6, r6, r0
 3733 1c06 7F18     		adds r7, r7, r1
 3734              	
 3735 1c08 DD46     		mov sp, r11
 3736 1c0a 0FBC     		pop {r0-r3}
 3737 1c0c EB46     		mov r11, sp
 3738 1c0e D546     		mov sp, r10
 3739 1c10 10BC     		pop {r4}
 3740 1c12 EA46     		mov r10, sp
ARM GAS  1.s 			page 67


 3741 1c14 2546     		mov r5, r4
 3742 1c16 2404     		lsls r4, r4, # 16
 3743 1c18 240C     		lsrs r4, r4, # 16
 3744 1c1a 2D0C     		lsrs r5, r5, # 16
 3745 1c1c 6043     		muls r0, r0, r4
 3746 1c1e 6143     		muls r1, r1, r4
 3747 1c20 6A43     		muls r2, r2, r5
 3748 1c22 6B43     		muls r3, r3, r5
 3749 1c24 8011     		asrs r0, r0, # 6
 3750 1c26 8911     		asrs r1, r1, # 6
 3751 1c28 9211     		asrs r2, r2, # 6
 3752 1c2a 9B11     		asrs r3, r3, # 6
 3753 1c2c 8018     		adds r0, r0, r2  @r
 3754 1c2e C918     		adds r1, r1, r3  @i
 3755 1c30 3618     		adds r6, r6, r0
 3756 1c32 7F18     		adds r7, r7, r1
 3757              	
 3758 1c34 DD46     		mov sp, r11
 3759 1c36 0FBC     		pop {r0-r3}
 3760 1c38 EB46     		mov r11, sp
 3761 1c3a D546     		mov sp, r10
 3762 1c3c 10BC     		pop {r4}
 3763 1c3e EA46     		mov r10, sp
 3764 1c40 2546     		mov r5, r4
 3765 1c42 2404     		lsls r4, r4, # 16
 3766 1c44 240C     		lsrs r4, r4, # 16
 3767 1c46 2D0C     		lsrs r5, r5, # 16
 3768 1c48 6043     		muls r0, r0, r4
 3769 1c4a 6143     		muls r1, r1, r4
 3770 1c4c 6A43     		muls r2, r2, r5
 3771 1c4e 6B43     		muls r3, r3, r5
 3772 1c50 8011     		asrs r0, r0, # 6
 3773 1c52 8911     		asrs r1, r1, # 6
 3774 1c54 9211     		asrs r2, r2, # 6
 3775 1c56 9B11     		asrs r3, r3, # 6
 3776 1c58 8018     		adds r0, r0, r2         @r
 3777 1c5a C918     		adds r1, r1, r3         @i
 3778 1c5c 3618     		adds r6, r6, r0
 3779 1c5e 7F18     		adds r7, r7, r1
 3780              	
 3781              		@5
 3782 1c60 DD46     		mov sp, r11
 3783 1c62 0FBC     		pop {r0-r3}
 3784 1c64 EB46     		mov r11, sp
 3785 1c66 D546     		mov sp, r10
 3786 1c68 10BC     		pop {r4}
 3787 1c6a EA46     		mov r10, sp
 3788 1c6c 2546     		mov r5, r4
 3789 1c6e 2404     		lsls r4, r4, # 16
 3790 1c70 240C     		lsrs r4, r4, # 16
 3791 1c72 2D0C     		lsrs r5, r5, # 16
 3792 1c74 6043     		muls r0, r0, r4		@R
 3793 1c76 6143     		muls r1, r1, r4		@I
 3794 1c78 6A43     		muls r2, r2, r5		@R
 3795 1c7a 6B43     		muls r3, r3, r5		@I
 3796 1c7c 8011     		asrs r0, r0, # 6
 3797 1c7e 8911     		asrs r1, r1, # 6
ARM GAS  1.s 			page 68


 3798 1c80 9211     		asrs r2, r2, # 6
 3799 1c82 9B11     		asrs r3, r3, # 6
 3800 1c84 8018     		adds r0, r0, r2	 @r
 3801 1c86 C918     		adds r1, r1, r3	 @i
 3802 1c88 3618     		adds r6, r6, r0
 3803 1c8a 7F18     		adds r7, r7, r1
 3804              	
 3805 1c8c DD46     		mov sp, r11
 3806 1c8e 0FBC     		pop {r0-r3}
 3807 1c90 EB46     		mov r11, sp
 3808 1c92 D546     		mov sp, r10
 3809 1c94 10BC     		pop {r4}
 3810 1c96 EA46     		mov r10, sp
 3811 1c98 2546     		mov r5, r4
 3812 1c9a 2404     		lsls r4, r4, # 16
 3813 1c9c 240C     		lsrs r4, r4, # 16
 3814 1c9e 2D0C     		lsrs r5, r5, # 16
 3815 1ca0 6043     		muls r0, r0, r4
 3816 1ca2 6143     		muls r1, r1, r4
 3817 1ca4 6A43     		muls r2, r2, r5
 3818 1ca6 6B43     		muls r3, r3, r5
 3819 1ca8 8011     		asrs r0, r0, # 6
 3820 1caa 8911     		asrs r1, r1, # 6
 3821 1cac 9211     		asrs r2, r2, # 6
 3822 1cae 9B11     		asrs r3, r3, # 6
 3823 1cb0 8018     		adds r0, r0, r2         @r
 3824 1cb2 C918     		adds r1, r1, r3         @i
 3825 1cb4 3618     		adds r6, r6, r0
 3826 1cb6 7F18     		adds r7, r7, r1
 3827              	
 3828 1cb8 DD46     		mov sp, r11
 3829 1cba 0FBC     		pop {r0-r3}
 3830 1cbc EB46     		mov r11, sp
 3831 1cbe D546     		mov sp, r10
 3832 1cc0 10BC     		pop {r4}
 3833 1cc2 EA46     		mov r10, sp
 3834 1cc4 2546     		mov r5, r4
 3835 1cc6 2404     		lsls r4, r4, # 16
 3836 1cc8 240C     		lsrs r4, r4, # 16
 3837 1cca 2D0C     		lsrs r5, r5, # 16
 3838 1ccc 6043     		muls r0, r0, r4
 3839 1cce 6143     		muls r1, r1, r4
 3840 1cd0 6A43     		muls r2, r2, r5
 3841 1cd2 6B43     		muls r3, r3, r5
 3842 1cd4 8011     		asrs r0, r0, # 6
 3843 1cd6 8911     		asrs r1, r1, # 6
 3844 1cd8 9211     		asrs r2, r2, # 6
 3845 1cda 9B11     		asrs r3, r3, # 6
 3846 1cdc 8018     		adds r0, r0, r2  @r
 3847 1cde C918     		adds r1, r1, r3  @i
 3848 1ce0 3618     		adds r6, r6, r0
 3849 1ce2 7F18     		adds r7, r7, r1
 3850              	
 3851 1ce4 DD46     		mov sp, r11
 3852 1ce6 0FBC     		pop {r0-r3}
 3853 1ce8 EB46     		mov r11, sp
 3854 1cea D546     		mov sp, r10
ARM GAS  1.s 			page 69


 3855 1cec 10BC     		pop {r4}
 3856 1cee EA46     		mov r10, sp
 3857 1cf0 2546     		mov r5, r4
 3858 1cf2 2404     		lsls r4, r4, # 16
 3859 1cf4 240C     		lsrs r4, r4, # 16
 3860 1cf6 2D0C     		lsrs r5, r5, # 16
 3861 1cf8 6043     		muls r0, r0, r4
 3862 1cfa 6143     		muls r1, r1, r4
 3863 1cfc 6A43     		muls r2, r2, r5
 3864 1cfe 6B43     		muls r3, r3, r5
 3865 1d00 8011     		asrs r0, r0, # 6
 3866 1d02 8911     		asrs r1, r1, # 6
 3867 1d04 9211     		asrs r2, r2, # 6
 3868 1d06 9B11     		asrs r3, r3, # 6
 3869 1d08 8018     		adds r0, r0, r2         @r
 3870 1d0a C918     		adds r1, r1, r3         @i
 3871 1d0c 3618     		adds r6, r6, r0
 3872 1d0e 7F18     		adds r7, r7, r1
 3873              	
 3874              		@6
 3875 1d10 DD46     		mov sp, r11
 3876 1d12 0FBC     		pop {r0-r3}
 3877 1d14 EB46     		mov r11, sp
 3878 1d16 D546     		mov sp, r10
 3879 1d18 10BC     		pop {r4}
 3880 1d1a EA46     		mov r10, sp
 3881 1d1c 2546     		mov r5, r4
 3882 1d1e 2404     		lsls r4, r4, # 16
 3883 1d20 240C     		lsrs r4, r4, # 16
 3884 1d22 2D0C     		lsrs r5, r5, # 16
 3885 1d24 6043     		muls r0, r0, r4		@R
 3886 1d26 6143     		muls r1, r1, r4		@I
 3887 1d28 6A43     		muls r2, r2, r5		@R
 3888 1d2a 6B43     		muls r3, r3, r5		@I
 3889 1d2c 8011     		asrs r0, r0, # 6
 3890 1d2e 8911     		asrs r1, r1, # 6
 3891 1d30 9211     		asrs r2, r2, # 6
 3892 1d32 9B11     		asrs r3, r3, # 6
 3893 1d34 8018     		adds r0, r0, r2	 @r
 3894 1d36 C918     		adds r1, r1, r3	 @i
 3895 1d38 3618     		adds r6, r6, r0
 3896 1d3a 7F18     		adds r7, r7, r1
 3897              	
 3898 1d3c DD46     		mov sp, r11
 3899 1d3e 0FBC     		pop {r0-r3}
 3900 1d40 EB46     		mov r11, sp
 3901 1d42 D546     		mov sp, r10
 3902 1d44 10BC     		pop {r4}
 3903 1d46 EA46     		mov r10, sp
 3904 1d48 2546     		mov r5, r4
 3905 1d4a 2404     		lsls r4, r4, # 16
 3906 1d4c 240C     		lsrs r4, r4, # 16
 3907 1d4e 2D0C     		lsrs r5, r5, # 16
 3908 1d50 6043     		muls r0, r0, r4
 3909 1d52 6143     		muls r1, r1, r4
 3910 1d54 6A43     		muls r2, r2, r5
 3911 1d56 6B43     		muls r3, r3, r5
ARM GAS  1.s 			page 70


 3912 1d58 8011     		asrs r0, r0, # 6
 3913 1d5a 8911     		asrs r1, r1, # 6
 3914 1d5c 9211     		asrs r2, r2, # 6
 3915 1d5e 9B11     		asrs r3, r3, # 6
 3916 1d60 8018     		adds r0, r0, r2         @r
 3917 1d62 C918     		adds r1, r1, r3         @i
 3918 1d64 3618     		adds r6, r6, r0
 3919 1d66 7F18     		adds r7, r7, r1
 3920              	
 3921 1d68 DD46     		mov sp, r11
 3922 1d6a 0FBC     		pop {r0-r3}
 3923 1d6c EB46     		mov r11, sp
 3924 1d6e D546     		mov sp, r10
 3925 1d70 10BC     		pop {r4}
 3926 1d72 EA46     		mov r10, sp
 3927 1d74 2546     		mov r5, r4
 3928 1d76 2404     		lsls r4, r4, # 16
 3929 1d78 240C     		lsrs r4, r4, # 16
 3930 1d7a 2D0C     		lsrs r5, r5, # 16
 3931 1d7c 6043     		muls r0, r0, r4
 3932 1d7e 6143     		muls r1, r1, r4
 3933 1d80 6A43     		muls r2, r2, r5
 3934 1d82 6B43     		muls r3, r3, r5
 3935 1d84 8011     		asrs r0, r0, # 6
 3936 1d86 8911     		asrs r1, r1, # 6
 3937 1d88 9211     		asrs r2, r2, # 6
 3938 1d8a 9B11     		asrs r3, r3, # 6
 3939 1d8c 8018     		adds r0, r0, r2  @r
 3940 1d8e C918     		adds r1, r1, r3  @i
 3941 1d90 3618     		adds r6, r6, r0
 3942 1d92 7F18     		adds r7, r7, r1
 3943              	
 3944 1d94 DD46     		mov sp, r11
 3945 1d96 0FBC     		pop {r0-r3}
 3946 1d98 EB46     		mov r11, sp
 3947 1d9a D546     		mov sp, r10
 3948 1d9c 10BC     		pop {r4}
 3949 1d9e EA46     		mov r10, sp
 3950 1da0 2546     		mov r5, r4
 3951 1da2 2404     		lsls r4, r4, # 16
 3952 1da4 240C     		lsrs r4, r4, # 16
 3953 1da6 2D0C     		lsrs r5, r5, # 16
 3954 1da8 6043     		muls r0, r0, r4
 3955 1daa 6143     		muls r1, r1, r4
 3956 1dac 6A43     		muls r2, r2, r5
 3957 1dae 6B43     		muls r3, r3, r5
 3958 1db0 8011     		asrs r0, r0, # 6
 3959 1db2 8911     		asrs r1, r1, # 6
 3960 1db4 9211     		asrs r2, r2, # 6
 3961 1db6 9B11     		asrs r3, r3, # 6
 3962 1db8 8018     		adds r0, r0, r2         @r
 3963 1dba C918     		adds r1, r1, r3         @i
 3964 1dbc 3618     		adds r6, r6, r0
 3965 1dbe 7F18     		adds r7, r7, r1
 3966              	
 3967              		@7
 3968 1dc0 DD46     		mov sp, r11
ARM GAS  1.s 			page 71


 3969 1dc2 0FBC     		pop {r0-r3}
 3970 1dc4 EB46     		mov r11, sp
 3971 1dc6 D546     		mov sp, r10
 3972 1dc8 10BC     		pop {r4}
 3973 1dca EA46     		mov r10, sp
 3974 1dcc 2546     		mov r5, r4
 3975 1dce 2404     		lsls r4, r4, # 16
 3976 1dd0 240C     		lsrs r4, r4, # 16
 3977 1dd2 2D0C     		lsrs r5, r5, # 16
 3978 1dd4 6043     		muls r0, r0, r4		@R
 3979 1dd6 6143     		muls r1, r1, r4		@I
 3980 1dd8 6A43     		muls r2, r2, r5		@R
 3981 1dda 6B43     		muls r3, r3, r5		@I
 3982 1ddc 8011     		asrs r0, r0, # 6
 3983 1dde 8911     		asrs r1, r1, # 6
 3984 1de0 9211     		asrs r2, r2, # 6
 3985 1de2 9B11     		asrs r3, r3, # 6
 3986 1de4 8018     		adds r0, r0, r2	 @r
 3987 1de6 C918     		adds r1, r1, r3	 @i
 3988 1de8 3618     		adds r6, r6, r0
 3989 1dea 7F18     		adds r7, r7, r1
 3990              	
 3991 1dec DD46     		mov sp, r11
 3992 1dee 0FBC     		pop {r0-r3}
 3993 1df0 EB46     		mov r11, sp
 3994 1df2 D546     		mov sp, r10
 3995 1df4 10BC     		pop {r4}
 3996 1df6 EA46     		mov r10, sp
 3997 1df8 2546     		mov r5, r4
 3998 1dfa 2404     		lsls r4, r4, # 16
 3999 1dfc 240C     		lsrs r4, r4, # 16
 4000 1dfe 2D0C     		lsrs r5, r5, # 16
 4001 1e00 6043     		muls r0, r0, r4
 4002 1e02 6143     		muls r1, r1, r4
 4003 1e04 6A43     		muls r2, r2, r5
 4004 1e06 6B43     		muls r3, r3, r5
 4005 1e08 8011     		asrs r0, r0, # 6
 4006 1e0a 8911     		asrs r1, r1, # 6
 4007 1e0c 9211     		asrs r2, r2, # 6
 4008 1e0e 9B11     		asrs r3, r3, # 6
 4009 1e10 8018     		adds r0, r0, r2         @r
 4010 1e12 C918     		adds r1, r1, r3         @i
 4011 1e14 3618     		adds r6, r6, r0
 4012 1e16 7F18     		adds r7, r7, r1
 4013              	
 4014 1e18 DD46     		mov sp, r11
 4015 1e1a 0FBC     		pop {r0-r3}
 4016 1e1c EB46     		mov r11, sp
 4017 1e1e D546     		mov sp, r10
 4018 1e20 10BC     		pop {r4}
 4019 1e22 EA46     		mov r10, sp
 4020 1e24 2546     		mov r5, r4
 4021 1e26 2404     		lsls r4, r4, # 16
 4022 1e28 240C     		lsrs r4, r4, # 16
 4023 1e2a 2D0C     		lsrs r5, r5, # 16
 4024 1e2c 6043     		muls r0, r0, r4
 4025 1e2e 6143     		muls r1, r1, r4
ARM GAS  1.s 			page 72


 4026 1e30 6A43     		muls r2, r2, r5
 4027 1e32 6B43     		muls r3, r3, r5
 4028 1e34 8011     		asrs r0, r0, # 6
 4029 1e36 8911     		asrs r1, r1, # 6
 4030 1e38 9211     		asrs r2, r2, # 6
 4031 1e3a 9B11     		asrs r3, r3, # 6
 4032 1e3c 8018     		adds r0, r0, r2  @r
 4033 1e3e C918     		adds r1, r1, r3  @i
 4034 1e40 3618     		adds r6, r6, r0
 4035 1e42 7F18     		adds r7, r7, r1
 4036              	
 4037 1e44 DD46     		mov sp, r11
 4038 1e46 0FBC     		pop {r0-r3}
 4039 1e48 EB46     		mov r11, sp
 4040 1e4a D546     		mov sp, r10
 4041 1e4c 10BC     		pop {r4}
 4042 1e4e EA46     		mov r10, sp
 4043 1e50 2546     		mov r5, r4
 4044 1e52 2404     		lsls r4, r4, # 16
 4045 1e54 240C     		lsrs r4, r4, # 16
 4046 1e56 2D0C     		lsrs r5, r5, # 16
 4047 1e58 6043     		muls r0, r0, r4
 4048 1e5a 6143     		muls r1, r1, r4
 4049 1e5c 6A43     		muls r2, r2, r5
 4050 1e5e 6B43     		muls r3, r3, r5
 4051 1e60 8011     		asrs r0, r0, # 6
 4052 1e62 8911     		asrs r1, r1, # 6
 4053 1e64 9211     		asrs r2, r2, # 6
 4054 1e66 9B11     		asrs r3, r3, # 6
 4055 1e68 8018     		adds r0, r0, r2         @r
 4056 1e6a C918     		adds r1, r1, r3         @i
 4057 1e6c 3618     		adds r6, r6, r0
 4058 1e6e 7F18     		adds r7, r7, r1
 4059              	
 4060              		@8
 4061 1e70 DD46     		mov sp, r11
 4062 1e72 0FBC     		pop {r0-r3}
 4063 1e74 EB46     		mov r11, sp
 4064 1e76 D546     		mov sp, r10
 4065 1e78 10BC     		pop {r4}
 4066 1e7a EA46     		mov r10, sp
 4067 1e7c 2546     		mov r5, r4
 4068 1e7e 2404     		lsls r4, r4, # 16
 4069 1e80 240C     		lsrs r4, r4, # 16
 4070 1e82 2D0C     		lsrs r5, r5, # 16
 4071 1e84 6043     		muls r0, r0, r4		@R
 4072 1e86 6143     		muls r1, r1, r4		@I
 4073 1e88 6A43     		muls r2, r2, r5		@R
 4074 1e8a 6B43     		muls r3, r3, r5		@I
 4075 1e8c 8011     		asrs r0, r0, # 6
 4076 1e8e 8911     		asrs r1, r1, # 6
 4077 1e90 9211     		asrs r2, r2, # 6
 4078 1e92 9B11     		asrs r3, r3, # 6
 4079 1e94 8018     		adds r0, r0, r2	 @r
 4080 1e96 C918     		adds r1, r1, r3	 @i
 4081 1e98 3618     		adds r6, r6, r0
 4082 1e9a 7F18     		adds r7, r7, r1
ARM GAS  1.s 			page 73


 4083              	
 4084 1e9c DD46     		mov sp, r11
 4085 1e9e 0FBC     		pop {r0-r3}
 4086 1ea0 EB46     		mov r11, sp
 4087 1ea2 D546     		mov sp, r10
 4088 1ea4 10BC     		pop {r4}
 4089 1ea6 EA46     		mov r10, sp
 4090 1ea8 2546     		mov r5, r4
 4091 1eaa 2404     		lsls r4, r4, # 16
 4092 1eac 240C     		lsrs r4, r4, # 16
 4093 1eae 2D0C     		lsrs r5, r5, # 16
 4094 1eb0 6043     		muls r0, r0, r4
 4095 1eb2 6143     		muls r1, r1, r4
 4096 1eb4 6A43     		muls r2, r2, r5
 4097 1eb6 6B43     		muls r3, r3, r5
 4098 1eb8 8011     		asrs r0, r0, # 6
 4099 1eba 8911     		asrs r1, r1, # 6
 4100 1ebc 9211     		asrs r2, r2, # 6
 4101 1ebe 9B11     		asrs r3, r3, # 6
 4102 1ec0 8018     		adds r0, r0, r2         @r
 4103 1ec2 C918     		adds r1, r1, r3         @i
 4104 1ec4 3618     		adds r6, r6, r0
 4105 1ec6 7F18     		adds r7, r7, r1
 4106              	
 4107 1ec8 DD46     		mov sp, r11
 4108 1eca 0FBC     		pop {r0-r3}
 4109 1ecc EB46     		mov r11, sp
 4110 1ece D546     		mov sp, r10
 4111 1ed0 10BC     		pop {r4}
 4112 1ed2 EA46     		mov r10, sp
 4113 1ed4 2546     		mov r5, r4
 4114 1ed6 2404     		lsls r4, r4, # 16
 4115 1ed8 240C     		lsrs r4, r4, # 16
 4116 1eda 2D0C     		lsrs r5, r5, # 16
 4117 1edc 6043     		muls r0, r0, r4
 4118 1ede 6143     		muls r1, r1, r4
 4119 1ee0 6A43     		muls r2, r2, r5
 4120 1ee2 6B43     		muls r3, r3, r5
 4121 1ee4 8011     		asrs r0, r0, # 6
 4122 1ee6 8911     		asrs r1, r1, # 6
 4123 1ee8 9211     		asrs r2, r2, # 6
 4124 1eea 9B11     		asrs r3, r3, # 6
 4125 1eec 8018     		adds r0, r0, r2  @r
 4126 1eee C918     		adds r1, r1, r3  @i
 4127 1ef0 3618     		adds r6, r6, r0
 4128 1ef2 7F18     		adds r7, r7, r1
 4129              	
 4130 1ef4 DD46     		mov sp, r11
 4131 1ef6 0FBC     		pop {r0-r3}
 4132 1ef8 EB46     		mov r11, sp
 4133 1efa D546     		mov sp, r10
 4134 1efc 10BC     		pop {r4}
 4135 1efe EA46     		mov r10, sp
 4136 1f00 2546     		mov r5, r4
 4137 1f02 2404     		lsls r4, r4, # 16
 4138 1f04 240C     		lsrs r4, r4, # 16
 4139 1f06 2D0C     		lsrs r5, r5, # 16
ARM GAS  1.s 			page 74


 4140 1f08 6043     		muls r0, r0, r4
 4141 1f0a 6143     		muls r1, r1, r4
 4142 1f0c 6A43     		muls r2, r2, r5
 4143 1f0e 6B43     		muls r3, r3, r5
 4144 1f10 8011     		asrs r0, r0, # 6
 4145 1f12 8911     		asrs r1, r1, # 6
 4146 1f14 9211     		asrs r2, r2, # 6
 4147 1f16 9B11     		asrs r3, r3, # 6
 4148 1f18 8018     		adds r0, r0, r2         @r
 4149 1f1a C918     		adds r1, r1, r3         @i
 4150 1f1c 3618     		adds r6, r6, r0
 4151 1f1e 7F18     		adds r7, r7, r1
 4152              	
 4153              		@9
 4154 1f20 DD46     		mov sp, r11
 4155 1f22 0FBC     		pop {r0-r3}
 4156 1f24 EB46     		mov r11, sp
 4157 1f26 D546     		mov sp, r10
 4158 1f28 10BC     		pop {r4}
 4159 1f2a EA46     		mov r10, sp
 4160 1f2c 2546     		mov r5, r4
 4161 1f2e 2404     		lsls r4, r4, # 16
 4162 1f30 240C     		lsrs r4, r4, # 16
 4163 1f32 2D0C     		lsrs r5, r5, # 16
 4164 1f34 6043     		muls r0, r0, r4		@R
 4165 1f36 6143     		muls r1, r1, r4		@I
 4166 1f38 6A43     		muls r2, r2, r5		@R
 4167 1f3a 6B43     		muls r3, r3, r5		@I
 4168 1f3c 8011     		asrs r0, r0, # 6
 4169 1f3e 8911     		asrs r1, r1, # 6
 4170 1f40 9211     		asrs r2, r2, # 6
 4171 1f42 9B11     		asrs r3, r3, # 6
 4172 1f44 8018     		adds r0, r0, r2	 @r
 4173 1f46 C918     		adds r1, r1, r3	 @i
 4174 1f48 3618     		adds r6, r6, r0
 4175 1f4a 7F18     		adds r7, r7, r1
 4176              	
 4177 1f4c DD46     		mov sp, r11
 4178 1f4e 0FBC     		pop {r0-r3}
 4179 1f50 EB46     		mov r11, sp
 4180 1f52 D546     		mov sp, r10
 4181 1f54 10BC     		pop {r4}
 4182 1f56 EA46     		mov r10, sp
 4183 1f58 2546     		mov r5, r4
 4184 1f5a 2404     		lsls r4, r4, # 16
 4185 1f5c 240C     		lsrs r4, r4, # 16
 4186 1f5e 2D0C     		lsrs r5, r5, # 16
 4187 1f60 6043     		muls r0, r0, r4
 4188 1f62 6143     		muls r1, r1, r4
 4189 1f64 6A43     		muls r2, r2, r5
 4190 1f66 6B43     		muls r3, r3, r5
 4191 1f68 8011     		asrs r0, r0, # 6
 4192 1f6a 8911     		asrs r1, r1, # 6
 4193 1f6c 9211     		asrs r2, r2, # 6
 4194 1f6e 9B11     		asrs r3, r3, # 6
 4195 1f70 8018     		adds r0, r0, r2         @r
 4196 1f72 C918     		adds r1, r1, r3         @i
ARM GAS  1.s 			page 75


 4197 1f74 3618     		adds r6, r6, r0
 4198 1f76 7F18     		adds r7, r7, r1
 4199              	
 4200 1f78 DD46     		mov sp, r11
 4201 1f7a 0FBC     		pop {r0-r3}
 4202 1f7c EB46     		mov r11, sp
 4203 1f7e D546     		mov sp, r10
 4204 1f80 10BC     		pop {r4}
 4205 1f82 EA46     		mov r10, sp
 4206 1f84 2546     		mov r5, r4
 4207 1f86 2404     		lsls r4, r4, # 16
 4208 1f88 240C     		lsrs r4, r4, # 16
 4209 1f8a 2D0C     		lsrs r5, r5, # 16
 4210 1f8c 6043     		muls r0, r0, r4
 4211 1f8e 6143     		muls r1, r1, r4
 4212 1f90 6A43     		muls r2, r2, r5
 4213 1f92 6B43     		muls r3, r3, r5
 4214 1f94 8011     		asrs r0, r0, # 6
 4215 1f96 8911     		asrs r1, r1, # 6
 4216 1f98 9211     		asrs r2, r2, # 6
 4217 1f9a 9B11     		asrs r3, r3, # 6
 4218 1f9c 8018     		adds r0, r0, r2  @r
 4219 1f9e C918     		adds r1, r1, r3  @i
 4220 1fa0 3618     		adds r6, r6, r0
 4221 1fa2 7F18     		adds r7, r7, r1
 4222              	
 4223 1fa4 DD46     		mov sp, r11
 4224 1fa6 0FBC     		pop {r0-r3}
 4225 1fa8 EB46     		mov r11, sp
 4226 1faa D546     		mov sp, r10
 4227 1fac 10BC     		pop {r4}
 4228 1fae EA46     		mov r10, sp
 4229 1fb0 2546     		mov r5, r4
 4230 1fb2 2404     		lsls r4, r4, # 16
 4231 1fb4 240C     		lsrs r4, r4, # 16
 4232 1fb6 2D0C     		lsrs r5, r5, # 16
 4233 1fb8 6043     		muls r0, r0, r4
 4234 1fba 6143     		muls r1, r1, r4
 4235 1fbc 6A43     		muls r2, r2, r5
 4236 1fbe 6B43     		muls r3, r3, r5
 4237 1fc0 8011     		asrs r0, r0, # 6
 4238 1fc2 8911     		asrs r1, r1, # 6
 4239 1fc4 9211     		asrs r2, r2, # 6
 4240 1fc6 9B11     		asrs r3, r3, # 6
 4241 1fc8 8018     		adds r0, r0, r2         @r
 4242 1fca C918     		adds r1, r1, r3         @i
 4243 1fcc 3618     		adds r6, r6, r0
 4244 1fce 7F18     		adds r7, r7, r1
 4245              	
 4246              		@yjm3
 4247              	
 4248              		@0
 4249 1fd0 DD46     		mov sp, r11
 4250 1fd2 0FBC     		pop {r0-r3}
 4251 1fd4 EB46     		mov r11, sp
 4252 1fd6 D546     		mov sp, r10
 4253 1fd8 10BC     		pop {r4}
ARM GAS  1.s 			page 76


 4254 1fda EA46     		mov r10, sp
 4255 1fdc 2546     		mov r5, r4
 4256 1fde 2404     		lsls r4, r4, # 16
 4257 1fe0 240C     		lsrs r4, r4, # 16
 4258 1fe2 2D0C     		lsrs r5, r5, # 16
 4259 1fe4 6043     		muls r0, r0, r4		@R
 4260 1fe6 6143     		muls r1, r1, r4		@I
 4261 1fe8 6A43     		muls r2, r2, r5		@R
 4262 1fea 6B43     		muls r3, r3, r5		@I
 4263 1fec 8011     		asrs r0, r0, # 6
 4264 1fee 8911     		asrs r1, r1, # 6
 4265 1ff0 9211     		asrs r2, r2, # 6
 4266 1ff2 9B11     		asrs r3, r3, # 6
 4267 1ff4 8018     		adds r0, r0, r2	 @r
 4268 1ff6 C918     		adds r1, r1, r3	 @i
 4269 1ff8 3618     		adds r6, r6, r0
 4270 1ffa 7F18     		adds r7, r7, r1
 4271              	
 4272 1ffc DD46     		mov sp, r11
 4273 1ffe 0FBC     		pop {r0-r3}
 4274 2000 EB46     		mov r11, sp
 4275 2002 D546     		mov sp, r10
 4276 2004 10BC     		pop {r4}
 4277 2006 EA46     		mov r10, sp
 4278 2008 2546     		mov r5, r4
 4279 200a 2404     		lsls r4, r4, # 16
 4280 200c 240C     		lsrs r4, r4, # 16
 4281 200e 2D0C     		lsrs r5, r5, # 16
 4282 2010 6043     		muls r0, r0, r4
 4283 2012 6143     		muls r1, r1, r4
 4284 2014 6A43     		muls r2, r2, r5
 4285 2016 6B43     		muls r3, r3, r5
 4286 2018 8011     		asrs r0, r0, # 6
 4287 201a 8911     		asrs r1, r1, # 6
 4288 201c 9211     		asrs r2, r2, # 6
 4289 201e 9B11     		asrs r3, r3, # 6
 4290 2020 8018     		adds r0, r0, r2         @r
 4291 2022 C918     		adds r1, r1, r3         @i
 4292 2024 3618     		adds r6, r6, r0
 4293 2026 7F18     		adds r7, r7, r1
 4294              	
 4295 2028 DD46     		mov sp, r11
 4296 202a 0FBC     		pop {r0-r3}
 4297 202c EB46     		mov r11, sp
 4298 202e D546     		mov sp, r10
 4299 2030 10BC     		pop {r4}
 4300 2032 EA46     		mov r10, sp
 4301 2034 2546     		mov r5, r4
 4302 2036 2404     		lsls r4, r4, # 16
 4303 2038 240C     		lsrs r4, r4, # 16
 4304 203a 2D0C     		lsrs r5, r5, # 16
 4305 203c 6043     		muls r0, r0, r4
 4306 203e 6143     		muls r1, r1, r4
 4307 2040 6A43     		muls r2, r2, r5
 4308 2042 6B43     		muls r3, r3, r5
 4309 2044 8011     		asrs r0, r0, # 6
 4310 2046 8911     		asrs r1, r1, # 6
ARM GAS  1.s 			page 77


 4311 2048 9211     		asrs r2, r2, # 6
 4312 204a 9B11     		asrs r3, r3, # 6
 4313 204c 8018     		adds r0, r0, r2  @r
 4314 204e C918     		adds r1, r1, r3  @i
 4315 2050 3618     		adds r6, r6, r0
 4316 2052 7F18     		adds r7, r7, r1
 4317              	
 4318 2054 DD46     		mov sp, r11
 4319 2056 0FBC     		pop {r0-r3}
 4320 2058 EB46     		mov r11, sp
 4321 205a D546     		mov sp, r10
 4322 205c 10BC     		pop {r4}
 4323 205e EA46     		mov r10, sp
 4324 2060 2546     		mov r5, r4
 4325 2062 2404     		lsls r4, r4, # 16
 4326 2064 240C     		lsrs r4, r4, # 16
 4327 2066 2D0C     		lsrs r5, r5, # 16
 4328 2068 6043     		muls r0, r0, r4
 4329 206a 6143     		muls r1, r1, r4
 4330 206c 6A43     		muls r2, r2, r5
 4331 206e 6B43     		muls r3, r3, r5
 4332 2070 8011     		asrs r0, r0, # 6
 4333 2072 8911     		asrs r1, r1, # 6
 4334 2074 9211     		asrs r2, r2, # 6
 4335 2076 9B11     		asrs r3, r3, # 6
 4336 2078 8018     		adds r0, r0, r2         @r
 4337 207a C918     		adds r1, r1, r3         @i
 4338 207c 3618     		adds r6, r6, r0
 4339 207e 7F18     		adds r7, r7, r1
 4340              	
 4341              		@1
 4342 2080 DD46     		mov sp, r11
 4343 2082 0FBC     		pop {r0-r3}
 4344 2084 EB46     		mov r11, sp
 4345 2086 D546     		mov sp, r10
 4346 2088 10BC     		pop {r4}
 4347 208a EA46     		mov r10, sp
 4348 208c 2546     		mov r5, r4
 4349 208e 2404     		lsls r4, r4, # 16
 4350 2090 240C     		lsrs r4, r4, # 16
 4351 2092 2D0C     		lsrs r5, r5, # 16
 4352 2094 6043     		muls r0, r0, r4		@R
 4353 2096 6143     		muls r1, r1, r4		@I
 4354 2098 6A43     		muls r2, r2, r5		@R
 4355 209a 6B43     		muls r3, r3, r5		@I
 4356 209c 8011     		asrs r0, r0, # 6
 4357 209e 8911     		asrs r1, r1, # 6
 4358 20a0 9211     		asrs r2, r2, # 6
 4359 20a2 9B11     		asrs r3, r3, # 6
 4360 20a4 8018     		adds r0, r0, r2	 @r
 4361 20a6 C918     		adds r1, r1, r3	 @i
 4362 20a8 3618     		adds r6, r6, r0
 4363 20aa 7F18     		adds r7, r7, r1
 4364              	
 4365 20ac DD46     		mov sp, r11
 4366 20ae 0FBC     		pop {r0-r3}
 4367 20b0 EB46     		mov r11, sp
ARM GAS  1.s 			page 78


 4368 20b2 D546     		mov sp, r10
 4369 20b4 10BC     		pop {r4}
 4370 20b6 EA46     		mov r10, sp
 4371 20b8 2546     		mov r5, r4
 4372 20ba 2404     		lsls r4, r4, # 16
 4373 20bc 240C     		lsrs r4, r4, # 16
 4374 20be 2D0C     		lsrs r5, r5, # 16
 4375 20c0 6043     		muls r0, r0, r4
 4376 20c2 6143     		muls r1, r1, r4
 4377 20c4 6A43     		muls r2, r2, r5
 4378 20c6 6B43     		muls r3, r3, r5
 4379 20c8 8011     		asrs r0, r0, # 6
 4380 20ca 8911     		asrs r1, r1, # 6
 4381 20cc 9211     		asrs r2, r2, # 6
 4382 20ce 9B11     		asrs r3, r3, # 6
 4383 20d0 8018     		adds r0, r0, r2         @r
 4384 20d2 C918     		adds r1, r1, r3         @i
 4385 20d4 3618     		adds r6, r6, r0
 4386 20d6 7F18     		adds r7, r7, r1
 4387              	
 4388 20d8 DD46     		mov sp, r11
 4389 20da 0FBC     		pop {r0-r3}
 4390 20dc EB46     		mov r11, sp
 4391 20de D546     		mov sp, r10
 4392 20e0 10BC     		pop {r4}
 4393 20e2 EA46     		mov r10, sp
 4394 20e4 2546     		mov r5, r4
 4395 20e6 2404     		lsls r4, r4, # 16
 4396 20e8 240C     		lsrs r4, r4, # 16
 4397 20ea 2D0C     		lsrs r5, r5, # 16
 4398 20ec 6043     		muls r0, r0, r4
 4399 20ee 6143     		muls r1, r1, r4
 4400 20f0 6A43     		muls r2, r2, r5
 4401 20f2 6B43     		muls r3, r3, r5
 4402 20f4 8011     		asrs r0, r0, # 6
 4403 20f6 8911     		asrs r1, r1, # 6
 4404 20f8 9211     		asrs r2, r2, # 6
 4405 20fa 9B11     		asrs r3, r3, # 6
 4406 20fc 8018     		adds r0, r0, r2  @r
 4407 20fe C918     		adds r1, r1, r3  @i
 4408 2100 3618     		adds r6, r6, r0
 4409 2102 7F18     		adds r7, r7, r1
 4410              	
 4411 2104 DD46     		mov sp, r11
 4412 2106 0FBC     		pop {r0-r3}
 4413 2108 EB46     		mov r11, sp
 4414 210a D546     		mov sp, r10
 4415 210c 10BC     		pop {r4}
 4416 210e EA46     		mov r10, sp
 4417 2110 2546     		mov r5, r4
 4418 2112 2404     		lsls r4, r4, # 16
 4419 2114 240C     		lsrs r4, r4, # 16
 4420 2116 2D0C     		lsrs r5, r5, # 16
 4421 2118 6043     		muls r0, r0, r4
 4422 211a 6143     		muls r1, r1, r4
 4423 211c 6A43     		muls r2, r2, r5
 4424 211e 6B43     		muls r3, r3, r5
ARM GAS  1.s 			page 79


 4425 2120 8011     		asrs r0, r0, # 6
 4426 2122 8911     		asrs r1, r1, # 6
 4427 2124 9211     		asrs r2, r2, # 6
 4428 2126 9B11     		asrs r3, r3, # 6
 4429 2128 8018     		adds r0, r0, r2         @r
 4430 212a C918     		adds r1, r1, r3         @i
 4431 212c 3618     		adds r6, r6, r0
 4432 212e 7F18     		adds r7, r7, r1
 4433              	
 4434              		@2
 4435 2130 DD46     		mov sp, r11
 4436 2132 0FBC     		pop {r0-r3}
 4437 2134 EB46     		mov r11, sp
 4438 2136 D546     		mov sp, r10
 4439 2138 10BC     		pop {r4}
 4440 213a EA46     		mov r10, sp
 4441 213c 2546     		mov r5, r4
 4442 213e 2404     		lsls r4, r4, # 16
 4443 2140 240C     		lsrs r4, r4, # 16
 4444 2142 2D0C     		lsrs r5, r5, # 16
 4445 2144 6043     		muls r0, r0, r4		@R
 4446 2146 6143     		muls r1, r1, r4		@I
 4447 2148 6A43     		muls r2, r2, r5		@R
 4448 214a 6B43     		muls r3, r3, r5		@I
 4449 214c 8011     		asrs r0, r0, # 6
 4450 214e 8911     		asrs r1, r1, # 6
 4451 2150 9211     		asrs r2, r2, # 6
 4452 2152 9B11     		asrs r3, r3, # 6
 4453 2154 8018     		adds r0, r0, r2	 @r
 4454 2156 C918     		adds r1, r1, r3	 @i
 4455 2158 3618     		adds r6, r6, r0
 4456 215a 7F18     		adds r7, r7, r1
 4457              	
 4458 215c DD46     		mov sp, r11
 4459 215e 0FBC     		pop {r0-r3}
 4460 2160 EB46     		mov r11, sp
 4461 2162 D546     		mov sp, r10
 4462 2164 10BC     		pop {r4}
 4463 2166 EA46     		mov r10, sp
 4464 2168 2546     		mov r5, r4
 4465 216a 2404     		lsls r4, r4, # 16
 4466 216c 240C     		lsrs r4, r4, # 16
 4467 216e 2D0C     		lsrs r5, r5, # 16
 4468 2170 6043     		muls r0, r0, r4
 4469 2172 6143     		muls r1, r1, r4
 4470 2174 6A43     		muls r2, r2, r5
 4471 2176 6B43     		muls r3, r3, r5
 4472 2178 8011     		asrs r0, r0, # 6
 4473 217a 8911     		asrs r1, r1, # 6
 4474 217c 9211     		asrs r2, r2, # 6
 4475 217e 9B11     		asrs r3, r3, # 6
 4476 2180 8018     		adds r0, r0, r2         @r
 4477 2182 C918     		adds r1, r1, r3         @i
 4478 2184 3618     		adds r6, r6, r0
 4479 2186 7F18     		adds r7, r7, r1
 4480              	
 4481 2188 DD46     		mov sp, r11
ARM GAS  1.s 			page 80


 4482 218a 0FBC     		pop {r0-r3}
 4483 218c EB46     		mov r11, sp
 4484 218e D546     		mov sp, r10
 4485 2190 10BC     		pop {r4}
 4486 2192 EA46     		mov r10, sp
 4487 2194 2546     		mov r5, r4
 4488 2196 2404     		lsls r4, r4, # 16
 4489 2198 240C     		lsrs r4, r4, # 16
 4490 219a 2D0C     		lsrs r5, r5, # 16
 4491 219c 6043     		muls r0, r0, r4
 4492 219e 6143     		muls r1, r1, r4
 4493 21a0 6A43     		muls r2, r2, r5
 4494 21a2 6B43     		muls r3, r3, r5
 4495 21a4 8011     		asrs r0, r0, # 6
 4496 21a6 8911     		asrs r1, r1, # 6
 4497 21a8 9211     		asrs r2, r2, # 6
 4498 21aa 9B11     		asrs r3, r3, # 6
 4499 21ac 8018     		adds r0, r0, r2  @r
 4500 21ae C918     		adds r1, r1, r3  @i
 4501 21b0 3618     		adds r6, r6, r0
 4502 21b2 7F18     		adds r7, r7, r1
 4503              	
 4504 21b4 DD46     		mov sp, r11
 4505 21b6 0FBC     		pop {r0-r3}
 4506 21b8 EB46     		mov r11, sp
 4507 21ba D546     		mov sp, r10
 4508 21bc 10BC     		pop {r4}
 4509 21be EA46     		mov r10, sp
 4510 21c0 2546     		mov r5, r4
 4511 21c2 2404     		lsls r4, r4, # 16
 4512 21c4 240C     		lsrs r4, r4, # 16
 4513 21c6 2D0C     		lsrs r5, r5, # 16
 4514 21c8 6043     		muls r0, r0, r4
 4515 21ca 6143     		muls r1, r1, r4
 4516 21cc 6A43     		muls r2, r2, r5
 4517 21ce 6B43     		muls r3, r3, r5
 4518 21d0 8011     		asrs r0, r0, # 6
 4519 21d2 8911     		asrs r1, r1, # 6
 4520 21d4 9211     		asrs r2, r2, # 6
 4521 21d6 9B11     		asrs r3, r3, # 6
 4522 21d8 8018     		adds r0, r0, r2         @r
 4523 21da C918     		adds r1, r1, r3         @i
 4524 21dc 3618     		adds r6, r6, r0
 4525 21de 7F18     		adds r7, r7, r1
 4526              	
 4527              		@3
 4528 21e0 DD46     		mov sp, r11
 4529 21e2 0FBC     		pop {r0-r3}
 4530 21e4 EB46     		mov r11, sp
 4531 21e6 D546     		mov sp, r10
 4532 21e8 10BC     		pop {r4}
 4533 21ea EA46     		mov r10, sp
 4534 21ec 2546     		mov r5, r4
 4535 21ee 2404     		lsls r4, r4, # 16
 4536 21f0 240C     		lsrs r4, r4, # 16
 4537 21f2 2D0C     		lsrs r5, r5, # 16
 4538 21f4 6043     		muls r0, r0, r4		@R
ARM GAS  1.s 			page 81


 4539 21f6 6143     		muls r1, r1, r4		@I
 4540 21f8 6A43     		muls r2, r2, r5		@R
 4541 21fa 6B43     		muls r3, r3, r5		@I
 4542 21fc 8011     		asrs r0, r0, # 6
 4543 21fe 8911     		asrs r1, r1, # 6
 4544 2200 9211     		asrs r2, r2, # 6
 4545 2202 9B11     		asrs r3, r3, # 6
 4546 2204 8018     		adds r0, r0, r2	 @r
 4547 2206 C918     		adds r1, r1, r3	 @i
 4548 2208 3618     		adds r6, r6, r0
 4549 220a 7F18     		adds r7, r7, r1
 4550              	
 4551 220c DD46     		mov sp, r11
 4552 220e 0FBC     		pop {r0-r3}
 4553 2210 EB46     		mov r11, sp
 4554 2212 D546     		mov sp, r10
 4555 2214 10BC     		pop {r4}
 4556 2216 EA46     		mov r10, sp
 4557 2218 2546     		mov r5, r4
 4558 221a 2404     		lsls r4, r4, # 16
 4559 221c 240C     		lsrs r4, r4, # 16
 4560 221e 2D0C     		lsrs r5, r5, # 16
 4561 2220 6043     		muls r0, r0, r4
 4562 2222 6143     		muls r1, r1, r4
 4563 2224 6A43     		muls r2, r2, r5
 4564 2226 6B43     		muls r3, r3, r5
 4565 2228 8011     		asrs r0, r0, # 6
 4566 222a 8911     		asrs r1, r1, # 6
 4567 222c 9211     		asrs r2, r2, # 6
 4568 222e 9B11     		asrs r3, r3, # 6
 4569 2230 8018     		adds r0, r0, r2         @r
 4570 2232 C918     		adds r1, r1, r3         @i
 4571 2234 3618     		adds r6, r6, r0
 4572 2236 7F18     		adds r7, r7, r1
 4573              	
 4574 2238 DD46     		mov sp, r11
 4575 223a 0FBC     		pop {r0-r3}
 4576 223c EB46     		mov r11, sp
 4577 223e D546     		mov sp, r10
 4578 2240 10BC     		pop {r4}
 4579 2242 EA46     		mov r10, sp
 4580 2244 2546     		mov r5, r4
 4581 2246 2404     		lsls r4, r4, # 16
 4582 2248 240C     		lsrs r4, r4, # 16
 4583 224a 2D0C     		lsrs r5, r5, # 16
 4584 224c 6043     		muls r0, r0, r4
 4585 224e 6143     		muls r1, r1, r4
 4586 2250 6A43     		muls r2, r2, r5
 4587 2252 6B43     		muls r3, r3, r5
 4588 2254 8011     		asrs r0, r0, # 6
 4589 2256 8911     		asrs r1, r1, # 6
 4590 2258 9211     		asrs r2, r2, # 6
 4591 225a 9B11     		asrs r3, r3, # 6
 4592 225c 8018     		adds r0, r0, r2  @r
 4593 225e C918     		adds r1, r1, r3  @i
 4594 2260 3618     		adds r6, r6, r0
 4595 2262 7F18     		adds r7, r7, r1
ARM GAS  1.s 			page 82


 4596              	
 4597 2264 DD46     		mov sp, r11
 4598 2266 0FBC     		pop {r0-r3}
 4599 2268 EB46     		mov r11, sp
 4600 226a D546     		mov sp, r10
 4601 226c 10BC     		pop {r4}
 4602 226e EA46     		mov r10, sp
 4603 2270 2546     		mov r5, r4
 4604 2272 2404     		lsls r4, r4, # 16
 4605 2274 240C     		lsrs r4, r4, # 16
 4606 2276 2D0C     		lsrs r5, r5, # 16
 4607 2278 6043     		muls r0, r0, r4
 4608 227a 6143     		muls r1, r1, r4
 4609 227c 6A43     		muls r2, r2, r5
 4610 227e 6B43     		muls r3, r3, r5
 4611 2280 8011     		asrs r0, r0, # 6
 4612 2282 8911     		asrs r1, r1, # 6
 4613 2284 9211     		asrs r2, r2, # 6
 4614 2286 9B11     		asrs r3, r3, # 6
 4615 2288 8018     		adds r0, r0, r2         @r
 4616 228a C918     		adds r1, r1, r3         @i
 4617 228c 3618     		adds r6, r6, r0
 4618 228e 7F18     		adds r7, r7, r1
 4619              	
 4620              		@4
 4621 2290 DD46     		mov sp, r11
 4622 2292 0FBC     		pop {r0-r3}
 4623 2294 EB46     		mov r11, sp
 4624 2296 D546     		mov sp, r10
 4625 2298 10BC     		pop {r4}
 4626 229a EA46     		mov r10, sp
 4627 229c 2546     		mov r5, r4
 4628 229e 2404     		lsls r4, r4, # 16
 4629 22a0 240C     		lsrs r4, r4, # 16
 4630 22a2 2D0C     		lsrs r5, r5, # 16
 4631 22a4 6043     		muls r0, r0, r4		@R
 4632 22a6 6143     		muls r1, r1, r4		@I
 4633 22a8 6A43     		muls r2, r2, r5		@R
 4634 22aa 6B43     		muls r3, r3, r5		@I
 4635 22ac 8011     		asrs r0, r0, # 6
 4636 22ae 8911     		asrs r1, r1, # 6
 4637 22b0 9211     		asrs r2, r2, # 6
 4638 22b2 9B11     		asrs r3, r3, # 6
 4639 22b4 8018     		adds r0, r0, r2	 @r
 4640 22b6 C918     		adds r1, r1, r3	 @i
 4641 22b8 3618     		adds r6, r6, r0
 4642 22ba 7F18     		adds r7, r7, r1
 4643              	
 4644 22bc DD46     		mov sp, r11
 4645 22be 0FBC     		pop {r0-r3}
 4646 22c0 EB46     		mov r11, sp
 4647 22c2 D546     		mov sp, r10
 4648 22c4 10BC     		pop {r4}
 4649 22c6 EA46     		mov r10, sp
 4650 22c8 2546     		mov r5, r4
 4651 22ca 2404     		lsls r4, r4, # 16
 4652 22cc 240C     		lsrs r4, r4, # 16
ARM GAS  1.s 			page 83


 4653 22ce 2D0C     		lsrs r5, r5, # 16
 4654 22d0 6043     		muls r0, r0, r4
 4655 22d2 6143     		muls r1, r1, r4
 4656 22d4 6A43     		muls r2, r2, r5
 4657 22d6 6B43     		muls r3, r3, r5
 4658 22d8 8011     		asrs r0, r0, # 6
 4659 22da 8911     		asrs r1, r1, # 6
 4660 22dc 9211     		asrs r2, r2, # 6
 4661 22de 9B11     		asrs r3, r3, # 6
 4662 22e0 8018     		adds r0, r0, r2         @r
 4663 22e2 C918     		adds r1, r1, r3         @i
 4664 22e4 3618     		adds r6, r6, r0
 4665 22e6 7F18     		adds r7, r7, r1
 4666              	
 4667 22e8 DD46     		mov sp, r11
 4668 22ea 0FBC     		pop {r0-r3}
 4669 22ec EB46     		mov r11, sp
 4670 22ee D546     		mov sp, r10
 4671 22f0 10BC     		pop {r4}
 4672 22f2 EA46     		mov r10, sp
 4673 22f4 2546     		mov r5, r4
 4674 22f6 2404     		lsls r4, r4, # 16
 4675 22f8 240C     		lsrs r4, r4, # 16
 4676 22fa 2D0C     		lsrs r5, r5, # 16
 4677 22fc 6043     		muls r0, r0, r4
 4678 22fe 6143     		muls r1, r1, r4
 4679 2300 6A43     		muls r2, r2, r5
 4680 2302 6B43     		muls r3, r3, r5
 4681 2304 8011     		asrs r0, r0, # 6
 4682 2306 8911     		asrs r1, r1, # 6
 4683 2308 9211     		asrs r2, r2, # 6
 4684 230a 9B11     		asrs r3, r3, # 6
 4685 230c 8018     		adds r0, r0, r2  @r
 4686 230e C918     		adds r1, r1, r3  @i
 4687 2310 3618     		adds r6, r6, r0
 4688 2312 7F18     		adds r7, r7, r1
 4689              	
 4690 2314 DD46     		mov sp, r11
 4691 2316 0FBC     		pop {r0-r3}
 4692 2318 EB46     		mov r11, sp
 4693 231a D546     		mov sp, r10
 4694 231c 10BC     		pop {r4}
 4695 231e EA46     		mov r10, sp
 4696 2320 2546     		mov r5, r4
 4697 2322 2404     		lsls r4, r4, # 16
 4698 2324 240C     		lsrs r4, r4, # 16
 4699 2326 2D0C     		lsrs r5, r5, # 16
 4700 2328 6043     		muls r0, r0, r4
 4701 232a 6143     		muls r1, r1, r4
 4702 232c 6A43     		muls r2, r2, r5
 4703 232e 6B43     		muls r3, r3, r5
 4704 2330 8011     		asrs r0, r0, # 6
 4705 2332 8911     		asrs r1, r1, # 6
 4706 2334 9211     		asrs r2, r2, # 6
 4707 2336 9B11     		asrs r3, r3, # 6
 4708 2338 8018     		adds r0, r0, r2         @r
 4709 233a C918     		adds r1, r1, r3         @i
ARM GAS  1.s 			page 84


 4710 233c 3618     		adds r6, r6, r0
 4711 233e 7F18     		adds r7, r7, r1
 4712              	
 4713              		@5
 4714 2340 DD46     		mov sp, r11
 4715 2342 0FBC     		pop {r0-r3}
 4716 2344 EB46     		mov r11, sp
 4717 2346 D546     		mov sp, r10
 4718 2348 10BC     		pop {r4}
 4719 234a EA46     		mov r10, sp
 4720 234c 2546     		mov r5, r4
 4721 234e 2404     		lsls r4, r4, # 16
 4722 2350 240C     		lsrs r4, r4, # 16
 4723 2352 2D0C     		lsrs r5, r5, # 16
 4724 2354 6043     		muls r0, r0, r4		@R
 4725 2356 6143     		muls r1, r1, r4		@I
 4726 2358 6A43     		muls r2, r2, r5		@R
 4727 235a 6B43     		muls r3, r3, r5		@I
 4728 235c 8011     		asrs r0, r0, # 6
 4729 235e 8911     		asrs r1, r1, # 6
 4730 2360 9211     		asrs r2, r2, # 6
 4731 2362 9B11     		asrs r3, r3, # 6
 4732 2364 8018     		adds r0, r0, r2	 @r
 4733 2366 C918     		adds r1, r1, r3	 @i
 4734 2368 3618     		adds r6, r6, r0
 4735 236a 7F18     		adds r7, r7, r1
 4736              	
 4737 236c DD46     		mov sp, r11
 4738 236e 0FBC     		pop {r0-r3}
 4739 2370 EB46     		mov r11, sp
 4740 2372 D546     		mov sp, r10
 4741 2374 10BC     		pop {r4}
 4742 2376 EA46     		mov r10, sp
 4743 2378 2546     		mov r5, r4
 4744 237a 2404     		lsls r4, r4, # 16
 4745 237c 240C     		lsrs r4, r4, # 16
 4746 237e 2D0C     		lsrs r5, r5, # 16
 4747 2380 6043     		muls r0, r0, r4
 4748 2382 6143     		muls r1, r1, r4
 4749 2384 6A43     		muls r2, r2, r5
 4750 2386 6B43     		muls r3, r3, r5
 4751 2388 8011     		asrs r0, r0, # 6
 4752 238a 8911     		asrs r1, r1, # 6
 4753 238c 9211     		asrs r2, r2, # 6
 4754 238e 9B11     		asrs r3, r3, # 6
 4755 2390 8018     		adds r0, r0, r2         @r
 4756 2392 C918     		adds r1, r1, r3         @i
 4757 2394 3618     		adds r6, r6, r0
 4758 2396 7F18     		adds r7, r7, r1
 4759              	
 4760 2398 DD46     		mov sp, r11
 4761 239a 0FBC     		pop {r0-r3}
 4762 239c EB46     		mov r11, sp
 4763 239e D546     		mov sp, r10
 4764 23a0 10BC     		pop {r4}
 4765 23a2 EA46     		mov r10, sp
 4766 23a4 2546     		mov r5, r4
ARM GAS  1.s 			page 85


 4767 23a6 2404     		lsls r4, r4, # 16
 4768 23a8 240C     		lsrs r4, r4, # 16
 4769 23aa 2D0C     		lsrs r5, r5, # 16
 4770 23ac 6043     		muls r0, r0, r4
 4771 23ae 6143     		muls r1, r1, r4
 4772 23b0 6A43     		muls r2, r2, r5
 4773 23b2 6B43     		muls r3, r3, r5
 4774 23b4 8011     		asrs r0, r0, # 6
 4775 23b6 8911     		asrs r1, r1, # 6
 4776 23b8 9211     		asrs r2, r2, # 6
 4777 23ba 9B11     		asrs r3, r3, # 6
 4778 23bc 8018     		adds r0, r0, r2  @r
 4779 23be C918     		adds r1, r1, r3  @i
 4780 23c0 3618     		adds r6, r6, r0
 4781 23c2 7F18     		adds r7, r7, r1
 4782              	
 4783 23c4 DD46     		mov sp, r11
 4784 23c6 0FBC     		pop {r0-r3}
 4785 23c8 EB46     		mov r11, sp
 4786 23ca D546     		mov sp, r10
 4787 23cc 10BC     		pop {r4}
 4788 23ce EA46     		mov r10, sp
 4789 23d0 2546     		mov r5, r4
 4790 23d2 2404     		lsls r4, r4, # 16
 4791 23d4 240C     		lsrs r4, r4, # 16
 4792 23d6 2D0C     		lsrs r5, r5, # 16
 4793 23d8 6043     		muls r0, r0, r4
 4794 23da 6143     		muls r1, r1, r4
 4795 23dc 6A43     		muls r2, r2, r5
 4796 23de 6B43     		muls r3, r3, r5
 4797 23e0 8011     		asrs r0, r0, # 6
 4798 23e2 8911     		asrs r1, r1, # 6
 4799 23e4 9211     		asrs r2, r2, # 6
 4800 23e6 9B11     		asrs r3, r3, # 6
 4801 23e8 8018     		adds r0, r0, r2         @r
 4802 23ea C918     		adds r1, r1, r3         @i
 4803 23ec 3618     		adds r6, r6, r0
 4804 23ee 7F18     		adds r7, r7, r1
 4805              	
 4806              		@6
 4807 23f0 DD46     		mov sp, r11
 4808 23f2 0FBC     		pop {r0-r3}
 4809 23f4 EB46     		mov r11, sp
 4810 23f6 D546     		mov sp, r10
 4811 23f8 10BC     		pop {r4}
 4812 23fa EA46     		mov r10, sp
 4813 23fc 2546     		mov r5, r4
 4814 23fe 2404     		lsls r4, r4, # 16
 4815 2400 240C     		lsrs r4, r4, # 16
 4816 2402 2D0C     		lsrs r5, r5, # 16
 4817 2404 6043     		muls r0, r0, r4		@R
 4818 2406 6143     		muls r1, r1, r4		@I
 4819 2408 6A43     		muls r2, r2, r5		@R
 4820 240a 6B43     		muls r3, r3, r5		@I
 4821 240c 8011     		asrs r0, r0, # 6
 4822 240e 8911     		asrs r1, r1, # 6
 4823 2410 9211     		asrs r2, r2, # 6
ARM GAS  1.s 			page 86


 4824 2412 9B11     		asrs r3, r3, # 6
 4825 2414 8018     		adds r0, r0, r2	 @r
 4826 2416 C918     		adds r1, r1, r3	 @i
 4827 2418 3618     		adds r6, r6, r0
 4828 241a 7F18     		adds r7, r7, r1
 4829              	
 4830 241c DD46     		mov sp, r11
 4831 241e 0FBC     		pop {r0-r3}
 4832 2420 EB46     		mov r11, sp
 4833 2422 D546     		mov sp, r10
 4834 2424 10BC     		pop {r4}
 4835 2426 EA46     		mov r10, sp
 4836 2428 2546     		mov r5, r4
 4837 242a 2404     		lsls r4, r4, # 16
 4838 242c 240C     		lsrs r4, r4, # 16
 4839 242e 2D0C     		lsrs r5, r5, # 16
 4840 2430 6043     		muls r0, r0, r4
 4841 2432 6143     		muls r1, r1, r4
 4842 2434 6A43     		muls r2, r2, r5
 4843 2436 6B43     		muls r3, r3, r5
 4844 2438 8011     		asrs r0, r0, # 6
 4845 243a 8911     		asrs r1, r1, # 6
 4846 243c 9211     		asrs r2, r2, # 6
 4847 243e 9B11     		asrs r3, r3, # 6
 4848 2440 8018     		adds r0, r0, r2         @r
 4849 2442 C918     		adds r1, r1, r3         @i
 4850 2444 3618     		adds r6, r6, r0
 4851 2446 7F18     		adds r7, r7, r1
 4852              	
 4853 2448 DD46     		mov sp, r11
 4854 244a 0FBC     		pop {r0-r3}
 4855 244c EB46     		mov r11, sp
 4856 244e D546     		mov sp, r10
 4857 2450 10BC     		pop {r4}
 4858 2452 EA46     		mov r10, sp
 4859 2454 2546     		mov r5, r4
 4860 2456 2404     		lsls r4, r4, # 16
 4861 2458 240C     		lsrs r4, r4, # 16
 4862 245a 2D0C     		lsrs r5, r5, # 16
 4863 245c 6043     		muls r0, r0, r4
 4864 245e 6143     		muls r1, r1, r4
 4865 2460 6A43     		muls r2, r2, r5
 4866 2462 6B43     		muls r3, r3, r5
 4867 2464 8011     		asrs r0, r0, # 6
 4868 2466 8911     		asrs r1, r1, # 6
 4869 2468 9211     		asrs r2, r2, # 6
 4870 246a 9B11     		asrs r3, r3, # 6
 4871 246c 8018     		adds r0, r0, r2  @r
 4872 246e C918     		adds r1, r1, r3  @i
 4873 2470 3618     		adds r6, r6, r0
 4874 2472 7F18     		adds r7, r7, r1
 4875              	
 4876 2474 DD46     		mov sp, r11
 4877 2476 0FBC     		pop {r0-r3}
 4878 2478 EB46     		mov r11, sp
 4879 247a D546     		mov sp, r10
 4880 247c 10BC     		pop {r4}
ARM GAS  1.s 			page 87


 4881 247e EA46     		mov r10, sp
 4882 2480 2546     		mov r5, r4
 4883 2482 2404     		lsls r4, r4, # 16
 4884 2484 240C     		lsrs r4, r4, # 16
 4885 2486 2D0C     		lsrs r5, r5, # 16
 4886 2488 6043     		muls r0, r0, r4
 4887 248a 6143     		muls r1, r1, r4
 4888 248c 6A43     		muls r2, r2, r5
 4889 248e 6B43     		muls r3, r3, r5
 4890 2490 8011     		asrs r0, r0, # 6
 4891 2492 8911     		asrs r1, r1, # 6
 4892 2494 9211     		asrs r2, r2, # 6
 4893 2496 9B11     		asrs r3, r3, # 6
 4894 2498 8018     		adds r0, r0, r2         @r
 4895 249a C918     		adds r1, r1, r3         @i
 4896 249c 3618     		adds r6, r6, r0
 4897 249e 7F18     		adds r7, r7, r1
 4898              	
 4899              		@7
 4900 24a0 DD46     		mov sp, r11
 4901 24a2 0FBC     		pop {r0-r3}
 4902 24a4 EB46     		mov r11, sp
 4903 24a6 D546     		mov sp, r10
 4904 24a8 10BC     		pop {r4}
 4905 24aa EA46     		mov r10, sp
 4906 24ac 2546     		mov r5, r4
 4907 24ae 2404     		lsls r4, r4, # 16
 4908 24b0 240C     		lsrs r4, r4, # 16
 4909 24b2 2D0C     		lsrs r5, r5, # 16
 4910 24b4 6043     		muls r0, r0, r4		@R
 4911 24b6 6143     		muls r1, r1, r4		@I
 4912 24b8 6A43     		muls r2, r2, r5		@R
 4913 24ba 6B43     		muls r3, r3, r5		@I
 4914 24bc 8011     		asrs r0, r0, # 6
 4915 24be 8911     		asrs r1, r1, # 6
 4916 24c0 9211     		asrs r2, r2, # 6
 4917 24c2 9B11     		asrs r3, r3, # 6
 4918 24c4 8018     		adds r0, r0, r2	 @r
 4919 24c6 C918     		adds r1, r1, r3	 @i
 4920 24c8 3618     		adds r6, r6, r0
 4921 24ca 7F18     		adds r7, r7, r1
 4922              	
 4923 24cc DD46     		mov sp, r11
 4924 24ce 0FBC     		pop {r0-r3}
 4925 24d0 EB46     		mov r11, sp
 4926 24d2 D546     		mov sp, r10
 4927 24d4 10BC     		pop {r4}
 4928 24d6 EA46     		mov r10, sp
 4929 24d8 2546     		mov r5, r4
 4930 24da 2404     		lsls r4, r4, # 16
 4931 24dc 240C     		lsrs r4, r4, # 16
 4932 24de 2D0C     		lsrs r5, r5, # 16
 4933 24e0 6043     		muls r0, r0, r4
 4934 24e2 6143     		muls r1, r1, r4
 4935 24e4 6A43     		muls r2, r2, r5
 4936 24e6 6B43     		muls r3, r3, r5
 4937 24e8 8011     		asrs r0, r0, # 6
ARM GAS  1.s 			page 88


 4938 24ea 8911     		asrs r1, r1, # 6
 4939 24ec 9211     		asrs r2, r2, # 6
 4940 24ee 9B11     		asrs r3, r3, # 6
 4941 24f0 8018     		adds r0, r0, r2         @r
 4942 24f2 C918     		adds r1, r1, r3         @i
 4943 24f4 3618     		adds r6, r6, r0
 4944 24f6 7F18     		adds r7, r7, r1
 4945              	
 4946 24f8 DD46     		mov sp, r11
 4947 24fa 0FBC     		pop {r0-r3}
 4948 24fc EB46     		mov r11, sp
 4949 24fe D546     		mov sp, r10
 4950 2500 10BC     		pop {r4}
 4951 2502 EA46     		mov r10, sp
 4952 2504 2546     		mov r5, r4
 4953 2506 2404     		lsls r4, r4, # 16
 4954 2508 240C     		lsrs r4, r4, # 16
 4955 250a 2D0C     		lsrs r5, r5, # 16
 4956 250c 6043     		muls r0, r0, r4
 4957 250e 6143     		muls r1, r1, r4
 4958 2510 6A43     		muls r2, r2, r5
 4959 2512 6B43     		muls r3, r3, r5
 4960 2514 8011     		asrs r0, r0, # 6
 4961 2516 8911     		asrs r1, r1, # 6
 4962 2518 9211     		asrs r2, r2, # 6
 4963 251a 9B11     		asrs r3, r3, # 6
 4964 251c 8018     		adds r0, r0, r2  @r
 4965 251e C918     		adds r1, r1, r3  @i
 4966 2520 3618     		adds r6, r6, r0
 4967 2522 7F18     		adds r7, r7, r1
 4968              	
 4969 2524 DD46     		mov sp, r11
 4970 2526 0FBC     		pop {r0-r3}
 4971 2528 EB46     		mov r11, sp
 4972 252a D546     		mov sp, r10
 4973 252c 10BC     		pop {r4}
 4974 252e EA46     		mov r10, sp
 4975 2530 2546     		mov r5, r4
 4976 2532 2404     		lsls r4, r4, # 16
 4977 2534 240C     		lsrs r4, r4, # 16
 4978 2536 2D0C     		lsrs r5, r5, # 16
 4979 2538 6043     		muls r0, r0, r4
 4980 253a 6143     		muls r1, r1, r4
 4981 253c 6A43     		muls r2, r2, r5
 4982 253e 6B43     		muls r3, r3, r5
 4983 2540 8011     		asrs r0, r0, # 6
 4984 2542 8911     		asrs r1, r1, # 6
 4985 2544 9211     		asrs r2, r2, # 6
 4986 2546 9B11     		asrs r3, r3, # 6
 4987 2548 8018     		adds r0, r0, r2         @r
 4988 254a C918     		adds r1, r1, r3         @i
 4989 254c 3618     		adds r6, r6, r0
 4990 254e 7F18     		adds r7, r7, r1
 4991              	
 4992              		@8
 4993 2550 DD46     		mov sp, r11
 4994 2552 0FBC     		pop {r0-r3}
ARM GAS  1.s 			page 89


 4995 2554 EB46     		mov r11, sp
 4996 2556 D546     		mov sp, r10
 4997 2558 10BC     		pop {r4}
 4998 255a EA46     		mov r10, sp
 4999 255c 2546     		mov r5, r4
 5000 255e 2404     		lsls r4, r4, # 16
 5001 2560 240C     		lsrs r4, r4, # 16
 5002 2562 2D0C     		lsrs r5, r5, # 16
 5003 2564 6043     		muls r0, r0, r4		@R
 5004 2566 6143     		muls r1, r1, r4		@I
 5005 2568 6A43     		muls r2, r2, r5		@R
 5006 256a 6B43     		muls r3, r3, r5		@I
 5007 256c 8011     		asrs r0, r0, # 6
 5008 256e 8911     		asrs r1, r1, # 6
 5009 2570 9211     		asrs r2, r2, # 6
 5010 2572 9B11     		asrs r3, r3, # 6
 5011 2574 8018     		adds r0, r0, r2	 @r
 5012 2576 C918     		adds r1, r1, r3	 @i
 5013 2578 3618     		adds r6, r6, r0
 5014 257a 7F18     		adds r7, r7, r1
 5015              	
 5016 257c DD46     		mov sp, r11
 5017 257e 0FBC     		pop {r0-r3}
 5018 2580 EB46     		mov r11, sp
 5019 2582 D546     		mov sp, r10
 5020 2584 10BC     		pop {r4}
 5021 2586 EA46     		mov r10, sp
 5022 2588 2546     		mov r5, r4
 5023 258a 2404     		lsls r4, r4, # 16
 5024 258c 240C     		lsrs r4, r4, # 16
 5025 258e 2D0C     		lsrs r5, r5, # 16
 5026 2590 6043     		muls r0, r0, r4
 5027 2592 6143     		muls r1, r1, r4
 5028 2594 6A43     		muls r2, r2, r5
 5029 2596 6B43     		muls r3, r3, r5
 5030 2598 8011     		asrs r0, r0, # 6
 5031 259a 8911     		asrs r1, r1, # 6
 5032 259c 9211     		asrs r2, r2, # 6
 5033 259e 9B11     		asrs r3, r3, # 6
 5034 25a0 8018     		adds r0, r0, r2         @r
 5035 25a2 C918     		adds r1, r1, r3         @i
 5036 25a4 3618     		adds r6, r6, r0
 5037 25a6 7F18     		adds r7, r7, r1
 5038              	
 5039 25a8 DD46     		mov sp, r11
 5040 25aa 0FBC     		pop {r0-r3}
 5041 25ac EB46     		mov r11, sp
 5042 25ae D546     		mov sp, r10
 5043 25b0 10BC     		pop {r4}
 5044 25b2 EA46     		mov r10, sp
 5045 25b4 2546     		mov r5, r4
 5046 25b6 2404     		lsls r4, r4, # 16
 5047 25b8 240C     		lsrs r4, r4, # 16
 5048 25ba 2D0C     		lsrs r5, r5, # 16
 5049 25bc 6043     		muls r0, r0, r4
 5050 25be 6143     		muls r1, r1, r4
 5051 25c0 6A43     		muls r2, r2, r5
ARM GAS  1.s 			page 90


 5052 25c2 6B43     		muls r3, r3, r5
 5053 25c4 8011     		asrs r0, r0, # 6
 5054 25c6 8911     		asrs r1, r1, # 6
 5055 25c8 9211     		asrs r2, r2, # 6
 5056 25ca 9B11     		asrs r3, r3, # 6
 5057 25cc 8018     		adds r0, r0, r2  @r
 5058 25ce C918     		adds r1, r1, r3  @i
 5059 25d0 3618     		adds r6, r6, r0
 5060 25d2 7F18     		adds r7, r7, r1
 5061              	
 5062 25d4 DD46     		mov sp, r11
 5063 25d6 0FBC     		pop {r0-r3}
 5064 25d8 EB46     		mov r11, sp
 5065 25da D546     		mov sp, r10
 5066 25dc 10BC     		pop {r4}
 5067 25de EA46     		mov r10, sp
 5068 25e0 2546     		mov r5, r4
 5069 25e2 2404     		lsls r4, r4, # 16
 5070 25e4 240C     		lsrs r4, r4, # 16
 5071 25e6 2D0C     		lsrs r5, r5, # 16
 5072 25e8 6043     		muls r0, r0, r4
 5073 25ea 6143     		muls r1, r1, r4
 5074 25ec 6A43     		muls r2, r2, r5
 5075 25ee 6B43     		muls r3, r3, r5
 5076 25f0 8011     		asrs r0, r0, # 6
 5077 25f2 8911     		asrs r1, r1, # 6
 5078 25f4 9211     		asrs r2, r2, # 6
 5079 25f6 9B11     		asrs r3, r3, # 6
 5080 25f8 8018     		adds r0, r0, r2         @r
 5081 25fa C918     		adds r1, r1, r3         @i
 5082 25fc 3618     		adds r6, r6, r0
 5083 25fe 7F18     		adds r7, r7, r1
 5084              	
 5085              		@9
 5086 2600 DD46     		mov sp, r11
 5087 2602 0FBC     		pop {r0-r3}
 5088 2604 EB46     		mov r11, sp
 5089 2606 D546     		mov sp, r10
 5090 2608 10BC     		pop {r4}
 5091 260a EA46     		mov r10, sp
 5092 260c 2546     		mov r5, r4
 5093 260e 2404     		lsls r4, r4, # 16
 5094 2610 240C     		lsrs r4, r4, # 16
 5095 2612 2D0C     		lsrs r5, r5, # 16
 5096 2614 6043     		muls r0, r0, r4		@R
 5097 2616 6143     		muls r1, r1, r4		@I
 5098 2618 6A43     		muls r2, r2, r5		@R
 5099 261a 6B43     		muls r3, r3, r5		@I
 5100 261c 8011     		asrs r0, r0, # 6
 5101 261e 8911     		asrs r1, r1, # 6
 5102 2620 9211     		asrs r2, r2, # 6
 5103 2622 9B11     		asrs r3, r3, # 6
 5104 2624 8018     		adds r0, r0, r2	 @r
 5105 2626 C918     		adds r1, r1, r3	 @i
 5106 2628 3618     		adds r6, r6, r0
 5107 262a 7F18     		adds r7, r7, r1
 5108              	
ARM GAS  1.s 			page 91


 5109 262c DD46     		mov sp, r11
 5110 262e 0FBC     		pop {r0-r3}
 5111 2630 EB46     		mov r11, sp
 5112 2632 D546     		mov sp, r10
 5113 2634 10BC     		pop {r4}
 5114 2636 EA46     		mov r10, sp
 5115 2638 2546     		mov r5, r4
 5116 263a 2404     		lsls r4, r4, # 16
 5117 263c 240C     		lsrs r4, r4, # 16
 5118 263e 2D0C     		lsrs r5, r5, # 16
 5119 2640 6043     		muls r0, r0, r4
 5120 2642 6143     		muls r1, r1, r4
 5121 2644 6A43     		muls r2, r2, r5
 5122 2646 6B43     		muls r3, r3, r5
 5123 2648 8011     		asrs r0, r0, # 6
 5124 264a 8911     		asrs r1, r1, # 6
 5125 264c 9211     		asrs r2, r2, # 6
 5126 264e 9B11     		asrs r3, r3, # 6
 5127 2650 8018     		adds r0, r0, r2         @r
 5128 2652 C918     		adds r1, r1, r3         @i
 5129 2654 3618     		adds r6, r6, r0
 5130 2656 7F18     		adds r7, r7, r1
 5131              	
 5132 2658 DD46     		mov sp, r11
 5133 265a 0FBC     		pop {r0-r3}
 5134 265c EB46     		mov r11, sp
 5135 265e D546     		mov sp, r10
 5136 2660 10BC     		pop {r4}
 5137 2662 EA46     		mov r10, sp
 5138 2664 2546     		mov r5, r4
 5139 2666 2404     		lsls r4, r4, # 16
 5140 2668 240C     		lsrs r4, r4, # 16
 5141 266a 2D0C     		lsrs r5, r5, # 16
 5142 266c 6043     		muls r0, r0, r4
 5143 266e 6143     		muls r1, r1, r4
 5144 2670 6A43     		muls r2, r2, r5
 5145 2672 6B43     		muls r3, r3, r5
 5146 2674 8011     		asrs r0, r0, # 6
 5147 2676 8911     		asrs r1, r1, # 6
 5148 2678 9211     		asrs r2, r2, # 6
 5149 267a 9B11     		asrs r3, r3, # 6
 5150 267c 8018     		adds r0, r0, r2  @r
 5151 267e C918     		adds r1, r1, r3  @i
 5152 2680 3618     		adds r6, r6, r0
 5153 2682 7F18     		adds r7, r7, r1
 5154              	
 5155 2684 DD46     		mov sp, r11
 5156 2686 0FBC     		pop {r0-r3}
 5157 2688 EB46     		mov r11, sp
 5158 268a D546     		mov sp, r10
 5159 268c 10BC     		pop {r4}
 5160 268e EA46     		mov r10, sp
 5161 2690 2546     		mov r5, r4
 5162 2692 2404     		lsls r4, r4, # 16
 5163 2694 240C     		lsrs r4, r4, # 16
 5164 2696 2D0C     		lsrs r5, r5, # 16
 5165 2698 6043     		muls r0, r0, r4
ARM GAS  1.s 			page 92


 5166 269a 6143     		muls r1, r1, r4
 5167 269c 6A43     		muls r2, r2, r5
 5168 269e 6B43     		muls r3, r3, r5
 5169 26a0 8011     		asrs r0, r0, # 6
 5170 26a2 8911     		asrs r1, r1, # 6
 5171 26a4 9211     		asrs r2, r2, # 6
 5172 26a6 9B11     		asrs r3, r3, # 6
 5173 26a8 8018     		adds r0, r0, r2         @r
 5174 26aa C918     		adds r1, r1, r3         @i
 5175 26ac 3618     		adds r6, r6, r0
 5176 26ae 7F18     		adds r7, r7, r1
 5177              	
 5178              		@yjm4
 5179              		@0
 5180 26b0 DD46     		mov sp, r11
 5181 26b2 0FBC     		pop {r0-r3}
 5182 26b4 EB46     		mov r11, sp
 5183 26b6 D546     		mov sp, r10
 5184 26b8 10BC     		pop {r4}
 5185 26ba EA46     		mov r10, sp
 5186 26bc 2546     		mov r5, r4
 5187 26be 2404     		lsls r4, r4, # 16
 5188 26c0 240C     		lsrs r4, r4, # 16
 5189 26c2 2D0C     		lsrs r5, r5, # 16
 5190 26c4 6043     		muls r0, r0, r4		@R
 5191 26c6 6143     		muls r1, r1, r4		@I
 5192 26c8 6A43     		muls r2, r2, r5		@R
 5193 26ca 6B43     		muls r3, r3, r5		@I
 5194 26cc 8011     		asrs r0, r0, # 6
 5195 26ce 8911     		asrs r1, r1, # 6
 5196 26d0 9211     		asrs r2, r2, # 6
 5197 26d2 9B11     		asrs r3, r3, # 6
 5198 26d4 8018     		adds r0, r0, r2	 @r
 5199 26d6 C918     		adds r1, r1, r3	 @i
 5200 26d8 3618     		adds r6, r6, r0
 5201 26da 7F18     		adds r7, r7, r1
 5202              	
 5203 26dc DD46     		mov sp, r11
 5204 26de 0FBC     		pop {r0-r3}
 5205 26e0 EB46     		mov r11, sp
 5206 26e2 D546     		mov sp, r10
 5207 26e4 10BC     		pop {r4}
 5208 26e6 EA46     		mov r10, sp
 5209 26e8 2546     		mov r5, r4
 5210 26ea 2404     		lsls r4, r4, # 16
 5211 26ec 240C     		lsrs r4, r4, # 16
 5212 26ee 2D0C     		lsrs r5, r5, # 16
 5213 26f0 6043     		muls r0, r0, r4
 5214 26f2 6143     		muls r1, r1, r4
 5215 26f4 6A43     		muls r2, r2, r5
 5216 26f6 6B43     		muls r3, r3, r5
 5217 26f8 8011     		asrs r0, r0, # 6
 5218 26fa 8911     		asrs r1, r1, # 6
 5219 26fc 9211     		asrs r2, r2, # 6
 5220 26fe 9B11     		asrs r3, r3, # 6
 5221 2700 8018     		adds r0, r0, r2         @r
 5222 2702 C918     		adds r1, r1, r3         @i
ARM GAS  1.s 			page 93


 5223 2704 3618     		adds r6, r6, r0
 5224 2706 7F18     		adds r7, r7, r1
 5225              	
 5226 2708 DD46     		mov sp, r11
 5227 270a 0FBC     		pop {r0-r3}
 5228 270c EB46     		mov r11, sp
 5229 270e D546     		mov sp, r10
 5230 2710 10BC     		pop {r4}
 5231 2712 EA46     		mov r10, sp
 5232 2714 2546     		mov r5, r4
 5233 2716 2404     		lsls r4, r4, # 16
 5234 2718 240C     		lsrs r4, r4, # 16
 5235 271a 2D0C     		lsrs r5, r5, # 16
 5236 271c 6043     		muls r0, r0, r4
 5237 271e 6143     		muls r1, r1, r4
 5238 2720 6A43     		muls r2, r2, r5
 5239 2722 6B43     		muls r3, r3, r5
 5240 2724 8011     		asrs r0, r0, # 6
 5241 2726 8911     		asrs r1, r1, # 6
 5242 2728 9211     		asrs r2, r2, # 6
 5243 272a 9B11     		asrs r3, r3, # 6
 5244 272c 8018     		adds r0, r0, r2  @r
 5245 272e C918     		adds r1, r1, r3  @i
 5246 2730 3618     		adds r6, r6, r0
 5247 2732 7F18     		adds r7, r7, r1
 5248              	
 5249 2734 DD46     		mov sp, r11
 5250 2736 0FBC     		pop {r0-r3}
 5251 2738 EB46     		mov r11, sp
 5252 273a D546     		mov sp, r10
 5253 273c 10BC     		pop {r4}
 5254 273e EA46     		mov r10, sp
 5255 2740 2546     		mov r5, r4
 5256 2742 2404     		lsls r4, r4, # 16
 5257 2744 240C     		lsrs r4, r4, # 16
 5258 2746 2D0C     		lsrs r5, r5, # 16
 5259 2748 6043     		muls r0, r0, r4
 5260 274a 6143     		muls r1, r1, r4
 5261 274c 6A43     		muls r2, r2, r5
 5262 274e 6B43     		muls r3, r3, r5
 5263 2750 8011     		asrs r0, r0, # 6
 5264 2752 8911     		asrs r1, r1, # 6
 5265 2754 9211     		asrs r2, r2, # 6
 5266 2756 9B11     		asrs r3, r3, # 6
 5267 2758 8018     		adds r0, r0, r2         @r
 5268 275a C918     		adds r1, r1, r3         @i
 5269 275c 3618     		adds r6, r6, r0
 5270 275e 7F18     		adds r7, r7, r1
 5271              	
 5272              		@1
 5273 2760 DD46     		mov sp, r11
 5274 2762 0FBC     		pop {r0-r3}
 5275 2764 EB46     		mov r11, sp
 5276 2766 D546     		mov sp, r10
 5277 2768 10BC     		pop {r4}
 5278 276a EA46     		mov r10, sp
 5279 276c 2546     		mov r5, r4
ARM GAS  1.s 			page 94


 5280 276e 2404     		lsls r4, r4, # 16
 5281 2770 240C     		lsrs r4, r4, # 16
 5282 2772 2D0C     		lsrs r5, r5, # 16
 5283 2774 6043     		muls r0, r0, r4		@R
 5284 2776 6143     		muls r1, r1, r4		@I
 5285 2778 6A43     		muls r2, r2, r5		@R
 5286 277a 6B43     		muls r3, r3, r5		@I
 5287 277c 8011     		asrs r0, r0, # 6
 5288 277e 8911     		asrs r1, r1, # 6
 5289 2780 9211     		asrs r2, r2, # 6
 5290 2782 9B11     		asrs r3, r3, # 6
 5291 2784 8018     		adds r0, r0, r2	 @r
 5292 2786 C918     		adds r1, r1, r3	 @i
 5293 2788 3618     		adds r6, r6, r0
 5294 278a 7F18     		adds r7, r7, r1
 5295              	
 5296 278c DD46     		mov sp, r11
 5297 278e 0FBC     		pop {r0-r3}
 5298 2790 EB46     		mov r11, sp
 5299 2792 D546     		mov sp, r10
 5300 2794 10BC     		pop {r4}
 5301 2796 EA46     		mov r10, sp
 5302 2798 2546     		mov r5, r4
 5303 279a 2404     		lsls r4, r4, # 16
 5304 279c 240C     		lsrs r4, r4, # 16
 5305 279e 2D0C     		lsrs r5, r5, # 16
 5306 27a0 6043     		muls r0, r0, r4
 5307 27a2 6143     		muls r1, r1, r4
 5308 27a4 6A43     		muls r2, r2, r5
 5309 27a6 6B43     		muls r3, r3, r5
 5310 27a8 8011     		asrs r0, r0, # 6
 5311 27aa 8911     		asrs r1, r1, # 6
 5312 27ac 9211     		asrs r2, r2, # 6
 5313 27ae 9B11     		asrs r3, r3, # 6
 5314 27b0 8018     		adds r0, r0, r2         @r
 5315 27b2 C918     		adds r1, r1, r3         @i
 5316 27b4 3618     		adds r6, r6, r0
 5317 27b6 7F18     		adds r7, r7, r1
 5318              	
 5319 27b8 DD46     		mov sp, r11
 5320 27ba 0FBC     		pop {r0-r3}
 5321 27bc EB46     		mov r11, sp
 5322 27be D546     		mov sp, r10
 5323 27c0 10BC     		pop {r4}
 5324 27c2 EA46     		mov r10, sp
 5325 27c4 2546     		mov r5, r4
 5326 27c6 2404     		lsls r4, r4, # 16
 5327 27c8 240C     		lsrs r4, r4, # 16
 5328 27ca 2D0C     		lsrs r5, r5, # 16
 5329 27cc 6043     		muls r0, r0, r4
 5330 27ce 6143     		muls r1, r1, r4
 5331 27d0 6A43     		muls r2, r2, r5
 5332 27d2 6B43     		muls r3, r3, r5
 5333 27d4 8011     		asrs r0, r0, # 6
 5334 27d6 8911     		asrs r1, r1, # 6
 5335 27d8 9211     		asrs r2, r2, # 6
 5336 27da 9B11     		asrs r3, r3, # 6
ARM GAS  1.s 			page 95


 5337 27dc 8018     		adds r0, r0, r2  @r
 5338 27de C918     		adds r1, r1, r3  @i
 5339 27e0 3618     		adds r6, r6, r0
 5340 27e2 7F18     		adds r7, r7, r1
 5341              	
 5342 27e4 DD46     		mov sp, r11
 5343 27e6 0FBC     		pop {r0-r3}
 5344 27e8 EB46     		mov r11, sp
 5345 27ea D546     		mov sp, r10
 5346 27ec 10BC     		pop {r4}
 5347 27ee EA46     		mov r10, sp
 5348 27f0 2546     		mov r5, r4
 5349 27f2 2404     		lsls r4, r4, # 16
 5350 27f4 240C     		lsrs r4, r4, # 16
 5351 27f6 2D0C     		lsrs r5, r5, # 16
 5352 27f8 6043     		muls r0, r0, r4
 5353 27fa 6143     		muls r1, r1, r4
 5354 27fc 6A43     		muls r2, r2, r5
 5355 27fe 6B43     		muls r3, r3, r5
 5356 2800 8011     		asrs r0, r0, # 6
 5357 2802 8911     		asrs r1, r1, # 6
 5358 2804 9211     		asrs r2, r2, # 6
 5359 2806 9B11     		asrs r3, r3, # 6
 5360 2808 8018     		adds r0, r0, r2         @r
 5361 280a C918     		adds r1, r1, r3         @i
 5362 280c 3618     		adds r6, r6, r0
 5363 280e 7F18     		adds r7, r7, r1
 5364              	
 5365              		@2
 5366 2810 DD46     		mov sp, r11
 5367 2812 0FBC     		pop {r0-r3}
 5368 2814 EB46     		mov r11, sp
 5369 2816 D546     		mov sp, r10
 5370 2818 10BC     		pop {r4}
 5371 281a EA46     		mov r10, sp
 5372 281c 2546     		mov r5, r4
 5373 281e 2404     		lsls r4, r4, # 16
 5374 2820 240C     		lsrs r4, r4, # 16
 5375 2822 2D0C     		lsrs r5, r5, # 16
 5376 2824 6043     		muls r0, r0, r4		@R
 5377 2826 6143     		muls r1, r1, r4		@I
 5378 2828 6A43     		muls r2, r2, r5		@R
 5379 282a 6B43     		muls r3, r3, r5		@I
 5380 282c 8011     		asrs r0, r0, # 6
 5381 282e 8911     		asrs r1, r1, # 6
 5382 2830 9211     		asrs r2, r2, # 6
 5383 2832 9B11     		asrs r3, r3, # 6
 5384 2834 8018     		adds r0, r0, r2	 @r
 5385 2836 C918     		adds r1, r1, r3	 @i
 5386 2838 3618     		adds r6, r6, r0
 5387 283a 7F18     		adds r7, r7, r1
 5388              	
 5389 283c DD46     		mov sp, r11
 5390 283e 0FBC     		pop {r0-r3}
 5391 2840 EB46     		mov r11, sp
 5392 2842 D546     		mov sp, r10
 5393 2844 10BC     		pop {r4}
ARM GAS  1.s 			page 96


 5394 2846 EA46     		mov r10, sp
 5395 2848 2546     		mov r5, r4
 5396 284a 2404     		lsls r4, r4, # 16
 5397 284c 240C     		lsrs r4, r4, # 16
 5398 284e 2D0C     		lsrs r5, r5, # 16
 5399 2850 6043     		muls r0, r0, r4
 5400 2852 6143     		muls r1, r1, r4
 5401 2854 6A43     		muls r2, r2, r5
 5402 2856 6B43     		muls r3, r3, r5
 5403 2858 8011     		asrs r0, r0, # 6
 5404 285a 8911     		asrs r1, r1, # 6
 5405 285c 9211     		asrs r2, r2, # 6
 5406 285e 9B11     		asrs r3, r3, # 6
 5407 2860 8018     		adds r0, r0, r2         @r
 5408 2862 C918     		adds r1, r1, r3         @i
 5409 2864 3618     		adds r6, r6, r0
 5410 2866 7F18     		adds r7, r7, r1
 5411              	
 5412 2868 DD46     		mov sp, r11
 5413 286a 0FBC     		pop {r0-r3}
 5414 286c EB46     		mov r11, sp
 5415 286e D546     		mov sp, r10
 5416 2870 10BC     		pop {r4}
 5417 2872 EA46     		mov r10, sp
 5418 2874 2546     		mov r5, r4
 5419 2876 2404     		lsls r4, r4, # 16
 5420 2878 240C     		lsrs r4, r4, # 16
 5421 287a 2D0C     		lsrs r5, r5, # 16
 5422 287c 6043     		muls r0, r0, r4
 5423 287e 6143     		muls r1, r1, r4
 5424 2880 6A43     		muls r2, r2, r5
 5425 2882 6B43     		muls r3, r3, r5
 5426 2884 8011     		asrs r0, r0, # 6
 5427 2886 8911     		asrs r1, r1, # 6
 5428 2888 9211     		asrs r2, r2, # 6
 5429 288a 9B11     		asrs r3, r3, # 6
 5430 288c 8018     		adds r0, r0, r2  @r
 5431 288e C918     		adds r1, r1, r3  @i
 5432 2890 3618     		adds r6, r6, r0
 5433 2892 7F18     		adds r7, r7, r1
 5434              	
 5435 2894 DD46     		mov sp, r11
 5436 2896 0FBC     		pop {r0-r3}
 5437 2898 EB46     		mov r11, sp
 5438 289a D546     		mov sp, r10
 5439 289c 10BC     		pop {r4}
 5440 289e EA46     		mov r10, sp
 5441 28a0 2546     		mov r5, r4
 5442 28a2 2404     		lsls r4, r4, # 16
 5443 28a4 240C     		lsrs r4, r4, # 16
 5444 28a6 2D0C     		lsrs r5, r5, # 16
 5445 28a8 6043     		muls r0, r0, r4
 5446 28aa 6143     		muls r1, r1, r4
 5447 28ac 6A43     		muls r2, r2, r5
 5448 28ae 6B43     		muls r3, r3, r5
 5449 28b0 8011     		asrs r0, r0, # 6
 5450 28b2 8911     		asrs r1, r1, # 6
ARM GAS  1.s 			page 97


 5451 28b4 9211     		asrs r2, r2, # 6
 5452 28b6 9B11     		asrs r3, r3, # 6
 5453 28b8 8018     		adds r0, r0, r2         @r
 5454 28ba C918     		adds r1, r1, r3         @i
 5455 28bc 3618     		adds r6, r6, r0
 5456 28be 7F18     		adds r7, r7, r1
 5457              	
 5458              		@3
 5459 28c0 DD46     		mov sp, r11
 5460 28c2 0FBC     		pop {r0-r3}
 5461 28c4 EB46     		mov r11, sp
 5462 28c6 D546     		mov sp, r10
 5463 28c8 10BC     		pop {r4}
 5464 28ca EA46     		mov r10, sp
 5465 28cc 2546     		mov r5, r4
 5466 28ce 2404     		lsls r4, r4, # 16
 5467 28d0 240C     		lsrs r4, r4, # 16
 5468 28d2 2D0C     		lsrs r5, r5, # 16
 5469 28d4 6043     		muls r0, r0, r4		@R
 5470 28d6 6143     		muls r1, r1, r4		@I
 5471 28d8 6A43     		muls r2, r2, r5		@R
 5472 28da 6B43     		muls r3, r3, r5		@I
 5473 28dc 8011     		asrs r0, r0, # 6
 5474 28de 8911     		asrs r1, r1, # 6
 5475 28e0 9211     		asrs r2, r2, # 6
 5476 28e2 9B11     		asrs r3, r3, # 6
 5477 28e4 8018     		adds r0, r0, r2	 @r
 5478 28e6 C918     		adds r1, r1, r3	 @i
 5479 28e8 3618     		adds r6, r6, r0
 5480 28ea 7F18     		adds r7, r7, r1
 5481              	
 5482 28ec DD46     		mov sp, r11
 5483 28ee 0FBC     		pop {r0-r3}
 5484 28f0 EB46     		mov r11, sp
 5485 28f2 D546     		mov sp, r10
 5486 28f4 10BC     		pop {r4}
 5487 28f6 EA46     		mov r10, sp
 5488 28f8 2546     		mov r5, r4
 5489 28fa 2404     		lsls r4, r4, # 16
 5490 28fc 240C     		lsrs r4, r4, # 16
 5491 28fe 2D0C     		lsrs r5, r5, # 16
 5492 2900 6043     		muls r0, r0, r4
 5493 2902 6143     		muls r1, r1, r4
 5494 2904 6A43     		muls r2, r2, r5
 5495 2906 6B43     		muls r3, r3, r5
 5496 2908 8011     		asrs r0, r0, # 6
 5497 290a 8911     		asrs r1, r1, # 6
 5498 290c 9211     		asrs r2, r2, # 6
 5499 290e 9B11     		asrs r3, r3, # 6
 5500 2910 8018     		adds r0, r0, r2         @r
 5501 2912 C918     		adds r1, r1, r3         @i
 5502 2914 3618     		adds r6, r6, r0
 5503 2916 7F18     		adds r7, r7, r1
 5504              	
 5505 2918 DD46     		mov sp, r11
 5506 291a 0FBC     		pop {r0-r3}
 5507 291c EB46     		mov r11, sp
ARM GAS  1.s 			page 98


 5508 291e D546     		mov sp, r10
 5509 2920 10BC     		pop {r4}
 5510 2922 EA46     		mov r10, sp
 5511 2924 2546     		mov r5, r4
 5512 2926 2404     		lsls r4, r4, # 16
 5513 2928 240C     		lsrs r4, r4, # 16
 5514 292a 2D0C     		lsrs r5, r5, # 16
 5515 292c 6043     		muls r0, r0, r4
 5516 292e 6143     		muls r1, r1, r4
 5517 2930 6A43     		muls r2, r2, r5
 5518 2932 6B43     		muls r3, r3, r5
 5519 2934 8011     		asrs r0, r0, # 6
 5520 2936 8911     		asrs r1, r1, # 6
 5521 2938 9211     		asrs r2, r2, # 6
 5522 293a 9B11     		asrs r3, r3, # 6
 5523 293c 8018     		adds r0, r0, r2  @r
 5524 293e C918     		adds r1, r1, r3  @i
 5525 2940 3618     		adds r6, r6, r0
 5526 2942 7F18     		adds r7, r7, r1
 5527              	
 5528 2944 DD46     		mov sp, r11
 5529 2946 0FBC     		pop {r0-r3}
 5530 2948 EB46     		mov r11, sp
 5531 294a D546     		mov sp, r10
 5532 294c 10BC     		pop {r4}
 5533 294e EA46     		mov r10, sp
 5534 2950 2546     		mov r5, r4
 5535 2952 2404     		lsls r4, r4, # 16
 5536 2954 240C     		lsrs r4, r4, # 16
 5537 2956 2D0C     		lsrs r5, r5, # 16
 5538 2958 6043     		muls r0, r0, r4
 5539 295a 6143     		muls r1, r1, r4
 5540 295c 6A43     		muls r2, r2, r5
 5541 295e 6B43     		muls r3, r3, r5
 5542 2960 8011     		asrs r0, r0, # 6
 5543 2962 8911     		asrs r1, r1, # 6
 5544 2964 9211     		asrs r2, r2, # 6
 5545 2966 9B11     		asrs r3, r3, # 6
 5546 2968 8018     		adds r0, r0, r2         @r
 5547 296a C918     		adds r1, r1, r3         @i
 5548 296c 3618     		adds r6, r6, r0
 5549 296e 7F18     		adds r7, r7, r1
 5550              	
 5551              		@4
 5552 2970 DD46     		mov sp, r11
 5553 2972 0FBC     		pop {r0-r3}
 5554 2974 EB46     		mov r11, sp
 5555 2976 D546     		mov sp, r10
 5556 2978 10BC     		pop {r4}
 5557 297a EA46     		mov r10, sp
 5558 297c 2546     		mov r5, r4
 5559 297e 2404     		lsls r4, r4, # 16
 5560 2980 240C     		lsrs r4, r4, # 16
 5561 2982 2D0C     		lsrs r5, r5, # 16
 5562 2984 6043     		muls r0, r0, r4		@R
 5563 2986 6143     		muls r1, r1, r4		@I
 5564 2988 6A43     		muls r2, r2, r5		@R
ARM GAS  1.s 			page 99


 5565 298a 6B43     		muls r3, r3, r5		@I
 5566 298c 8011     		asrs r0, r0, # 6
 5567 298e 8911     		asrs r1, r1, # 6
 5568 2990 9211     		asrs r2, r2, # 6
 5569 2992 9B11     		asrs r3, r3, # 6
 5570 2994 8018     		adds r0, r0, r2	 @r
 5571 2996 C918     		adds r1, r1, r3	 @i
 5572 2998 3618     		adds r6, r6, r0
 5573 299a 7F18     		adds r7, r7, r1
 5574              	
 5575 299c DD46     		mov sp, r11
 5576 299e 0FBC     		pop {r0-r3}
 5577 29a0 EB46     		mov r11, sp
 5578 29a2 D546     		mov sp, r10
 5579 29a4 10BC     		pop {r4}
 5580 29a6 EA46     		mov r10, sp
 5581 29a8 2546     		mov r5, r4
 5582 29aa 2404     		lsls r4, r4, # 16
 5583 29ac 240C     		lsrs r4, r4, # 16
 5584 29ae 2D0C     		lsrs r5, r5, # 16
 5585 29b0 6043     		muls r0, r0, r4
 5586 29b2 6143     		muls r1, r1, r4
 5587 29b4 6A43     		muls r2, r2, r5
 5588 29b6 6B43     		muls r3, r3, r5
 5589 29b8 8011     		asrs r0, r0, # 6
 5590 29ba 8911     		asrs r1, r1, # 6
 5591 29bc 9211     		asrs r2, r2, # 6
 5592 29be 9B11     		asrs r3, r3, # 6
 5593 29c0 8018     		adds r0, r0, r2         @r
 5594 29c2 C918     		adds r1, r1, r3         @i
 5595 29c4 3618     		adds r6, r6, r0
 5596 29c6 7F18     		adds r7, r7, r1
 5597              	
 5598 29c8 DD46     		mov sp, r11
 5599 29ca 0FBC     		pop {r0-r3}
 5600 29cc EB46     		mov r11, sp
 5601 29ce D546     		mov sp, r10
 5602 29d0 10BC     		pop {r4}
 5603 29d2 EA46     		mov r10, sp
 5604 29d4 2546     		mov r5, r4
 5605 29d6 2404     		lsls r4, r4, # 16
 5606 29d8 240C     		lsrs r4, r4, # 16
 5607 29da 2D0C     		lsrs r5, r5, # 16
 5608 29dc 6043     		muls r0, r0, r4
 5609 29de 6143     		muls r1, r1, r4
 5610 29e0 6A43     		muls r2, r2, r5
 5611 29e2 6B43     		muls r3, r3, r5
 5612 29e4 8011     		asrs r0, r0, # 6
 5613 29e6 8911     		asrs r1, r1, # 6
 5614 29e8 9211     		asrs r2, r2, # 6
 5615 29ea 9B11     		asrs r3, r3, # 6
 5616 29ec 8018     		adds r0, r0, r2  @r
 5617 29ee C918     		adds r1, r1, r3  @i
 5618 29f0 3618     		adds r6, r6, r0
 5619 29f2 7F18     		adds r7, r7, r1
 5620              	
 5621 29f4 DD46     		mov sp, r11
ARM GAS  1.s 			page 100


 5622 29f6 0FBC     		pop {r0-r3}
 5623 29f8 EB46     		mov r11, sp
 5624 29fa D546     		mov sp, r10
 5625 29fc 10BC     		pop {r4}
 5626 29fe EA46     		mov r10, sp
 5627 2a00 2546     		mov r5, r4
 5628 2a02 2404     		lsls r4, r4, # 16
 5629 2a04 240C     		lsrs r4, r4, # 16
 5630 2a06 2D0C     		lsrs r5, r5, # 16
 5631 2a08 6043     		muls r0, r0, r4
 5632 2a0a 6143     		muls r1, r1, r4
 5633 2a0c 6A43     		muls r2, r2, r5
 5634 2a0e 6B43     		muls r3, r3, r5
 5635 2a10 8011     		asrs r0, r0, # 6
 5636 2a12 8911     		asrs r1, r1, # 6
 5637 2a14 9211     		asrs r2, r2, # 6
 5638 2a16 9B11     		asrs r3, r3, # 6
 5639 2a18 8018     		adds r0, r0, r2         @r
 5640 2a1a C918     		adds r1, r1, r3         @i
 5641 2a1c 3618     		adds r6, r6, r0
 5642 2a1e 7F18     		adds r7, r7, r1
 5643              	
 5644              		@5
 5645 2a20 DD46     		mov sp, r11
 5646 2a22 0FBC     		pop {r0-r3}
 5647 2a24 EB46     		mov r11, sp
 5648 2a26 D546     		mov sp, r10
 5649 2a28 10BC     		pop {r4}
 5650 2a2a EA46     		mov r10, sp
 5651 2a2c 2546     		mov r5, r4
 5652 2a2e 2404     		lsls r4, r4, # 16
 5653 2a30 240C     		lsrs r4, r4, # 16
 5654 2a32 2D0C     		lsrs r5, r5, # 16
 5655 2a34 6043     		muls r0, r0, r4		@R
 5656 2a36 6143     		muls r1, r1, r4		@I
 5657 2a38 6A43     		muls r2, r2, r5		@R
 5658 2a3a 6B43     		muls r3, r3, r5		@I
 5659 2a3c 8011     		asrs r0, r0, # 6
 5660 2a3e 8911     		asrs r1, r1, # 6
 5661 2a40 9211     		asrs r2, r2, # 6
 5662 2a42 9B11     		asrs r3, r3, # 6
 5663 2a44 8018     		adds r0, r0, r2	 @r
 5664 2a46 C918     		adds r1, r1, r3	 @i
 5665 2a48 3618     		adds r6, r6, r0
 5666 2a4a 7F18     		adds r7, r7, r1
 5667              	
 5668 2a4c DD46     		mov sp, r11
 5669 2a4e 0FBC     		pop {r0-r3}
 5670 2a50 EB46     		mov r11, sp
 5671 2a52 D546     		mov sp, r10
 5672 2a54 10BC     		pop {r4}
 5673 2a56 EA46     		mov r10, sp
 5674 2a58 2546     		mov r5, r4
 5675 2a5a 2404     		lsls r4, r4, # 16
 5676 2a5c 240C     		lsrs r4, r4, # 16
 5677 2a5e 2D0C     		lsrs r5, r5, # 16
 5678 2a60 6043     		muls r0, r0, r4
ARM GAS  1.s 			page 101


 5679 2a62 6143     		muls r1, r1, r4
 5680 2a64 6A43     		muls r2, r2, r5
 5681 2a66 6B43     		muls r3, r3, r5
 5682 2a68 8011     		asrs r0, r0, # 6
 5683 2a6a 8911     		asrs r1, r1, # 6
 5684 2a6c 9211     		asrs r2, r2, # 6
 5685 2a6e 9B11     		asrs r3, r3, # 6
 5686 2a70 8018     		adds r0, r0, r2         @r
 5687 2a72 C918     		adds r1, r1, r3         @i
 5688 2a74 3618     		adds r6, r6, r0
 5689 2a76 7F18     		adds r7, r7, r1
 5690              	
 5691 2a78 DD46     		mov sp, r11
 5692 2a7a 0FBC     		pop {r0-r3}
 5693 2a7c EB46     		mov r11, sp
 5694 2a7e D546     		mov sp, r10
 5695 2a80 10BC     		pop {r4}
 5696 2a82 EA46     		mov r10, sp
 5697 2a84 2546     		mov r5, r4
 5698 2a86 2404     		lsls r4, r4, # 16
 5699 2a88 240C     		lsrs r4, r4, # 16
 5700 2a8a 2D0C     		lsrs r5, r5, # 16
 5701 2a8c 6043     		muls r0, r0, r4
 5702 2a8e 6143     		muls r1, r1, r4
 5703 2a90 6A43     		muls r2, r2, r5
 5704 2a92 6B43     		muls r3, r3, r5
 5705 2a94 8011     		asrs r0, r0, # 6
 5706 2a96 8911     		asrs r1, r1, # 6
 5707 2a98 9211     		asrs r2, r2, # 6
 5708 2a9a 9B11     		asrs r3, r3, # 6
 5709 2a9c 8018     		adds r0, r0, r2  @r
 5710 2a9e C918     		adds r1, r1, r3  @i
 5711 2aa0 3618     		adds r6, r6, r0
 5712 2aa2 7F18     		adds r7, r7, r1
 5713              	
 5714 2aa4 DD46     		mov sp, r11
 5715 2aa6 0FBC     		pop {r0-r3}
 5716 2aa8 EB46     		mov r11, sp
 5717 2aaa D546     		mov sp, r10
 5718 2aac 10BC     		pop {r4}
 5719 2aae EA46     		mov r10, sp
 5720 2ab0 2546     		mov r5, r4
 5721 2ab2 2404     		lsls r4, r4, # 16
 5722 2ab4 240C     		lsrs r4, r4, # 16
 5723 2ab6 2D0C     		lsrs r5, r5, # 16
 5724 2ab8 6043     		muls r0, r0, r4
 5725 2aba 6143     		muls r1, r1, r4
 5726 2abc 6A43     		muls r2, r2, r5
 5727 2abe 6B43     		muls r3, r3, r5
 5728 2ac0 8011     		asrs r0, r0, # 6
 5729 2ac2 8911     		asrs r1, r1, # 6
 5730 2ac4 9211     		asrs r2, r2, # 6
 5731 2ac6 9B11     		asrs r3, r3, # 6
 5732 2ac8 8018     		adds r0, r0, r2         @r
 5733 2aca C918     		adds r1, r1, r3         @i
 5734 2acc 3618     		adds r6, r6, r0
 5735 2ace 7F18     		adds r7, r7, r1
ARM GAS  1.s 			page 102


 5736              	
 5737              		@6
 5738 2ad0 DD46     		mov sp, r11
 5739 2ad2 0FBC     		pop {r0-r3}
 5740 2ad4 EB46     		mov r11, sp
 5741 2ad6 D546     		mov sp, r10
 5742 2ad8 10BC     		pop {r4}
 5743 2ada EA46     		mov r10, sp
 5744 2adc 2546     		mov r5, r4
 5745 2ade 2404     		lsls r4, r4, # 16
 5746 2ae0 240C     		lsrs r4, r4, # 16
 5747 2ae2 2D0C     		lsrs r5, r5, # 16
 5748 2ae4 6043     		muls r0, r0, r4		@R
 5749 2ae6 6143     		muls r1, r1, r4		@I
 5750 2ae8 6A43     		muls r2, r2, r5		@R
 5751 2aea 6B43     		muls r3, r3, r5		@I
 5752 2aec 8011     		asrs r0, r0, # 6
 5753 2aee 8911     		asrs r1, r1, # 6
 5754 2af0 9211     		asrs r2, r2, # 6
 5755 2af2 9B11     		asrs r3, r3, # 6
 5756 2af4 8018     		adds r0, r0, r2	 @r
 5757 2af6 C918     		adds r1, r1, r3	 @i
 5758 2af8 3618     		adds r6, r6, r0
 5759 2afa 7F18     		adds r7, r7, r1
 5760              	
 5761 2afc DD46     		mov sp, r11
 5762 2afe 0FBC     		pop {r0-r3}
 5763 2b00 EB46     		mov r11, sp
 5764 2b02 D546     		mov sp, r10
 5765 2b04 10BC     		pop {r4}
 5766 2b06 EA46     		mov r10, sp
 5767 2b08 2546     		mov r5, r4
 5768 2b0a 2404     		lsls r4, r4, # 16
 5769 2b0c 240C     		lsrs r4, r4, # 16
 5770 2b0e 2D0C     		lsrs r5, r5, # 16
 5771 2b10 6043     		muls r0, r0, r4
 5772 2b12 6143     		muls r1, r1, r4
 5773 2b14 6A43     		muls r2, r2, r5
 5774 2b16 6B43     		muls r3, r3, r5
 5775 2b18 8011     		asrs r0, r0, # 6
 5776 2b1a 8911     		asrs r1, r1, # 6
 5777 2b1c 9211     		asrs r2, r2, # 6
 5778 2b1e 9B11     		asrs r3, r3, # 6
 5779 2b20 8018     		adds r0, r0, r2         @r
 5780 2b22 C918     		adds r1, r1, r3         @i
 5781 2b24 3618     		adds r6, r6, r0
 5782 2b26 7F18     		adds r7, r7, r1
 5783              	
 5784 2b28 DD46     		mov sp, r11
 5785 2b2a 0FBC     		pop {r0-r3}
 5786 2b2c EB46     		mov r11, sp
 5787 2b2e D546     		mov sp, r10
 5788 2b30 10BC     		pop {r4}
 5789 2b32 EA46     		mov r10, sp
 5790 2b34 2546     		mov r5, r4
 5791 2b36 2404     		lsls r4, r4, # 16
 5792 2b38 240C     		lsrs r4, r4, # 16
ARM GAS  1.s 			page 103


 5793 2b3a 2D0C     		lsrs r5, r5, # 16
 5794 2b3c 6043     		muls r0, r0, r4
 5795 2b3e 6143     		muls r1, r1, r4
 5796 2b40 6A43     		muls r2, r2, r5
 5797 2b42 6B43     		muls r3, r3, r5
 5798 2b44 8011     		asrs r0, r0, # 6
 5799 2b46 8911     		asrs r1, r1, # 6
 5800 2b48 9211     		asrs r2, r2, # 6
 5801 2b4a 9B11     		asrs r3, r3, # 6
 5802 2b4c 8018     		adds r0, r0, r2  @r
 5803 2b4e C918     		adds r1, r1, r3  @i
 5804 2b50 3618     		adds r6, r6, r0
 5805 2b52 7F18     		adds r7, r7, r1
 5806              	
 5807 2b54 DD46     		mov sp, r11
 5808 2b56 0FBC     		pop {r0-r3}
 5809 2b58 EB46     		mov r11, sp
 5810 2b5a D546     		mov sp, r10
 5811 2b5c 10BC     		pop {r4}
 5812 2b5e EA46     		mov r10, sp
 5813 2b60 2546     		mov r5, r4
 5814 2b62 2404     		lsls r4, r4, # 16
 5815 2b64 240C     		lsrs r4, r4, # 16
 5816 2b66 2D0C     		lsrs r5, r5, # 16
 5817 2b68 6043     		muls r0, r0, r4
 5818 2b6a 6143     		muls r1, r1, r4
 5819 2b6c 6A43     		muls r2, r2, r5
 5820 2b6e 6B43     		muls r3, r3, r5
 5821 2b70 8011     		asrs r0, r0, # 6
 5822 2b72 8911     		asrs r1, r1, # 6
 5823 2b74 9211     		asrs r2, r2, # 6
 5824 2b76 9B11     		asrs r3, r3, # 6
 5825 2b78 8018     		adds r0, r0, r2         @r
 5826 2b7a C918     		adds r1, r1, r3         @i
 5827 2b7c 3618     		adds r6, r6, r0
 5828 2b7e 7F18     		adds r7, r7, r1
 5829              	
 5830              		@7
 5831 2b80 DD46     		mov sp, r11
 5832 2b82 0FBC     		pop {r0-r3}
 5833 2b84 EB46     		mov r11, sp
 5834 2b86 D546     		mov sp, r10
 5835 2b88 10BC     		pop {r4}
 5836 2b8a EA46     		mov r10, sp
 5837 2b8c 2546     		mov r5, r4
 5838 2b8e 2404     		lsls r4, r4, # 16
 5839 2b90 240C     		lsrs r4, r4, # 16
 5840 2b92 2D0C     		lsrs r5, r5, # 16
 5841 2b94 6043     		muls r0, r0, r4		@R
 5842 2b96 6143     		muls r1, r1, r4		@I
 5843 2b98 6A43     		muls r2, r2, r5		@R
 5844 2b9a 6B43     		muls r3, r3, r5		@I
 5845 2b9c 8011     		asrs r0, r0, # 6
 5846 2b9e 8911     		asrs r1, r1, # 6
 5847 2ba0 9211     		asrs r2, r2, # 6
 5848 2ba2 9B11     		asrs r3, r3, # 6
 5849 2ba4 8018     		adds r0, r0, r2	 @r
ARM GAS  1.s 			page 104


 5850 2ba6 C918     		adds r1, r1, r3	 @i
 5851 2ba8 3618     		adds r6, r6, r0
 5852 2baa 7F18     		adds r7, r7, r1
 5853              	
 5854 2bac DD46     		mov sp, r11
 5855 2bae 0FBC     		pop {r0-r3}
 5856 2bb0 EB46     		mov r11, sp
 5857 2bb2 D546     		mov sp, r10
 5858 2bb4 10BC     		pop {r4}
 5859 2bb6 EA46     		mov r10, sp
 5860 2bb8 2546     		mov r5, r4
 5861 2bba 2404     		lsls r4, r4, # 16
 5862 2bbc 240C     		lsrs r4, r4, # 16
 5863 2bbe 2D0C     		lsrs r5, r5, # 16
 5864 2bc0 6043     		muls r0, r0, r4
 5865 2bc2 6143     		muls r1, r1, r4
 5866 2bc4 6A43     		muls r2, r2, r5
 5867 2bc6 6B43     		muls r3, r3, r5
 5868 2bc8 8011     		asrs r0, r0, # 6
 5869 2bca 8911     		asrs r1, r1, # 6
 5870 2bcc 9211     		asrs r2, r2, # 6
 5871 2bce 9B11     		asrs r3, r3, # 6
 5872 2bd0 8018     		adds r0, r0, r2         @r
 5873 2bd2 C918     		adds r1, r1, r3         @i
 5874 2bd4 3618     		adds r6, r6, r0
 5875 2bd6 7F18     		adds r7, r7, r1
 5876              	
 5877 2bd8 DD46     		mov sp, r11
 5878 2bda 0FBC     		pop {r0-r3}
 5879 2bdc EB46     		mov r11, sp
 5880 2bde D546     		mov sp, r10
 5881 2be0 10BC     		pop {r4}
 5882 2be2 EA46     		mov r10, sp
 5883 2be4 2546     		mov r5, r4
 5884 2be6 2404     		lsls r4, r4, # 16
 5885 2be8 240C     		lsrs r4, r4, # 16
 5886 2bea 2D0C     		lsrs r5, r5, # 16
 5887 2bec 6043     		muls r0, r0, r4
 5888 2bee 6143     		muls r1, r1, r4
 5889 2bf0 6A43     		muls r2, r2, r5
 5890 2bf2 6B43     		muls r3, r3, r5
 5891 2bf4 8011     		asrs r0, r0, # 6
 5892 2bf6 8911     		asrs r1, r1, # 6
 5893 2bf8 9211     		asrs r2, r2, # 6
 5894 2bfa 9B11     		asrs r3, r3, # 6
 5895 2bfc 8018     		adds r0, r0, r2  @r
 5896 2bfe C918     		adds r1, r1, r3  @i
 5897 2c00 3618     		adds r6, r6, r0
 5898 2c02 7F18     		adds r7, r7, r1
 5899              	
 5900 2c04 DD46     		mov sp, r11
 5901 2c06 0FBC     		pop {r0-r3}
 5902 2c08 EB46     		mov r11, sp
 5903 2c0a D546     		mov sp, r10
 5904 2c0c 10BC     		pop {r4}
 5905 2c0e EA46     		mov r10, sp
 5906 2c10 2546     		mov r5, r4
ARM GAS  1.s 			page 105


 5907 2c12 2404     		lsls r4, r4, # 16
 5908 2c14 240C     		lsrs r4, r4, # 16
 5909 2c16 2D0C     		lsrs r5, r5, # 16
 5910 2c18 6043     		muls r0, r0, r4
 5911 2c1a 6143     		muls r1, r1, r4
 5912 2c1c 6A43     		muls r2, r2, r5
 5913 2c1e 6B43     		muls r3, r3, r5
 5914 2c20 8011     		asrs r0, r0, # 6
 5915 2c22 8911     		asrs r1, r1, # 6
 5916 2c24 9211     		asrs r2, r2, # 6
 5917 2c26 9B11     		asrs r3, r3, # 6
 5918 2c28 8018     		adds r0, r0, r2         @r
 5919 2c2a C918     		adds r1, r1, r3         @i
 5920 2c2c 3618     		adds r6, r6, r0
 5921 2c2e 7F18     		adds r7, r7, r1
 5922              	
 5923              		@8
 5924 2c30 DD46     		mov sp, r11
 5925 2c32 0FBC     		pop {r0-r3}
 5926 2c34 EB46     		mov r11, sp
 5927 2c36 D546     		mov sp, r10
 5928 2c38 10BC     		pop {r4}
 5929 2c3a EA46     		mov r10, sp
 5930 2c3c 2546     		mov r5, r4
 5931 2c3e 2404     		lsls r4, r4, # 16
 5932 2c40 240C     		lsrs r4, r4, # 16
 5933 2c42 2D0C     		lsrs r5, r5, # 16
 5934 2c44 6043     		muls r0, r0, r4		@R
 5935 2c46 6143     		muls r1, r1, r4		@I
 5936 2c48 6A43     		muls r2, r2, r5		@R
 5937 2c4a 6B43     		muls r3, r3, r5		@I
 5938 2c4c 8011     		asrs r0, r0, # 6
 5939 2c4e 8911     		asrs r1, r1, # 6
 5940 2c50 9211     		asrs r2, r2, # 6
 5941 2c52 9B11     		asrs r3, r3, # 6
 5942 2c54 8018     		adds r0, r0, r2	 @r
 5943 2c56 C918     		adds r1, r1, r3	 @i
 5944 2c58 3618     		adds r6, r6, r0
 5945 2c5a 7F18     		adds r7, r7, r1
 5946              	
 5947 2c5c DD46     		mov sp, r11
 5948 2c5e 0FBC     		pop {r0-r3}
 5949 2c60 EB46     		mov r11, sp
 5950 2c62 D546     		mov sp, r10
 5951 2c64 10BC     		pop {r4}
 5952 2c66 EA46     		mov r10, sp
 5953 2c68 2546     		mov r5, r4
 5954 2c6a 2404     		lsls r4, r4, # 16
 5955 2c6c 240C     		lsrs r4, r4, # 16
 5956 2c6e 2D0C     		lsrs r5, r5, # 16
 5957 2c70 6043     		muls r0, r0, r4
 5958 2c72 6143     		muls r1, r1, r4
 5959 2c74 6A43     		muls r2, r2, r5
 5960 2c76 6B43     		muls r3, r3, r5
 5961 2c78 8011     		asrs r0, r0, # 6
 5962 2c7a 8911     		asrs r1, r1, # 6
 5963 2c7c 9211     		asrs r2, r2, # 6
ARM GAS  1.s 			page 106


 5964 2c7e 9B11     		asrs r3, r3, # 6
 5965 2c80 8018     		adds r0, r0, r2         @r
 5966 2c82 C918     		adds r1, r1, r3         @i
 5967 2c84 3618     		adds r6, r6, r0
 5968 2c86 7F18     		adds r7, r7, r1
 5969              	
 5970 2c88 DD46     		mov sp, r11
 5971 2c8a 0FBC     		pop {r0-r3}
 5972 2c8c EB46     		mov r11, sp
 5973 2c8e D546     		mov sp, r10
 5974 2c90 10BC     		pop {r4}
 5975 2c92 EA46     		mov r10, sp
 5976 2c94 2546     		mov r5, r4
 5977 2c96 2404     		lsls r4, r4, # 16
 5978 2c98 240C     		lsrs r4, r4, # 16
 5979 2c9a 2D0C     		lsrs r5, r5, # 16
 5980 2c9c 6043     		muls r0, r0, r4
 5981 2c9e 6143     		muls r1, r1, r4
 5982 2ca0 6A43     		muls r2, r2, r5
 5983 2ca2 6B43     		muls r3, r3, r5
 5984 2ca4 8011     		asrs r0, r0, # 6
 5985 2ca6 8911     		asrs r1, r1, # 6
 5986 2ca8 9211     		asrs r2, r2, # 6
 5987 2caa 9B11     		asrs r3, r3, # 6
 5988 2cac 8018     		adds r0, r0, r2  @r
 5989 2cae C918     		adds r1, r1, r3  @i
 5990 2cb0 3618     		adds r6, r6, r0
 5991 2cb2 7F18     		adds r7, r7, r1
 5992              	
 5993 2cb4 DD46     		mov sp, r11
 5994 2cb6 0FBC     		pop {r0-r3}
 5995 2cb8 EB46     		mov r11, sp
 5996 2cba D546     		mov sp, r10
 5997 2cbc 10BC     		pop {r4}
 5998 2cbe EA46     		mov r10, sp
 5999 2cc0 2546     		mov r5, r4
 6000 2cc2 2404     		lsls r4, r4, # 16
 6001 2cc4 240C     		lsrs r4, r4, # 16
 6002 2cc6 2D0C     		lsrs r5, r5, # 16
 6003 2cc8 6043     		muls r0, r0, r4
 6004 2cca 6143     		muls r1, r1, r4
 6005 2ccc 6A43     		muls r2, r2, r5
 6006 2cce 6B43     		muls r3, r3, r5
 6007 2cd0 8011     		asrs r0, r0, # 6
 6008 2cd2 8911     		asrs r1, r1, # 6
 6009 2cd4 9211     		asrs r2, r2, # 6
 6010 2cd6 9B11     		asrs r3, r3, # 6
 6011 2cd8 8018     		adds r0, r0, r2         @r
 6012 2cda C918     		adds r1, r1, r3         @i
 6013 2cdc 3618     		adds r6, r6, r0
 6014 2cde 7F18     		adds r7, r7, r1
 6015              	
 6016              		@9
 6017 2ce0 DD46     		mov sp, r11
 6018 2ce2 0FBC     		pop {r0-r3}
 6019 2ce4 EB46     		mov r11, sp
 6020 2ce6 D546     		mov sp, r10
ARM GAS  1.s 			page 107


 6021 2ce8 10BC     		pop {r4}
 6022 2cea EA46     		mov r10, sp
 6023 2cec 2546     		mov r5, r4
 6024 2cee 2404     		lsls r4, r4, # 16
 6025 2cf0 240C     		lsrs r4, r4, # 16
 6026 2cf2 2D0C     		lsrs r5, r5, # 16
 6027 2cf4 6043     		muls r0, r0, r4		@R
 6028 2cf6 6143     		muls r1, r1, r4		@I
 6029 2cf8 6A43     		muls r2, r2, r5		@R
 6030 2cfa 6B43     		muls r3, r3, r5		@I
 6031 2cfc 8011     		asrs r0, r0, # 6
 6032 2cfe 8911     		asrs r1, r1, # 6
 6033 2d00 9211     		asrs r2, r2, # 6
 6034 2d02 9B11     		asrs r3, r3, # 6
 6035 2d04 8018     		adds r0, r0, r2	 @r
 6036 2d06 C918     		adds r1, r1, r3	 @i
 6037 2d08 3618     		adds r6, r6, r0
 6038 2d0a 7F18     		adds r7, r7, r1
 6039              	
 6040 2d0c DD46     		mov sp, r11
 6041 2d0e 0FBC     		pop {r0-r3}
 6042 2d10 EB46     		mov r11, sp
 6043 2d12 D546     		mov sp, r10
 6044 2d14 10BC     		pop {r4}
 6045 2d16 EA46     		mov r10, sp
 6046 2d18 2546     		mov r5, r4
 6047 2d1a 2404     		lsls r4, r4, # 16
 6048 2d1c 240C     		lsrs r4, r4, # 16
 6049 2d1e 2D0C     		lsrs r5, r5, # 16
 6050 2d20 6043     		muls r0, r0, r4
 6051 2d22 6143     		muls r1, r1, r4
 6052 2d24 6A43     		muls r2, r2, r5
 6053 2d26 6B43     		muls r3, r3, r5
 6054 2d28 8011     		asrs r0, r0, # 6
 6055 2d2a 8911     		asrs r1, r1, # 6
 6056 2d2c 9211     		asrs r2, r2, # 6
 6057 2d2e 9B11     		asrs r3, r3, # 6
 6058 2d30 8018     		adds r0, r0, r2         @r
 6059 2d32 C918     		adds r1, r1, r3         @i
 6060 2d34 3618     		adds r6, r6, r0
 6061 2d36 7F18     		adds r7, r7, r1
 6062              	
 6063 2d38 DD46     		mov sp, r11
 6064 2d3a 0FBC     		pop {r0-r3}
 6065 2d3c EB46     		mov r11, sp
 6066 2d3e D546     		mov sp, r10
 6067 2d40 10BC     		pop {r4}
 6068 2d42 EA46     		mov r10, sp
 6069 2d44 2546     		mov r5, r4
 6070 2d46 2404     		lsls r4, r4, # 16
 6071 2d48 240C     		lsrs r4, r4, # 16
 6072 2d4a 2D0C     		lsrs r5, r5, # 16
 6073 2d4c 6043     		muls r0, r0, r4
 6074 2d4e 6143     		muls r1, r1, r4
 6075 2d50 6A43     		muls r2, r2, r5
 6076 2d52 6B43     		muls r3, r3, r5
 6077 2d54 8011     		asrs r0, r0, # 6
ARM GAS  1.s 			page 108


 6078 2d56 8911     		asrs r1, r1, # 6
 6079 2d58 9211     		asrs r2, r2, # 6
 6080 2d5a 9B11     		asrs r3, r3, # 6
 6081 2d5c 8018     		adds r0, r0, r2  @r
 6082 2d5e C918     		adds r1, r1, r3  @i
 6083 2d60 3618     		adds r6, r6, r0
 6084 2d62 7F18     		adds r7, r7, r1
 6085              	
 6086 2d64 DD46     		mov sp, r11
 6087 2d66 0FBC     		pop {r0-r3}
 6088 2d68 EB46     		mov r11, sp
 6089 2d6a D546     		mov sp, r10
 6090 2d6c 10BC     		pop {r4}
 6091 2d6e EA46     		mov r10, sp
 6092 2d70 2546     		mov r5, r4
 6093 2d72 2404     		lsls r4, r4, # 16
 6094 2d74 240C     		lsrs r4, r4, # 16
 6095 2d76 2D0C     		lsrs r5, r5, # 16
 6096 2d78 6043     		muls r0, r0, r4
 6097 2d7a 6143     		muls r1, r1, r4
 6098 2d7c 6A43     		muls r2, r2, r5
 6099 2d7e 6B43     		muls r3, r3, r5
 6100 2d80 8011     		asrs r0, r0, # 6
 6101 2d82 8911     		asrs r1, r1, # 6
 6102 2d84 9211     		asrs r2, r2, # 6
 6103 2d86 9B11     		asrs r3, r3, # 6
 6104 2d88 8018     		adds r0, r0, r2         @r
 6105 2d8a C918     		adds r1, r1, r3         @i
 6106 2d8c 3618     		adds r6, r6, r0
 6107 2d8e 7F18     		adds r7, r7, r1
 6108              	
 6109              		@yjm5
 6110              		@0
 6111 2d90 DD46     		mov sp, r11
 6112 2d92 0FBC     		pop {r0-r3}
 6113 2d94 EB46     		mov r11, sp
 6114 2d96 D546     		mov sp, r10
 6115 2d98 10BC     		pop {r4}
 6116 2d9a EA46     		mov r10, sp
 6117 2d9c 2546     		mov r5, r4
 6118 2d9e 2404     		lsls r4, r4, # 16
 6119 2da0 240C     		lsrs r4, r4, # 16
 6120 2da2 2D0C     		lsrs r5, r5, # 16
 6121 2da4 6043     		muls r0, r0, r4		@R
 6122 2da6 6143     		muls r1, r1, r4		@I
 6123 2da8 6A43     		muls r2, r2, r5		@R
 6124 2daa 6B43     		muls r3, r3, r5		@I
 6125 2dac 8011     		asrs r0, r0, # 6
 6126 2dae 8911     		asrs r1, r1, # 6
 6127 2db0 9211     		asrs r2, r2, # 6
 6128 2db2 9B11     		asrs r3, r3, # 6
 6129 2db4 8018     		adds r0, r0, r2	 @r
 6130 2db6 C918     		adds r1, r1, r3	 @i
 6131 2db8 3618     		adds r6, r6, r0
 6132 2dba 7F18     		adds r7, r7, r1
 6133              	
 6134 2dbc DD46     		mov sp, r11
ARM GAS  1.s 			page 109


 6135 2dbe 0FBC     		pop {r0-r3}
 6136 2dc0 EB46     		mov r11, sp
 6137 2dc2 D546     		mov sp, r10
 6138 2dc4 10BC     		pop {r4}
 6139 2dc6 EA46     		mov r10, sp
 6140 2dc8 2546     		mov r5, r4
 6141 2dca 2404     		lsls r4, r4, # 16
 6142 2dcc 240C     		lsrs r4, r4, # 16
 6143 2dce 2D0C     		lsrs r5, r5, # 16
 6144 2dd0 6043     		muls r0, r0, r4
 6145 2dd2 6143     		muls r1, r1, r4
 6146 2dd4 6A43     		muls r2, r2, r5
 6147 2dd6 6B43     		muls r3, r3, r5
 6148 2dd8 8011     		asrs r0, r0, # 6
 6149 2dda 8911     		asrs r1, r1, # 6
 6150 2ddc 9211     		asrs r2, r2, # 6
 6151 2dde 9B11     		asrs r3, r3, # 6
 6152 2de0 8018     		adds r0, r0, r2         @r
 6153 2de2 C918     		adds r1, r1, r3         @i
 6154 2de4 3618     		adds r6, r6, r0
 6155 2de6 7F18     		adds r7, r7, r1
 6156              	
 6157 2de8 DD46     		mov sp, r11
 6158 2dea 0FBC     		pop {r0-r3}
 6159 2dec EB46     		mov r11, sp
 6160 2dee D546     		mov sp, r10
 6161 2df0 10BC     		pop {r4}
 6162 2df2 EA46     		mov r10, sp
 6163 2df4 2546     		mov r5, r4
 6164 2df6 2404     		lsls r4, r4, # 16
 6165 2df8 240C     		lsrs r4, r4, # 16
 6166 2dfa 2D0C     		lsrs r5, r5, # 16
 6167 2dfc 6043     		muls r0, r0, r4
 6168 2dfe 6143     		muls r1, r1, r4
 6169 2e00 6A43     		muls r2, r2, r5
 6170 2e02 6B43     		muls r3, r3, r5
 6171 2e04 8011     		asrs r0, r0, # 6
 6172 2e06 8911     		asrs r1, r1, # 6
 6173 2e08 9211     		asrs r2, r2, # 6
 6174 2e0a 9B11     		asrs r3, r3, # 6
 6175 2e0c 8018     		adds r0, r0, r2  @r
 6176 2e0e C918     		adds r1, r1, r3  @i
 6177 2e10 3618     		adds r6, r6, r0
 6178 2e12 7F18     		adds r7, r7, r1
 6179              	
 6180 2e14 DD46     		mov sp, r11
 6181 2e16 0FBC     		pop {r0-r3}
 6182 2e18 EB46     		mov r11, sp
 6183 2e1a D546     		mov sp, r10
 6184 2e1c 10BC     		pop {r4}
 6185 2e1e EA46     		mov r10, sp
 6186 2e20 2546     		mov r5, r4
 6187 2e22 2404     		lsls r4, r4, # 16
 6188 2e24 240C     		lsrs r4, r4, # 16
 6189 2e26 2D0C     		lsrs r5, r5, # 16
 6190 2e28 6043     		muls r0, r0, r4
 6191 2e2a 6143     		muls r1, r1, r4
ARM GAS  1.s 			page 110


 6192 2e2c 6A43     		muls r2, r2, r5
 6193 2e2e 6B43     		muls r3, r3, r5
 6194 2e30 8011     		asrs r0, r0, # 6
 6195 2e32 8911     		asrs r1, r1, # 6
 6196 2e34 9211     		asrs r2, r2, # 6
 6197 2e36 9B11     		asrs r3, r3, # 6
 6198 2e38 8018     		adds r0, r0, r2         @r
 6199 2e3a C918     		adds r1, r1, r3         @i
 6200 2e3c 3618     		adds r6, r6, r0
 6201 2e3e 7F18     		adds r7, r7, r1
 6202              	
 6203              		@1
 6204 2e40 DD46     		mov sp, r11
 6205 2e42 0FBC     		pop {r0-r3}
 6206 2e44 EB46     		mov r11, sp
 6207 2e46 D546     		mov sp, r10
 6208 2e48 10BC     		pop {r4}
 6209 2e4a EA46     		mov r10, sp
 6210 2e4c 2546     		mov r5, r4
 6211 2e4e 2404     		lsls r4, r4, # 16
 6212 2e50 240C     		lsrs r4, r4, # 16
 6213 2e52 2D0C     		lsrs r5, r5, # 16
 6214 2e54 6043     		muls r0, r0, r4		@R
 6215 2e56 6143     		muls r1, r1, r4		@I
 6216 2e58 6A43     		muls r2, r2, r5		@R
 6217 2e5a 6B43     		muls r3, r3, r5		@I
 6218 2e5c 8011     		asrs r0, r0, # 6
 6219 2e5e 8911     		asrs r1, r1, # 6
 6220 2e60 9211     		asrs r2, r2, # 6
 6221 2e62 9B11     		asrs r3, r3, # 6
 6222 2e64 8018     		adds r0, r0, r2	 @r
 6223 2e66 C918     		adds r1, r1, r3	 @i
 6224 2e68 3618     		adds r6, r6, r0
 6225 2e6a 7F18     		adds r7, r7, r1
 6226              	
 6227 2e6c DD46     		mov sp, r11
 6228 2e6e 0FBC     		pop {r0-r3}
 6229 2e70 EB46     		mov r11, sp
 6230 2e72 D546     		mov sp, r10
 6231 2e74 10BC     		pop {r4}
 6232 2e76 EA46     		mov r10, sp
 6233 2e78 2546     		mov r5, r4
 6234 2e7a 2404     		lsls r4, r4, # 16
 6235 2e7c 240C     		lsrs r4, r4, # 16
 6236 2e7e 2D0C     		lsrs r5, r5, # 16
 6237 2e80 6043     		muls r0, r0, r4
 6238 2e82 6143     		muls r1, r1, r4
 6239 2e84 6A43     		muls r2, r2, r5
 6240 2e86 6B43     		muls r3, r3, r5
 6241 2e88 8011     		asrs r0, r0, # 6
 6242 2e8a 8911     		asrs r1, r1, # 6
 6243 2e8c 9211     		asrs r2, r2, # 6
 6244 2e8e 9B11     		asrs r3, r3, # 6
 6245 2e90 8018     		adds r0, r0, r2         @r
 6246 2e92 C918     		adds r1, r1, r3         @i
 6247 2e94 3618     		adds r6, r6, r0
 6248 2e96 7F18     		adds r7, r7, r1
ARM GAS  1.s 			page 111


 6249              	
 6250 2e98 DD46     		mov sp, r11
 6251 2e9a 0FBC     		pop {r0-r3}
 6252 2e9c EB46     		mov r11, sp
 6253 2e9e D546     		mov sp, r10
 6254 2ea0 10BC     		pop {r4}
 6255 2ea2 EA46     		mov r10, sp
 6256 2ea4 2546     		mov r5, r4
 6257 2ea6 2404     		lsls r4, r4, # 16
 6258 2ea8 240C     		lsrs r4, r4, # 16
 6259 2eaa 2D0C     		lsrs r5, r5, # 16
 6260 2eac 6043     		muls r0, r0, r4
 6261 2eae 6143     		muls r1, r1, r4
 6262 2eb0 6A43     		muls r2, r2, r5
 6263 2eb2 6B43     		muls r3, r3, r5
 6264 2eb4 8011     		asrs r0, r0, # 6
 6265 2eb6 8911     		asrs r1, r1, # 6
 6266 2eb8 9211     		asrs r2, r2, # 6
 6267 2eba 9B11     		asrs r3, r3, # 6
 6268 2ebc 8018     		adds r0, r0, r2  @r
 6269 2ebe C918     		adds r1, r1, r3  @i
 6270 2ec0 3618     		adds r6, r6, r0
 6271 2ec2 7F18     		adds r7, r7, r1
 6272              	
 6273 2ec4 DD46     		mov sp, r11
 6274 2ec6 0FBC     		pop {r0-r3}
 6275 2ec8 EB46     		mov r11, sp
 6276 2eca D546     		mov sp, r10
 6277 2ecc 10BC     		pop {r4}
 6278 2ece EA46     		mov r10, sp
 6279 2ed0 2546     		mov r5, r4
 6280 2ed2 2404     		lsls r4, r4, # 16
 6281 2ed4 240C     		lsrs r4, r4, # 16
 6282 2ed6 2D0C     		lsrs r5, r5, # 16
 6283 2ed8 6043     		muls r0, r0, r4
 6284 2eda 6143     		muls r1, r1, r4
 6285 2edc 6A43     		muls r2, r2, r5
 6286 2ede 6B43     		muls r3, r3, r5
 6287 2ee0 8011     		asrs r0, r0, # 6
 6288 2ee2 8911     		asrs r1, r1, # 6
 6289 2ee4 9211     		asrs r2, r2, # 6
 6290 2ee6 9B11     		asrs r3, r3, # 6
 6291 2ee8 8018     		adds r0, r0, r2         @r
 6292 2eea C918     		adds r1, r1, r3         @i
 6293 2eec 3618     		adds r6, r6, r0
 6294 2eee 7F18     		adds r7, r7, r1
 6295              	
 6296              		@2
 6297 2ef0 DD46     		mov sp, r11
 6298 2ef2 0FBC     		pop {r0-r3}
 6299 2ef4 EB46     		mov r11, sp
 6300 2ef6 D546     		mov sp, r10
 6301 2ef8 10BC     		pop {r4}
 6302 2efa EA46     		mov r10, sp
 6303 2efc 2546     		mov r5, r4
 6304 2efe 2404     		lsls r4, r4, # 16
 6305 2f00 240C     		lsrs r4, r4, # 16
ARM GAS  1.s 			page 112


 6306 2f02 2D0C     		lsrs r5, r5, # 16
 6307 2f04 6043     		muls r0, r0, r4		@R
 6308 2f06 6143     		muls r1, r1, r4		@I
 6309 2f08 6A43     		muls r2, r2, r5		@R
 6310 2f0a 6B43     		muls r3, r3, r5		@I
 6311 2f0c 8011     		asrs r0, r0, # 6
 6312 2f0e 8911     		asrs r1, r1, # 6
 6313 2f10 9211     		asrs r2, r2, # 6
 6314 2f12 9B11     		asrs r3, r3, # 6
 6315 2f14 8018     		adds r0, r0, r2	 @r
 6316 2f16 C918     		adds r1, r1, r3	 @i
 6317 2f18 3618     		adds r6, r6, r0
 6318 2f1a 7F18     		adds r7, r7, r1
 6319              	
 6320 2f1c DD46     		mov sp, r11
 6321 2f1e 0FBC     		pop {r0-r3}
 6322 2f20 EB46     		mov r11, sp
 6323 2f22 D546     		mov sp, r10
 6324 2f24 10BC     		pop {r4}
 6325 2f26 EA46     		mov r10, sp
 6326 2f28 2546     		mov r5, r4
 6327 2f2a 2404     		lsls r4, r4, # 16
 6328 2f2c 240C     		lsrs r4, r4, # 16
 6329 2f2e 2D0C     		lsrs r5, r5, # 16
 6330 2f30 6043     		muls r0, r0, r4
 6331 2f32 6143     		muls r1, r1, r4
 6332 2f34 6A43     		muls r2, r2, r5
 6333 2f36 6B43     		muls r3, r3, r5
 6334 2f38 8011     		asrs r0, r0, # 6
 6335 2f3a 8911     		asrs r1, r1, # 6
 6336 2f3c 9211     		asrs r2, r2, # 6
 6337 2f3e 9B11     		asrs r3, r3, # 6
 6338 2f40 8018     		adds r0, r0, r2         @r
 6339 2f42 C918     		adds r1, r1, r3         @i
 6340 2f44 3618     		adds r6, r6, r0
 6341 2f46 7F18     		adds r7, r7, r1
 6342              	
 6343 2f48 DD46     		mov sp, r11
 6344 2f4a 0FBC     		pop {r0-r3}
 6345 2f4c EB46     		mov r11, sp
 6346 2f4e D546     		mov sp, r10
 6347 2f50 10BC     		pop {r4}
 6348 2f52 EA46     		mov r10, sp
 6349 2f54 2546     		mov r5, r4
 6350 2f56 2404     		lsls r4, r4, # 16
 6351 2f58 240C     		lsrs r4, r4, # 16
 6352 2f5a 2D0C     		lsrs r5, r5, # 16
 6353 2f5c 6043     		muls r0, r0, r4
 6354 2f5e 6143     		muls r1, r1, r4
 6355 2f60 6A43     		muls r2, r2, r5
 6356 2f62 6B43     		muls r3, r3, r5
 6357 2f64 8011     		asrs r0, r0, # 6
 6358 2f66 8911     		asrs r1, r1, # 6
 6359 2f68 9211     		asrs r2, r2, # 6
 6360 2f6a 9B11     		asrs r3, r3, # 6
 6361 2f6c 8018     		adds r0, r0, r2  @r
 6362 2f6e C918     		adds r1, r1, r3  @i
ARM GAS  1.s 			page 113


 6363 2f70 3618     		adds r6, r6, r0
 6364 2f72 7F18     		adds r7, r7, r1
 6365              	
 6366 2f74 DD46     		mov sp, r11
 6367 2f76 0FBC     		pop {r0-r3}
 6368 2f78 EB46     		mov r11, sp
 6369 2f7a D546     		mov sp, r10
 6370 2f7c 10BC     		pop {r4}
 6371 2f7e EA46     		mov r10, sp
 6372 2f80 2546     		mov r5, r4
 6373 2f82 2404     		lsls r4, r4, # 16
 6374 2f84 240C     		lsrs r4, r4, # 16
 6375 2f86 2D0C     		lsrs r5, r5, # 16
 6376 2f88 6043     		muls r0, r0, r4
 6377 2f8a 6143     		muls r1, r1, r4
 6378 2f8c 6A43     		muls r2, r2, r5
 6379 2f8e 6B43     		muls r3, r3, r5
 6380 2f90 8011     		asrs r0, r0, # 6
 6381 2f92 8911     		asrs r1, r1, # 6
 6382 2f94 9211     		asrs r2, r2, # 6
 6383 2f96 9B11     		asrs r3, r3, # 6
 6384 2f98 8018     		adds r0, r0, r2         @r
 6385 2f9a C918     		adds r1, r1, r3         @i
 6386 2f9c 3618     		adds r6, r6, r0
 6387 2f9e 7F18     		adds r7, r7, r1
 6388              	
 6389              		@3
 6390 2fa0 DD46     		mov sp, r11
 6391 2fa2 0FBC     		pop {r0-r3}
 6392 2fa4 EB46     		mov r11, sp
 6393 2fa6 D546     		mov sp, r10
 6394 2fa8 10BC     		pop {r4}
 6395 2faa EA46     		mov r10, sp
 6396 2fac 2546     		mov r5, r4
 6397 2fae 2404     		lsls r4, r4, # 16
 6398 2fb0 240C     		lsrs r4, r4, # 16
 6399 2fb2 2D0C     		lsrs r5, r5, # 16
 6400 2fb4 6043     		muls r0, r0, r4		@R
 6401 2fb6 6143     		muls r1, r1, r4		@I
 6402 2fb8 6A43     		muls r2, r2, r5		@R
 6403 2fba 6B43     		muls r3, r3, r5		@I
 6404 2fbc 8011     		asrs r0, r0, # 6
 6405 2fbe 8911     		asrs r1, r1, # 6
 6406 2fc0 9211     		asrs r2, r2, # 6
 6407 2fc2 9B11     		asrs r3, r3, # 6
 6408 2fc4 8018     		adds r0, r0, r2	 @r
 6409 2fc6 C918     		adds r1, r1, r3	 @i
 6410 2fc8 3618     		adds r6, r6, r0
 6411 2fca 7F18     		adds r7, r7, r1
 6412              	
 6413 2fcc DD46     		mov sp, r11
 6414 2fce 0FBC     		pop {r0-r3}
 6415 2fd0 EB46     		mov r11, sp
 6416 2fd2 D546     		mov sp, r10
 6417 2fd4 10BC     		pop {r4}
 6418 2fd6 EA46     		mov r10, sp
 6419 2fd8 2546     		mov r5, r4
ARM GAS  1.s 			page 114


 6420 2fda 2404     		lsls r4, r4, # 16
 6421 2fdc 240C     		lsrs r4, r4, # 16
 6422 2fde 2D0C     		lsrs r5, r5, # 16
 6423 2fe0 6043     		muls r0, r0, r4
 6424 2fe2 6143     		muls r1, r1, r4
 6425 2fe4 6A43     		muls r2, r2, r5
 6426 2fe6 6B43     		muls r3, r3, r5
 6427 2fe8 8011     		asrs r0, r0, # 6
 6428 2fea 8911     		asrs r1, r1, # 6
 6429 2fec 9211     		asrs r2, r2, # 6
 6430 2fee 9B11     		asrs r3, r3, # 6
 6431 2ff0 8018     		adds r0, r0, r2         @r
 6432 2ff2 C918     		adds r1, r1, r3         @i
 6433 2ff4 3618     		adds r6, r6, r0
 6434 2ff6 7F18     		adds r7, r7, r1
 6435              	
 6436 2ff8 DD46     		mov sp, r11
 6437 2ffa 0FBC     		pop {r0-r3}
 6438 2ffc EB46     		mov r11, sp
 6439 2ffe D546     		mov sp, r10
 6440 3000 10BC     		pop {r4}
 6441 3002 EA46     		mov r10, sp
 6442 3004 2546     		mov r5, r4
 6443 3006 2404     		lsls r4, r4, # 16
 6444 3008 240C     		lsrs r4, r4, # 16
 6445 300a 2D0C     		lsrs r5, r5, # 16
 6446 300c 6043     		muls r0, r0, r4
 6447 300e 6143     		muls r1, r1, r4
 6448 3010 6A43     		muls r2, r2, r5
 6449 3012 6B43     		muls r3, r3, r5
 6450 3014 8011     		asrs r0, r0, # 6
 6451 3016 8911     		asrs r1, r1, # 6
 6452 3018 9211     		asrs r2, r2, # 6
 6453 301a 9B11     		asrs r3, r3, # 6
 6454 301c 8018     		adds r0, r0, r2  @r
 6455 301e C918     		adds r1, r1, r3  @i
 6456 3020 3618     		adds r6, r6, r0
 6457 3022 7F18     		adds r7, r7, r1
 6458              	
 6459 3024 DD46     		mov sp, r11
 6460 3026 0FBC     		pop {r0-r3}
 6461 3028 EB46     		mov r11, sp
 6462 302a D546     		mov sp, r10
 6463 302c 10BC     		pop {r4}
 6464 302e EA46     		mov r10, sp
 6465 3030 2546     		mov r5, r4
 6466 3032 2404     		lsls r4, r4, # 16
 6467 3034 240C     		lsrs r4, r4, # 16
 6468 3036 2D0C     		lsrs r5, r5, # 16
 6469 3038 6043     		muls r0, r0, r4
 6470 303a 6143     		muls r1, r1, r4
 6471 303c 6A43     		muls r2, r2, r5
 6472 303e 6B43     		muls r3, r3, r5
 6473 3040 8011     		asrs r0, r0, # 6
 6474 3042 8911     		asrs r1, r1, # 6
 6475 3044 9211     		asrs r2, r2, # 6
 6476 3046 9B11     		asrs r3, r3, # 6
ARM GAS  1.s 			page 115


 6477 3048 8018     		adds r0, r0, r2         @r
 6478 304a C918     		adds r1, r1, r3         @i
 6479 304c 3618     		adds r6, r6, r0
 6480 304e 7F18     		adds r7, r7, r1
 6481              	
 6482              		@4
 6483 3050 DD46     		mov sp, r11
 6484 3052 0FBC     		pop {r0-r3}
 6485 3054 EB46     		mov r11, sp
 6486 3056 D546     		mov sp, r10
 6487 3058 10BC     		pop {r4}
 6488 305a EA46     		mov r10, sp
 6489 305c 2546     		mov r5, r4
 6490 305e 2404     		lsls r4, r4, # 16
 6491 3060 240C     		lsrs r4, r4, # 16
 6492 3062 2D0C     		lsrs r5, r5, # 16
 6493 3064 6043     		muls r0, r0, r4		@R
 6494 3066 6143     		muls r1, r1, r4		@I
 6495 3068 6A43     		muls r2, r2, r5		@R
 6496 306a 6B43     		muls r3, r3, r5		@I
 6497 306c 8011     		asrs r0, r0, # 6
 6498 306e 8911     		asrs r1, r1, # 6
 6499 3070 9211     		asrs r2, r2, # 6
 6500 3072 9B11     		asrs r3, r3, # 6
 6501 3074 8018     		adds r0, r0, r2	 @r
 6502 3076 C918     		adds r1, r1, r3	 @i
 6503 3078 3618     		adds r6, r6, r0
 6504 307a 7F18     		adds r7, r7, r1
 6505              	
 6506 307c DD46     		mov sp, r11
 6507 307e 0FBC     		pop {r0-r3}
 6508 3080 EB46     		mov r11, sp
 6509 3082 D546     		mov sp, r10
 6510 3084 10BC     		pop {r4}
 6511 3086 EA46     		mov r10, sp
 6512 3088 2546     		mov r5, r4
 6513 308a 2404     		lsls r4, r4, # 16
 6514 308c 240C     		lsrs r4, r4, # 16
 6515 308e 2D0C     		lsrs r5, r5, # 16
 6516 3090 6043     		muls r0, r0, r4
 6517 3092 6143     		muls r1, r1, r4
 6518 3094 6A43     		muls r2, r2, r5
 6519 3096 6B43     		muls r3, r3, r5
 6520 3098 8011     		asrs r0, r0, # 6
 6521 309a 8911     		asrs r1, r1, # 6
 6522 309c 9211     		asrs r2, r2, # 6
 6523 309e 9B11     		asrs r3, r3, # 6
 6524 30a0 8018     		adds r0, r0, r2         @r
 6525 30a2 C918     		adds r1, r1, r3         @i
 6526 30a4 3618     		adds r6, r6, r0
 6527 30a6 7F18     		adds r7, r7, r1
 6528              	
 6529 30a8 DD46     		mov sp, r11
 6530 30aa 0FBC     		pop {r0-r3}
 6531 30ac EB46     		mov r11, sp
 6532 30ae D546     		mov sp, r10
 6533 30b0 10BC     		pop {r4}
ARM GAS  1.s 			page 116


 6534 30b2 EA46     		mov r10, sp
 6535 30b4 2546     		mov r5, r4
 6536 30b6 2404     		lsls r4, r4, # 16
 6537 30b8 240C     		lsrs r4, r4, # 16
 6538 30ba 2D0C     		lsrs r5, r5, # 16
 6539 30bc 6043     		muls r0, r0, r4
 6540 30be 6143     		muls r1, r1, r4
 6541 30c0 6A43     		muls r2, r2, r5
 6542 30c2 6B43     		muls r3, r3, r5
 6543 30c4 8011     		asrs r0, r0, # 6
 6544 30c6 8911     		asrs r1, r1, # 6
 6545 30c8 9211     		asrs r2, r2, # 6
 6546 30ca 9B11     		asrs r3, r3, # 6
 6547 30cc 8018     		adds r0, r0, r2  @r
 6548 30ce C918     		adds r1, r1, r3  @i
 6549 30d0 3618     		adds r6, r6, r0
 6550 30d2 7F18     		adds r7, r7, r1
 6551              	
 6552 30d4 DD46     		mov sp, r11
 6553 30d6 0FBC     		pop {r0-r3}
 6554 30d8 EB46     		mov r11, sp
 6555 30da D546     		mov sp, r10
 6556 30dc 10BC     		pop {r4}
 6557 30de EA46     		mov r10, sp
 6558 30e0 2546     		mov r5, r4
 6559 30e2 2404     		lsls r4, r4, # 16
 6560 30e4 240C     		lsrs r4, r4, # 16
 6561 30e6 2D0C     		lsrs r5, r5, # 16
 6562 30e8 6043     		muls r0, r0, r4
 6563 30ea 6143     		muls r1, r1, r4
 6564 30ec 6A43     		muls r2, r2, r5
 6565 30ee 6B43     		muls r3, r3, r5
 6566 30f0 8011     		asrs r0, r0, # 6
 6567 30f2 8911     		asrs r1, r1, # 6
 6568 30f4 9211     		asrs r2, r2, # 6
 6569 30f6 9B11     		asrs r3, r3, # 6
 6570 30f8 8018     		adds r0, r0, r2         @r
 6571 30fa C918     		adds r1, r1, r3         @i
 6572 30fc 3618     		adds r6, r6, r0
 6573 30fe 7F18     		adds r7, r7, r1
 6574              	
 6575              		@5
 6576 3100 DD46     		mov sp, r11
 6577 3102 0FBC     		pop {r0-r3}
 6578 3104 EB46     		mov r11, sp
 6579 3106 D546     		mov sp, r10
 6580 3108 10BC     		pop {r4}
 6581 310a EA46     		mov r10, sp
 6582 310c 2546     		mov r5, r4
 6583 310e 2404     		lsls r4, r4, # 16
 6584 3110 240C     		lsrs r4, r4, # 16
 6585 3112 2D0C     		lsrs r5, r5, # 16
 6586 3114 6043     		muls r0, r0, r4		@R
 6587 3116 6143     		muls r1, r1, r4		@I
 6588 3118 6A43     		muls r2, r2, r5		@R
 6589 311a 6B43     		muls r3, r3, r5		@I
 6590 311c 8011     		asrs r0, r0, # 6
ARM GAS  1.s 			page 117


 6591 311e 8911     		asrs r1, r1, # 6
 6592 3120 9211     		asrs r2, r2, # 6
 6593 3122 9B11     		asrs r3, r3, # 6
 6594 3124 8018     		adds r0, r0, r2	 @r
 6595 3126 C918     		adds r1, r1, r3	 @i
 6596 3128 3618     		adds r6, r6, r0
 6597 312a 7F18     		adds r7, r7, r1
 6598              	
 6599 312c DD46     		mov sp, r11
 6600 312e 0FBC     		pop {r0-r3}
 6601 3130 EB46     		mov r11, sp
 6602 3132 D546     		mov sp, r10
 6603 3134 10BC     		pop {r4}
 6604 3136 EA46     		mov r10, sp
 6605 3138 2546     		mov r5, r4
 6606 313a 2404     		lsls r4, r4, # 16
 6607 313c 240C     		lsrs r4, r4, # 16
 6608 313e 2D0C     		lsrs r5, r5, # 16
 6609 3140 6043     		muls r0, r0, r4
 6610 3142 6143     		muls r1, r1, r4
 6611 3144 6A43     		muls r2, r2, r5
 6612 3146 6B43     		muls r3, r3, r5
 6613 3148 8011     		asrs r0, r0, # 6
 6614 314a 8911     		asrs r1, r1, # 6
 6615 314c 9211     		asrs r2, r2, # 6
 6616 314e 9B11     		asrs r3, r3, # 6
 6617 3150 8018     		adds r0, r0, r2         @r
 6618 3152 C918     		adds r1, r1, r3         @i
 6619 3154 3618     		adds r6, r6, r0
 6620 3156 7F18     		adds r7, r7, r1
 6621              	
 6622 3158 DD46     		mov sp, r11
 6623 315a 0FBC     		pop {r0-r3}
 6624 315c EB46     		mov r11, sp
 6625 315e D546     		mov sp, r10
 6626 3160 10BC     		pop {r4}
 6627 3162 EA46     		mov r10, sp
 6628 3164 2546     		mov r5, r4
 6629 3166 2404     		lsls r4, r4, # 16
 6630 3168 240C     		lsrs r4, r4, # 16
 6631 316a 2D0C     		lsrs r5, r5, # 16
 6632 316c 6043     		muls r0, r0, r4
 6633 316e 6143     		muls r1, r1, r4
 6634 3170 6A43     		muls r2, r2, r5
 6635 3172 6B43     		muls r3, r3, r5
 6636 3174 8011     		asrs r0, r0, # 6
 6637 3176 8911     		asrs r1, r1, # 6
 6638 3178 9211     		asrs r2, r2, # 6
 6639 317a 9B11     		asrs r3, r3, # 6
 6640 317c 8018     		adds r0, r0, r2  @r
 6641 317e C918     		adds r1, r1, r3  @i
 6642 3180 3618     		adds r6, r6, r0
 6643 3182 7F18     		adds r7, r7, r1
 6644              	
 6645 3184 DD46     		mov sp, r11
 6646 3186 0FBC     		pop {r0-r3}
 6647 3188 EB46     		mov r11, sp
ARM GAS  1.s 			page 118


 6648 318a D546     		mov sp, r10
 6649 318c 10BC     		pop {r4}
 6650 318e EA46     		mov r10, sp
 6651 3190 2546     		mov r5, r4
 6652 3192 2404     		lsls r4, r4, # 16
 6653 3194 240C     		lsrs r4, r4, # 16
 6654 3196 2D0C     		lsrs r5, r5, # 16
 6655 3198 6043     		muls r0, r0, r4
 6656 319a 6143     		muls r1, r1, r4
 6657 319c 6A43     		muls r2, r2, r5
 6658 319e 6B43     		muls r3, r3, r5
 6659 31a0 8011     		asrs r0, r0, # 6
 6660 31a2 8911     		asrs r1, r1, # 6
 6661 31a4 9211     		asrs r2, r2, # 6
 6662 31a6 9B11     		asrs r3, r3, # 6
 6663 31a8 8018     		adds r0, r0, r2         @r
 6664 31aa C918     		adds r1, r1, r3         @i
 6665 31ac 3618     		adds r6, r6, r0
 6666 31ae 7F18     		adds r7, r7, r1
 6667              	
 6668              		@6
 6669 31b0 DD46     		mov sp, r11
 6670 31b2 0FBC     		pop {r0-r3}
 6671 31b4 EB46     		mov r11, sp
 6672 31b6 D546     		mov sp, r10
 6673 31b8 10BC     		pop {r4}
 6674 31ba EA46     		mov r10, sp
 6675 31bc 2546     		mov r5, r4
 6676 31be 2404     		lsls r4, r4, # 16
 6677 31c0 240C     		lsrs r4, r4, # 16
 6678 31c2 2D0C     		lsrs r5, r5, # 16
 6679 31c4 6043     		muls r0, r0, r4		@R
 6680 31c6 6143     		muls r1, r1, r4		@I
 6681 31c8 6A43     		muls r2, r2, r5		@R
 6682 31ca 6B43     		muls r3, r3, r5		@I
 6683 31cc 8011     		asrs r0, r0, # 6
 6684 31ce 8911     		asrs r1, r1, # 6
 6685 31d0 9211     		asrs r2, r2, # 6
 6686 31d2 9B11     		asrs r3, r3, # 6
 6687 31d4 8018     		adds r0, r0, r2	 @r
 6688 31d6 C918     		adds r1, r1, r3	 @i
 6689 31d8 3618     		adds r6, r6, r0
 6690 31da 7F18     		adds r7, r7, r1
 6691              	
 6692 31dc DD46     		mov sp, r11
 6693 31de 0FBC     		pop {r0-r3}
 6694 31e0 EB46     		mov r11, sp
 6695 31e2 D546     		mov sp, r10
 6696 31e4 10BC     		pop {r4}
 6697 31e6 EA46     		mov r10, sp
 6698 31e8 2546     		mov r5, r4
 6699 31ea 2404     		lsls r4, r4, # 16
 6700 31ec 240C     		lsrs r4, r4, # 16
 6701 31ee 2D0C     		lsrs r5, r5, # 16
 6702 31f0 6043     		muls r0, r0, r4
 6703 31f2 6143     		muls r1, r1, r4
 6704 31f4 6A43     		muls r2, r2, r5
ARM GAS  1.s 			page 119


 6705 31f6 6B43     		muls r3, r3, r5
 6706 31f8 8011     		asrs r0, r0, # 6
 6707 31fa 8911     		asrs r1, r1, # 6
 6708 31fc 9211     		asrs r2, r2, # 6
 6709 31fe 9B11     		asrs r3, r3, # 6
 6710 3200 8018     		adds r0, r0, r2         @r
 6711 3202 C918     		adds r1, r1, r3         @i
 6712 3204 3618     		adds r6, r6, r0
 6713 3206 7F18     		adds r7, r7, r1
 6714              	
 6715 3208 DD46     		mov sp, r11
 6716 320a 0FBC     		pop {r0-r3}
 6717 320c EB46     		mov r11, sp
 6718 320e D546     		mov sp, r10
 6719 3210 10BC     		pop {r4}
 6720 3212 EA46     		mov r10, sp
 6721 3214 2546     		mov r5, r4
 6722 3216 2404     		lsls r4, r4, # 16
 6723 3218 240C     		lsrs r4, r4, # 16
 6724 321a 2D0C     		lsrs r5, r5, # 16
 6725 321c 6043     		muls r0, r0, r4
 6726 321e 6143     		muls r1, r1, r4
 6727 3220 6A43     		muls r2, r2, r5
 6728 3222 6B43     		muls r3, r3, r5
 6729 3224 8011     		asrs r0, r0, # 6
 6730 3226 8911     		asrs r1, r1, # 6
 6731 3228 9211     		asrs r2, r2, # 6
 6732 322a 9B11     		asrs r3, r3, # 6
 6733 322c 8018     		adds r0, r0, r2  @r
 6734 322e C918     		adds r1, r1, r3  @i
 6735 3230 3618     		adds r6, r6, r0
 6736 3232 7F18     		adds r7, r7, r1
 6737              	
 6738 3234 DD46     		mov sp, r11
 6739 3236 0FBC     		pop {r0-r3}
 6740 3238 EB46     		mov r11, sp
 6741 323a D546     		mov sp, r10
 6742 323c 10BC     		pop {r4}
 6743 323e EA46     		mov r10, sp
 6744 3240 2546     		mov r5, r4
 6745 3242 2404     		lsls r4, r4, # 16
 6746 3244 240C     		lsrs r4, r4, # 16
 6747 3246 2D0C     		lsrs r5, r5, # 16
 6748 3248 6043     		muls r0, r0, r4
 6749 324a 6143     		muls r1, r1, r4
 6750 324c 6A43     		muls r2, r2, r5
 6751 324e 6B43     		muls r3, r3, r5
 6752 3250 8011     		asrs r0, r0, # 6
 6753 3252 8911     		asrs r1, r1, # 6
 6754 3254 9211     		asrs r2, r2, # 6
 6755 3256 9B11     		asrs r3, r3, # 6
 6756 3258 8018     		adds r0, r0, r2         @r
 6757 325a C918     		adds r1, r1, r3         @i
 6758 325c 3618     		adds r6, r6, r0
 6759 325e 7F18     		adds r7, r7, r1
 6760              	
 6761              		@7
ARM GAS  1.s 			page 120


 6762 3260 DD46     		mov sp, r11
 6763 3262 0FBC     		pop {r0-r3}
 6764 3264 EB46     		mov r11, sp
 6765 3266 D546     		mov sp, r10
 6766 3268 10BC     		pop {r4}
 6767 326a EA46     		mov r10, sp
 6768 326c 2546     		mov r5, r4
 6769 326e 2404     		lsls r4, r4, # 16
 6770 3270 240C     		lsrs r4, r4, # 16
 6771 3272 2D0C     		lsrs r5, r5, # 16
 6772 3274 6043     		muls r0, r0, r4		@R
 6773 3276 6143     		muls r1, r1, r4		@I
 6774 3278 6A43     		muls r2, r2, r5		@R
 6775 327a 6B43     		muls r3, r3, r5		@I
 6776 327c 8011     		asrs r0, r0, # 6
 6777 327e 8911     		asrs r1, r1, # 6
 6778 3280 9211     		asrs r2, r2, # 6
 6779 3282 9B11     		asrs r3, r3, # 6
 6780 3284 8018     		adds r0, r0, r2	 @r
 6781 3286 C918     		adds r1, r1, r3	 @i
 6782 3288 3618     		adds r6, r6, r0
 6783 328a 7F18     		adds r7, r7, r1
 6784              	
 6785 328c DD46     		mov sp, r11
 6786 328e 0FBC     		pop {r0-r3}
 6787 3290 EB46     		mov r11, sp
 6788 3292 D546     		mov sp, r10
 6789 3294 10BC     		pop {r4}
 6790 3296 EA46     		mov r10, sp
 6791 3298 2546     		mov r5, r4
 6792 329a 2404     		lsls r4, r4, # 16
 6793 329c 240C     		lsrs r4, r4, # 16
 6794 329e 2D0C     		lsrs r5, r5, # 16
 6795 32a0 6043     		muls r0, r0, r4
 6796 32a2 6143     		muls r1, r1, r4
 6797 32a4 6A43     		muls r2, r2, r5
 6798 32a6 6B43     		muls r3, r3, r5
 6799 32a8 8011     		asrs r0, r0, # 6
 6800 32aa 8911     		asrs r1, r1, # 6
 6801 32ac 9211     		asrs r2, r2, # 6
 6802 32ae 9B11     		asrs r3, r3, # 6
 6803 32b0 8018     		adds r0, r0, r2         @r
 6804 32b2 C918     		adds r1, r1, r3         @i
 6805 32b4 3618     		adds r6, r6, r0
 6806 32b6 7F18     		adds r7, r7, r1
 6807              	
 6808 32b8 DD46     		mov sp, r11
 6809 32ba 0FBC     		pop {r0-r3}
 6810 32bc EB46     		mov r11, sp
 6811 32be D546     		mov sp, r10
 6812 32c0 10BC     		pop {r4}
 6813 32c2 EA46     		mov r10, sp
 6814 32c4 2546     		mov r5, r4
 6815 32c6 2404     		lsls r4, r4, # 16
 6816 32c8 240C     		lsrs r4, r4, # 16
 6817 32ca 2D0C     		lsrs r5, r5, # 16
 6818 32cc 6043     		muls r0, r0, r4
ARM GAS  1.s 			page 121


 6819 32ce 6143     		muls r1, r1, r4
 6820 32d0 6A43     		muls r2, r2, r5
 6821 32d2 6B43     		muls r3, r3, r5
 6822 32d4 8011     		asrs r0, r0, # 6
 6823 32d6 8911     		asrs r1, r1, # 6
 6824 32d8 9211     		asrs r2, r2, # 6
 6825 32da 9B11     		asrs r3, r3, # 6
 6826 32dc 8018     		adds r0, r0, r2  @r
 6827 32de C918     		adds r1, r1, r3  @i
 6828 32e0 3618     		adds r6, r6, r0
 6829 32e2 7F18     		adds r7, r7, r1
 6830              	
 6831 32e4 DD46     		mov sp, r11
 6832 32e6 0FBC     		pop {r0-r3}
 6833 32e8 EB46     		mov r11, sp
 6834 32ea D546     		mov sp, r10
 6835 32ec 10BC     		pop {r4}
 6836 32ee EA46     		mov r10, sp
 6837 32f0 2546     		mov r5, r4
 6838 32f2 2404     		lsls r4, r4, # 16
 6839 32f4 240C     		lsrs r4, r4, # 16
 6840 32f6 2D0C     		lsrs r5, r5, # 16
 6841 32f8 6043     		muls r0, r0, r4
 6842 32fa 6143     		muls r1, r1, r4
 6843 32fc 6A43     		muls r2, r2, r5
 6844 32fe 6B43     		muls r3, r3, r5
 6845 3300 8011     		asrs r0, r0, # 6
 6846 3302 8911     		asrs r1, r1, # 6
 6847 3304 9211     		asrs r2, r2, # 6
 6848 3306 9B11     		asrs r3, r3, # 6
 6849 3308 8018     		adds r0, r0, r2         @r
 6850 330a C918     		adds r1, r1, r3         @i
 6851 330c 3618     		adds r6, r6, r0
 6852 330e 7F18     		adds r7, r7, r1
 6853              	
 6854              		@8
 6855 3310 DD46     		mov sp, r11
 6856 3312 0FBC     		pop {r0-r3}
 6857 3314 EB46     		mov r11, sp
 6858 3316 D546     		mov sp, r10
 6859 3318 10BC     		pop {r4}
 6860 331a EA46     		mov r10, sp
 6861 331c 2546     		mov r5, r4
 6862 331e 2404     		lsls r4, r4, # 16
 6863 3320 240C     		lsrs r4, r4, # 16
 6864 3322 2D0C     		lsrs r5, r5, # 16
 6865 3324 6043     		muls r0, r0, r4		@R
 6866 3326 6143     		muls r1, r1, r4		@I
 6867 3328 6A43     		muls r2, r2, r5		@R
 6868 332a 6B43     		muls r3, r3, r5		@I
 6869 332c 8011     		asrs r0, r0, # 6
 6870 332e 8911     		asrs r1, r1, # 6
 6871 3330 9211     		asrs r2, r2, # 6
 6872 3332 9B11     		asrs r3, r3, # 6
 6873 3334 8018     		adds r0, r0, r2	 @r
 6874 3336 C918     		adds r1, r1, r3	 @i
 6875 3338 3618     		adds r6, r6, r0
ARM GAS  1.s 			page 122


 6876 333a 7F18     		adds r7, r7, r1
 6877              	
 6878 333c DD46     		mov sp, r11
 6879 333e 0FBC     		pop {r0-r3}
 6880 3340 EB46     		mov r11, sp
 6881 3342 D546     		mov sp, r10
 6882 3344 10BC     		pop {r4}
 6883 3346 EA46     		mov r10, sp
 6884 3348 2546     		mov r5, r4
 6885 334a 2404     		lsls r4, r4, # 16
 6886 334c 240C     		lsrs r4, r4, # 16
 6887 334e 2D0C     		lsrs r5, r5, # 16
 6888 3350 6043     		muls r0, r0, r4
 6889 3352 6143     		muls r1, r1, r4
 6890 3354 6A43     		muls r2, r2, r5
 6891 3356 6B43     		muls r3, r3, r5
 6892 3358 8011     		asrs r0, r0, # 6
 6893 335a 8911     		asrs r1, r1, # 6
 6894 335c 9211     		asrs r2, r2, # 6
 6895 335e 9B11     		asrs r3, r3, # 6
 6896 3360 8018     		adds r0, r0, r2         @r
 6897 3362 C918     		adds r1, r1, r3         @i
 6898 3364 3618     		adds r6, r6, r0
 6899 3366 7F18     		adds r7, r7, r1
 6900              	
 6901 3368 DD46     		mov sp, r11
 6902 336a 0FBC     		pop {r0-r3}
 6903 336c EB46     		mov r11, sp
 6904 336e D546     		mov sp, r10
 6905 3370 10BC     		pop {r4}
 6906 3372 EA46     		mov r10, sp
 6907 3374 2546     		mov r5, r4
 6908 3376 2404     		lsls r4, r4, # 16
 6909 3378 240C     		lsrs r4, r4, # 16
 6910 337a 2D0C     		lsrs r5, r5, # 16
 6911 337c 6043     		muls r0, r0, r4
 6912 337e 6143     		muls r1, r1, r4
 6913 3380 6A43     		muls r2, r2, r5
 6914 3382 6B43     		muls r3, r3, r5
 6915 3384 8011     		asrs r0, r0, # 6
 6916 3386 8911     		asrs r1, r1, # 6
 6917 3388 9211     		asrs r2, r2, # 6
 6918 338a 9B11     		asrs r3, r3, # 6
 6919 338c 8018     		adds r0, r0, r2  @r
 6920 338e C918     		adds r1, r1, r3  @i
 6921 3390 3618     		adds r6, r6, r0
 6922 3392 7F18     		adds r7, r7, r1
 6923              	
 6924 3394 DD46     		mov sp, r11
 6925 3396 0FBC     		pop {r0-r3}
 6926 3398 EB46     		mov r11, sp
 6927 339a D546     		mov sp, r10
 6928 339c 10BC     		pop {r4}
 6929 339e EA46     		mov r10, sp
 6930 33a0 2546     		mov r5, r4
 6931 33a2 2404     		lsls r4, r4, # 16
 6932 33a4 240C     		lsrs r4, r4, # 16
ARM GAS  1.s 			page 123


 6933 33a6 2D0C     		lsrs r5, r5, # 16
 6934 33a8 6043     		muls r0, r0, r4
 6935 33aa 6143     		muls r1, r1, r4
 6936 33ac 6A43     		muls r2, r2, r5
 6937 33ae 6B43     		muls r3, r3, r5
 6938 33b0 8011     		asrs r0, r0, # 6
 6939 33b2 8911     		asrs r1, r1, # 6
 6940 33b4 9211     		asrs r2, r2, # 6
 6941 33b6 9B11     		asrs r3, r3, # 6
 6942 33b8 8018     		adds r0, r0, r2         @r
 6943 33ba C918     		adds r1, r1, r3         @i
 6944 33bc 3618     		adds r6, r6, r0
 6945 33be 7F18     		adds r7, r7, r1
 6946              	
 6947              		@9
 6948 33c0 DD46     		mov sp, r11
 6949 33c2 0FBC     		pop {r0-r3}
 6950 33c4 EB46     		mov r11, sp
 6951 33c6 D546     		mov sp, r10
 6952 33c8 10BC     		pop {r4}
 6953 33ca EA46     		mov r10, sp
 6954 33cc 2546     		mov r5, r4
 6955 33ce 2404     		lsls r4, r4, # 16
 6956 33d0 240C     		lsrs r4, r4, # 16
 6957 33d2 2D0C     		lsrs r5, r5, # 16
 6958 33d4 6043     		muls r0, r0, r4		@R
 6959 33d6 6143     		muls r1, r1, r4		@I
 6960 33d8 6A43     		muls r2, r2, r5		@R
 6961 33da 6B43     		muls r3, r3, r5		@I
 6962 33dc 8011     		asrs r0, r0, # 6
 6963 33de 8911     		asrs r1, r1, # 6
 6964 33e0 9211     		asrs r2, r2, # 6
 6965 33e2 9B11     		asrs r3, r3, # 6
 6966 33e4 8018     		adds r0, r0, r2	 @r
 6967 33e6 C918     		adds r1, r1, r3	 @i
 6968 33e8 3618     		adds r6, r6, r0
 6969 33ea 7F18     		adds r7, r7, r1
 6970              	
 6971 33ec DD46     		mov sp, r11
 6972 33ee 0FBC     		pop {r0-r3}
 6973 33f0 EB46     		mov r11, sp
 6974 33f2 D546     		mov sp, r10
 6975 33f4 10BC     		pop {r4}
 6976 33f6 EA46     		mov r10, sp
 6977 33f8 2546     		mov r5, r4
 6978 33fa 2404     		lsls r4, r4, # 16
 6979 33fc 240C     		lsrs r4, r4, # 16
 6980 33fe 2D0C     		lsrs r5, r5, # 16
 6981 3400 6043     		muls r0, r0, r4
 6982 3402 6143     		muls r1, r1, r4
 6983 3404 6A43     		muls r2, r2, r5
 6984 3406 6B43     		muls r3, r3, r5
 6985 3408 8011     		asrs r0, r0, # 6
 6986 340a 8911     		asrs r1, r1, # 6
 6987 340c 9211     		asrs r2, r2, # 6
 6988 340e 9B11     		asrs r3, r3, # 6
 6989 3410 8018     		adds r0, r0, r2         @r
ARM GAS  1.s 			page 124


 6990 3412 C918     		adds r1, r1, r3         @i
 6991 3414 3618     		adds r6, r6, r0
 6992 3416 7F18     		adds r7, r7, r1
 6993              	
 6994 3418 DD46     		mov sp, r11
 6995 341a 0FBC     		pop {r0-r3}
 6996 341c EB46     		mov r11, sp
 6997 341e D546     		mov sp, r10
 6998 3420 10BC     		pop {r4}
 6999 3422 EA46     		mov r10, sp
 7000 3424 2546     		mov r5, r4
 7001 3426 2404     		lsls r4, r4, # 16
 7002 3428 240C     		lsrs r4, r4, # 16
 7003 342a 2D0C     		lsrs r5, r5, # 16
 7004 342c 6043     		muls r0, r0, r4
 7005 342e 6143     		muls r1, r1, r4
 7006 3430 6A43     		muls r2, r2, r5
 7007 3432 6B43     		muls r3, r3, r5
 7008 3434 8011     		asrs r0, r0, # 6
 7009 3436 8911     		asrs r1, r1, # 6
 7010 3438 9211     		asrs r2, r2, # 6
 7011 343a 9B11     		asrs r3, r3, # 6
 7012 343c 8018     		adds r0, r0, r2  @r
 7013 343e C918     		adds r1, r1, r3  @i
 7014 3440 3618     		adds r6, r6, r0
 7015 3442 7F18     		adds r7, r7, r1
 7016              	
 7017 3444 DD46     		mov sp, r11
 7018 3446 0FBC     		pop {r0-r3}
 7019 3448 EB46     		mov r11, sp
 7020 344a D546     		mov sp, r10
 7021 344c 10BC     		pop {r4}
 7022 344e EA46     		mov r10, sp
 7023 3450 2546     		mov r5, r4
 7024 3452 2404     		lsls r4, r4, # 16
 7025 3454 240C     		lsrs r4, r4, # 16
 7026 3456 2D0C     		lsrs r5, r5, # 16
 7027 3458 6043     		muls r0, r0, r4
 7028 345a 6143     		muls r1, r1, r4
 7029 345c 6A43     		muls r2, r2, r5
 7030 345e 6B43     		muls r3, r3, r5
 7031 3460 8011     		asrs r0, r0, # 6
 7032 3462 8911     		asrs r1, r1, # 6
 7033 3464 9211     		asrs r2, r2, # 6
 7034 3466 9B11     		asrs r3, r3, # 6
 7035 3468 8018     		adds r0, r0, r2         @r
 7036 346a C918     		adds r1, r1, r3         @i
 7037 346c 3618     		adds r6, r6, r0
 7038 346e 7F18     		adds r7, r7, r1
 7039              	
 7040              		@yjm6
 7041              		@0
 7042 3470 DD46     		mov sp, r11
 7043 3472 0FBC     		pop {r0-r3}
 7044 3474 EB46     		mov r11, sp
 7045 3476 D546     		mov sp, r10
 7046 3478 10BC     		pop {r4}
ARM GAS  1.s 			page 125


 7047 347a EA46     		mov r10, sp
 7048 347c 2546     		mov r5, r4
 7049 347e 2404     		lsls r4, r4, # 16
 7050 3480 240C     		lsrs r4, r4, # 16
 7051 3482 2D0C     		lsrs r5, r5, # 16
 7052 3484 6043     		muls r0, r0, r4		@R
 7053 3486 6143     		muls r1, r1, r4		@I
 7054 3488 6A43     		muls r2, r2, r5		@R
 7055 348a 6B43     		muls r3, r3, r5		@I
 7056 348c 8011     		asrs r0, r0, # 6
 7057 348e 8911     		asrs r1, r1, # 6
 7058 3490 9211     		asrs r2, r2, # 6
 7059 3492 9B11     		asrs r3, r3, # 6
 7060 3494 8018     		adds r0, r0, r2	 @r
 7061 3496 C918     		adds r1, r1, r3	 @i
 7062 3498 3618     		adds r6, r6, r0
 7063 349a 7F18     		adds r7, r7, r1
 7064              	
 7065 349c DD46     		mov sp, r11
 7066 349e 0FBC     		pop {r0-r3}
 7067 34a0 EB46     		mov r11, sp
 7068 34a2 D546     		mov sp, r10
 7069 34a4 10BC     		pop {r4}
 7070 34a6 EA46     		mov r10, sp
 7071 34a8 2546     		mov r5, r4
 7072 34aa 2404     		lsls r4, r4, # 16
 7073 34ac 240C     		lsrs r4, r4, # 16
 7074 34ae 2D0C     		lsrs r5, r5, # 16
 7075 34b0 6043     		muls r0, r0, r4
 7076 34b2 6143     		muls r1, r1, r4
 7077 34b4 6A43     		muls r2, r2, r5
 7078 34b6 6B43     		muls r3, r3, r5
 7079 34b8 8011     		asrs r0, r0, # 6
 7080 34ba 8911     		asrs r1, r1, # 6
 7081 34bc 9211     		asrs r2, r2, # 6
 7082 34be 9B11     		asrs r3, r3, # 6
 7083 34c0 8018     		adds r0, r0, r2         @r
 7084 34c2 C918     		adds r1, r1, r3         @i
 7085 34c4 3618     		adds r6, r6, r0
 7086 34c6 7F18     		adds r7, r7, r1
 7087              	
 7088 34c8 DD46     		mov sp, r11
 7089 34ca 0FBC     		pop {r0-r3}
 7090 34cc EB46     		mov r11, sp
 7091 34ce D546     		mov sp, r10
 7092 34d0 10BC     		pop {r4}
 7093 34d2 EA46     		mov r10, sp
 7094 34d4 2546     		mov r5, r4
 7095 34d6 2404     		lsls r4, r4, # 16
 7096 34d8 240C     		lsrs r4, r4, # 16
 7097 34da 2D0C     		lsrs r5, r5, # 16
 7098 34dc 6043     		muls r0, r0, r4
 7099 34de 6143     		muls r1, r1, r4
 7100 34e0 6A43     		muls r2, r2, r5
 7101 34e2 6B43     		muls r3, r3, r5
 7102 34e4 8011     		asrs r0, r0, # 6
 7103 34e6 8911     		asrs r1, r1, # 6
ARM GAS  1.s 			page 126


 7104 34e8 9211     		asrs r2, r2, # 6
 7105 34ea 9B11     		asrs r3, r3, # 6
 7106 34ec 8018     		adds r0, r0, r2  @r
 7107 34ee C918     		adds r1, r1, r3  @i
 7108 34f0 3618     		adds r6, r6, r0
 7109 34f2 7F18     		adds r7, r7, r1
 7110              	
 7111 34f4 DD46     		mov sp, r11
 7112 34f6 0FBC     		pop {r0-r3}
 7113 34f8 EB46     		mov r11, sp
 7114 34fa D546     		mov sp, r10
 7115 34fc 10BC     		pop {r4}
 7116 34fe EA46     		mov r10, sp
 7117 3500 2546     		mov r5, r4
 7118 3502 2404     		lsls r4, r4, # 16
 7119 3504 240C     		lsrs r4, r4, # 16
 7120 3506 2D0C     		lsrs r5, r5, # 16
 7121 3508 6043     		muls r0, r0, r4
 7122 350a 6143     		muls r1, r1, r4
 7123 350c 6A43     		muls r2, r2, r5
 7124 350e 6B43     		muls r3, r3, r5
 7125 3510 8011     		asrs r0, r0, # 6
 7126 3512 8911     		asrs r1, r1, # 6
 7127 3514 9211     		asrs r2, r2, # 6
 7128 3516 9B11     		asrs r3, r3, # 6
 7129 3518 8018     		adds r0, r0, r2         @r
 7130 351a C918     		adds r1, r1, r3         @i
 7131 351c 3618     		adds r6, r6, r0
 7132 351e 7F18     		adds r7, r7, r1
 7133              	
 7134              		@1
 7135 3520 DD46     		mov sp, r11
 7136 3522 0FBC     		pop {r0-r3}
 7137 3524 EB46     		mov r11, sp
 7138 3526 D546     		mov sp, r10
 7139 3528 10BC     		pop {r4}
 7140 352a EA46     		mov r10, sp
 7141 352c 2546     		mov r5, r4
 7142 352e 2404     		lsls r4, r4, # 16
 7143 3530 240C     		lsrs r4, r4, # 16
 7144 3532 2D0C     		lsrs r5, r5, # 16
 7145 3534 6043     		muls r0, r0, r4		@R
 7146 3536 6143     		muls r1, r1, r4		@I
 7147 3538 6A43     		muls r2, r2, r5		@R
 7148 353a 6B43     		muls r3, r3, r5		@I
 7149 353c 8011     		asrs r0, r0, # 6
 7150 353e 8911     		asrs r1, r1, # 6
 7151 3540 9211     		asrs r2, r2, # 6
 7152 3542 9B11     		asrs r3, r3, # 6
 7153 3544 8018     		adds r0, r0, r2	 @r
 7154 3546 C918     		adds r1, r1, r3	 @i
 7155 3548 3618     		adds r6, r6, r0
 7156 354a 7F18     		adds r7, r7, r1
 7157              	
 7158 354c DD46     		mov sp, r11
 7159 354e 0FBC     		pop {r0-r3}
 7160 3550 EB46     		mov r11, sp
ARM GAS  1.s 			page 127


 7161 3552 D546     		mov sp, r10
 7162 3554 10BC     		pop {r4}
 7163 3556 EA46     		mov r10, sp
 7164 3558 2546     		mov r5, r4
 7165 355a 2404     		lsls r4, r4, # 16
 7166 355c 240C     		lsrs r4, r4, # 16
 7167 355e 2D0C     		lsrs r5, r5, # 16
 7168 3560 6043     		muls r0, r0, r4
 7169 3562 6143     		muls r1, r1, r4
 7170 3564 6A43     		muls r2, r2, r5
 7171 3566 6B43     		muls r3, r3, r5
 7172 3568 8011     		asrs r0, r0, # 6
 7173 356a 8911     		asrs r1, r1, # 6
 7174 356c 9211     		asrs r2, r2, # 6
 7175 356e 9B11     		asrs r3, r3, # 6
 7176 3570 8018     		adds r0, r0, r2         @r
 7177 3572 C918     		adds r1, r1, r3         @i
 7178 3574 3618     		adds r6, r6, r0
 7179 3576 7F18     		adds r7, r7, r1
 7180              	
 7181 3578 DD46     		mov sp, r11
 7182 357a 0FBC     		pop {r0-r3}
 7183 357c EB46     		mov r11, sp
 7184 357e D546     		mov sp, r10
 7185 3580 10BC     		pop {r4}
 7186 3582 EA46     		mov r10, sp
 7187 3584 2546     		mov r5, r4
 7188 3586 2404     		lsls r4, r4, # 16
 7189 3588 240C     		lsrs r4, r4, # 16
 7190 358a 2D0C     		lsrs r5, r5, # 16
 7191 358c 6043     		muls r0, r0, r4
 7192 358e 6143     		muls r1, r1, r4
 7193 3590 6A43     		muls r2, r2, r5
 7194 3592 6B43     		muls r3, r3, r5
 7195 3594 8011     		asrs r0, r0, # 6
 7196 3596 8911     		asrs r1, r1, # 6
 7197 3598 9211     		asrs r2, r2, # 6
 7198 359a 9B11     		asrs r3, r3, # 6
 7199 359c 8018     		adds r0, r0, r2  @r
 7200 359e C918     		adds r1, r1, r3  @i
 7201 35a0 3618     		adds r6, r6, r0
 7202 35a2 7F18     		adds r7, r7, r1
 7203              	
 7204 35a4 DD46     		mov sp, r11
 7205 35a6 0FBC     		pop {r0-r3}
 7206 35a8 EB46     		mov r11, sp
 7207 35aa D546     		mov sp, r10
 7208 35ac 10BC     		pop {r4}
 7209 35ae EA46     		mov r10, sp
 7210 35b0 2546     		mov r5, r4
 7211 35b2 2404     		lsls r4, r4, # 16
 7212 35b4 240C     		lsrs r4, r4, # 16
 7213 35b6 2D0C     		lsrs r5, r5, # 16
 7214 35b8 6043     		muls r0, r0, r4
 7215 35ba 6143     		muls r1, r1, r4
 7216 35bc 6A43     		muls r2, r2, r5
 7217 35be 6B43     		muls r3, r3, r5
ARM GAS  1.s 			page 128


 7218 35c0 8011     		asrs r0, r0, # 6
 7219 35c2 8911     		asrs r1, r1, # 6
 7220 35c4 9211     		asrs r2, r2, # 6
 7221 35c6 9B11     		asrs r3, r3, # 6
 7222 35c8 8018     		adds r0, r0, r2         @r
 7223 35ca C918     		adds r1, r1, r3         @i
 7224 35cc 3618     		adds r6, r6, r0
 7225 35ce 7F18     		adds r7, r7, r1
 7226              	
 7227              		@2
 7228 35d0 DD46     		mov sp, r11
 7229 35d2 0FBC     		pop {r0-r3}
 7230 35d4 EB46     		mov r11, sp
 7231 35d6 D546     		mov sp, r10
 7232 35d8 10BC     		pop {r4}
 7233 35da EA46     		mov r10, sp
 7234 35dc 2546     		mov r5, r4
 7235 35de 2404     		lsls r4, r4, # 16
 7236 35e0 240C     		lsrs r4, r4, # 16
 7237 35e2 2D0C     		lsrs r5, r5, # 16
 7238 35e4 6043     		muls r0, r0, r4		@R
 7239 35e6 6143     		muls r1, r1, r4		@I
 7240 35e8 6A43     		muls r2, r2, r5		@R
 7241 35ea 6B43     		muls r3, r3, r5		@I
 7242 35ec 8011     		asrs r0, r0, # 6
 7243 35ee 8911     		asrs r1, r1, # 6
 7244 35f0 9211     		asrs r2, r2, # 6
 7245 35f2 9B11     		asrs r3, r3, # 6
 7246 35f4 8018     		adds r0, r0, r2	 @r
 7247 35f6 C918     		adds r1, r1, r3	 @i
 7248 35f8 3618     		adds r6, r6, r0
 7249 35fa 7F18     		adds r7, r7, r1
 7250              	
 7251 35fc DD46     		mov sp, r11
 7252 35fe 0FBC     		pop {r0-r3}
 7253 3600 EB46     		mov r11, sp
 7254 3602 D546     		mov sp, r10
 7255 3604 10BC     		pop {r4}
 7256 3606 EA46     		mov r10, sp
 7257 3608 2546     		mov r5, r4
 7258 360a 2404     		lsls r4, r4, # 16
 7259 360c 240C     		lsrs r4, r4, # 16
 7260 360e 2D0C     		lsrs r5, r5, # 16
 7261 3610 6043     		muls r0, r0, r4
 7262 3612 6143     		muls r1, r1, r4
 7263 3614 6A43     		muls r2, r2, r5
 7264 3616 6B43     		muls r3, r3, r5
 7265 3618 8011     		asrs r0, r0, # 6
 7266 361a 8911     		asrs r1, r1, # 6
 7267 361c 9211     		asrs r2, r2, # 6
 7268 361e 9B11     		asrs r3, r3, # 6
 7269 3620 8018     		adds r0, r0, r2         @r
 7270 3622 C918     		adds r1, r1, r3         @i
 7271 3624 3618     		adds r6, r6, r0
 7272 3626 7F18     		adds r7, r7, r1
 7273              	
 7274 3628 DD46     		mov sp, r11
ARM GAS  1.s 			page 129


 7275 362a 0FBC     		pop {r0-r3}
 7276 362c EB46     		mov r11, sp
 7277 362e D546     		mov sp, r10
 7278 3630 10BC     		pop {r4}
 7279 3632 EA46     		mov r10, sp
 7280 3634 2546     		mov r5, r4
 7281 3636 2404     		lsls r4, r4, # 16
 7282 3638 240C     		lsrs r4, r4, # 16
 7283 363a 2D0C     		lsrs r5, r5, # 16
 7284 363c 6043     		muls r0, r0, r4
 7285 363e 6143     		muls r1, r1, r4
 7286 3640 6A43     		muls r2, r2, r5
 7287 3642 6B43     		muls r3, r3, r5
 7288 3644 8011     		asrs r0, r0, # 6
 7289 3646 8911     		asrs r1, r1, # 6
 7290 3648 9211     		asrs r2, r2, # 6
 7291 364a 9B11     		asrs r3, r3, # 6
 7292 364c 8018     		adds r0, r0, r2  @r
 7293 364e C918     		adds r1, r1, r3  @i
 7294 3650 3618     		adds r6, r6, r0
 7295 3652 7F18     		adds r7, r7, r1
 7296              	
 7297 3654 DD46     		mov sp, r11
 7298 3656 0FBC     		pop {r0-r3}
 7299 3658 EB46     		mov r11, sp
 7300 365a D546     		mov sp, r10
 7301 365c 10BC     		pop {r4}
 7302 365e EA46     		mov r10, sp
 7303 3660 2546     		mov r5, r4
 7304 3662 2404     		lsls r4, r4, # 16
 7305 3664 240C     		lsrs r4, r4, # 16
 7306 3666 2D0C     		lsrs r5, r5, # 16
 7307 3668 6043     		muls r0, r0, r4
 7308 366a 6143     		muls r1, r1, r4
 7309 366c 6A43     		muls r2, r2, r5
 7310 366e 6B43     		muls r3, r3, r5
 7311 3670 8011     		asrs r0, r0, # 6
 7312 3672 8911     		asrs r1, r1, # 6
 7313 3674 9211     		asrs r2, r2, # 6
 7314 3676 9B11     		asrs r3, r3, # 6
 7315 3678 8018     		adds r0, r0, r2         @r
 7316 367a C918     		adds r1, r1, r3         @i
 7317 367c 3618     		adds r6, r6, r0
 7318 367e 7F18     		adds r7, r7, r1
 7319              	
 7320              		@3
 7321 3680 DD46     		mov sp, r11
 7322 3682 0FBC     		pop {r0-r3}
 7323 3684 EB46     		mov r11, sp
 7324 3686 D546     		mov sp, r10
 7325 3688 10BC     		pop {r4}
 7326 368a EA46     		mov r10, sp
 7327 368c 2546     		mov r5, r4
 7328 368e 2404     		lsls r4, r4, # 16
 7329 3690 240C     		lsrs r4, r4, # 16
 7330 3692 2D0C     		lsrs r5, r5, # 16
 7331 3694 6043     		muls r0, r0, r4		@R
ARM GAS  1.s 			page 130


 7332 3696 6143     		muls r1, r1, r4		@I
 7333 3698 6A43     		muls r2, r2, r5		@R
 7334 369a 6B43     		muls r3, r3, r5		@I
 7335 369c 8011     		asrs r0, r0, # 6
 7336 369e 8911     		asrs r1, r1, # 6
 7337 36a0 9211     		asrs r2, r2, # 6
 7338 36a2 9B11     		asrs r3, r3, # 6
 7339 36a4 8018     		adds r0, r0, r2	 @r
 7340 36a6 C918     		adds r1, r1, r3	 @i
 7341 36a8 3618     		adds r6, r6, r0
 7342 36aa 7F18     		adds r7, r7, r1
 7343              	
 7344 36ac DD46     		mov sp, r11
 7345 36ae 0FBC     		pop {r0-r3}
 7346 36b0 EB46     		mov r11, sp
 7347 36b2 D546     		mov sp, r10
 7348 36b4 10BC     		pop {r4}
 7349 36b6 EA46     		mov r10, sp
 7350 36b8 2546     		mov r5, r4
 7351 36ba 2404     		lsls r4, r4, # 16
 7352 36bc 240C     		lsrs r4, r4, # 16
 7353 36be 2D0C     		lsrs r5, r5, # 16
 7354 36c0 6043     		muls r0, r0, r4
 7355 36c2 6143     		muls r1, r1, r4
 7356 36c4 6A43     		muls r2, r2, r5
 7357 36c6 6B43     		muls r3, r3, r5
 7358 36c8 8011     		asrs r0, r0, # 6
 7359 36ca 8911     		asrs r1, r1, # 6
 7360 36cc 9211     		asrs r2, r2, # 6
 7361 36ce 9B11     		asrs r3, r3, # 6
 7362 36d0 8018     		adds r0, r0, r2         @r
 7363 36d2 C918     		adds r1, r1, r3         @i
 7364 36d4 3618     		adds r6, r6, r0
 7365 36d6 7F18     		adds r7, r7, r1
 7366              	
 7367 36d8 DD46     		mov sp, r11
 7368 36da 0FBC     		pop {r0-r3}
 7369 36dc EB46     		mov r11, sp
 7370 36de D546     		mov sp, r10
 7371 36e0 10BC     		pop {r4}
 7372 36e2 EA46     		mov r10, sp
 7373 36e4 2546     		mov r5, r4
 7374 36e6 2404     		lsls r4, r4, # 16
 7375 36e8 240C     		lsrs r4, r4, # 16
 7376 36ea 2D0C     		lsrs r5, r5, # 16
 7377 36ec 6043     		muls r0, r0, r4
 7378 36ee 6143     		muls r1, r1, r4
 7379 36f0 6A43     		muls r2, r2, r5
 7380 36f2 6B43     		muls r3, r3, r5
 7381 36f4 8011     		asrs r0, r0, # 6
 7382 36f6 8911     		asrs r1, r1, # 6
 7383 36f8 9211     		asrs r2, r2, # 6
 7384 36fa 9B11     		asrs r3, r3, # 6
 7385 36fc 8018     		adds r0, r0, r2  @r
 7386 36fe C918     		adds r1, r1, r3  @i
 7387 3700 3618     		adds r6, r6, r0
 7388 3702 7F18     		adds r7, r7, r1
ARM GAS  1.s 			page 131


 7389              	
 7390 3704 DD46     		mov sp, r11
 7391 3706 0FBC     		pop {r0-r3}
 7392 3708 EB46     		mov r11, sp
 7393 370a D546     		mov sp, r10
 7394 370c 10BC     		pop {r4}
 7395 370e EA46     		mov r10, sp
 7396 3710 2546     		mov r5, r4
 7397 3712 2404     		lsls r4, r4, # 16
 7398 3714 240C     		lsrs r4, r4, # 16
 7399 3716 2D0C     		lsrs r5, r5, # 16
 7400 3718 6043     		muls r0, r0, r4
 7401 371a 6143     		muls r1, r1, r4
 7402 371c 6A43     		muls r2, r2, r5
 7403 371e 6B43     		muls r3, r3, r5
 7404 3720 8011     		asrs r0, r0, # 6
 7405 3722 8911     		asrs r1, r1, # 6
 7406 3724 9211     		asrs r2, r2, # 6
 7407 3726 9B11     		asrs r3, r3, # 6
 7408 3728 8018     		adds r0, r0, r2         @r
 7409 372a C918     		adds r1, r1, r3         @i
 7410 372c 3618     		adds r6, r6, r0
 7411 372e 7F18     		adds r7, r7, r1
 7412              	
 7413              		@4
 7414 3730 DD46     		mov sp, r11
 7415 3732 0FBC     		pop {r0-r3}
 7416 3734 EB46     		mov r11, sp
 7417 3736 D546     		mov sp, r10
 7418 3738 10BC     		pop {r4}
 7419 373a EA46     		mov r10, sp
 7420 373c 2546     		mov r5, r4
 7421 373e 2404     		lsls r4, r4, # 16
 7422 3740 240C     		lsrs r4, r4, # 16
 7423 3742 2D0C     		lsrs r5, r5, # 16
 7424 3744 6043     		muls r0, r0, r4		@R
 7425 3746 6143     		muls r1, r1, r4		@I
 7426 3748 6A43     		muls r2, r2, r5		@R
 7427 374a 6B43     		muls r3, r3, r5		@I
 7428 374c 8011     		asrs r0, r0, # 6
 7429 374e 8911     		asrs r1, r1, # 6
 7430 3750 9211     		asrs r2, r2, # 6
 7431 3752 9B11     		asrs r3, r3, # 6
 7432 3754 8018     		adds r0, r0, r2	 @r
 7433 3756 C918     		adds r1, r1, r3	 @i
 7434 3758 3618     		adds r6, r6, r0
 7435 375a 7F18     		adds r7, r7, r1
 7436              	
 7437 375c DD46     		mov sp, r11
 7438 375e 0FBC     		pop {r0-r3}
 7439 3760 EB46     		mov r11, sp
 7440 3762 D546     		mov sp, r10
 7441 3764 10BC     		pop {r4}
 7442 3766 EA46     		mov r10, sp
 7443 3768 2546     		mov r5, r4
 7444 376a 2404     		lsls r4, r4, # 16
 7445 376c 240C     		lsrs r4, r4, # 16
ARM GAS  1.s 			page 132


 7446 376e 2D0C     		lsrs r5, r5, # 16
 7447 3770 6043     		muls r0, r0, r4
 7448 3772 6143     		muls r1, r1, r4
 7449 3774 6A43     		muls r2, r2, r5
 7450 3776 6B43     		muls r3, r3, r5
 7451 3778 8011     		asrs r0, r0, # 6
 7452 377a 8911     		asrs r1, r1, # 6
 7453 377c 9211     		asrs r2, r2, # 6
 7454 377e 9B11     		asrs r3, r3, # 6
 7455 3780 8018     		adds r0, r0, r2         @r
 7456 3782 C918     		adds r1, r1, r3         @i
 7457 3784 3618     		adds r6, r6, r0
 7458 3786 7F18     		adds r7, r7, r1
 7459              	
 7460 3788 DD46     		mov sp, r11
 7461 378a 0FBC     		pop {r0-r3}
 7462 378c EB46     		mov r11, sp
 7463 378e D546     		mov sp, r10
 7464 3790 10BC     		pop {r4}
 7465 3792 EA46     		mov r10, sp
 7466 3794 2546     		mov r5, r4
 7467 3796 2404     		lsls r4, r4, # 16
 7468 3798 240C     		lsrs r4, r4, # 16
 7469 379a 2D0C     		lsrs r5, r5, # 16
 7470 379c 6043     		muls r0, r0, r4
 7471 379e 6143     		muls r1, r1, r4
 7472 37a0 6A43     		muls r2, r2, r5
 7473 37a2 6B43     		muls r3, r3, r5
 7474 37a4 8011     		asrs r0, r0, # 6
 7475 37a6 8911     		asrs r1, r1, # 6
 7476 37a8 9211     		asrs r2, r2, # 6
 7477 37aa 9B11     		asrs r3, r3, # 6
 7478 37ac 8018     		adds r0, r0, r2  @r
 7479 37ae C918     		adds r1, r1, r3  @i
 7480 37b0 3618     		adds r6, r6, r0
 7481 37b2 7F18     		adds r7, r7, r1
 7482              	
 7483 37b4 DD46     		mov sp, r11
 7484 37b6 0FBC     		pop {r0-r3}
 7485 37b8 EB46     		mov r11, sp
 7486 37ba D546     		mov sp, r10
 7487 37bc 10BC     		pop {r4}
 7488 37be EA46     		mov r10, sp
 7489 37c0 2546     		mov r5, r4
 7490 37c2 2404     		lsls r4, r4, # 16
 7491 37c4 240C     		lsrs r4, r4, # 16
 7492 37c6 2D0C     		lsrs r5, r5, # 16
 7493 37c8 6043     		muls r0, r0, r4
 7494 37ca 6143     		muls r1, r1, r4
 7495 37cc 6A43     		muls r2, r2, r5
 7496 37ce 6B43     		muls r3, r3, r5
 7497 37d0 8011     		asrs r0, r0, # 6
 7498 37d2 8911     		asrs r1, r1, # 6
 7499 37d4 9211     		asrs r2, r2, # 6
 7500 37d6 9B11     		asrs r3, r3, # 6
 7501 37d8 8018     		adds r0, r0, r2         @r
 7502 37da C918     		adds r1, r1, r3         @i
ARM GAS  1.s 			page 133


 7503 37dc 3618     		adds r6, r6, r0
 7504 37de 7F18     		adds r7, r7, r1
 7505              	
 7506              		@5
 7507 37e0 DD46     		mov sp, r11
 7508 37e2 0FBC     		pop {r0-r3}
 7509 37e4 EB46     		mov r11, sp
 7510 37e6 D546     		mov sp, r10
 7511 37e8 10BC     		pop {r4}
 7512 37ea EA46     		mov r10, sp
 7513 37ec 2546     		mov r5, r4
 7514 37ee 2404     		lsls r4, r4, # 16
 7515 37f0 240C     		lsrs r4, r4, # 16
 7516 37f2 2D0C     		lsrs r5, r5, # 16
 7517 37f4 6043     		muls r0, r0, r4		@R
 7518 37f6 6143     		muls r1, r1, r4		@I
 7519 37f8 6A43     		muls r2, r2, r5		@R
 7520 37fa 6B43     		muls r3, r3, r5		@I
 7521 37fc 8011     		asrs r0, r0, # 6
 7522 37fe 8911     		asrs r1, r1, # 6
 7523 3800 9211     		asrs r2, r2, # 6
 7524 3802 9B11     		asrs r3, r3, # 6
 7525 3804 8018     		adds r0, r0, r2	 @r
 7526 3806 C918     		adds r1, r1, r3	 @i
 7527 3808 3618     		adds r6, r6, r0
 7528 380a 7F18     		adds r7, r7, r1
 7529              	
 7530 380c DD46     		mov sp, r11
 7531 380e 0FBC     		pop {r0-r3}
 7532 3810 EB46     		mov r11, sp
 7533 3812 D546     		mov sp, r10
 7534 3814 10BC     		pop {r4}
 7535 3816 EA46     		mov r10, sp
 7536 3818 2546     		mov r5, r4
 7537 381a 2404     		lsls r4, r4, # 16
 7538 381c 240C     		lsrs r4, r4, # 16
 7539 381e 2D0C     		lsrs r5, r5, # 16
 7540 3820 6043     		muls r0, r0, r4
 7541 3822 6143     		muls r1, r1, r4
 7542 3824 6A43     		muls r2, r2, r5
 7543 3826 6B43     		muls r3, r3, r5
 7544 3828 8011     		asrs r0, r0, # 6
 7545 382a 8911     		asrs r1, r1, # 6
 7546 382c 9211     		asrs r2, r2, # 6
 7547 382e 9B11     		asrs r3, r3, # 6
 7548 3830 8018     		adds r0, r0, r2         @r
 7549 3832 C918     		adds r1, r1, r3         @i
 7550 3834 3618     		adds r6, r6, r0
 7551 3836 7F18     		adds r7, r7, r1
 7552              	
 7553 3838 DD46     		mov sp, r11
 7554 383a 0FBC     		pop {r0-r3}
 7555 383c EB46     		mov r11, sp
 7556 383e D546     		mov sp, r10
 7557 3840 10BC     		pop {r4}
 7558 3842 EA46     		mov r10, sp
 7559 3844 2546     		mov r5, r4
ARM GAS  1.s 			page 134


 7560 3846 2404     		lsls r4, r4, # 16
 7561 3848 240C     		lsrs r4, r4, # 16
 7562 384a 2D0C     		lsrs r5, r5, # 16
 7563 384c 6043     		muls r0, r0, r4
 7564 384e 6143     		muls r1, r1, r4
 7565 3850 6A43     		muls r2, r2, r5
 7566 3852 6B43     		muls r3, r3, r5
 7567 3854 8011     		asrs r0, r0, # 6
 7568 3856 8911     		asrs r1, r1, # 6
 7569 3858 9211     		asrs r2, r2, # 6
 7570 385a 9B11     		asrs r3, r3, # 6
 7571 385c 8018     		adds r0, r0, r2  @r
 7572 385e C918     		adds r1, r1, r3  @i
 7573 3860 3618     		adds r6, r6, r0
 7574 3862 7F18     		adds r7, r7, r1
 7575              	
 7576 3864 DD46     		mov sp, r11
 7577 3866 0FBC     		pop {r0-r3}
 7578 3868 EB46     		mov r11, sp
 7579 386a D546     		mov sp, r10
 7580 386c 10BC     		pop {r4}
 7581 386e EA46     		mov r10, sp
 7582 3870 2546     		mov r5, r4
 7583 3872 2404     		lsls r4, r4, # 16
 7584 3874 240C     		lsrs r4, r4, # 16
 7585 3876 2D0C     		lsrs r5, r5, # 16
 7586 3878 6043     		muls r0, r0, r4
 7587 387a 6143     		muls r1, r1, r4
 7588 387c 6A43     		muls r2, r2, r5
 7589 387e 6B43     		muls r3, r3, r5
 7590 3880 8011     		asrs r0, r0, # 6
 7591 3882 8911     		asrs r1, r1, # 6
 7592 3884 9211     		asrs r2, r2, # 6
 7593 3886 9B11     		asrs r3, r3, # 6
 7594 3888 8018     		adds r0, r0, r2         @r
 7595 388a C918     		adds r1, r1, r3         @i
 7596 388c 3618     		adds r6, r6, r0
 7597 388e 7F18     		adds r7, r7, r1
 7598              	
 7599              		@6
 7600 3890 DD46     		mov sp, r11
 7601 3892 0FBC     		pop {r0-r3}
 7602 3894 EB46     		mov r11, sp
 7603 3896 D546     		mov sp, r10
 7604 3898 10BC     		pop {r4}
 7605 389a EA46     		mov r10, sp
 7606 389c 2546     		mov r5, r4
 7607 389e 2404     		lsls r4, r4, # 16
 7608 38a0 240C     		lsrs r4, r4, # 16
 7609 38a2 2D0C     		lsrs r5, r5, # 16
 7610 38a4 6043     		muls r0, r0, r4		@R
 7611 38a6 6143     		muls r1, r1, r4		@I
 7612 38a8 6A43     		muls r2, r2, r5		@R
 7613 38aa 6B43     		muls r3, r3, r5		@I
 7614 38ac 8011     		asrs r0, r0, # 6
 7615 38ae 8911     		asrs r1, r1, # 6
 7616 38b0 9211     		asrs r2, r2, # 6
ARM GAS  1.s 			page 135


 7617 38b2 9B11     		asrs r3, r3, # 6
 7618 38b4 8018     		adds r0, r0, r2	 @r
 7619 38b6 C918     		adds r1, r1, r3	 @i
 7620 38b8 3618     		adds r6, r6, r0
 7621 38ba 7F18     		adds r7, r7, r1
 7622              	
 7623 38bc DD46     		mov sp, r11
 7624 38be 0FBC     		pop {r0-r3}
 7625 38c0 EB46     		mov r11, sp
 7626 38c2 D546     		mov sp, r10
 7627 38c4 10BC     		pop {r4}
 7628 38c6 EA46     		mov r10, sp
 7629 38c8 2546     		mov r5, r4
 7630 38ca 2404     		lsls r4, r4, # 16
 7631 38cc 240C     		lsrs r4, r4, # 16
 7632 38ce 2D0C     		lsrs r5, r5, # 16
 7633 38d0 6043     		muls r0, r0, r4
 7634 38d2 6143     		muls r1, r1, r4
 7635 38d4 6A43     		muls r2, r2, r5
 7636 38d6 6B43     		muls r3, r3, r5
 7637 38d8 8011     		asrs r0, r0, # 6
 7638 38da 8911     		asrs r1, r1, # 6
 7639 38dc 9211     		asrs r2, r2, # 6
 7640 38de 9B11     		asrs r3, r3, # 6
 7641 38e0 8018     		adds r0, r0, r2         @r
 7642 38e2 C918     		adds r1, r1, r3         @i
 7643 38e4 3618     		adds r6, r6, r0
 7644 38e6 7F18     		adds r7, r7, r1
 7645              	
 7646 38e8 DD46     		mov sp, r11
 7647 38ea 0FBC     		pop {r0-r3}
 7648 38ec EB46     		mov r11, sp
 7649 38ee D546     		mov sp, r10
 7650 38f0 10BC     		pop {r4}
 7651 38f2 EA46     		mov r10, sp
 7652 38f4 2546     		mov r5, r4
 7653 38f6 2404     		lsls r4, r4, # 16
 7654 38f8 240C     		lsrs r4, r4, # 16
 7655 38fa 2D0C     		lsrs r5, r5, # 16
 7656 38fc 6043     		muls r0, r0, r4
 7657 38fe 6143     		muls r1, r1, r4
 7658 3900 6A43     		muls r2, r2, r5
 7659 3902 6B43     		muls r3, r3, r5
 7660 3904 8011     		asrs r0, r0, # 6
 7661 3906 8911     		asrs r1, r1, # 6
 7662 3908 9211     		asrs r2, r2, # 6
 7663 390a 9B11     		asrs r3, r3, # 6
 7664 390c 8018     		adds r0, r0, r2  @r
 7665 390e C918     		adds r1, r1, r3  @i
 7666 3910 3618     		adds r6, r6, r0
 7667 3912 7F18     		adds r7, r7, r1
 7668              	
 7669 3914 DD46     		mov sp, r11
 7670 3916 0FBC     		pop {r0-r3}
 7671 3918 EB46     		mov r11, sp
 7672 391a D546     		mov sp, r10
 7673 391c 10BC     		pop {r4}
ARM GAS  1.s 			page 136


 7674 391e EA46     		mov r10, sp
 7675 3920 2546     		mov r5, r4
 7676 3922 2404     		lsls r4, r4, # 16
 7677 3924 240C     		lsrs r4, r4, # 16
 7678 3926 2D0C     		lsrs r5, r5, # 16
 7679 3928 6043     		muls r0, r0, r4
 7680 392a 6143     		muls r1, r1, r4
 7681 392c 6A43     		muls r2, r2, r5
 7682 392e 6B43     		muls r3, r3, r5
 7683 3930 8011     		asrs r0, r0, # 6
 7684 3932 8911     		asrs r1, r1, # 6
 7685 3934 9211     		asrs r2, r2, # 6
 7686 3936 9B11     		asrs r3, r3, # 6
 7687 3938 8018     		adds r0, r0, r2         @r
 7688 393a C918     		adds r1, r1, r3         @i
 7689 393c 3618     		adds r6, r6, r0
 7690 393e 7F18     		adds r7, r7, r1
 7691              	
 7692              		@7
 7693 3940 DD46     		mov sp, r11
 7694 3942 0FBC     		pop {r0-r3}
 7695 3944 EB46     		mov r11, sp
 7696 3946 D546     		mov sp, r10
 7697 3948 10BC     		pop {r4}
 7698 394a EA46     		mov r10, sp
 7699 394c 2546     		mov r5, r4
 7700 394e 2404     		lsls r4, r4, # 16
 7701 3950 240C     		lsrs r4, r4, # 16
 7702 3952 2D0C     		lsrs r5, r5, # 16
 7703 3954 6043     		muls r0, r0, r4		@R
 7704 3956 6143     		muls r1, r1, r4		@I
 7705 3958 6A43     		muls r2, r2, r5		@R
 7706 395a 6B43     		muls r3, r3, r5		@I
 7707 395c 8011     		asrs r0, r0, # 6
 7708 395e 8911     		asrs r1, r1, # 6
 7709 3960 9211     		asrs r2, r2, # 6
 7710 3962 9B11     		asrs r3, r3, # 6
 7711 3964 8018     		adds r0, r0, r2	 @r
 7712 3966 C918     		adds r1, r1, r3	 @i
 7713 3968 3618     		adds r6, r6, r0
 7714 396a 7F18     		adds r7, r7, r1
 7715              	
 7716 396c DD46     		mov sp, r11
 7717 396e 0FBC     		pop {r0-r3}
 7718 3970 EB46     		mov r11, sp
 7719 3972 D546     		mov sp, r10
 7720 3974 10BC     		pop {r4}
 7721 3976 EA46     		mov r10, sp
 7722 3978 2546     		mov r5, r4
 7723 397a 2404     		lsls r4, r4, # 16
 7724 397c 240C     		lsrs r4, r4, # 16
 7725 397e 2D0C     		lsrs r5, r5, # 16
 7726 3980 6043     		muls r0, r0, r4
 7727 3982 6143     		muls r1, r1, r4
 7728 3984 6A43     		muls r2, r2, r5
 7729 3986 6B43     		muls r3, r3, r5
 7730 3988 8011     		asrs r0, r0, # 6
ARM GAS  1.s 			page 137


 7731 398a 8911     		asrs r1, r1, # 6
 7732 398c 9211     		asrs r2, r2, # 6
 7733 398e 9B11     		asrs r3, r3, # 6
 7734 3990 8018     		adds r0, r0, r2         @r
 7735 3992 C918     		adds r1, r1, r3         @i
 7736 3994 3618     		adds r6, r6, r0
 7737 3996 7F18     		adds r7, r7, r1
 7738              	
 7739 3998 DD46     		mov sp, r11
 7740 399a 0FBC     		pop {r0-r3}
 7741 399c EB46     		mov r11, sp
 7742 399e D546     		mov sp, r10
 7743 39a0 10BC     		pop {r4}
 7744 39a2 EA46     		mov r10, sp
 7745 39a4 2546     		mov r5, r4
 7746 39a6 2404     		lsls r4, r4, # 16
 7747 39a8 240C     		lsrs r4, r4, # 16
 7748 39aa 2D0C     		lsrs r5, r5, # 16
 7749 39ac 6043     		muls r0, r0, r4
 7750 39ae 6143     		muls r1, r1, r4
 7751 39b0 6A43     		muls r2, r2, r5
 7752 39b2 6B43     		muls r3, r3, r5
 7753 39b4 8011     		asrs r0, r0, # 6
 7754 39b6 8911     		asrs r1, r1, # 6
 7755 39b8 9211     		asrs r2, r2, # 6
 7756 39ba 9B11     		asrs r3, r3, # 6
 7757 39bc 8018     		adds r0, r0, r2  @r
 7758 39be C918     		adds r1, r1, r3  @i
 7759 39c0 3618     		adds r6, r6, r0
 7760 39c2 7F18     		adds r7, r7, r1
 7761              	
 7762 39c4 DD46     		mov sp, r11
 7763 39c6 0FBC     		pop {r0-r3}
 7764 39c8 EB46     		mov r11, sp
 7765 39ca D546     		mov sp, r10
 7766 39cc 10BC     		pop {r4}
 7767 39ce EA46     		mov r10, sp
 7768 39d0 2546     		mov r5, r4
 7769 39d2 2404     		lsls r4, r4, # 16
 7770 39d4 240C     		lsrs r4, r4, # 16
 7771 39d6 2D0C     		lsrs r5, r5, # 16
 7772 39d8 6043     		muls r0, r0, r4
 7773 39da 6143     		muls r1, r1, r4
 7774 39dc 6A43     		muls r2, r2, r5
 7775 39de 6B43     		muls r3, r3, r5
 7776 39e0 8011     		asrs r0, r0, # 6
 7777 39e2 8911     		asrs r1, r1, # 6
 7778 39e4 9211     		asrs r2, r2, # 6
 7779 39e6 9B11     		asrs r3, r3, # 6
 7780 39e8 8018     		adds r0, r0, r2         @r
 7781 39ea C918     		adds r1, r1, r3         @i
 7782 39ec 3618     		adds r6, r6, r0
 7783 39ee 7F18     		adds r7, r7, r1
 7784              	
 7785              		@8
 7786 39f0 DD46     		mov sp, r11
 7787 39f2 0FBC     		pop {r0-r3}
ARM GAS  1.s 			page 138


 7788 39f4 EB46     		mov r11, sp
 7789 39f6 D546     		mov sp, r10
 7790 39f8 10BC     		pop {r4}
 7791 39fa EA46     		mov r10, sp
 7792 39fc 2546     		mov r5, r4
 7793 39fe 2404     		lsls r4, r4, # 16
 7794 3a00 240C     		lsrs r4, r4, # 16
 7795 3a02 2D0C     		lsrs r5, r5, # 16
 7796 3a04 6043     		muls r0, r0, r4		@R
 7797 3a06 6143     		muls r1, r1, r4		@I
 7798 3a08 6A43     		muls r2, r2, r5		@R
 7799 3a0a 6B43     		muls r3, r3, r5		@I
 7800 3a0c 8011     		asrs r0, r0, # 6
 7801 3a0e 8911     		asrs r1, r1, # 6
 7802 3a10 9211     		asrs r2, r2, # 6
 7803 3a12 9B11     		asrs r3, r3, # 6
 7804 3a14 8018     		adds r0, r0, r2	 @r
 7805 3a16 C918     		adds r1, r1, r3	 @i
 7806 3a18 3618     		adds r6, r6, r0
 7807 3a1a 7F18     		adds r7, r7, r1
 7808              	
 7809 3a1c DD46     		mov sp, r11
 7810 3a1e 0FBC     		pop {r0-r3}
 7811 3a20 EB46     		mov r11, sp
 7812 3a22 D546     		mov sp, r10
 7813 3a24 10BC     		pop {r4}
 7814 3a26 EA46     		mov r10, sp
 7815 3a28 2546     		mov r5, r4
 7816 3a2a 2404     		lsls r4, r4, # 16
 7817 3a2c 240C     		lsrs r4, r4, # 16
 7818 3a2e 2D0C     		lsrs r5, r5, # 16
 7819 3a30 6043     		muls r0, r0, r4
 7820 3a32 6143     		muls r1, r1, r4
 7821 3a34 6A43     		muls r2, r2, r5
 7822 3a36 6B43     		muls r3, r3, r5
 7823 3a38 8011     		asrs r0, r0, # 6
 7824 3a3a 8911     		asrs r1, r1, # 6
 7825 3a3c 9211     		asrs r2, r2, # 6
 7826 3a3e 9B11     		asrs r3, r3, # 6
 7827 3a40 8018     		adds r0, r0, r2         @r
 7828 3a42 C918     		adds r1, r1, r3         @i
 7829 3a44 3618     		adds r6, r6, r0
 7830 3a46 7F18     		adds r7, r7, r1
 7831              	
 7832 3a48 DD46     		mov sp, r11
 7833 3a4a 0FBC     		pop {r0-r3}
 7834 3a4c EB46     		mov r11, sp
 7835 3a4e D546     		mov sp, r10
 7836 3a50 10BC     		pop {r4}
 7837 3a52 EA46     		mov r10, sp
 7838 3a54 2546     		mov r5, r4
 7839 3a56 2404     		lsls r4, r4, # 16
 7840 3a58 240C     		lsrs r4, r4, # 16
 7841 3a5a 2D0C     		lsrs r5, r5, # 16
 7842 3a5c 6043     		muls r0, r0, r4
 7843 3a5e 6143     		muls r1, r1, r4
 7844 3a60 6A43     		muls r2, r2, r5
ARM GAS  1.s 			page 139


 7845 3a62 6B43     		muls r3, r3, r5
 7846 3a64 8011     		asrs r0, r0, # 6
 7847 3a66 8911     		asrs r1, r1, # 6
 7848 3a68 9211     		asrs r2, r2, # 6
 7849 3a6a 9B11     		asrs r3, r3, # 6
 7850 3a6c 8018     		adds r0, r0, r2  @r
 7851 3a6e C918     		adds r1, r1, r3  @i
 7852 3a70 3618     		adds r6, r6, r0
 7853 3a72 7F18     		adds r7, r7, r1
 7854              	
 7855 3a74 DD46     		mov sp, r11
 7856 3a76 0FBC     		pop {r0-r3}
 7857 3a78 EB46     		mov r11, sp
 7858 3a7a D546     		mov sp, r10
 7859 3a7c 10BC     		pop {r4}
 7860 3a7e EA46     		mov r10, sp
 7861 3a80 2546     		mov r5, r4
 7862 3a82 2404     		lsls r4, r4, # 16
 7863 3a84 240C     		lsrs r4, r4, # 16
 7864 3a86 2D0C     		lsrs r5, r5, # 16
 7865 3a88 6043     		muls r0, r0, r4
 7866 3a8a 6143     		muls r1, r1, r4
 7867 3a8c 6A43     		muls r2, r2, r5
 7868 3a8e 6B43     		muls r3, r3, r5
 7869 3a90 8011     		asrs r0, r0, # 6
 7870 3a92 8911     		asrs r1, r1, # 6
 7871 3a94 9211     		asrs r2, r2, # 6
 7872 3a96 9B11     		asrs r3, r3, # 6
 7873 3a98 8018     		adds r0, r0, r2         @r
 7874 3a9a C918     		adds r1, r1, r3         @i
 7875 3a9c 3618     		adds r6, r6, r0
 7876 3a9e 7F18     		adds r7, r7, r1
 7877              	
 7878              		@9
 7879 3aa0 DD46     		mov sp, r11
 7880 3aa2 0FBC     		pop {r0-r3}
 7881 3aa4 EB46     		mov r11, sp
 7882 3aa6 D546     		mov sp, r10
 7883 3aa8 10BC     		pop {r4}
 7884 3aaa EA46     		mov r10, sp
 7885 3aac 2546     		mov r5, r4
 7886 3aae 2404     		lsls r4, r4, # 16
 7887 3ab0 240C     		lsrs r4, r4, # 16
 7888 3ab2 2D0C     		lsrs r5, r5, # 16
 7889 3ab4 6043     		muls r0, r0, r4		@R
 7890 3ab6 6143     		muls r1, r1, r4		@I
 7891 3ab8 6A43     		muls r2, r2, r5		@R
 7892 3aba 6B43     		muls r3, r3, r5		@I
 7893 3abc 8011     		asrs r0, r0, # 6
 7894 3abe 8911     		asrs r1, r1, # 6
 7895 3ac0 9211     		asrs r2, r2, # 6
 7896 3ac2 9B11     		asrs r3, r3, # 6
 7897 3ac4 8018     		adds r0, r0, r2	 @r
 7898 3ac6 C918     		adds r1, r1, r3	 @i
 7899 3ac8 3618     		adds r6, r6, r0
 7900 3aca 7F18     		adds r7, r7, r1
 7901              	
ARM GAS  1.s 			page 140


 7902 3acc DD46     		mov sp, r11
 7903 3ace 0FBC     		pop {r0-r3}
 7904 3ad0 EB46     		mov r11, sp
 7905 3ad2 D546     		mov sp, r10
 7906 3ad4 10BC     		pop {r4}
 7907 3ad6 EA46     		mov r10, sp
 7908 3ad8 2546     		mov r5, r4
 7909 3ada 2404     		lsls r4, r4, # 16
 7910 3adc 240C     		lsrs r4, r4, # 16
 7911 3ade 2D0C     		lsrs r5, r5, # 16
 7912 3ae0 6043     		muls r0, r0, r4
 7913 3ae2 6143     		muls r1, r1, r4
 7914 3ae4 6A43     		muls r2, r2, r5
 7915 3ae6 6B43     		muls r3, r3, r5
 7916 3ae8 8011     		asrs r0, r0, # 6
 7917 3aea 8911     		asrs r1, r1, # 6
 7918 3aec 9211     		asrs r2, r2, # 6
 7919 3aee 9B11     		asrs r3, r3, # 6
 7920 3af0 8018     		adds r0, r0, r2         @r
 7921 3af2 C918     		adds r1, r1, r3         @i
 7922 3af4 3618     		adds r6, r6, r0
 7923 3af6 7F18     		adds r7, r7, r1
 7924              	
 7925 3af8 DD46     		mov sp, r11
 7926 3afa 0FBC     		pop {r0-r3}
 7927 3afc EB46     		mov r11, sp
 7928 3afe D546     		mov sp, r10
 7929 3b00 10BC     		pop {r4}
 7930 3b02 EA46     		mov r10, sp
 7931 3b04 2546     		mov r5, r4
 7932 3b06 2404     		lsls r4, r4, # 16
 7933 3b08 240C     		lsrs r4, r4, # 16
 7934 3b0a 2D0C     		lsrs r5, r5, # 16
 7935 3b0c 6043     		muls r0, r0, r4
 7936 3b0e 6143     		muls r1, r1, r4
 7937 3b10 6A43     		muls r2, r2, r5
 7938 3b12 6B43     		muls r3, r3, r5
 7939 3b14 8011     		asrs r0, r0, # 6
 7940 3b16 8911     		asrs r1, r1, # 6
 7941 3b18 9211     		asrs r2, r2, # 6
 7942 3b1a 9B11     		asrs r3, r3, # 6
 7943 3b1c 8018     		adds r0, r0, r2  @r
 7944 3b1e C918     		adds r1, r1, r3  @i
 7945 3b20 3618     		adds r6, r6, r0
 7946 3b22 7F18     		adds r7, r7, r1
 7947              	
 7948 3b24 DD46     		mov sp, r11
 7949 3b26 0FBC     		pop {r0-r3}
 7950 3b28 EB46     		mov r11, sp
 7951 3b2a D546     		mov sp, r10
 7952 3b2c 10BC     		pop {r4}
 7953 3b2e EA46     		mov r10, sp
 7954 3b30 2546     		mov r5, r4
 7955 3b32 2404     		lsls r4, r4, # 16
 7956 3b34 240C     		lsrs r4, r4, # 16
 7957 3b36 2D0C     		lsrs r5, r5, # 16
 7958 3b38 6043     		muls r0, r0, r4
ARM GAS  1.s 			page 141


 7959 3b3a 6143     		muls r1, r1, r4
 7960 3b3c 6A43     		muls r2, r2, r5
 7961 3b3e 6B43     		muls r3, r3, r5
 7962 3b40 8011     		asrs r0, r0, # 6
 7963 3b42 8911     		asrs r1, r1, # 6
 7964 3b44 9211     		asrs r2, r2, # 6
 7965 3b46 9B11     		asrs r3, r3, # 6
 7966 3b48 8018     		adds r0, r0, r2         @r
 7967 3b4a C918     		adds r1, r1, r3         @i
 7968 3b4c 3618     		adds r6, r6, r0
 7969 3b4e 7F18     		adds r7, r7, r1
 7970              	
 7971              		@yjm7
 7972              		@0
 7973 3b50 DD46     		mov sp, r11
 7974 3b52 0FBC     		pop {r0-r3}
 7975 3b54 EB46     		mov r11, sp
 7976 3b56 D546     		mov sp, r10
 7977 3b58 10BC     		pop {r4}
 7978 3b5a EA46     		mov r10, sp
 7979 3b5c 2546     		mov r5, r4
 7980 3b5e 2404     		lsls r4, r4, # 16
 7981 3b60 240C     		lsrs r4, r4, # 16
 7982 3b62 2D0C     		lsrs r5, r5, # 16
 7983 3b64 6043     		muls r0, r0, r4		@R
 7984 3b66 6143     		muls r1, r1, r4		@I
 7985 3b68 6A43     		muls r2, r2, r5		@R
 7986 3b6a 6B43     		muls r3, r3, r5		@I
 7987 3b6c 8011     		asrs r0, r0, # 6
 7988 3b6e 8911     		asrs r1, r1, # 6
 7989 3b70 9211     		asrs r2, r2, # 6
 7990 3b72 9B11     		asrs r3, r3, # 6
 7991 3b74 8018     		adds r0, r0, r2	 @r
 7992 3b76 C918     		adds r1, r1, r3	 @i
 7993 3b78 3618     		adds r6, r6, r0
 7994 3b7a 7F18     		adds r7, r7, r1
 7995              	
 7996 3b7c DD46     		mov sp, r11
 7997 3b7e 0FBC     		pop {r0-r3}
 7998 3b80 EB46     		mov r11, sp
 7999 3b82 D546     		mov sp, r10
 8000 3b84 10BC     		pop {r4}
 8001 3b86 EA46     		mov r10, sp
 8002 3b88 2546     		mov r5, r4
 8003 3b8a 2404     		lsls r4, r4, # 16
 8004 3b8c 240C     		lsrs r4, r4, # 16
 8005 3b8e 2D0C     		lsrs r5, r5, # 16
 8006 3b90 6043     		muls r0, r0, r4
 8007 3b92 6143     		muls r1, r1, r4
 8008 3b94 6A43     		muls r2, r2, r5
 8009 3b96 6B43     		muls r3, r3, r5
 8010 3b98 8011     		asrs r0, r0, # 6
 8011 3b9a 8911     		asrs r1, r1, # 6
 8012 3b9c 9211     		asrs r2, r2, # 6
 8013 3b9e 9B11     		asrs r3, r3, # 6
 8014 3ba0 8018     		adds r0, r0, r2         @r
 8015 3ba2 C918     		adds r1, r1, r3         @i
ARM GAS  1.s 			page 142


 8016 3ba4 3618     		adds r6, r6, r0
 8017 3ba6 7F18     		adds r7, r7, r1
 8018              	
 8019 3ba8 DD46     		mov sp, r11
 8020 3baa 0FBC     		pop {r0-r3}
 8021 3bac EB46     		mov r11, sp
 8022 3bae D546     		mov sp, r10
 8023 3bb0 10BC     		pop {r4}
 8024 3bb2 EA46     		mov r10, sp
 8025 3bb4 2546     		mov r5, r4
 8026 3bb6 2404     		lsls r4, r4, # 16
 8027 3bb8 240C     		lsrs r4, r4, # 16
 8028 3bba 2D0C     		lsrs r5, r5, # 16
 8029 3bbc 6043     		muls r0, r0, r4
 8030 3bbe 6143     		muls r1, r1, r4
 8031 3bc0 6A43     		muls r2, r2, r5
 8032 3bc2 6B43     		muls r3, r3, r5
 8033 3bc4 8011     		asrs r0, r0, # 6
 8034 3bc6 8911     		asrs r1, r1, # 6
 8035 3bc8 9211     		asrs r2, r2, # 6
 8036 3bca 9B11     		asrs r3, r3, # 6
 8037 3bcc 8018     		adds r0, r0, r2  @r
 8038 3bce C918     		adds r1, r1, r3  @i
 8039 3bd0 3618     		adds r6, r6, r0
 8040 3bd2 7F18     		adds r7, r7, r1
 8041              	
 8042 3bd4 DD46     		mov sp, r11
 8043 3bd6 0FBC     		pop {r0-r3}
 8044 3bd8 EB46     		mov r11, sp
 8045 3bda D546     		mov sp, r10
 8046 3bdc 10BC     		pop {r4}
 8047 3bde EA46     		mov r10, sp
 8048 3be0 2546     		mov r5, r4
 8049 3be2 2404     		lsls r4, r4, # 16
 8050 3be4 240C     		lsrs r4, r4, # 16
 8051 3be6 2D0C     		lsrs r5, r5, # 16
 8052 3be8 6043     		muls r0, r0, r4
 8053 3bea 6143     		muls r1, r1, r4
 8054 3bec 6A43     		muls r2, r2, r5
 8055 3bee 6B43     		muls r3, r3, r5
 8056 3bf0 8011     		asrs r0, r0, # 6
 8057 3bf2 8911     		asrs r1, r1, # 6
 8058 3bf4 9211     		asrs r2, r2, # 6
 8059 3bf6 9B11     		asrs r3, r3, # 6
 8060 3bf8 8018     		adds r0, r0, r2         @r
 8061 3bfa C918     		adds r1, r1, r3         @i
 8062 3bfc 3618     		adds r6, r6, r0
 8063 3bfe 7F18     		adds r7, r7, r1
 8064              	
 8065              		@1
 8066 3c00 DD46     		mov sp, r11
 8067 3c02 0FBC     		pop {r0-r3}
 8068 3c04 EB46     		mov r11, sp
 8069 3c06 D546     		mov sp, r10
 8070 3c08 10BC     		pop {r4}
 8071 3c0a EA46     		mov r10, sp
 8072 3c0c 2546     		mov r5, r4
ARM GAS  1.s 			page 143


 8073 3c0e 2404     		lsls r4, r4, # 16
 8074 3c10 240C     		lsrs r4, r4, # 16
 8075 3c12 2D0C     		lsrs r5, r5, # 16
 8076 3c14 6043     		muls r0, r0, r4		@R
 8077 3c16 6143     		muls r1, r1, r4		@I
 8078 3c18 6A43     		muls r2, r2, r5		@R
 8079 3c1a 6B43     		muls r3, r3, r5		@I
 8080 3c1c 8011     		asrs r0, r0, # 6
 8081 3c1e 8911     		asrs r1, r1, # 6
 8082 3c20 9211     		asrs r2, r2, # 6
 8083 3c22 9B11     		asrs r3, r3, # 6
 8084 3c24 8018     		adds r0, r0, r2	 @r
 8085 3c26 C918     		adds r1, r1, r3	 @i
 8086 3c28 3618     		adds r6, r6, r0
 8087 3c2a 7F18     		adds r7, r7, r1
 8088              	
 8089 3c2c DD46     		mov sp, r11
 8090 3c2e 0FBC     		pop {r0-r3}
 8091 3c30 EB46     		mov r11, sp
 8092 3c32 D546     		mov sp, r10
 8093 3c34 10BC     		pop {r4}
 8094 3c36 EA46     		mov r10, sp
 8095 3c38 2546     		mov r5, r4
 8096 3c3a 2404     		lsls r4, r4, # 16
 8097 3c3c 240C     		lsrs r4, r4, # 16
 8098 3c3e 2D0C     		lsrs r5, r5, # 16
 8099 3c40 6043     		muls r0, r0, r4
 8100 3c42 6143     		muls r1, r1, r4
 8101 3c44 6A43     		muls r2, r2, r5
 8102 3c46 6B43     		muls r3, r3, r5
 8103 3c48 8011     		asrs r0, r0, # 6
 8104 3c4a 8911     		asrs r1, r1, # 6
 8105 3c4c 9211     		asrs r2, r2, # 6
 8106 3c4e 9B11     		asrs r3, r3, # 6
 8107 3c50 8018     		adds r0, r0, r2         @r
 8108 3c52 C918     		adds r1, r1, r3         @i
 8109 3c54 3618     		adds r6, r6, r0
 8110 3c56 7F18     		adds r7, r7, r1
 8111              	
 8112 3c58 DD46     		mov sp, r11
 8113 3c5a 0FBC     		pop {r0-r3}
 8114 3c5c EB46     		mov r11, sp
 8115 3c5e D546     		mov sp, r10
 8116 3c60 10BC     		pop {r4}
 8117 3c62 EA46     		mov r10, sp
 8118 3c64 2546     		mov r5, r4
 8119 3c66 2404     		lsls r4, r4, # 16
 8120 3c68 240C     		lsrs r4, r4, # 16
 8121 3c6a 2D0C     		lsrs r5, r5, # 16
 8122 3c6c 6043     		muls r0, r0, r4
 8123 3c6e 6143     		muls r1, r1, r4
 8124 3c70 6A43     		muls r2, r2, r5
 8125 3c72 6B43     		muls r3, r3, r5
 8126 3c74 8011     		asrs r0, r0, # 6
 8127 3c76 8911     		asrs r1, r1, # 6
 8128 3c78 9211     		asrs r2, r2, # 6
 8129 3c7a 9B11     		asrs r3, r3, # 6
ARM GAS  1.s 			page 144


 8130 3c7c 8018     		adds r0, r0, r2  @r
 8131 3c7e C918     		adds r1, r1, r3  @i
 8132 3c80 3618     		adds r6, r6, r0
 8133 3c82 7F18     		adds r7, r7, r1
 8134              	
 8135 3c84 DD46     		mov sp, r11
 8136 3c86 0FBC     		pop {r0-r3}
 8137 3c88 EB46     		mov r11, sp
 8138 3c8a D546     		mov sp, r10
 8139 3c8c 10BC     		pop {r4}
 8140 3c8e EA46     		mov r10, sp
 8141 3c90 2546     		mov r5, r4
 8142 3c92 2404     		lsls r4, r4, # 16
 8143 3c94 240C     		lsrs r4, r4, # 16
 8144 3c96 2D0C     		lsrs r5, r5, # 16
 8145 3c98 6043     		muls r0, r0, r4
 8146 3c9a 6143     		muls r1, r1, r4
 8147 3c9c 6A43     		muls r2, r2, r5
 8148 3c9e 6B43     		muls r3, r3, r5
 8149 3ca0 8011     		asrs r0, r0, # 6
 8150 3ca2 8911     		asrs r1, r1, # 6
 8151 3ca4 9211     		asrs r2, r2, # 6
 8152 3ca6 9B11     		asrs r3, r3, # 6
 8153 3ca8 8018     		adds r0, r0, r2         @r
 8154 3caa C918     		adds r1, r1, r3         @i
 8155 3cac 3618     		adds r6, r6, r0
 8156 3cae 7F18     		adds r7, r7, r1
 8157              	
 8158              		@2
 8159 3cb0 DD46     		mov sp, r11
 8160 3cb2 0FBC     		pop {r0-r3}
 8161 3cb4 EB46     		mov r11, sp
 8162 3cb6 D546     		mov sp, r10
 8163 3cb8 10BC     		pop {r4}
 8164 3cba EA46     		mov r10, sp
 8165 3cbc 2546     		mov r5, r4
 8166 3cbe 2404     		lsls r4, r4, # 16
 8167 3cc0 240C     		lsrs r4, r4, # 16
 8168 3cc2 2D0C     		lsrs r5, r5, # 16
 8169 3cc4 6043     		muls r0, r0, r4		@R
 8170 3cc6 6143     		muls r1, r1, r4		@I
 8171 3cc8 6A43     		muls r2, r2, r5		@R
 8172 3cca 6B43     		muls r3, r3, r5		@I
 8173 3ccc 8011     		asrs r0, r0, # 6
 8174 3cce 8911     		asrs r1, r1, # 6
 8175 3cd0 9211     		asrs r2, r2, # 6
 8176 3cd2 9B11     		asrs r3, r3, # 6
 8177 3cd4 8018     		adds r0, r0, r2	 @r
 8178 3cd6 C918     		adds r1, r1, r3	 @i
 8179 3cd8 3618     		adds r6, r6, r0
 8180 3cda 7F18     		adds r7, r7, r1
 8181              	
 8182 3cdc DD46     		mov sp, r11
 8183 3cde 0FBC     		pop {r0-r3}
 8184 3ce0 EB46     		mov r11, sp
 8185 3ce2 D546     		mov sp, r10
 8186 3ce4 10BC     		pop {r4}
ARM GAS  1.s 			page 145


 8187 3ce6 EA46     		mov r10, sp
 8188 3ce8 2546     		mov r5, r4
 8189 3cea 2404     		lsls r4, r4, # 16
 8190 3cec 240C     		lsrs r4, r4, # 16
 8191 3cee 2D0C     		lsrs r5, r5, # 16
 8192 3cf0 6043     		muls r0, r0, r4
 8193 3cf2 6143     		muls r1, r1, r4
 8194 3cf4 6A43     		muls r2, r2, r5
 8195 3cf6 6B43     		muls r3, r3, r5
 8196 3cf8 8011     		asrs r0, r0, # 6
 8197 3cfa 8911     		asrs r1, r1, # 6
 8198 3cfc 9211     		asrs r2, r2, # 6
 8199 3cfe 9B11     		asrs r3, r3, # 6
 8200 3d00 8018     		adds r0, r0, r2         @r
 8201 3d02 C918     		adds r1, r1, r3         @i
 8202 3d04 3618     		adds r6, r6, r0
 8203 3d06 7F18     		adds r7, r7, r1
 8204              	
 8205 3d08 DD46     		mov sp, r11
 8206 3d0a 0FBC     		pop {r0-r3}
 8207 3d0c EB46     		mov r11, sp
 8208 3d0e D546     		mov sp, r10
 8209 3d10 10BC     		pop {r4}
 8210 3d12 EA46     		mov r10, sp
 8211 3d14 2546     		mov r5, r4
 8212 3d16 2404     		lsls r4, r4, # 16
 8213 3d18 240C     		lsrs r4, r4, # 16
 8214 3d1a 2D0C     		lsrs r5, r5, # 16
 8215 3d1c 6043     		muls r0, r0, r4
 8216 3d1e 6143     		muls r1, r1, r4
 8217 3d20 6A43     		muls r2, r2, r5
 8218 3d22 6B43     		muls r3, r3, r5
 8219 3d24 8011     		asrs r0, r0, # 6
 8220 3d26 8911     		asrs r1, r1, # 6
 8221 3d28 9211     		asrs r2, r2, # 6
 8222 3d2a 9B11     		asrs r3, r3, # 6
 8223 3d2c 8018     		adds r0, r0, r2  @r
 8224 3d2e C918     		adds r1, r1, r3  @i
 8225 3d30 3618     		adds r6, r6, r0
 8226 3d32 7F18     		adds r7, r7, r1
 8227              	
 8228 3d34 DD46     		mov sp, r11
 8229 3d36 0FBC     		pop {r0-r3}
 8230 3d38 EB46     		mov r11, sp
 8231 3d3a D546     		mov sp, r10
 8232 3d3c 10BC     		pop {r4}
 8233 3d3e EA46     		mov r10, sp
 8234 3d40 2546     		mov r5, r4
 8235 3d42 2404     		lsls r4, r4, # 16
 8236 3d44 240C     		lsrs r4, r4, # 16
 8237 3d46 2D0C     		lsrs r5, r5, # 16
 8238 3d48 6043     		muls r0, r0, r4
 8239 3d4a 6143     		muls r1, r1, r4
 8240 3d4c 6A43     		muls r2, r2, r5
 8241 3d4e 6B43     		muls r3, r3, r5
 8242 3d50 8011     		asrs r0, r0, # 6
 8243 3d52 8911     		asrs r1, r1, # 6
ARM GAS  1.s 			page 146


 8244 3d54 9211     		asrs r2, r2, # 6
 8245 3d56 9B11     		asrs r3, r3, # 6
 8246 3d58 8018     		adds r0, r0, r2         @r
 8247 3d5a C918     		adds r1, r1, r3         @i
 8248 3d5c 3618     		adds r6, r6, r0
 8249 3d5e 7F18     		adds r7, r7, r1
 8250              	
 8251              		@3
 8252 3d60 DD46     		mov sp, r11
 8253 3d62 0FBC     		pop {r0-r3}
 8254 3d64 EB46     		mov r11, sp
 8255 3d66 D546     		mov sp, r10
 8256 3d68 10BC     		pop {r4}
 8257 3d6a EA46     		mov r10, sp
 8258 3d6c 2546     		mov r5, r4
 8259 3d6e 2404     		lsls r4, r4, # 16
 8260 3d70 240C     		lsrs r4, r4, # 16
 8261 3d72 2D0C     		lsrs r5, r5, # 16
 8262 3d74 6043     		muls r0, r0, r4		@R
 8263 3d76 6143     		muls r1, r1, r4		@I
 8264 3d78 6A43     		muls r2, r2, r5		@R
 8265 3d7a 6B43     		muls r3, r3, r5		@I
 8266 3d7c 8011     		asrs r0, r0, # 6
 8267 3d7e 8911     		asrs r1, r1, # 6
 8268 3d80 9211     		asrs r2, r2, # 6
 8269 3d82 9B11     		asrs r3, r3, # 6
 8270 3d84 8018     		adds r0, r0, r2	 @r
 8271 3d86 C918     		adds r1, r1, r3	 @i
 8272 3d88 3618     		adds r6, r6, r0
 8273 3d8a 7F18     		adds r7, r7, r1
 8274              	
 8275 3d8c DD46     		mov sp, r11
 8276 3d8e 0FBC     		pop {r0-r3}
 8277 3d90 EB46     		mov r11, sp
 8278 3d92 D546     		mov sp, r10
 8279 3d94 10BC     		pop {r4}
 8280 3d96 EA46     		mov r10, sp
 8281 3d98 2546     		mov r5, r4
 8282 3d9a 2404     		lsls r4, r4, # 16
 8283 3d9c 240C     		lsrs r4, r4, # 16
 8284 3d9e 2D0C     		lsrs r5, r5, # 16
 8285 3da0 6043     		muls r0, r0, r4
 8286 3da2 6143     		muls r1, r1, r4
 8287 3da4 6A43     		muls r2, r2, r5
 8288 3da6 6B43     		muls r3, r3, r5
 8289 3da8 8011     		asrs r0, r0, # 6
 8290 3daa 8911     		asrs r1, r1, # 6
 8291 3dac 9211     		asrs r2, r2, # 6
 8292 3dae 9B11     		asrs r3, r3, # 6
 8293 3db0 8018     		adds r0, r0, r2         @r
 8294 3db2 C918     		adds r1, r1, r3         @i
 8295 3db4 3618     		adds r6, r6, r0
 8296 3db6 7F18     		adds r7, r7, r1
 8297              	
 8298 3db8 DD46     		mov sp, r11
 8299 3dba 0FBC     		pop {r0-r3}
 8300 3dbc EB46     		mov r11, sp
ARM GAS  1.s 			page 147


 8301 3dbe D546     		mov sp, r10
 8302 3dc0 10BC     		pop {r4}
 8303 3dc2 EA46     		mov r10, sp
 8304 3dc4 2546     		mov r5, r4
 8305 3dc6 2404     		lsls r4, r4, # 16
 8306 3dc8 240C     		lsrs r4, r4, # 16
 8307 3dca 2D0C     		lsrs r5, r5, # 16
 8308 3dcc 6043     		muls r0, r0, r4
 8309 3dce 6143     		muls r1, r1, r4
 8310 3dd0 6A43     		muls r2, r2, r5
 8311 3dd2 6B43     		muls r3, r3, r5
 8312 3dd4 8011     		asrs r0, r0, # 6
 8313 3dd6 8911     		asrs r1, r1, # 6
 8314 3dd8 9211     		asrs r2, r2, # 6
 8315 3dda 9B11     		asrs r3, r3, # 6
 8316 3ddc 8018     		adds r0, r0, r2  @r
 8317 3dde C918     		adds r1, r1, r3  @i
 8318 3de0 3618     		adds r6, r6, r0
 8319 3de2 7F18     		adds r7, r7, r1
 8320              	
 8321 3de4 DD46     		mov sp, r11
 8322 3de6 0FBC     		pop {r0-r3}
 8323 3de8 EB46     		mov r11, sp
 8324 3dea D546     		mov sp, r10
 8325 3dec 10BC     		pop {r4}
 8326 3dee EA46     		mov r10, sp
 8327 3df0 2546     		mov r5, r4
 8328 3df2 2404     		lsls r4, r4, # 16
 8329 3df4 240C     		lsrs r4, r4, # 16
 8330 3df6 2D0C     		lsrs r5, r5, # 16
 8331 3df8 6043     		muls r0, r0, r4
 8332 3dfa 6143     		muls r1, r1, r4
 8333 3dfc 6A43     		muls r2, r2, r5
 8334 3dfe 6B43     		muls r3, r3, r5
 8335 3e00 8011     		asrs r0, r0, # 6
 8336 3e02 8911     		asrs r1, r1, # 6
 8337 3e04 9211     		asrs r2, r2, # 6
 8338 3e06 9B11     		asrs r3, r3, # 6
 8339 3e08 8018     		adds r0, r0, r2         @r
 8340 3e0a C918     		adds r1, r1, r3         @i
 8341 3e0c 3618     		adds r6, r6, r0
 8342 3e0e 7F18     		adds r7, r7, r1
 8343              	
 8344              		@4
 8345 3e10 DD46     		mov sp, r11
 8346 3e12 0FBC     		pop {r0-r3}
 8347 3e14 EB46     		mov r11, sp
 8348 3e16 D546     		mov sp, r10
 8349 3e18 10BC     		pop {r4}
 8350 3e1a EA46     		mov r10, sp
 8351 3e1c 2546     		mov r5, r4
 8352 3e1e 2404     		lsls r4, r4, # 16
 8353 3e20 240C     		lsrs r4, r4, # 16
 8354 3e22 2D0C     		lsrs r5, r5, # 16
 8355 3e24 6043     		muls r0, r0, r4		@R
 8356 3e26 6143     		muls r1, r1, r4		@I
 8357 3e28 6A43     		muls r2, r2, r5		@R
ARM GAS  1.s 			page 148


 8358 3e2a 6B43     		muls r3, r3, r5		@I
 8359 3e2c 8011     		asrs r0, r0, # 6
 8360 3e2e 8911     		asrs r1, r1, # 6
 8361 3e30 9211     		asrs r2, r2, # 6
 8362 3e32 9B11     		asrs r3, r3, # 6
 8363 3e34 8018     		adds r0, r0, r2	 @r
 8364 3e36 C918     		adds r1, r1, r3	 @i
 8365 3e38 3618     		adds r6, r6, r0
 8366 3e3a 7F18     		adds r7, r7, r1
 8367              	
 8368 3e3c DD46     		mov sp, r11
 8369 3e3e 0FBC     		pop {r0-r3}
 8370 3e40 EB46     		mov r11, sp
 8371 3e42 D546     		mov sp, r10
 8372 3e44 10BC     		pop {r4}
 8373 3e46 EA46     		mov r10, sp
 8374 3e48 2546     		mov r5, r4
 8375 3e4a 2404     		lsls r4, r4, # 16
 8376 3e4c 240C     		lsrs r4, r4, # 16
 8377 3e4e 2D0C     		lsrs r5, r5, # 16
 8378 3e50 6043     		muls r0, r0, r4
 8379 3e52 6143     		muls r1, r1, r4
 8380 3e54 6A43     		muls r2, r2, r5
 8381 3e56 6B43     		muls r3, r3, r5
 8382 3e58 8011     		asrs r0, r0, # 6
 8383 3e5a 8911     		asrs r1, r1, # 6
 8384 3e5c 9211     		asrs r2, r2, # 6
 8385 3e5e 9B11     		asrs r3, r3, # 6
 8386 3e60 8018     		adds r0, r0, r2         @r
 8387 3e62 C918     		adds r1, r1, r3         @i
 8388 3e64 3618     		adds r6, r6, r0
 8389 3e66 7F18     		adds r7, r7, r1
 8390              	
 8391 3e68 DD46     		mov sp, r11
 8392 3e6a 0FBC     		pop {r0-r3}
 8393 3e6c EB46     		mov r11, sp
 8394 3e6e D546     		mov sp, r10
 8395 3e70 10BC     		pop {r4}
 8396 3e72 EA46     		mov r10, sp
 8397 3e74 2546     		mov r5, r4
 8398 3e76 2404     		lsls r4, r4, # 16
 8399 3e78 240C     		lsrs r4, r4, # 16
 8400 3e7a 2D0C     		lsrs r5, r5, # 16
 8401 3e7c 6043     		muls r0, r0, r4
 8402 3e7e 6143     		muls r1, r1, r4
 8403 3e80 6A43     		muls r2, r2, r5
 8404 3e82 6B43     		muls r3, r3, r5
 8405 3e84 8011     		asrs r0, r0, # 6
 8406 3e86 8911     		asrs r1, r1, # 6
 8407 3e88 9211     		asrs r2, r2, # 6
 8408 3e8a 9B11     		asrs r3, r3, # 6
 8409 3e8c 8018     		adds r0, r0, r2  @r
 8410 3e8e C918     		adds r1, r1, r3  @i
 8411 3e90 3618     		adds r6, r6, r0
 8412 3e92 7F18     		adds r7, r7, r1
 8413              	
 8414 3e94 DD46     		mov sp, r11
ARM GAS  1.s 			page 149


 8415 3e96 0FBC     		pop {r0-r3}
 8416 3e98 EB46     		mov r11, sp
 8417 3e9a D546     		mov sp, r10
 8418 3e9c 10BC     		pop {r4}
 8419 3e9e EA46     		mov r10, sp
 8420 3ea0 2546     		mov r5, r4
 8421 3ea2 2404     		lsls r4, r4, # 16
 8422 3ea4 240C     		lsrs r4, r4, # 16
 8423 3ea6 2D0C     		lsrs r5, r5, # 16
 8424 3ea8 6043     		muls r0, r0, r4
 8425 3eaa 6143     		muls r1, r1, r4
 8426 3eac 6A43     		muls r2, r2, r5
 8427 3eae 6B43     		muls r3, r3, r5
 8428 3eb0 8011     		asrs r0, r0, # 6
 8429 3eb2 8911     		asrs r1, r1, # 6
 8430 3eb4 9211     		asrs r2, r2, # 6
 8431 3eb6 9B11     		asrs r3, r3, # 6
 8432 3eb8 8018     		adds r0, r0, r2         @r
 8433 3eba C918     		adds r1, r1, r3         @i
 8434 3ebc 3618     		adds r6, r6, r0
 8435 3ebe 7F18     		adds r7, r7, r1
 8436              	
 8437              		@5
 8438 3ec0 DD46     		mov sp, r11
 8439 3ec2 0FBC     		pop {r0-r3}
 8440 3ec4 EB46     		mov r11, sp
 8441 3ec6 D546     		mov sp, r10
 8442 3ec8 10BC     		pop {r4}
 8443 3eca EA46     		mov r10, sp
 8444 3ecc 2546     		mov r5, r4
 8445 3ece 2404     		lsls r4, r4, # 16
 8446 3ed0 240C     		lsrs r4, r4, # 16
 8447 3ed2 2D0C     		lsrs r5, r5, # 16
 8448 3ed4 6043     		muls r0, r0, r4		@R
 8449 3ed6 6143     		muls r1, r1, r4		@I
 8450 3ed8 6A43     		muls r2, r2, r5		@R
 8451 3eda 6B43     		muls r3, r3, r5		@I
 8452 3edc 8011     		asrs r0, r0, # 6
 8453 3ede 8911     		asrs r1, r1, # 6
 8454 3ee0 9211     		asrs r2, r2, # 6
 8455 3ee2 9B11     		asrs r3, r3, # 6
 8456 3ee4 8018     		adds r0, r0, r2	 @r
 8457 3ee6 C918     		adds r1, r1, r3	 @i
 8458 3ee8 3618     		adds r6, r6, r0
 8459 3eea 7F18     		adds r7, r7, r1
 8460              	
 8461 3eec DD46     		mov sp, r11
 8462 3eee 0FBC     		pop {r0-r3}
 8463 3ef0 EB46     		mov r11, sp
 8464 3ef2 D546     		mov sp, r10
 8465 3ef4 10BC     		pop {r4}
 8466 3ef6 EA46     		mov r10, sp
 8467 3ef8 2546     		mov r5, r4
 8468 3efa 2404     		lsls r4, r4, # 16
 8469 3efc 240C     		lsrs r4, r4, # 16
 8470 3efe 2D0C     		lsrs r5, r5, # 16
 8471 3f00 6043     		muls r0, r0, r4
ARM GAS  1.s 			page 150


 8472 3f02 6143     		muls r1, r1, r4
 8473 3f04 6A43     		muls r2, r2, r5
 8474 3f06 6B43     		muls r3, r3, r5
 8475 3f08 8011     		asrs r0, r0, # 6
 8476 3f0a 8911     		asrs r1, r1, # 6
 8477 3f0c 9211     		asrs r2, r2, # 6
 8478 3f0e 9B11     		asrs r3, r3, # 6
 8479 3f10 8018     		adds r0, r0, r2         @r
 8480 3f12 C918     		adds r1, r1, r3         @i
 8481 3f14 3618     		adds r6, r6, r0
 8482 3f16 7F18     		adds r7, r7, r1
 8483              	
 8484 3f18 DD46     		mov sp, r11
 8485 3f1a 0FBC     		pop {r0-r3}
 8486 3f1c EB46     		mov r11, sp
 8487 3f1e D546     		mov sp, r10
 8488 3f20 10BC     		pop {r4}
 8489 3f22 EA46     		mov r10, sp
 8490 3f24 2546     		mov r5, r4
 8491 3f26 2404     		lsls r4, r4, # 16
 8492 3f28 240C     		lsrs r4, r4, # 16
 8493 3f2a 2D0C     		lsrs r5, r5, # 16
 8494 3f2c 6043     		muls r0, r0, r4
 8495 3f2e 6143     		muls r1, r1, r4
 8496 3f30 6A43     		muls r2, r2, r5
 8497 3f32 6B43     		muls r3, r3, r5
 8498 3f34 8011     		asrs r0, r0, # 6
 8499 3f36 8911     		asrs r1, r1, # 6
 8500 3f38 9211     		asrs r2, r2, # 6
 8501 3f3a 9B11     		asrs r3, r3, # 6
 8502 3f3c 8018     		adds r0, r0, r2  @r
 8503 3f3e C918     		adds r1, r1, r3  @i
 8504 3f40 3618     		adds r6, r6, r0
 8505 3f42 7F18     		adds r7, r7, r1
 8506              	
 8507 3f44 DD46     		mov sp, r11
 8508 3f46 0FBC     		pop {r0-r3}
 8509 3f48 EB46     		mov r11, sp
 8510 3f4a D546     		mov sp, r10
 8511 3f4c 10BC     		pop {r4}
 8512 3f4e EA46     		mov r10, sp
 8513 3f50 2546     		mov r5, r4
 8514 3f52 2404     		lsls r4, r4, # 16
 8515 3f54 240C     		lsrs r4, r4, # 16
 8516 3f56 2D0C     		lsrs r5, r5, # 16
 8517 3f58 6043     		muls r0, r0, r4
 8518 3f5a 6143     		muls r1, r1, r4
 8519 3f5c 6A43     		muls r2, r2, r5
 8520 3f5e 6B43     		muls r3, r3, r5
 8521 3f60 8011     		asrs r0, r0, # 6
 8522 3f62 8911     		asrs r1, r1, # 6
 8523 3f64 9211     		asrs r2, r2, # 6
 8524 3f66 9B11     		asrs r3, r3, # 6
 8525 3f68 8018     		adds r0, r0, r2         @r
 8526 3f6a C918     		adds r1, r1, r3         @i
 8527 3f6c 3618     		adds r6, r6, r0
 8528 3f6e 7F18     		adds r7, r7, r1
ARM GAS  1.s 			page 151


 8529              	
 8530              		@6
 8531 3f70 DD46     		mov sp, r11
 8532 3f72 0FBC     		pop {r0-r3}
 8533 3f74 EB46     		mov r11, sp
 8534 3f76 D546     		mov sp, r10
 8535 3f78 10BC     		pop {r4}
 8536 3f7a EA46     		mov r10, sp
 8537 3f7c 2546     		mov r5, r4
 8538 3f7e 2404     		lsls r4, r4, # 16
 8539 3f80 240C     		lsrs r4, r4, # 16
 8540 3f82 2D0C     		lsrs r5, r5, # 16
 8541 3f84 6043     		muls r0, r0, r4		@R
 8542 3f86 6143     		muls r1, r1, r4		@I
 8543 3f88 6A43     		muls r2, r2, r5		@R
 8544 3f8a 6B43     		muls r3, r3, r5		@I
 8545 3f8c 8011     		asrs r0, r0, # 6
 8546 3f8e 8911     		asrs r1, r1, # 6
 8547 3f90 9211     		asrs r2, r2, # 6
 8548 3f92 9B11     		asrs r3, r3, # 6
 8549 3f94 8018     		adds r0, r0, r2	 @r
 8550 3f96 C918     		adds r1, r1, r3	 @i
 8551 3f98 3618     		adds r6, r6, r0
 8552 3f9a 7F18     		adds r7, r7, r1
 8553              	
 8554 3f9c DD46     		mov sp, r11
 8555 3f9e 0FBC     		pop {r0-r3}
 8556 3fa0 EB46     		mov r11, sp
 8557 3fa2 D546     		mov sp, r10
 8558 3fa4 10BC     		pop {r4}
 8559 3fa6 EA46     		mov r10, sp
 8560 3fa8 2546     		mov r5, r4
 8561 3faa 2404     		lsls r4, r4, # 16
 8562 3fac 240C     		lsrs r4, r4, # 16
 8563 3fae 2D0C     		lsrs r5, r5, # 16
 8564 3fb0 6043     		muls r0, r0, r4
 8565 3fb2 6143     		muls r1, r1, r4
 8566 3fb4 6A43     		muls r2, r2, r5
 8567 3fb6 6B43     		muls r3, r3, r5
 8568 3fb8 8011     		asrs r0, r0, # 6
 8569 3fba 8911     		asrs r1, r1, # 6
 8570 3fbc 9211     		asrs r2, r2, # 6
 8571 3fbe 9B11     		asrs r3, r3, # 6
 8572 3fc0 8018     		adds r0, r0, r2         @r
 8573 3fc2 C918     		adds r1, r1, r3         @i
 8574 3fc4 3618     		adds r6, r6, r0
 8575 3fc6 7F18     		adds r7, r7, r1
 8576              	
 8577 3fc8 DD46     		mov sp, r11
 8578 3fca 0FBC     		pop {r0-r3}
 8579 3fcc EB46     		mov r11, sp
 8580 3fce D546     		mov sp, r10
 8581 3fd0 10BC     		pop {r4}
 8582 3fd2 EA46     		mov r10, sp
 8583 3fd4 2546     		mov r5, r4
 8584 3fd6 2404     		lsls r4, r4, # 16
 8585 3fd8 240C     		lsrs r4, r4, # 16
ARM GAS  1.s 			page 152


 8586 3fda 2D0C     		lsrs r5, r5, # 16
 8587 3fdc 6043     		muls r0, r0, r4
 8588 3fde 6143     		muls r1, r1, r4
 8589 3fe0 6A43     		muls r2, r2, r5
 8590 3fe2 6B43     		muls r3, r3, r5
 8591 3fe4 8011     		asrs r0, r0, # 6
 8592 3fe6 8911     		asrs r1, r1, # 6
 8593 3fe8 9211     		asrs r2, r2, # 6
 8594 3fea 9B11     		asrs r3, r3, # 6
 8595 3fec 8018     		adds r0, r0, r2  @r
 8596 3fee C918     		adds r1, r1, r3  @i
 8597 3ff0 3618     		adds r6, r6, r0
 8598 3ff2 7F18     		adds r7, r7, r1
 8599              	
 8600 3ff4 DD46     		mov sp, r11
 8601 3ff6 0FBC     		pop {r0-r3}
 8602 3ff8 EB46     		mov r11, sp
 8603 3ffa D546     		mov sp, r10
 8604 3ffc 10BC     		pop {r4}
 8605 3ffe EA46     		mov r10, sp
 8606 4000 2546     		mov r5, r4
 8607 4002 2404     		lsls r4, r4, # 16
 8608 4004 240C     		lsrs r4, r4, # 16
 8609 4006 2D0C     		lsrs r5, r5, # 16
 8610 4008 6043     		muls r0, r0, r4
 8611 400a 6143     		muls r1, r1, r4
 8612 400c 6A43     		muls r2, r2, r5
 8613 400e 6B43     		muls r3, r3, r5
 8614 4010 8011     		asrs r0, r0, # 6
 8615 4012 8911     		asrs r1, r1, # 6
 8616 4014 9211     		asrs r2, r2, # 6
 8617 4016 9B11     		asrs r3, r3, # 6
 8618 4018 8018     		adds r0, r0, r2         @r
 8619 401a C918     		adds r1, r1, r3         @i
 8620 401c 3618     		adds r6, r6, r0
 8621 401e 7F18     		adds r7, r7, r1
 8622              	
 8623              		@7
 8624 4020 DD46     		mov sp, r11
 8625 4022 0FBC     		pop {r0-r3}
 8626 4024 EB46     		mov r11, sp
 8627 4026 D546     		mov sp, r10
 8628 4028 10BC     		pop {r4}
 8629 402a EA46     		mov r10, sp
 8630 402c 2546     		mov r5, r4
 8631 402e 2404     		lsls r4, r4, # 16
 8632 4030 240C     		lsrs r4, r4, # 16
 8633 4032 2D0C     		lsrs r5, r5, # 16
 8634 4034 6043     		muls r0, r0, r4		@R
 8635 4036 6143     		muls r1, r1, r4		@I
 8636 4038 6A43     		muls r2, r2, r5		@R
 8637 403a 6B43     		muls r3, r3, r5		@I
 8638 403c 8011     		asrs r0, r0, # 6
 8639 403e 8911     		asrs r1, r1, # 6
 8640 4040 9211     		asrs r2, r2, # 6
 8641 4042 9B11     		asrs r3, r3, # 6
 8642 4044 8018     		adds r0, r0, r2	 @r
ARM GAS  1.s 			page 153


 8643 4046 C918     		adds r1, r1, r3	 @i
 8644 4048 3618     		adds r6, r6, r0
 8645 404a 7F18     		adds r7, r7, r1
 8646              	
 8647 404c DD46     		mov sp, r11
 8648 404e 0FBC     		pop {r0-r3}
 8649 4050 EB46     		mov r11, sp
 8650 4052 D546     		mov sp, r10
 8651 4054 10BC     		pop {r4}
 8652 4056 EA46     		mov r10, sp
 8653 4058 2546     		mov r5, r4
 8654 405a 2404     		lsls r4, r4, # 16
 8655 405c 240C     		lsrs r4, r4, # 16
 8656 405e 2D0C     		lsrs r5, r5, # 16
 8657 4060 6043     		muls r0, r0, r4
 8658 4062 6143     		muls r1, r1, r4
 8659 4064 6A43     		muls r2, r2, r5
 8660 4066 6B43     		muls r3, r3, r5
 8661 4068 8011     		asrs r0, r0, # 6
 8662 406a 8911     		asrs r1, r1, # 6
 8663 406c 9211     		asrs r2, r2, # 6
 8664 406e 9B11     		asrs r3, r3, # 6
 8665 4070 8018     		adds r0, r0, r2         @r
 8666 4072 C918     		adds r1, r1, r3         @i
 8667 4074 3618     		adds r6, r6, r0
 8668 4076 7F18     		adds r7, r7, r1
 8669              	
 8670 4078 DD46     		mov sp, r11
 8671 407a 0FBC     		pop {r0-r3}
 8672 407c EB46     		mov r11, sp
 8673 407e D546     		mov sp, r10
 8674 4080 10BC     		pop {r4}
 8675 4082 EA46     		mov r10, sp
 8676 4084 2546     		mov r5, r4
 8677 4086 2404     		lsls r4, r4, # 16
 8678 4088 240C     		lsrs r4, r4, # 16
 8679 408a 2D0C     		lsrs r5, r5, # 16
 8680 408c 6043     		muls r0, r0, r4
 8681 408e 6143     		muls r1, r1, r4
 8682 4090 6A43     		muls r2, r2, r5
 8683 4092 6B43     		muls r3, r3, r5
 8684 4094 8011     		asrs r0, r0, # 6
 8685 4096 8911     		asrs r1, r1, # 6
 8686 4098 9211     		asrs r2, r2, # 6
 8687 409a 9B11     		asrs r3, r3, # 6
 8688 409c 8018     		adds r0, r0, r2  @r
 8689 409e C918     		adds r1, r1, r3  @i
 8690 40a0 3618     		adds r6, r6, r0
 8691 40a2 7F18     		adds r7, r7, r1
 8692              	
 8693 40a4 DD46     		mov sp, r11
 8694 40a6 0FBC     		pop {r0-r3}
 8695 40a8 EB46     		mov r11, sp
 8696 40aa D546     		mov sp, r10
 8697 40ac 10BC     		pop {r4}
 8698 40ae EA46     		mov r10, sp
 8699 40b0 2546     		mov r5, r4
ARM GAS  1.s 			page 154


 8700 40b2 2404     		lsls r4, r4, # 16
 8701 40b4 240C     		lsrs r4, r4, # 16
 8702 40b6 2D0C     		lsrs r5, r5, # 16
 8703 40b8 6043     		muls r0, r0, r4
 8704 40ba 6143     		muls r1, r1, r4
 8705 40bc 6A43     		muls r2, r2, r5
 8706 40be 6B43     		muls r3, r3, r5
 8707 40c0 8011     		asrs r0, r0, # 6
 8708 40c2 8911     		asrs r1, r1, # 6
 8709 40c4 9211     		asrs r2, r2, # 6
 8710 40c6 9B11     		asrs r3, r3, # 6
 8711 40c8 8018     		adds r0, r0, r2         @r
 8712 40ca C918     		adds r1, r1, r3         @i
 8713 40cc 3618     		adds r6, r6, r0
 8714 40ce 7F18     		adds r7, r7, r1
 8715              	
 8716              		@8
 8717 40d0 DD46     		mov sp, r11
 8718 40d2 0FBC     		pop {r0-r3}
 8719 40d4 EB46     		mov r11, sp
 8720 40d6 D546     		mov sp, r10
 8721 40d8 10BC     		pop {r4}
 8722 40da EA46     		mov r10, sp
 8723 40dc 2546     		mov r5, r4
 8724 40de 2404     		lsls r4, r4, # 16
 8725 40e0 240C     		lsrs r4, r4, # 16
 8726 40e2 2D0C     		lsrs r5, r5, # 16
 8727 40e4 6043     		muls r0, r0, r4		@R
 8728 40e6 6143     		muls r1, r1, r4		@I
 8729 40e8 6A43     		muls r2, r2, r5		@R
 8730 40ea 6B43     		muls r3, r3, r5		@I
 8731 40ec 8011     		asrs r0, r0, # 6
 8732 40ee 8911     		asrs r1, r1, # 6
 8733 40f0 9211     		asrs r2, r2, # 6
 8734 40f2 9B11     		asrs r3, r3, # 6
 8735 40f4 8018     		adds r0, r0, r2	 @r
 8736 40f6 C918     		adds r1, r1, r3	 @i
 8737 40f8 3618     		adds r6, r6, r0
 8738 40fa 7F18     		adds r7, r7, r1
 8739              	
 8740 40fc DD46     		mov sp, r11
 8741 40fe 0FBC     		pop {r0-r3}
 8742 4100 EB46     		mov r11, sp
 8743 4102 D546     		mov sp, r10
 8744 4104 10BC     		pop {r4}
 8745 4106 EA46     		mov r10, sp
 8746 4108 2546     		mov r5, r4
 8747 410a 2404     		lsls r4, r4, # 16
 8748 410c 240C     		lsrs r4, r4, # 16
 8749 410e 2D0C     		lsrs r5, r5, # 16
 8750 4110 6043     		muls r0, r0, r4
 8751 4112 6143     		muls r1, r1, r4
 8752 4114 6A43     		muls r2, r2, r5
 8753 4116 6B43     		muls r3, r3, r5
 8754 4118 8011     		asrs r0, r0, # 6
 8755 411a 8911     		asrs r1, r1, # 6
 8756 411c 9211     		asrs r2, r2, # 6
ARM GAS  1.s 			page 155


 8757 411e 9B11     		asrs r3, r3, # 6
 8758 4120 8018     		adds r0, r0, r2         @r
 8759 4122 C918     		adds r1, r1, r3         @i
 8760 4124 3618     		adds r6, r6, r0
 8761 4126 7F18     		adds r7, r7, r1
 8762              	
 8763 4128 DD46     		mov sp, r11
 8764 412a 0FBC     		pop {r0-r3}
 8765 412c EB46     		mov r11, sp
 8766 412e D546     		mov sp, r10
 8767 4130 10BC     		pop {r4}
 8768 4132 EA46     		mov r10, sp
 8769 4134 2546     		mov r5, r4
 8770 4136 2404     		lsls r4, r4, # 16
 8771 4138 240C     		lsrs r4, r4, # 16
 8772 413a 2D0C     		lsrs r5, r5, # 16
 8773 413c 6043     		muls r0, r0, r4
 8774 413e 6143     		muls r1, r1, r4
 8775 4140 6A43     		muls r2, r2, r5
 8776 4142 6B43     		muls r3, r3, r5
 8777 4144 8011     		asrs r0, r0, # 6
 8778 4146 8911     		asrs r1, r1, # 6
 8779 4148 9211     		asrs r2, r2, # 6
 8780 414a 9B11     		asrs r3, r3, # 6
 8781 414c 8018     		adds r0, r0, r2  @r
 8782 414e C918     		adds r1, r1, r3  @i
 8783 4150 3618     		adds r6, r6, r0
 8784 4152 7F18     		adds r7, r7, r1
 8785              	
 8786 4154 DD46     		mov sp, r11
 8787 4156 0FBC     		pop {r0-r3}
 8788 4158 EB46     		mov r11, sp
 8789 415a D546     		mov sp, r10
 8790 415c 10BC     		pop {r4}
 8791 415e EA46     		mov r10, sp
 8792 4160 2546     		mov r5, r4
 8793 4162 2404     		lsls r4, r4, # 16
 8794 4164 240C     		lsrs r4, r4, # 16
 8795 4166 2D0C     		lsrs r5, r5, # 16
 8796 4168 6043     		muls r0, r0, r4
 8797 416a 6143     		muls r1, r1, r4
 8798 416c 6A43     		muls r2, r2, r5
 8799 416e 6B43     		muls r3, r3, r5
 8800 4170 8011     		asrs r0, r0, # 6
 8801 4172 8911     		asrs r1, r1, # 6
 8802 4174 9211     		asrs r2, r2, # 6
 8803 4176 9B11     		asrs r3, r3, # 6
 8804 4178 8018     		adds r0, r0, r2         @r
 8805 417a C918     		adds r1, r1, r3         @i
 8806 417c 3618     		adds r6, r6, r0
 8807 417e 7F18     		adds r7, r7, r1
 8808              	
 8809              		@9
 8810 4180 DD46     		mov sp, r11
 8811 4182 0FBC     		pop {r0-r3}
 8812 4184 EB46     		mov r11, sp
 8813 4186 D546     		mov sp, r10
ARM GAS  1.s 			page 156


 8814 4188 10BC     		pop {r4}
 8815 418a EA46     		mov r10, sp
 8816 418c 2546     		mov r5, r4
 8817 418e 2404     		lsls r4, r4, # 16
 8818 4190 240C     		lsrs r4, r4, # 16
 8819 4192 2D0C     		lsrs r5, r5, # 16
 8820 4194 6043     		muls r0, r0, r4		@R
 8821 4196 6143     		muls r1, r1, r4		@I
 8822 4198 6A43     		muls r2, r2, r5		@R
 8823 419a 6B43     		muls r3, r3, r5		@I
 8824 419c 8011     		asrs r0, r0, # 6
 8825 419e 8911     		asrs r1, r1, # 6
 8826 41a0 9211     		asrs r2, r2, # 6
 8827 41a2 9B11     		asrs r3, r3, # 6
 8828 41a4 8018     		adds r0, r0, r2	 @r
 8829 41a6 C918     		adds r1, r1, r3	 @i
 8830 41a8 3618     		adds r6, r6, r0
 8831 41aa 7F18     		adds r7, r7, r1
 8832              	
 8833 41ac DD46     		mov sp, r11
 8834 41ae 0FBC     		pop {r0-r3}
 8835 41b0 EB46     		mov r11, sp
 8836 41b2 D546     		mov sp, r10
 8837 41b4 10BC     		pop {r4}
 8838 41b6 EA46     		mov r10, sp
 8839 41b8 2546     		mov r5, r4
 8840 41ba 2404     		lsls r4, r4, # 16
 8841 41bc 240C     		lsrs r4, r4, # 16
 8842 41be 2D0C     		lsrs r5, r5, # 16
 8843 41c0 6043     		muls r0, r0, r4
 8844 41c2 6143     		muls r1, r1, r4
 8845 41c4 6A43     		muls r2, r2, r5
 8846 41c6 6B43     		muls r3, r3, r5
 8847 41c8 8011     		asrs r0, r0, # 6
 8848 41ca 8911     		asrs r1, r1, # 6
 8849 41cc 9211     		asrs r2, r2, # 6
 8850 41ce 9B11     		asrs r3, r3, # 6
 8851 41d0 8018     		adds r0, r0, r2         @r
 8852 41d2 C918     		adds r1, r1, r3         @i
 8853 41d4 3618     		adds r6, r6, r0
 8854 41d6 7F18     		adds r7, r7, r1
 8855              	
 8856 41d8 DD46     		mov sp, r11
 8857 41da 0FBC     		pop {r0-r3}
 8858 41dc EB46     		mov r11, sp
 8859 41de D546     		mov sp, r10
 8860 41e0 10BC     		pop {r4}
 8861 41e2 EA46     		mov r10, sp
 8862 41e4 2546     		mov r5, r4
 8863 41e6 2404     		lsls r4, r4, # 16
 8864 41e8 240C     		lsrs r4, r4, # 16
 8865 41ea 2D0C     		lsrs r5, r5, # 16
 8866 41ec 6043     		muls r0, r0, r4
 8867 41ee 6143     		muls r1, r1, r4
 8868 41f0 6A43     		muls r2, r2, r5
 8869 41f2 6B43     		muls r3, r3, r5
 8870 41f4 8011     		asrs r0, r0, # 6
ARM GAS  1.s 			page 157


 8871 41f6 8911     		asrs r1, r1, # 6
 8872 41f8 9211     		asrs r2, r2, # 6
 8873 41fa 9B11     		asrs r3, r3, # 6
 8874 41fc 8018     		adds r0, r0, r2  @r
 8875 41fe C918     		adds r1, r1, r3  @i
 8876 4200 3618     		adds r6, r6, r0
 8877 4202 7F18     		adds r7, r7, r1
 8878              	
 8879 4204 DD46     		mov sp, r11
 8880 4206 0FBC     		pop {r0-r3}
 8881 4208 EB46     		mov r11, sp
 8882 420a D546     		mov sp, r10
 8883 420c 10BC     		pop {r4}
 8884 420e EA46     		mov r10, sp
 8885 4210 2546     		mov r5, r4
 8886 4212 2404     		lsls r4, r4, # 16
 8887 4214 240C     		lsrs r4, r4, # 16
 8888 4216 2D0C     		lsrs r5, r5, # 16
 8889 4218 6043     		muls r0, r0, r4
 8890 421a 6143     		muls r1, r1, r4
 8891 421c 6A43     		muls r2, r2, r5
 8892 421e 6B43     		muls r3, r3, r5
 8893 4220 8011     		asrs r0, r0, # 6
 8894 4222 8911     		asrs r1, r1, # 6
 8895 4224 9211     		asrs r2, r2, # 6
 8896 4226 9B11     		asrs r3, r3, # 6
 8897 4228 8018     		adds r0, r0, r2         @r
 8898 422a C918     		adds r1, r1, r3         @i
 8899 422c 3618     		adds r6, r6, r0
 8900 422e 7F18     		adds r7, r7, r1
 8901              	
 8902              		@yjm8
 8903              		@0
 8904 4230 DD46     		mov sp, r11
 8905 4232 0FBC     		pop {r0-r3}
 8906 4234 EB46     		mov r11, sp
 8907 4236 D546     		mov sp, r10
 8908 4238 10BC     		pop {r4}
 8909 423a EA46     		mov r10, sp
 8910 423c 2546     		mov r5, r4
 8911 423e 2404     		lsls r4, r4, # 16
 8912 4240 240C     		lsrs r4, r4, # 16
 8913 4242 2D0C     		lsrs r5, r5, # 16
 8914 4244 6043     		muls r0, r0, r4		@R
 8915 4246 6143     		muls r1, r1, r4		@I
 8916 4248 6A43     		muls r2, r2, r5		@R
 8917 424a 6B43     		muls r3, r3, r5		@I
 8918 424c 8011     		asrs r0, r0, # 6
 8919 424e 8911     		asrs r1, r1, # 6
 8920 4250 9211     		asrs r2, r2, # 6
 8921 4252 9B11     		asrs r3, r3, # 6
 8922 4254 8018     		adds r0, r0, r2	 @r
 8923 4256 C918     		adds r1, r1, r3	 @i
 8924 4258 3618     		adds r6, r6, r0
 8925 425a 7F18     		adds r7, r7, r1
 8926              	
 8927 425c DD46     		mov sp, r11
ARM GAS  1.s 			page 158


 8928 425e 0FBC     		pop {r0-r3}
 8929 4260 EB46     		mov r11, sp
 8930 4262 D546     		mov sp, r10
 8931 4264 10BC     		pop {r4}
 8932 4266 EA46     		mov r10, sp
 8933 4268 2546     		mov r5, r4
 8934 426a 2404     		lsls r4, r4, # 16
 8935 426c 240C     		lsrs r4, r4, # 16
 8936 426e 2D0C     		lsrs r5, r5, # 16
 8937 4270 6043     		muls r0, r0, r4
 8938 4272 6143     		muls r1, r1, r4
 8939 4274 6A43     		muls r2, r2, r5
 8940 4276 6B43     		muls r3, r3, r5
 8941 4278 8011     		asrs r0, r0, # 6
 8942 427a 8911     		asrs r1, r1, # 6
 8943 427c 9211     		asrs r2, r2, # 6
 8944 427e 9B11     		asrs r3, r3, # 6
 8945 4280 8018     		adds r0, r0, r2         @r
 8946 4282 C918     		adds r1, r1, r3         @i
 8947 4284 3618     		adds r6, r6, r0
 8948 4286 7F18     		adds r7, r7, r1
 8949              	
 8950 4288 DD46     		mov sp, r11
 8951 428a 0FBC     		pop {r0-r3}
 8952 428c EB46     		mov r11, sp
 8953 428e D546     		mov sp, r10
 8954 4290 10BC     		pop {r4}
 8955 4292 EA46     		mov r10, sp
 8956 4294 2546     		mov r5, r4
 8957 4296 2404     		lsls r4, r4, # 16
 8958 4298 240C     		lsrs r4, r4, # 16
 8959 429a 2D0C     		lsrs r5, r5, # 16
 8960 429c 6043     		muls r0, r0, r4
 8961 429e 6143     		muls r1, r1, r4
 8962 42a0 6A43     		muls r2, r2, r5
 8963 42a2 6B43     		muls r3, r3, r5
 8964 42a4 8011     		asrs r0, r0, # 6
 8965 42a6 8911     		asrs r1, r1, # 6
 8966 42a8 9211     		asrs r2, r2, # 6
 8967 42aa 9B11     		asrs r3, r3, # 6
 8968 42ac 8018     		adds r0, r0, r2  @r
 8969 42ae C918     		adds r1, r1, r3  @i
 8970 42b0 3618     		adds r6, r6, r0
 8971 42b2 7F18     		adds r7, r7, r1
 8972              	
 8973 42b4 DD46     		mov sp, r11
 8974 42b6 0FBC     		pop {r0-r3}
 8975 42b8 EB46     		mov r11, sp
 8976 42ba D546     		mov sp, r10
 8977 42bc 10BC     		pop {r4}
 8978 42be EA46     		mov r10, sp
 8979 42c0 2546     		mov r5, r4
 8980 42c2 2404     		lsls r4, r4, # 16
 8981 42c4 240C     		lsrs r4, r4, # 16
 8982 42c6 2D0C     		lsrs r5, r5, # 16
 8983 42c8 6043     		muls r0, r0, r4
 8984 42ca 6143     		muls r1, r1, r4
ARM GAS  1.s 			page 159


 8985 42cc 6A43     		muls r2, r2, r5
 8986 42ce 6B43     		muls r3, r3, r5
 8987 42d0 8011     		asrs r0, r0, # 6
 8988 42d2 8911     		asrs r1, r1, # 6
 8989 42d4 9211     		asrs r2, r2, # 6
 8990 42d6 9B11     		asrs r3, r3, # 6
 8991 42d8 8018     		adds r0, r0, r2         @r
 8992 42da C918     		adds r1, r1, r3         @i
 8993 42dc 3618     		adds r6, r6, r0
 8994 42de 7F18     		adds r7, r7, r1
 8995              	
 8996              		@1
 8997 42e0 DD46     		mov sp, r11
 8998 42e2 0FBC     		pop {r0-r3}
 8999 42e4 EB46     		mov r11, sp
 9000 42e6 D546     		mov sp, r10
 9001 42e8 10BC     		pop {r4}
 9002 42ea EA46     		mov r10, sp
 9003 42ec 2546     		mov r5, r4
 9004 42ee 2404     		lsls r4, r4, # 16
 9005 42f0 240C     		lsrs r4, r4, # 16
 9006 42f2 2D0C     		lsrs r5, r5, # 16
 9007 42f4 6043     		muls r0, r0, r4		@R
 9008 42f6 6143     		muls r1, r1, r4		@I
 9009 42f8 6A43     		muls r2, r2, r5		@R
 9010 42fa 6B43     		muls r3, r3, r5		@I
 9011 42fc 8011     		asrs r0, r0, # 6
 9012 42fe 8911     		asrs r1, r1, # 6
 9013 4300 9211     		asrs r2, r2, # 6
 9014 4302 9B11     		asrs r3, r3, # 6
 9015 4304 8018     		adds r0, r0, r2	 @r
 9016 4306 C918     		adds r1, r1, r3	 @i
 9017 4308 3618     		adds r6, r6, r0
 9018 430a 7F18     		adds r7, r7, r1
 9019              	
 9020 430c DD46     		mov sp, r11
 9021 430e 0FBC     		pop {r0-r3}
 9022 4310 EB46     		mov r11, sp
 9023 4312 D546     		mov sp, r10
 9024 4314 10BC     		pop {r4}
 9025 4316 EA46     		mov r10, sp
 9026 4318 2546     		mov r5, r4
 9027 431a 2404     		lsls r4, r4, # 16
 9028 431c 240C     		lsrs r4, r4, # 16
 9029 431e 2D0C     		lsrs r5, r5, # 16
 9030 4320 6043     		muls r0, r0, r4
 9031 4322 6143     		muls r1, r1, r4
 9032 4324 6A43     		muls r2, r2, r5
 9033 4326 6B43     		muls r3, r3, r5
 9034 4328 8011     		asrs r0, r0, # 6
 9035 432a 8911     		asrs r1, r1, # 6
 9036 432c 9211     		asrs r2, r2, # 6
 9037 432e 9B11     		asrs r3, r3, # 6
 9038 4330 8018     		adds r0, r0, r2         @r
 9039 4332 C918     		adds r1, r1, r3         @i
 9040 4334 3618     		adds r6, r6, r0
 9041 4336 7F18     		adds r7, r7, r1
ARM GAS  1.s 			page 160


 9042              	
 9043 4338 DD46     		mov sp, r11
 9044 433a 0FBC     		pop {r0-r3}
 9045 433c EB46     		mov r11, sp
 9046 433e D546     		mov sp, r10
 9047 4340 10BC     		pop {r4}
 9048 4342 EA46     		mov r10, sp
 9049 4344 2546     		mov r5, r4
 9050 4346 2404     		lsls r4, r4, # 16
 9051 4348 240C     		lsrs r4, r4, # 16
 9052 434a 2D0C     		lsrs r5, r5, # 16
 9053 434c 6043     		muls r0, r0, r4
 9054 434e 6143     		muls r1, r1, r4
 9055 4350 6A43     		muls r2, r2, r5
 9056 4352 6B43     		muls r3, r3, r5
 9057 4354 8011     		asrs r0, r0, # 6
 9058 4356 8911     		asrs r1, r1, # 6
 9059 4358 9211     		asrs r2, r2, # 6
 9060 435a 9B11     		asrs r3, r3, # 6
 9061 435c 8018     		adds r0, r0, r2  @r
 9062 435e C918     		adds r1, r1, r3  @i
 9063 4360 3618     		adds r6, r6, r0
 9064 4362 7F18     		adds r7, r7, r1
 9065              	
 9066 4364 DD46     		mov sp, r11
 9067 4366 0FBC     		pop {r0-r3}
 9068 4368 EB46     		mov r11, sp
 9069 436a D546     		mov sp, r10
 9070 436c 10BC     		pop {r4}
 9071 436e EA46     		mov r10, sp
 9072 4370 2546     		mov r5, r4
 9073 4372 2404     		lsls r4, r4, # 16
 9074 4374 240C     		lsrs r4, r4, # 16
 9075 4376 2D0C     		lsrs r5, r5, # 16
 9076 4378 6043     		muls r0, r0, r4
 9077 437a 6143     		muls r1, r1, r4
 9078 437c 6A43     		muls r2, r2, r5
 9079 437e 6B43     		muls r3, r3, r5
 9080 4380 8011     		asrs r0, r0, # 6
 9081 4382 8911     		asrs r1, r1, # 6
 9082 4384 9211     		asrs r2, r2, # 6
 9083 4386 9B11     		asrs r3, r3, # 6
 9084 4388 8018     		adds r0, r0, r2         @r
 9085 438a C918     		adds r1, r1, r3         @i
 9086 438c 3618     		adds r6, r6, r0
 9087 438e 7F18     		adds r7, r7, r1
 9088              	
 9089              		@2
 9090 4390 DD46     		mov sp, r11
 9091 4392 0FBC     		pop {r0-r3}
 9092 4394 EB46     		mov r11, sp
 9093 4396 D546     		mov sp, r10
 9094 4398 10BC     		pop {r4}
 9095 439a EA46     		mov r10, sp
 9096 439c 2546     		mov r5, r4
 9097 439e 2404     		lsls r4, r4, # 16
 9098 43a0 240C     		lsrs r4, r4, # 16
ARM GAS  1.s 			page 161


 9099 43a2 2D0C     		lsrs r5, r5, # 16
 9100 43a4 6043     		muls r0, r0, r4		@R
 9101 43a6 6143     		muls r1, r1, r4		@I
 9102 43a8 6A43     		muls r2, r2, r5		@R
 9103 43aa 6B43     		muls r3, r3, r5		@I
 9104 43ac 8011     		asrs r0, r0, # 6
 9105 43ae 8911     		asrs r1, r1, # 6
 9106 43b0 9211     		asrs r2, r2, # 6
 9107 43b2 9B11     		asrs r3, r3, # 6
 9108 43b4 8018     		adds r0, r0, r2	 @r
 9109 43b6 C918     		adds r1, r1, r3	 @i
 9110 43b8 3618     		adds r6, r6, r0
 9111 43ba 7F18     		adds r7, r7, r1
 9112              	
 9113 43bc DD46     		mov sp, r11
 9114 43be 0FBC     		pop {r0-r3}
 9115 43c0 EB46     		mov r11, sp
 9116 43c2 D546     		mov sp, r10
 9117 43c4 10BC     		pop {r4}
 9118 43c6 EA46     		mov r10, sp
 9119 43c8 2546     		mov r5, r4
 9120 43ca 2404     		lsls r4, r4, # 16
 9121 43cc 240C     		lsrs r4, r4, # 16
 9122 43ce 2D0C     		lsrs r5, r5, # 16
 9123 43d0 6043     		muls r0, r0, r4
 9124 43d2 6143     		muls r1, r1, r4
 9125 43d4 6A43     		muls r2, r2, r5
 9126 43d6 6B43     		muls r3, r3, r5
 9127 43d8 8011     		asrs r0, r0, # 6
 9128 43da 8911     		asrs r1, r1, # 6
 9129 43dc 9211     		asrs r2, r2, # 6
 9130 43de 9B11     		asrs r3, r3, # 6
 9131 43e0 8018     		adds r0, r0, r2         @r
 9132 43e2 C918     		adds r1, r1, r3         @i
 9133 43e4 3618     		adds r6, r6, r0
 9134 43e6 7F18     		adds r7, r7, r1
 9135              	
 9136 43e8 DD46     		mov sp, r11
 9137 43ea 0FBC     		pop {r0-r3}
 9138 43ec EB46     		mov r11, sp
 9139 43ee D546     		mov sp, r10
 9140 43f0 10BC     		pop {r4}
 9141 43f2 EA46     		mov r10, sp
 9142 43f4 2546     		mov r5, r4
 9143 43f6 2404     		lsls r4, r4, # 16
 9144 43f8 240C     		lsrs r4, r4, # 16
 9145 43fa 2D0C     		lsrs r5, r5, # 16
 9146 43fc 6043     		muls r0, r0, r4
 9147 43fe 6143     		muls r1, r1, r4
 9148 4400 6A43     		muls r2, r2, r5
 9149 4402 6B43     		muls r3, r3, r5
 9150 4404 8011     		asrs r0, r0, # 6
 9151 4406 8911     		asrs r1, r1, # 6
 9152 4408 9211     		asrs r2, r2, # 6
 9153 440a 9B11     		asrs r3, r3, # 6
 9154 440c 8018     		adds r0, r0, r2  @r
 9155 440e C918     		adds r1, r1, r3  @i
ARM GAS  1.s 			page 162


 9156 4410 3618     		adds r6, r6, r0
 9157 4412 7F18     		adds r7, r7, r1
 9158              	
 9159 4414 DD46     		mov sp, r11
 9160 4416 0FBC     		pop {r0-r3}
 9161 4418 EB46     		mov r11, sp
 9162 441a D546     		mov sp, r10
 9163 441c 10BC     		pop {r4}
 9164 441e EA46     		mov r10, sp
 9165 4420 2546     		mov r5, r4
 9166 4422 2404     		lsls r4, r4, # 16
 9167 4424 240C     		lsrs r4, r4, # 16
 9168 4426 2D0C     		lsrs r5, r5, # 16
 9169 4428 6043     		muls r0, r0, r4
 9170 442a 6143     		muls r1, r1, r4
 9171 442c 6A43     		muls r2, r2, r5
 9172 442e 6B43     		muls r3, r3, r5
 9173 4430 8011     		asrs r0, r0, # 6
 9174 4432 8911     		asrs r1, r1, # 6
 9175 4434 9211     		asrs r2, r2, # 6
 9176 4436 9B11     		asrs r3, r3, # 6
 9177 4438 8018     		adds r0, r0, r2         @r
 9178 443a C918     		adds r1, r1, r3         @i
 9179 443c 3618     		adds r6, r6, r0
 9180 443e 7F18     		adds r7, r7, r1
 9181              	
 9182              		@3
 9183 4440 DD46     		mov sp, r11
 9184 4442 0FBC     		pop {r0-r3}
 9185 4444 EB46     		mov r11, sp
 9186 4446 D546     		mov sp, r10
 9187 4448 10BC     		pop {r4}
 9188 444a EA46     		mov r10, sp
 9189 444c 2546     		mov r5, r4
 9190 444e 2404     		lsls r4, r4, # 16
 9191 4450 240C     		lsrs r4, r4, # 16
 9192 4452 2D0C     		lsrs r5, r5, # 16
 9193 4454 6043     		muls r0, r0, r4		@R
 9194 4456 6143     		muls r1, r1, r4		@I
 9195 4458 6A43     		muls r2, r2, r5		@R
 9196 445a 6B43     		muls r3, r3, r5		@I
 9197 445c 8011     		asrs r0, r0, # 6
 9198 445e 8911     		asrs r1, r1, # 6
 9199 4460 9211     		asrs r2, r2, # 6
 9200 4462 9B11     		asrs r3, r3, # 6
 9201 4464 8018     		adds r0, r0, r2	 @r
 9202 4466 C918     		adds r1, r1, r3	 @i
 9203 4468 3618     		adds r6, r6, r0
 9204 446a 7F18     		adds r7, r7, r1
 9205              	
 9206 446c DD46     		mov sp, r11
 9207 446e 0FBC     		pop {r0-r3}
 9208 4470 EB46     		mov r11, sp
 9209 4472 D546     		mov sp, r10
 9210 4474 10BC     		pop {r4}
 9211 4476 EA46     		mov r10, sp
 9212 4478 2546     		mov r5, r4
ARM GAS  1.s 			page 163


 9213 447a 2404     		lsls r4, r4, # 16
 9214 447c 240C     		lsrs r4, r4, # 16
 9215 447e 2D0C     		lsrs r5, r5, # 16
 9216 4480 6043     		muls r0, r0, r4
 9217 4482 6143     		muls r1, r1, r4
 9218 4484 6A43     		muls r2, r2, r5
 9219 4486 6B43     		muls r3, r3, r5
 9220 4488 8011     		asrs r0, r0, # 6
 9221 448a 8911     		asrs r1, r1, # 6
 9222 448c 9211     		asrs r2, r2, # 6
 9223 448e 9B11     		asrs r3, r3, # 6
 9224 4490 8018     		adds r0, r0, r2         @r
 9225 4492 C918     		adds r1, r1, r3         @i
 9226 4494 3618     		adds r6, r6, r0
 9227 4496 7F18     		adds r7, r7, r1
 9228              	
 9229 4498 DD46     		mov sp, r11
 9230 449a 0FBC     		pop {r0-r3}
 9231 449c EB46     		mov r11, sp
 9232 449e D546     		mov sp, r10
 9233 44a0 10BC     		pop {r4}
 9234 44a2 EA46     		mov r10, sp
 9235 44a4 2546     		mov r5, r4
 9236 44a6 2404     		lsls r4, r4, # 16
 9237 44a8 240C     		lsrs r4, r4, # 16
 9238 44aa 2D0C     		lsrs r5, r5, # 16
 9239 44ac 6043     		muls r0, r0, r4
 9240 44ae 6143     		muls r1, r1, r4
 9241 44b0 6A43     		muls r2, r2, r5
 9242 44b2 6B43     		muls r3, r3, r5
 9243 44b4 8011     		asrs r0, r0, # 6
 9244 44b6 8911     		asrs r1, r1, # 6
 9245 44b8 9211     		asrs r2, r2, # 6
 9246 44ba 9B11     		asrs r3, r3, # 6
 9247 44bc 8018     		adds r0, r0, r2  @r
 9248 44be C918     		adds r1, r1, r3  @i
 9249 44c0 3618     		adds r6, r6, r0
 9250 44c2 7F18     		adds r7, r7, r1
 9251              	
 9252 44c4 DD46     		mov sp, r11
 9253 44c6 0FBC     		pop {r0-r3}
 9254 44c8 EB46     		mov r11, sp
 9255 44ca D546     		mov sp, r10
 9256 44cc 10BC     		pop {r4}
 9257 44ce EA46     		mov r10, sp
 9258 44d0 2546     		mov r5, r4
 9259 44d2 2404     		lsls r4, r4, # 16
 9260 44d4 240C     		lsrs r4, r4, # 16
 9261 44d6 2D0C     		lsrs r5, r5, # 16
 9262 44d8 6043     		muls r0, r0, r4
 9263 44da 6143     		muls r1, r1, r4
 9264 44dc 6A43     		muls r2, r2, r5
 9265 44de 6B43     		muls r3, r3, r5
 9266 44e0 8011     		asrs r0, r0, # 6
 9267 44e2 8911     		asrs r1, r1, # 6
 9268 44e4 9211     		asrs r2, r2, # 6
 9269 44e6 9B11     		asrs r3, r3, # 6
ARM GAS  1.s 			page 164


 9270 44e8 8018     		adds r0, r0, r2         @r
 9271 44ea C918     		adds r1, r1, r3         @i
 9272 44ec 3618     		adds r6, r6, r0
 9273 44ee 7F18     		adds r7, r7, r1
 9274              	
 9275              		@4
 9276 44f0 DD46     		mov sp, r11
 9277 44f2 0FBC     		pop {r0-r3}
 9278 44f4 EB46     		mov r11, sp
 9279 44f6 D546     		mov sp, r10
 9280 44f8 10BC     		pop {r4}
 9281 44fa EA46     		mov r10, sp
 9282 44fc 2546     		mov r5, r4
 9283 44fe 2404     		lsls r4, r4, # 16
 9284 4500 240C     		lsrs r4, r4, # 16
 9285 4502 2D0C     		lsrs r5, r5, # 16
 9286 4504 6043     		muls r0, r0, r4		@R
 9287 4506 6143     		muls r1, r1, r4		@I
 9288 4508 6A43     		muls r2, r2, r5		@R
 9289 450a 6B43     		muls r3, r3, r5		@I
 9290 450c 8011     		asrs r0, r0, # 6
 9291 450e 8911     		asrs r1, r1, # 6
 9292 4510 9211     		asrs r2, r2, # 6
 9293 4512 9B11     		asrs r3, r3, # 6
 9294 4514 8018     		adds r0, r0, r2	 @r
 9295 4516 C918     		adds r1, r1, r3	 @i
 9296 4518 3618     		adds r6, r6, r0
 9297 451a 7F18     		adds r7, r7, r1
 9298              	
 9299 451c DD46     		mov sp, r11
 9300 451e 0FBC     		pop {r0-r3}
 9301 4520 EB46     		mov r11, sp
 9302 4522 D546     		mov sp, r10
 9303 4524 10BC     		pop {r4}
 9304 4526 EA46     		mov r10, sp
 9305 4528 2546     		mov r5, r4
 9306 452a 2404     		lsls r4, r4, # 16
 9307 452c 240C     		lsrs r4, r4, # 16
 9308 452e 2D0C     		lsrs r5, r5, # 16
 9309 4530 6043     		muls r0, r0, r4
 9310 4532 6143     		muls r1, r1, r4
 9311 4534 6A43     		muls r2, r2, r5
 9312 4536 6B43     		muls r3, r3, r5
 9313 4538 8011     		asrs r0, r0, # 6
 9314 453a 8911     		asrs r1, r1, # 6
 9315 453c 9211     		asrs r2, r2, # 6
 9316 453e 9B11     		asrs r3, r3, # 6
 9317 4540 8018     		adds r0, r0, r2         @r
 9318 4542 C918     		adds r1, r1, r3         @i
 9319 4544 3618     		adds r6, r6, r0
 9320 4546 7F18     		adds r7, r7, r1
 9321              	
 9322 4548 DD46     		mov sp, r11
 9323 454a 0FBC     		pop {r0-r3}
 9324 454c EB46     		mov r11, sp
 9325 454e D546     		mov sp, r10
 9326 4550 10BC     		pop {r4}
ARM GAS  1.s 			page 165


 9327 4552 EA46     		mov r10, sp
 9328 4554 2546     		mov r5, r4
 9329 4556 2404     		lsls r4, r4, # 16
 9330 4558 240C     		lsrs r4, r4, # 16
 9331 455a 2D0C     		lsrs r5, r5, # 16
 9332 455c 6043     		muls r0, r0, r4
 9333 455e 6143     		muls r1, r1, r4
 9334 4560 6A43     		muls r2, r2, r5
 9335 4562 6B43     		muls r3, r3, r5
 9336 4564 8011     		asrs r0, r0, # 6
 9337 4566 8911     		asrs r1, r1, # 6
 9338 4568 9211     		asrs r2, r2, # 6
 9339 456a 9B11     		asrs r3, r3, # 6
 9340 456c 8018     		adds r0, r0, r2  @r
 9341 456e C918     		adds r1, r1, r3  @i
 9342 4570 3618     		adds r6, r6, r0
 9343 4572 7F18     		adds r7, r7, r1
 9344              	
 9345 4574 DD46     		mov sp, r11
 9346 4576 0FBC     		pop {r0-r3}
 9347 4578 EB46     		mov r11, sp
 9348 457a D546     		mov sp, r10
 9349 457c 10BC     		pop {r4}
 9350 457e EA46     		mov r10, sp
 9351 4580 2546     		mov r5, r4
 9352 4582 2404     		lsls r4, r4, # 16
 9353 4584 240C     		lsrs r4, r4, # 16
 9354 4586 2D0C     		lsrs r5, r5, # 16
 9355 4588 6043     		muls r0, r0, r4
 9356 458a 6143     		muls r1, r1, r4
 9357 458c 6A43     		muls r2, r2, r5
 9358 458e 6B43     		muls r3, r3, r5
 9359 4590 8011     		asrs r0, r0, # 6
 9360 4592 8911     		asrs r1, r1, # 6
 9361 4594 9211     		asrs r2, r2, # 6
 9362 4596 9B11     		asrs r3, r3, # 6
 9363 4598 8018     		adds r0, r0, r2         @r
 9364 459a C918     		adds r1, r1, r3         @i
 9365 459c 3618     		adds r6, r6, r0
 9366 459e 7F18     		adds r7, r7, r1
 9367              	
 9368              		@5
 9369 45a0 DD46     		mov sp, r11
 9370 45a2 0FBC     		pop {r0-r3}
 9371 45a4 EB46     		mov r11, sp
 9372 45a6 D546     		mov sp, r10
 9373 45a8 10BC     		pop {r4}
 9374 45aa EA46     		mov r10, sp
 9375 45ac 2546     		mov r5, r4
 9376 45ae 2404     		lsls r4, r4, # 16
 9377 45b0 240C     		lsrs r4, r4, # 16
 9378 45b2 2D0C     		lsrs r5, r5, # 16
 9379 45b4 6043     		muls r0, r0, r4		@R
 9380 45b6 6143     		muls r1, r1, r4		@I
 9381 45b8 6A43     		muls r2, r2, r5		@R
 9382 45ba 6B43     		muls r3, r3, r5		@I
 9383 45bc 8011     		asrs r0, r0, # 6
ARM GAS  1.s 			page 166


 9384 45be 8911     		asrs r1, r1, # 6
 9385 45c0 9211     		asrs r2, r2, # 6
 9386 45c2 9B11     		asrs r3, r3, # 6
 9387 45c4 8018     		adds r0, r0, r2	 @r
 9388 45c6 C918     		adds r1, r1, r3	 @i
 9389 45c8 3618     		adds r6, r6, r0
 9390 45ca 7F18     		adds r7, r7, r1
 9391              	
 9392 45cc DD46     		mov sp, r11
 9393 45ce 0FBC     		pop {r0-r3}
 9394 45d0 EB46     		mov r11, sp
 9395 45d2 D546     		mov sp, r10
 9396 45d4 10BC     		pop {r4}
 9397 45d6 EA46     		mov r10, sp
 9398 45d8 2546     		mov r5, r4
 9399 45da 2404     		lsls r4, r4, # 16
 9400 45dc 240C     		lsrs r4, r4, # 16
 9401 45de 2D0C     		lsrs r5, r5, # 16
 9402 45e0 6043     		muls r0, r0, r4
 9403 45e2 6143     		muls r1, r1, r4
 9404 45e4 6A43     		muls r2, r2, r5
 9405 45e6 6B43     		muls r3, r3, r5
 9406 45e8 8011     		asrs r0, r0, # 6
 9407 45ea 8911     		asrs r1, r1, # 6
 9408 45ec 9211     		asrs r2, r2, # 6
 9409 45ee 9B11     		asrs r3, r3, # 6
 9410 45f0 8018     		adds r0, r0, r2         @r
 9411 45f2 C918     		adds r1, r1, r3         @i
 9412 45f4 3618     		adds r6, r6, r0
 9413 45f6 7F18     		adds r7, r7, r1
 9414              	
 9415 45f8 DD46     		mov sp, r11
 9416 45fa 0FBC     		pop {r0-r3}
 9417 45fc EB46     		mov r11, sp
 9418 45fe D546     		mov sp, r10
 9419 4600 10BC     		pop {r4}
 9420 4602 EA46     		mov r10, sp
 9421 4604 2546     		mov r5, r4
 9422 4606 2404     		lsls r4, r4, # 16
 9423 4608 240C     		lsrs r4, r4, # 16
 9424 460a 2D0C     		lsrs r5, r5, # 16
 9425 460c 6043     		muls r0, r0, r4
 9426 460e 6143     		muls r1, r1, r4
 9427 4610 6A43     		muls r2, r2, r5
 9428 4612 6B43     		muls r3, r3, r5
 9429 4614 8011     		asrs r0, r0, # 6
 9430 4616 8911     		asrs r1, r1, # 6
 9431 4618 9211     		asrs r2, r2, # 6
 9432 461a 9B11     		asrs r3, r3, # 6
 9433 461c 8018     		adds r0, r0, r2  @r
 9434 461e C918     		adds r1, r1, r3  @i
 9435 4620 3618     		adds r6, r6, r0
 9436 4622 7F18     		adds r7, r7, r1
 9437              	
 9438 4624 DD46     		mov sp, r11
 9439 4626 0FBC     		pop {r0-r3}
 9440 4628 EB46     		mov r11, sp
ARM GAS  1.s 			page 167


 9441 462a D546     		mov sp, r10
 9442 462c 10BC     		pop {r4}
 9443 462e EA46     		mov r10, sp
 9444 4630 2546     		mov r5, r4
 9445 4632 2404     		lsls r4, r4, # 16
 9446 4634 240C     		lsrs r4, r4, # 16
 9447 4636 2D0C     		lsrs r5, r5, # 16
 9448 4638 6043     		muls r0, r0, r4
 9449 463a 6143     		muls r1, r1, r4
 9450 463c 6A43     		muls r2, r2, r5
 9451 463e 6B43     		muls r3, r3, r5
 9452 4640 8011     		asrs r0, r0, # 6
 9453 4642 8911     		asrs r1, r1, # 6
 9454 4644 9211     		asrs r2, r2, # 6
 9455 4646 9B11     		asrs r3, r3, # 6
 9456 4648 8018     		adds r0, r0, r2         @r
 9457 464a C918     		adds r1, r1, r3         @i
 9458 464c 3618     		adds r6, r6, r0
 9459 464e 7F18     		adds r7, r7, r1
 9460              	
 9461              		@6
 9462 4650 DD46     		mov sp, r11
 9463 4652 0FBC     		pop {r0-r3}
 9464 4654 EB46     		mov r11, sp
 9465 4656 D546     		mov sp, r10
 9466 4658 10BC     		pop {r4}
 9467 465a EA46     		mov r10, sp
 9468 465c 2546     		mov r5, r4
 9469 465e 2404     		lsls r4, r4, # 16
 9470 4660 240C     		lsrs r4, r4, # 16
 9471 4662 2D0C     		lsrs r5, r5, # 16
 9472 4664 6043     		muls r0, r0, r4		@R
 9473 4666 6143     		muls r1, r1, r4		@I
 9474 4668 6A43     		muls r2, r2, r5		@R
 9475 466a 6B43     		muls r3, r3, r5		@I
 9476 466c 8011     		asrs r0, r0, # 6
 9477 466e 8911     		asrs r1, r1, # 6
 9478 4670 9211     		asrs r2, r2, # 6
 9479 4672 9B11     		asrs r3, r3, # 6
 9480 4674 8018     		adds r0, r0, r2	 @r
 9481 4676 C918     		adds r1, r1, r3	 @i
 9482 4678 3618     		adds r6, r6, r0
 9483 467a 7F18     		adds r7, r7, r1
 9484              	
 9485 467c DD46     		mov sp, r11
 9486 467e 0FBC     		pop {r0-r3}
 9487 4680 EB46     		mov r11, sp
 9488 4682 D546     		mov sp, r10
 9489 4684 10BC     		pop {r4}
 9490 4686 EA46     		mov r10, sp
 9491 4688 2546     		mov r5, r4
 9492 468a 2404     		lsls r4, r4, # 16
 9493 468c 240C     		lsrs r4, r4, # 16
 9494 468e 2D0C     		lsrs r5, r5, # 16
 9495 4690 6043     		muls r0, r0, r4
 9496 4692 6143     		muls r1, r1, r4
 9497 4694 6A43     		muls r2, r2, r5
ARM GAS  1.s 			page 168


 9498 4696 6B43     		muls r3, r3, r5
 9499 4698 8011     		asrs r0, r0, # 6
 9500 469a 8911     		asrs r1, r1, # 6
 9501 469c 9211     		asrs r2, r2, # 6
 9502 469e 9B11     		asrs r3, r3, # 6
 9503 46a0 8018     		adds r0, r0, r2         @r
 9504 46a2 C918     		adds r1, r1, r3         @i
 9505 46a4 3618     		adds r6, r6, r0
 9506 46a6 7F18     		adds r7, r7, r1
 9507              	
 9508 46a8 DD46     		mov sp, r11
 9509 46aa 0FBC     		pop {r0-r3}
 9510 46ac EB46     		mov r11, sp
 9511 46ae D546     		mov sp, r10
 9512 46b0 10BC     		pop {r4}
 9513 46b2 EA46     		mov r10, sp
 9514 46b4 2546     		mov r5, r4
 9515 46b6 2404     		lsls r4, r4, # 16
 9516 46b8 240C     		lsrs r4, r4, # 16
 9517 46ba 2D0C     		lsrs r5, r5, # 16
 9518 46bc 6043     		muls r0, r0, r4
 9519 46be 6143     		muls r1, r1, r4
 9520 46c0 6A43     		muls r2, r2, r5
 9521 46c2 6B43     		muls r3, r3, r5
 9522 46c4 8011     		asrs r0, r0, # 6
 9523 46c6 8911     		asrs r1, r1, # 6
 9524 46c8 9211     		asrs r2, r2, # 6
 9525 46ca 9B11     		asrs r3, r3, # 6
 9526 46cc 8018     		adds r0, r0, r2  @r
 9527 46ce C918     		adds r1, r1, r3  @i
 9528 46d0 3618     		adds r6, r6, r0
 9529 46d2 7F18     		adds r7, r7, r1
 9530              	
 9531 46d4 DD46     		mov sp, r11
 9532 46d6 0FBC     		pop {r0-r3}
 9533 46d8 EB46     		mov r11, sp
 9534 46da D546     		mov sp, r10
 9535 46dc 10BC     		pop {r4}
 9536 46de EA46     		mov r10, sp
 9537 46e0 2546     		mov r5, r4
 9538 46e2 2404     		lsls r4, r4, # 16
 9539 46e4 240C     		lsrs r4, r4, # 16
 9540 46e6 2D0C     		lsrs r5, r5, # 16
 9541 46e8 6043     		muls r0, r0, r4
 9542 46ea 6143     		muls r1, r1, r4
 9543 46ec 6A43     		muls r2, r2, r5
 9544 46ee 6B43     		muls r3, r3, r5
 9545 46f0 8011     		asrs r0, r0, # 6
 9546 46f2 8911     		asrs r1, r1, # 6
 9547 46f4 9211     		asrs r2, r2, # 6
 9548 46f6 9B11     		asrs r3, r3, # 6
 9549 46f8 8018     		adds r0, r0, r2         @r
 9550 46fa C918     		adds r1, r1, r3         @i
 9551 46fc 3618     		adds r6, r6, r0
 9552 46fe 7F18     		adds r7, r7, r1
 9553              	
 9554              		@7
ARM GAS  1.s 			page 169


 9555 4700 DD46     		mov sp, r11
 9556 4702 0FBC     		pop {r0-r3}
 9557 4704 EB46     		mov r11, sp
 9558 4706 D546     		mov sp, r10
 9559 4708 10BC     		pop {r4}
 9560 470a EA46     		mov r10, sp
 9561 470c 2546     		mov r5, r4
 9562 470e 2404     		lsls r4, r4, # 16
 9563 4710 240C     		lsrs r4, r4, # 16
 9564 4712 2D0C     		lsrs r5, r5, # 16
 9565 4714 6043     		muls r0, r0, r4		@R
 9566 4716 6143     		muls r1, r1, r4		@I
 9567 4718 6A43     		muls r2, r2, r5		@R
 9568 471a 6B43     		muls r3, r3, r5		@I
 9569 471c 8011     		asrs r0, r0, # 6
 9570 471e 8911     		asrs r1, r1, # 6
 9571 4720 9211     		asrs r2, r2, # 6
 9572 4722 9B11     		asrs r3, r3, # 6
 9573 4724 8018     		adds r0, r0, r2	 @r
 9574 4726 C918     		adds r1, r1, r3	 @i
 9575 4728 3618     		adds r6, r6, r0
 9576 472a 7F18     		adds r7, r7, r1
 9577              	
 9578 472c DD46     		mov sp, r11
 9579 472e 0FBC     		pop {r0-r3}
 9580 4730 EB46     		mov r11, sp
 9581 4732 D546     		mov sp, r10
 9582 4734 10BC     		pop {r4}
 9583 4736 EA46     		mov r10, sp
 9584 4738 2546     		mov r5, r4
 9585 473a 2404     		lsls r4, r4, # 16
 9586 473c 240C     		lsrs r4, r4, # 16
 9587 473e 2D0C     		lsrs r5, r5, # 16
 9588 4740 6043     		muls r0, r0, r4
 9589 4742 6143     		muls r1, r1, r4
 9590 4744 6A43     		muls r2, r2, r5
 9591 4746 6B43     		muls r3, r3, r5
 9592 4748 8011     		asrs r0, r0, # 6
 9593 474a 8911     		asrs r1, r1, # 6
 9594 474c 9211     		asrs r2, r2, # 6
 9595 474e 9B11     		asrs r3, r3, # 6
 9596 4750 8018     		adds r0, r0, r2         @r
 9597 4752 C918     		adds r1, r1, r3         @i
 9598 4754 3618     		adds r6, r6, r0
 9599 4756 7F18     		adds r7, r7, r1
 9600              	
 9601 4758 DD46     		mov sp, r11
 9602 475a 0FBC     		pop {r0-r3}
 9603 475c EB46     		mov r11, sp
 9604 475e D546     		mov sp, r10
 9605 4760 10BC     		pop {r4}
 9606 4762 EA46     		mov r10, sp
 9607 4764 2546     		mov r5, r4
 9608 4766 2404     		lsls r4, r4, # 16
 9609 4768 240C     		lsrs r4, r4, # 16
 9610 476a 2D0C     		lsrs r5, r5, # 16
 9611 476c 6043     		muls r0, r0, r4
ARM GAS  1.s 			page 170


 9612 476e 6143     		muls r1, r1, r4
 9613 4770 6A43     		muls r2, r2, r5
 9614 4772 6B43     		muls r3, r3, r5
 9615 4774 8011     		asrs r0, r0, # 6
 9616 4776 8911     		asrs r1, r1, # 6
 9617 4778 9211     		asrs r2, r2, # 6
 9618 477a 9B11     		asrs r3, r3, # 6
 9619 477c 8018     		adds r0, r0, r2  @r
 9620 477e C918     		adds r1, r1, r3  @i
 9621 4780 3618     		adds r6, r6, r0
 9622 4782 7F18     		adds r7, r7, r1
 9623              	
 9624 4784 DD46     		mov sp, r11
 9625 4786 0FBC     		pop {r0-r3}
 9626 4788 EB46     		mov r11, sp
 9627 478a D546     		mov sp, r10
 9628 478c 10BC     		pop {r4}
 9629 478e EA46     		mov r10, sp
 9630 4790 2546     		mov r5, r4
 9631 4792 2404     		lsls r4, r4, # 16
 9632 4794 240C     		lsrs r4, r4, # 16
 9633 4796 2D0C     		lsrs r5, r5, # 16
 9634 4798 6043     		muls r0, r0, r4
 9635 479a 6143     		muls r1, r1, r4
 9636 479c 6A43     		muls r2, r2, r5
 9637 479e 6B43     		muls r3, r3, r5
 9638 47a0 8011     		asrs r0, r0, # 6
 9639 47a2 8911     		asrs r1, r1, # 6
 9640 47a4 9211     		asrs r2, r2, # 6
 9641 47a6 9B11     		asrs r3, r3, # 6
 9642 47a8 8018     		adds r0, r0, r2         @r
 9643 47aa C918     		adds r1, r1, r3         @i
 9644 47ac 3618     		adds r6, r6, r0
 9645 47ae 7F18     		adds r7, r7, r1
 9646              	
 9647              		@8
 9648 47b0 DD46     		mov sp, r11
 9649 47b2 0FBC     		pop {r0-r3}
 9650 47b4 EB46     		mov r11, sp
 9651 47b6 D546     		mov sp, r10
 9652 47b8 10BC     		pop {r4}
 9653 47ba EA46     		mov r10, sp
 9654 47bc 2546     		mov r5, r4
 9655 47be 2404     		lsls r4, r4, # 16
 9656 47c0 240C     		lsrs r4, r4, # 16
 9657 47c2 2D0C     		lsrs r5, r5, # 16
 9658 47c4 6043     		muls r0, r0, r4		@R
 9659 47c6 6143     		muls r1, r1, r4		@I
 9660 47c8 6A43     		muls r2, r2, r5		@R
 9661 47ca 6B43     		muls r3, r3, r5		@I
 9662 47cc 8011     		asrs r0, r0, # 6
 9663 47ce 8911     		asrs r1, r1, # 6
 9664 47d0 9211     		asrs r2, r2, # 6
 9665 47d2 9B11     		asrs r3, r3, # 6
 9666 47d4 8018     		adds r0, r0, r2	 @r
 9667 47d6 C918     		adds r1, r1, r3	 @i
 9668 47d8 3618     		adds r6, r6, r0
ARM GAS  1.s 			page 171


 9669 47da 7F18     		adds r7, r7, r1
 9670              	
 9671 47dc DD46     		mov sp, r11
 9672 47de 0FBC     		pop {r0-r3}
 9673 47e0 EB46     		mov r11, sp
 9674 47e2 D546     		mov sp, r10
 9675 47e4 10BC     		pop {r4}
 9676 47e6 EA46     		mov r10, sp
 9677 47e8 2546     		mov r5, r4
 9678 47ea 2404     		lsls r4, r4, # 16
 9679 47ec 240C     		lsrs r4, r4, # 16
 9680 47ee 2D0C     		lsrs r5, r5, # 16
 9681 47f0 6043     		muls r0, r0, r4
 9682 47f2 6143     		muls r1, r1, r4
 9683 47f4 6A43     		muls r2, r2, r5
 9684 47f6 6B43     		muls r3, r3, r5
 9685 47f8 8011     		asrs r0, r0, # 6
 9686 47fa 8911     		asrs r1, r1, # 6
 9687 47fc 9211     		asrs r2, r2, # 6
 9688 47fe 9B11     		asrs r3, r3, # 6
 9689 4800 8018     		adds r0, r0, r2         @r
 9690 4802 C918     		adds r1, r1, r3         @i
 9691 4804 3618     		adds r6, r6, r0
 9692 4806 7F18     		adds r7, r7, r1
 9693              	
 9694 4808 DD46     		mov sp, r11
 9695 480a 0FBC     		pop {r0-r3}
 9696 480c EB46     		mov r11, sp
 9697 480e D546     		mov sp, r10
 9698 4810 10BC     		pop {r4}
 9699 4812 EA46     		mov r10, sp
 9700 4814 2546     		mov r5, r4
 9701 4816 2404     		lsls r4, r4, # 16
 9702 4818 240C     		lsrs r4, r4, # 16
 9703 481a 2D0C     		lsrs r5, r5, # 16
 9704 481c 6043     		muls r0, r0, r4
 9705 481e 6143     		muls r1, r1, r4
 9706 4820 6A43     		muls r2, r2, r5
 9707 4822 6B43     		muls r3, r3, r5
 9708 4824 8011     		asrs r0, r0, # 6
 9709 4826 8911     		asrs r1, r1, # 6
 9710 4828 9211     		asrs r2, r2, # 6
 9711 482a 9B11     		asrs r3, r3, # 6
 9712 482c 8018     		adds r0, r0, r2  @r
 9713 482e C918     		adds r1, r1, r3  @i
 9714 4830 3618     		adds r6, r6, r0
 9715 4832 7F18     		adds r7, r7, r1
 9716              	
 9717 4834 DD46     		mov sp, r11
 9718 4836 0FBC     		pop {r0-r3}
 9719 4838 EB46     		mov r11, sp
 9720 483a D546     		mov sp, r10
 9721 483c 10BC     		pop {r4}
 9722 483e EA46     		mov r10, sp
 9723 4840 2546     		mov r5, r4
 9724 4842 2404     		lsls r4, r4, # 16
 9725 4844 240C     		lsrs r4, r4, # 16
ARM GAS  1.s 			page 172


 9726 4846 2D0C     		lsrs r5, r5, # 16
 9727 4848 6043     		muls r0, r0, r4
 9728 484a 6143     		muls r1, r1, r4
 9729 484c 6A43     		muls r2, r2, r5
 9730 484e 6B43     		muls r3, r3, r5
 9731 4850 8011     		asrs r0, r0, # 6
 9732 4852 8911     		asrs r1, r1, # 6
 9733 4854 9211     		asrs r2, r2, # 6
 9734 4856 9B11     		asrs r3, r3, # 6
 9735 4858 8018     		adds r0, r0, r2         @r
 9736 485a C918     		adds r1, r1, r3         @i
 9737 485c 3618     		adds r6, r6, r0
 9738 485e 7F18     		adds r7, r7, r1
 9739              	
 9740              		@9
 9741 4860 DD46     		mov sp, r11
 9742 4862 0FBC     		pop {r0-r3}
 9743 4864 EB46     		mov r11, sp
 9744 4866 D546     		mov sp, r10
 9745 4868 10BC     		pop {r4}
 9746 486a EA46     		mov r10, sp
 9747 486c 2546     		mov r5, r4
 9748 486e 2404     		lsls r4, r4, # 16
 9749 4870 240C     		lsrs r4, r4, # 16
 9750 4872 2D0C     		lsrs r5, r5, # 16
 9751 4874 6043     		muls r0, r0, r4		@R
 9752 4876 6143     		muls r1, r1, r4		@I
 9753 4878 6A43     		muls r2, r2, r5		@R
 9754 487a 6B43     		muls r3, r3, r5		@I
 9755 487c 8011     		asrs r0, r0, # 6
 9756 487e 8911     		asrs r1, r1, # 6
 9757 4880 9211     		asrs r2, r2, # 6
 9758 4882 9B11     		asrs r3, r3, # 6
 9759 4884 8018     		adds r0, r0, r2	 @r
 9760 4886 C918     		adds r1, r1, r3	 @i
 9761 4888 3618     		adds r6, r6, r0
 9762 488a 7F18     		adds r7, r7, r1
 9763              	
 9764 488c DD46     		mov sp, r11
 9765 488e 0FBC     		pop {r0-r3}
 9766 4890 EB46     		mov r11, sp
 9767 4892 D546     		mov sp, r10
 9768 4894 10BC     		pop {r4}
 9769 4896 EA46     		mov r10, sp
 9770 4898 2546     		mov r5, r4
 9771 489a 2404     		lsls r4, r4, # 16
 9772 489c 240C     		lsrs r4, r4, # 16
 9773 489e 2D0C     		lsrs r5, r5, # 16
 9774 48a0 6043     		muls r0, r0, r4
 9775 48a2 6143     		muls r1, r1, r4
 9776 48a4 6A43     		muls r2, r2, r5
 9777 48a6 6B43     		muls r3, r3, r5
 9778 48a8 8011     		asrs r0, r0, # 6
 9779 48aa 8911     		asrs r1, r1, # 6
 9780 48ac 9211     		asrs r2, r2, # 6
 9781 48ae 9B11     		asrs r3, r3, # 6
 9782 48b0 8018     		adds r0, r0, r2         @r
ARM GAS  1.s 			page 173


 9783 48b2 C918     		adds r1, r1, r3         @i
 9784 48b4 3618     		adds r6, r6, r0
 9785 48b6 7F18     		adds r7, r7, r1
 9786              	
 9787 48b8 DD46     		mov sp, r11
 9788 48ba 0FBC     		pop {r0-r3}
 9789 48bc EB46     		mov r11, sp
 9790 48be D546     		mov sp, r10
 9791 48c0 10BC     		pop {r4}
 9792 48c2 EA46     		mov r10, sp
 9793 48c4 2546     		mov r5, r4
 9794 48c6 2404     		lsls r4, r4, # 16
 9795 48c8 240C     		lsrs r4, r4, # 16
 9796 48ca 2D0C     		lsrs r5, r5, # 16
 9797 48cc 6043     		muls r0, r0, r4
 9798 48ce 6143     		muls r1, r1, r4
 9799 48d0 6A43     		muls r2, r2, r5
 9800 48d2 6B43     		muls r3, r3, r5
 9801 48d4 8011     		asrs r0, r0, # 6
 9802 48d6 8911     		asrs r1, r1, # 6
 9803 48d8 9211     		asrs r2, r2, # 6
 9804 48da 9B11     		asrs r3, r3, # 6
 9805 48dc 8018     		adds r0, r0, r2  @r
 9806 48de C918     		adds r1, r1, r3  @i
 9807 48e0 3618     		adds r6, r6, r0
 9808 48e2 7F18     		adds r7, r7, r1
 9809              	
 9810 48e4 DD46     		mov sp, r11
 9811 48e6 0FBC     		pop {r0-r3}
 9812 48e8 EB46     		mov r11, sp
 9813 48ea D546     		mov sp, r10
 9814 48ec 10BC     		pop {r4}
 9815 48ee EA46     		mov r10, sp
 9816 48f0 2546     		mov r5, r4
 9817 48f2 2404     		lsls r4, r4, # 16
 9818 48f4 240C     		lsrs r4, r4, # 16
 9819 48f6 2D0C     		lsrs r5, r5, # 16
 9820 48f8 6043     		muls r0, r0, r4
 9821 48fa 6143     		muls r1, r1, r4
 9822 48fc 6A43     		muls r2, r2, r5
 9823 48fe 6B43     		muls r3, r3, r5
 9824 4900 8011     		asrs r0, r0, # 6
 9825 4902 8911     		asrs r1, r1, # 6
 9826 4904 9211     		asrs r2, r2, # 6
 9827 4906 9B11     		asrs r3, r3, # 6
 9828 4908 8018     		adds r0, r0, r2         @r
 9829 490a C918     		adds r1, r1, r3         @i
 9830 490c 3618     		adds r6, r6, r0
 9831 490e 7F18     		adds r7, r7, r1
 9832              	
 9833              		@yjm9
 9834              		@0
 9835 4910 DD46     		mov sp, r11
 9836 4912 0FBC     		pop {r0-r3}
 9837 4914 EB46     		mov r11, sp
 9838 4916 D546     		mov sp, r10
 9839 4918 10BC     		pop {r4}
ARM GAS  1.s 			page 174


 9840 491a EA46     		mov r10, sp
 9841 491c 2546     		mov r5, r4
 9842 491e 2404     		lsls r4, r4, # 16
 9843 4920 240C     		lsrs r4, r4, # 16
 9844 4922 2D0C     		lsrs r5, r5, # 16
 9845 4924 6043     		muls r0, r0, r4		@R
 9846 4926 6143     		muls r1, r1, r4		@I
 9847 4928 6A43     		muls r2, r2, r5		@R
 9848 492a 6B43     		muls r3, r3, r5		@I
 9849 492c 8011     		asrs r0, r0, # 6
 9850 492e 8911     		asrs r1, r1, # 6
 9851 4930 9211     		asrs r2, r2, # 6
 9852 4932 9B11     		asrs r3, r3, # 6
 9853 4934 8018     		adds r0, r0, r2	 @r
 9854 4936 C918     		adds r1, r1, r3	 @i
 9855 4938 3618     		adds r6, r6, r0
 9856 493a 7F18     		adds r7, r7, r1
 9857              	
 9858 493c DD46     		mov sp, r11
 9859 493e 0FBC     		pop {r0-r3}
 9860 4940 EB46     		mov r11, sp
 9861 4942 D546     		mov sp, r10
 9862 4944 10BC     		pop {r4}
 9863 4946 EA46     		mov r10, sp
 9864 4948 2546     		mov r5, r4
 9865 494a 2404     		lsls r4, r4, # 16
 9866 494c 240C     		lsrs r4, r4, # 16
 9867 494e 2D0C     		lsrs r5, r5, # 16
 9868 4950 6043     		muls r0, r0, r4
 9869 4952 6143     		muls r1, r1, r4
 9870 4954 6A43     		muls r2, r2, r5
 9871 4956 6B43     		muls r3, r3, r5
 9872 4958 8011     		asrs r0, r0, # 6
 9873 495a 8911     		asrs r1, r1, # 6
 9874 495c 9211     		asrs r2, r2, # 6
 9875 495e 9B11     		asrs r3, r3, # 6
 9876 4960 8018     		adds r0, r0, r2         @r
 9877 4962 C918     		adds r1, r1, r3         @i
 9878 4964 3618     		adds r6, r6, r0
 9879 4966 7F18     		adds r7, r7, r1
 9880              	
 9881 4968 DD46     		mov sp, r11
 9882 496a 0FBC     		pop {r0-r3}
 9883 496c EB46     		mov r11, sp
 9884 496e D546     		mov sp, r10
 9885 4970 10BC     		pop {r4}
 9886 4972 EA46     		mov r10, sp
 9887 4974 2546     		mov r5, r4
 9888 4976 2404     		lsls r4, r4, # 16
 9889 4978 240C     		lsrs r4, r4, # 16
 9890 497a 2D0C     		lsrs r5, r5, # 16
 9891 497c 6043     		muls r0, r0, r4
 9892 497e 6143     		muls r1, r1, r4
 9893 4980 6A43     		muls r2, r2, r5
 9894 4982 6B43     		muls r3, r3, r5
 9895 4984 8011     		asrs r0, r0, # 6
 9896 4986 8911     		asrs r1, r1, # 6
ARM GAS  1.s 			page 175


 9897 4988 9211     		asrs r2, r2, # 6
 9898 498a 9B11     		asrs r3, r3, # 6
 9899 498c 8018     		adds r0, r0, r2  @r
 9900 498e C918     		adds r1, r1, r3  @i
 9901 4990 3618     		adds r6, r6, r0
 9902 4992 7F18     		adds r7, r7, r1
 9903              	
 9904 4994 DD46     		mov sp, r11
 9905 4996 0FBC     		pop {r0-r3}
 9906 4998 EB46     		mov r11, sp
 9907 499a D546     		mov sp, r10
 9908 499c 10BC     		pop {r4}
 9909 499e EA46     		mov r10, sp
 9910 49a0 2546     		mov r5, r4
 9911 49a2 2404     		lsls r4, r4, # 16
 9912 49a4 240C     		lsrs r4, r4, # 16
 9913 49a6 2D0C     		lsrs r5, r5, # 16
 9914 49a8 6043     		muls r0, r0, r4
 9915 49aa 6143     		muls r1, r1, r4
 9916 49ac 6A43     		muls r2, r2, r5
 9917 49ae 6B43     		muls r3, r3, r5
 9918 49b0 8011     		asrs r0, r0, # 6
 9919 49b2 8911     		asrs r1, r1, # 6
 9920 49b4 9211     		asrs r2, r2, # 6
 9921 49b6 9B11     		asrs r3, r3, # 6
 9922 49b8 8018     		adds r0, r0, r2         @r
 9923 49ba C918     		adds r1, r1, r3         @i
 9924 49bc 3618     		adds r6, r6, r0
 9925 49be 7F18     		adds r7, r7, r1
 9926              	
 9927              		@1
 9928 49c0 DD46     		mov sp, r11
 9929 49c2 0FBC     		pop {r0-r3}
 9930 49c4 EB46     		mov r11, sp
 9931 49c6 D546     		mov sp, r10
 9932 49c8 10BC     		pop {r4}
 9933 49ca EA46     		mov r10, sp
 9934 49cc 2546     		mov r5, r4
 9935 49ce 2404     		lsls r4, r4, # 16
 9936 49d0 240C     		lsrs r4, r4, # 16
 9937 49d2 2D0C     		lsrs r5, r5, # 16
 9938 49d4 6043     		muls r0, r0, r4		@R
 9939 49d6 6143     		muls r1, r1, r4		@I
 9940 49d8 6A43     		muls r2, r2, r5		@R
 9941 49da 6B43     		muls r3, r3, r5		@I
 9942 49dc 8011     		asrs r0, r0, # 6
 9943 49de 8911     		asrs r1, r1, # 6
 9944 49e0 9211     		asrs r2, r2, # 6
 9945 49e2 9B11     		asrs r3, r3, # 6
 9946 49e4 8018     		adds r0, r0, r2	 @r
 9947 49e6 C918     		adds r1, r1, r3	 @i
 9948 49e8 3618     		adds r6, r6, r0
 9949 49ea 7F18     		adds r7, r7, r1
 9950              	
 9951 49ec DD46     		mov sp, r11
 9952 49ee 0FBC     		pop {r0-r3}
 9953 49f0 EB46     		mov r11, sp
ARM GAS  1.s 			page 176


 9954 49f2 D546     		mov sp, r10
 9955 49f4 10BC     		pop {r4}
 9956 49f6 EA46     		mov r10, sp
 9957 49f8 2546     		mov r5, r4
 9958 49fa 2404     		lsls r4, r4, # 16
 9959 49fc 240C     		lsrs r4, r4, # 16
 9960 49fe 2D0C     		lsrs r5, r5, # 16
 9961 4a00 6043     		muls r0, r0, r4
 9962 4a02 6143     		muls r1, r1, r4
 9963 4a04 6A43     		muls r2, r2, r5
 9964 4a06 6B43     		muls r3, r3, r5
 9965 4a08 8011     		asrs r0, r0, # 6
 9966 4a0a 8911     		asrs r1, r1, # 6
 9967 4a0c 9211     		asrs r2, r2, # 6
 9968 4a0e 9B11     		asrs r3, r3, # 6
 9969 4a10 8018     		adds r0, r0, r2         @r
 9970 4a12 C918     		adds r1, r1, r3         @i
 9971 4a14 3618     		adds r6, r6, r0
 9972 4a16 7F18     		adds r7, r7, r1
 9973              	
 9974 4a18 DD46     		mov sp, r11
 9975 4a1a 0FBC     		pop {r0-r3}
 9976 4a1c EB46     		mov r11, sp
 9977 4a1e D546     		mov sp, r10
 9978 4a20 10BC     		pop {r4}
 9979 4a22 EA46     		mov r10, sp
 9980 4a24 2546     		mov r5, r4
 9981 4a26 2404     		lsls r4, r4, # 16
 9982 4a28 240C     		lsrs r4, r4, # 16
 9983 4a2a 2D0C     		lsrs r5, r5, # 16
 9984 4a2c 6043     		muls r0, r0, r4
 9985 4a2e 6143     		muls r1, r1, r4
 9986 4a30 6A43     		muls r2, r2, r5
 9987 4a32 6B43     		muls r3, r3, r5
 9988 4a34 8011     		asrs r0, r0, # 6
 9989 4a36 8911     		asrs r1, r1, # 6
 9990 4a38 9211     		asrs r2, r2, # 6
 9991 4a3a 9B11     		asrs r3, r3, # 6
 9992 4a3c 8018     		adds r0, r0, r2  @r
 9993 4a3e C918     		adds r1, r1, r3  @i
 9994 4a40 3618     		adds r6, r6, r0
 9995 4a42 7F18     		adds r7, r7, r1
 9996              	
 9997 4a44 DD46     		mov sp, r11
 9998 4a46 0FBC     		pop {r0-r3}
 9999 4a48 EB46     		mov r11, sp
 10000 4a4a D546     		mov sp, r10
 10001 4a4c 10BC     		pop {r4}
 10002 4a4e EA46     		mov r10, sp
 10003 4a50 2546     		mov r5, r4
 10004 4a52 2404     		lsls r4, r4, # 16
 10005 4a54 240C     		lsrs r4, r4, # 16
 10006 4a56 2D0C     		lsrs r5, r5, # 16
 10007 4a58 6043     		muls r0, r0, r4
 10008 4a5a 6143     		muls r1, r1, r4
 10009 4a5c 6A43     		muls r2, r2, r5
 10010 4a5e 6B43     		muls r3, r3, r5
ARM GAS  1.s 			page 177


 10011 4a60 8011     		asrs r0, r0, # 6
 10012 4a62 8911     		asrs r1, r1, # 6
 10013 4a64 9211     		asrs r2, r2, # 6
 10014 4a66 9B11     		asrs r3, r3, # 6
 10015 4a68 8018     		adds r0, r0, r2         @r
 10016 4a6a C918     		adds r1, r1, r3         @i
 10017 4a6c 3618     		adds r6, r6, r0
 10018 4a6e 7F18     		adds r7, r7, r1
 10019              	
 10020              		@2
 10021 4a70 DD46     		mov sp, r11
 10022 4a72 0FBC     		pop {r0-r3}
 10023 4a74 EB46     		mov r11, sp
 10024 4a76 D546     		mov sp, r10
 10025 4a78 10BC     		pop {r4}
 10026 4a7a EA46     		mov r10, sp
 10027 4a7c 2546     		mov r5, r4
 10028 4a7e 2404     		lsls r4, r4, # 16
 10029 4a80 240C     		lsrs r4, r4, # 16
 10030 4a82 2D0C     		lsrs r5, r5, # 16
 10031 4a84 6043     		muls r0, r0, r4		@R
 10032 4a86 6143     		muls r1, r1, r4		@I
 10033 4a88 6A43     		muls r2, r2, r5		@R
 10034 4a8a 6B43     		muls r3, r3, r5		@I
 10035 4a8c 8011     		asrs r0, r0, # 6
 10036 4a8e 8911     		asrs r1, r1, # 6
 10037 4a90 9211     		asrs r2, r2, # 6
 10038 4a92 9B11     		asrs r3, r3, # 6
 10039 4a94 8018     		adds r0, r0, r2	 @r
 10040 4a96 C918     		adds r1, r1, r3	 @i
 10041 4a98 3618     		adds r6, r6, r0
 10042 4a9a 7F18     		adds r7, r7, r1
 10043              	
 10044 4a9c DD46     		mov sp, r11
 10045 4a9e 0FBC     		pop {r0-r3}
 10046 4aa0 EB46     		mov r11, sp
 10047 4aa2 D546     		mov sp, r10
 10048 4aa4 10BC     		pop {r4}
 10049 4aa6 EA46     		mov r10, sp
 10050 4aa8 2546     		mov r5, r4
 10051 4aaa 2404     		lsls r4, r4, # 16
 10052 4aac 240C     		lsrs r4, r4, # 16
 10053 4aae 2D0C     		lsrs r5, r5, # 16
 10054 4ab0 6043     		muls r0, r0, r4
 10055 4ab2 6143     		muls r1, r1, r4
 10056 4ab4 6A43     		muls r2, r2, r5
 10057 4ab6 6B43     		muls r3, r3, r5
 10058 4ab8 8011     		asrs r0, r0, # 6
 10059 4aba 8911     		asrs r1, r1, # 6
 10060 4abc 9211     		asrs r2, r2, # 6
 10061 4abe 9B11     		asrs r3, r3, # 6
 10062 4ac0 8018     		adds r0, r0, r2         @r
 10063 4ac2 C918     		adds r1, r1, r3         @i
 10064 4ac4 3618     		adds r6, r6, r0
 10065 4ac6 7F18     		adds r7, r7, r1
 10066              	
 10067 4ac8 DD46     		mov sp, r11
ARM GAS  1.s 			page 178


 10068 4aca 0FBC     		pop {r0-r3}
 10069 4acc EB46     		mov r11, sp
 10070 4ace D546     		mov sp, r10
 10071 4ad0 10BC     		pop {r4}
 10072 4ad2 EA46     		mov r10, sp
 10073 4ad4 2546     		mov r5, r4
 10074 4ad6 2404     		lsls r4, r4, # 16
 10075 4ad8 240C     		lsrs r4, r4, # 16
 10076 4ada 2D0C     		lsrs r5, r5, # 16
 10077 4adc 6043     		muls r0, r0, r4
 10078 4ade 6143     		muls r1, r1, r4
 10079 4ae0 6A43     		muls r2, r2, r5
 10080 4ae2 6B43     		muls r3, r3, r5
 10081 4ae4 8011     		asrs r0, r0, # 6
 10082 4ae6 8911     		asrs r1, r1, # 6
 10083 4ae8 9211     		asrs r2, r2, # 6
 10084 4aea 9B11     		asrs r3, r3, # 6
 10085 4aec 8018     		adds r0, r0, r2  @r
 10086 4aee C918     		adds r1, r1, r3  @i
 10087 4af0 3618     		adds r6, r6, r0
 10088 4af2 7F18     		adds r7, r7, r1
 10089              	
 10090 4af4 DD46     		mov sp, r11
 10091 4af6 0FBC     		pop {r0-r3}
 10092 4af8 EB46     		mov r11, sp
 10093 4afa D546     		mov sp, r10
 10094 4afc 10BC     		pop {r4}
 10095 4afe EA46     		mov r10, sp
 10096 4b00 2546     		mov r5, r4
 10097 4b02 2404     		lsls r4, r4, # 16
 10098 4b04 240C     		lsrs r4, r4, # 16
 10099 4b06 2D0C     		lsrs r5, r5, # 16
 10100 4b08 6043     		muls r0, r0, r4
 10101 4b0a 6143     		muls r1, r1, r4
 10102 4b0c 6A43     		muls r2, r2, r5
 10103 4b0e 6B43     		muls r3, r3, r5
 10104 4b10 8011     		asrs r0, r0, # 6
 10105 4b12 8911     		asrs r1, r1, # 6
 10106 4b14 9211     		asrs r2, r2, # 6
 10107 4b16 9B11     		asrs r3, r3, # 6
 10108 4b18 8018     		adds r0, r0, r2         @r
 10109 4b1a C918     		adds r1, r1, r3         @i
 10110 4b1c 3618     		adds r6, r6, r0
 10111 4b1e 7F18     		adds r7, r7, r1
 10112              	
 10113              		@3
 10114 4b20 DD46     		mov sp, r11
 10115 4b22 0FBC     		pop {r0-r3}
 10116 4b24 EB46     		mov r11, sp
 10117 4b26 D546     		mov sp, r10
 10118 4b28 10BC     		pop {r4}
 10119 4b2a EA46     		mov r10, sp
 10120 4b2c 2546     		mov r5, r4
 10121 4b2e 2404     		lsls r4, r4, # 16
 10122 4b30 240C     		lsrs r4, r4, # 16
 10123 4b32 2D0C     		lsrs r5, r5, # 16
 10124 4b34 6043     		muls r0, r0, r4		@R
ARM GAS  1.s 			page 179


 10125 4b36 6143     		muls r1, r1, r4		@I
 10126 4b38 6A43     		muls r2, r2, r5		@R
 10127 4b3a 6B43     		muls r3, r3, r5		@I
 10128 4b3c 8011     		asrs r0, r0, # 6
 10129 4b3e 8911     		asrs r1, r1, # 6
 10130 4b40 9211     		asrs r2, r2, # 6
 10131 4b42 9B11     		asrs r3, r3, # 6
 10132 4b44 8018     		adds r0, r0, r2	 @r
 10133 4b46 C918     		adds r1, r1, r3	 @i
 10134 4b48 3618     		adds r6, r6, r0
 10135 4b4a 7F18     		adds r7, r7, r1
 10136              	
 10137 4b4c DD46     		mov sp, r11
 10138 4b4e 0FBC     		pop {r0-r3}
 10139 4b50 EB46     		mov r11, sp
 10140 4b52 D546     		mov sp, r10
 10141 4b54 10BC     		pop {r4}
 10142 4b56 EA46     		mov r10, sp
 10143 4b58 2546     		mov r5, r4
 10144 4b5a 2404     		lsls r4, r4, # 16
 10145 4b5c 240C     		lsrs r4, r4, # 16
 10146 4b5e 2D0C     		lsrs r5, r5, # 16
 10147 4b60 6043     		muls r0, r0, r4
 10148 4b62 6143     		muls r1, r1, r4
 10149 4b64 6A43     		muls r2, r2, r5
 10150 4b66 6B43     		muls r3, r3, r5
 10151 4b68 8011     		asrs r0, r0, # 6
 10152 4b6a 8911     		asrs r1, r1, # 6
 10153 4b6c 9211     		asrs r2, r2, # 6
 10154 4b6e 9B11     		asrs r3, r3, # 6
 10155 4b70 8018     		adds r0, r0, r2         @r
 10156 4b72 C918     		adds r1, r1, r3         @i
 10157 4b74 3618     		adds r6, r6, r0
 10158 4b76 7F18     		adds r7, r7, r1
 10159              	
 10160 4b78 DD46     		mov sp, r11
 10161 4b7a 0FBC     		pop {r0-r3}
 10162 4b7c EB46     		mov r11, sp
 10163 4b7e D546     		mov sp, r10
 10164 4b80 10BC     		pop {r4}
 10165 4b82 EA46     		mov r10, sp
 10166 4b84 2546     		mov r5, r4
 10167 4b86 2404     		lsls r4, r4, # 16
 10168 4b88 240C     		lsrs r4, r4, # 16
 10169 4b8a 2D0C     		lsrs r5, r5, # 16
 10170 4b8c 6043     		muls r0, r0, r4
 10171 4b8e 6143     		muls r1, r1, r4
 10172 4b90 6A43     		muls r2, r2, r5
 10173 4b92 6B43     		muls r3, r3, r5
 10174 4b94 8011     		asrs r0, r0, # 6
 10175 4b96 8911     		asrs r1, r1, # 6
 10176 4b98 9211     		asrs r2, r2, # 6
 10177 4b9a 9B11     		asrs r3, r3, # 6
 10178 4b9c 8018     		adds r0, r0, r2  @r
 10179 4b9e C918     		adds r1, r1, r3  @i
 10180 4ba0 3618     		adds r6, r6, r0
 10181 4ba2 7F18     		adds r7, r7, r1
ARM GAS  1.s 			page 180


 10182              	
 10183 4ba4 DD46     		mov sp, r11
 10184 4ba6 0FBC     		pop {r0-r3}
 10185 4ba8 EB46     		mov r11, sp
 10186 4baa D546     		mov sp, r10
 10187 4bac 10BC     		pop {r4}
 10188 4bae EA46     		mov r10, sp
 10189 4bb0 2546     		mov r5, r4
 10190 4bb2 2404     		lsls r4, r4, # 16
 10191 4bb4 240C     		lsrs r4, r4, # 16
 10192 4bb6 2D0C     		lsrs r5, r5, # 16
 10193 4bb8 6043     		muls r0, r0, r4
 10194 4bba 6143     		muls r1, r1, r4
 10195 4bbc 6A43     		muls r2, r2, r5
 10196 4bbe 6B43     		muls r3, r3, r5
 10197 4bc0 8011     		asrs r0, r0, # 6
 10198 4bc2 8911     		asrs r1, r1, # 6
 10199 4bc4 9211     		asrs r2, r2, # 6
 10200 4bc6 9B11     		asrs r3, r3, # 6
 10201 4bc8 8018     		adds r0, r0, r2         @r
 10202 4bca C918     		adds r1, r1, r3         @i
 10203 4bcc 3618     		adds r6, r6, r0
 10204 4bce 7F18     		adds r7, r7, r1
 10205              	
 10206              		@4
 10207 4bd0 DD46     		mov sp, r11
 10208 4bd2 0FBC     		pop {r0-r3}
 10209 4bd4 EB46     		mov r11, sp
 10210 4bd6 D546     		mov sp, r10
 10211 4bd8 10BC     		pop {r4}
 10212 4bda EA46     		mov r10, sp
 10213 4bdc 2546     		mov r5, r4
 10214 4bde 2404     		lsls r4, r4, # 16
 10215 4be0 240C     		lsrs r4, r4, # 16
 10216 4be2 2D0C     		lsrs r5, r5, # 16
 10217 4be4 6043     		muls r0, r0, r4		@R
 10218 4be6 6143     		muls r1, r1, r4		@I
 10219 4be8 6A43     		muls r2, r2, r5		@R
 10220 4bea 6B43     		muls r3, r3, r5		@I
 10221 4bec 8011     		asrs r0, r0, # 6
 10222 4bee 8911     		asrs r1, r1, # 6
 10223 4bf0 9211     		asrs r2, r2, # 6
 10224 4bf2 9B11     		asrs r3, r3, # 6
 10225 4bf4 8018     		adds r0, r0, r2	 @r
 10226 4bf6 C918     		adds r1, r1, r3	 @i
 10227 4bf8 3618     		adds r6, r6, r0
 10228 4bfa 7F18     		adds r7, r7, r1
 10229              	
 10230 4bfc DD46     		mov sp, r11
 10231 4bfe 0FBC     		pop {r0-r3}
 10232 4c00 EB46     		mov r11, sp
 10233 4c02 D546     		mov sp, r10
 10234 4c04 10BC     		pop {r4}
 10235 4c06 EA46     		mov r10, sp
 10236 4c08 2546     		mov r5, r4
 10237 4c0a 2404     		lsls r4, r4, # 16
 10238 4c0c 240C     		lsrs r4, r4, # 16
ARM GAS  1.s 			page 181


 10239 4c0e 2D0C     		lsrs r5, r5, # 16
 10240 4c10 6043     		muls r0, r0, r4
 10241 4c12 6143     		muls r1, r1, r4
 10242 4c14 6A43     		muls r2, r2, r5
 10243 4c16 6B43     		muls r3, r3, r5
 10244 4c18 8011     		asrs r0, r0, # 6
 10245 4c1a 8911     		asrs r1, r1, # 6
 10246 4c1c 9211     		asrs r2, r2, # 6
 10247 4c1e 9B11     		asrs r3, r3, # 6
 10248 4c20 8018     		adds r0, r0, r2         @r
 10249 4c22 C918     		adds r1, r1, r3         @i
 10250 4c24 3618     		adds r6, r6, r0
 10251 4c26 7F18     		adds r7, r7, r1
 10252              	
 10253 4c28 DD46     		mov sp, r11
 10254 4c2a 0FBC     		pop {r0-r3}
 10255 4c2c EB46     		mov r11, sp
 10256 4c2e D546     		mov sp, r10
 10257 4c30 10BC     		pop {r4}
 10258 4c32 EA46     		mov r10, sp
 10259 4c34 2546     		mov r5, r4
 10260 4c36 2404     		lsls r4, r4, # 16
 10261 4c38 240C     		lsrs r4, r4, # 16
 10262 4c3a 2D0C     		lsrs r5, r5, # 16
 10263 4c3c 6043     		muls r0, r0, r4
 10264 4c3e 6143     		muls r1, r1, r4
 10265 4c40 6A43     		muls r2, r2, r5
 10266 4c42 6B43     		muls r3, r3, r5
 10267 4c44 8011     		asrs r0, r0, # 6
 10268 4c46 8911     		asrs r1, r1, # 6
 10269 4c48 9211     		asrs r2, r2, # 6
 10270 4c4a 9B11     		asrs r3, r3, # 6
 10271 4c4c 8018     		adds r0, r0, r2  @r
 10272 4c4e C918     		adds r1, r1, r3  @i
 10273 4c50 3618     		adds r6, r6, r0
 10274 4c52 7F18     		adds r7, r7, r1
 10275              	
 10276 4c54 DD46     		mov sp, r11
 10277 4c56 0FBC     		pop {r0-r3}
 10278 4c58 EB46     		mov r11, sp
 10279 4c5a D546     		mov sp, r10
 10280 4c5c 10BC     		pop {r4}
 10281 4c5e EA46     		mov r10, sp
 10282 4c60 2546     		mov r5, r4
 10283 4c62 2404     		lsls r4, r4, # 16
 10284 4c64 240C     		lsrs r4, r4, # 16
 10285 4c66 2D0C     		lsrs r5, r5, # 16
 10286 4c68 6043     		muls r0, r0, r4
 10287 4c6a 6143     		muls r1, r1, r4
 10288 4c6c 6A43     		muls r2, r2, r5
 10289 4c6e 6B43     		muls r3, r3, r5
 10290 4c70 8011     		asrs r0, r0, # 6
 10291 4c72 8911     		asrs r1, r1, # 6
 10292 4c74 9211     		asrs r2, r2, # 6
 10293 4c76 9B11     		asrs r3, r3, # 6
 10294 4c78 8018     		adds r0, r0, r2         @r
 10295 4c7a C918     		adds r1, r1, r3         @i
ARM GAS  1.s 			page 182


 10296 4c7c 3618     		adds r6, r6, r0
 10297 4c7e 7F18     		adds r7, r7, r1
 10298              	
 10299              		@5
 10300 4c80 DD46     		mov sp, r11
 10301 4c82 0FBC     		pop {r0-r3}
 10302 4c84 EB46     		mov r11, sp
 10303 4c86 D546     		mov sp, r10
 10304 4c88 10BC     		pop {r4}
 10305 4c8a EA46     		mov r10, sp
 10306 4c8c 2546     		mov r5, r4
 10307 4c8e 2404     		lsls r4, r4, # 16
 10308 4c90 240C     		lsrs r4, r4, # 16
 10309 4c92 2D0C     		lsrs r5, r5, # 16
 10310 4c94 6043     		muls r0, r0, r4		@R
 10311 4c96 6143     		muls r1, r1, r4		@I
 10312 4c98 6A43     		muls r2, r2, r5		@R
 10313 4c9a 6B43     		muls r3, r3, r5		@I
 10314 4c9c 8011     		asrs r0, r0, # 6
 10315 4c9e 8911     		asrs r1, r1, # 6
 10316 4ca0 9211     		asrs r2, r2, # 6
 10317 4ca2 9B11     		asrs r3, r3, # 6
 10318 4ca4 8018     		adds r0, r0, r2	 @r
 10319 4ca6 C918     		adds r1, r1, r3	 @i
 10320 4ca8 3618     		adds r6, r6, r0
 10321 4caa 7F18     		adds r7, r7, r1
 10322              	
 10323 4cac DD46     		mov sp, r11
 10324 4cae 0FBC     		pop {r0-r3}
 10325 4cb0 EB46     		mov r11, sp
 10326 4cb2 D546     		mov sp, r10
 10327 4cb4 10BC     		pop {r4}
 10328 4cb6 EA46     		mov r10, sp
 10329 4cb8 2546     		mov r5, r4
 10330 4cba 2404     		lsls r4, r4, # 16
 10331 4cbc 240C     		lsrs r4, r4, # 16
 10332 4cbe 2D0C     		lsrs r5, r5, # 16
 10333 4cc0 6043     		muls r0, r0, r4
 10334 4cc2 6143     		muls r1, r1, r4
 10335 4cc4 6A43     		muls r2, r2, r5
 10336 4cc6 6B43     		muls r3, r3, r5
 10337 4cc8 8011     		asrs r0, r0, # 6
 10338 4cca 8911     		asrs r1, r1, # 6
 10339 4ccc 9211     		asrs r2, r2, # 6
 10340 4cce 9B11     		asrs r3, r3, # 6
 10341 4cd0 8018     		adds r0, r0, r2         @r
 10342 4cd2 C918     		adds r1, r1, r3         @i
 10343 4cd4 3618     		adds r6, r6, r0
 10344 4cd6 7F18     		adds r7, r7, r1
 10345              	
 10346 4cd8 DD46     		mov sp, r11
 10347 4cda 0FBC     		pop {r0-r3}
 10348 4cdc EB46     		mov r11, sp
 10349 4cde D546     		mov sp, r10
 10350 4ce0 10BC     		pop {r4}
 10351 4ce2 EA46     		mov r10, sp
 10352 4ce4 2546     		mov r5, r4
ARM GAS  1.s 			page 183


 10353 4ce6 2404     		lsls r4, r4, # 16
 10354 4ce8 240C     		lsrs r4, r4, # 16
 10355 4cea 2D0C     		lsrs r5, r5, # 16
 10356 4cec 6043     		muls r0, r0, r4
 10357 4cee 6143     		muls r1, r1, r4
 10358 4cf0 6A43     		muls r2, r2, r5
 10359 4cf2 6B43     		muls r3, r3, r5
 10360 4cf4 8011     		asrs r0, r0, # 6
 10361 4cf6 8911     		asrs r1, r1, # 6
 10362 4cf8 9211     		asrs r2, r2, # 6
 10363 4cfa 9B11     		asrs r3, r3, # 6
 10364 4cfc 8018     		adds r0, r0, r2  @r
 10365 4cfe C918     		adds r1, r1, r3  @i
 10366 4d00 3618     		adds r6, r6, r0
 10367 4d02 7F18     		adds r7, r7, r1
 10368              	
 10369 4d04 DD46     		mov sp, r11
 10370 4d06 0FBC     		pop {r0-r3}
 10371 4d08 EB46     		mov r11, sp
 10372 4d0a D546     		mov sp, r10
 10373 4d0c 10BC     		pop {r4}
 10374 4d0e EA46     		mov r10, sp
 10375 4d10 2546     		mov r5, r4
 10376 4d12 2404     		lsls r4, r4, # 16
 10377 4d14 240C     		lsrs r4, r4, # 16
 10378 4d16 2D0C     		lsrs r5, r5, # 16
 10379 4d18 6043     		muls r0, r0, r4
 10380 4d1a 6143     		muls r1, r1, r4
 10381 4d1c 6A43     		muls r2, r2, r5
 10382 4d1e 6B43     		muls r3, r3, r5
 10383 4d20 8011     		asrs r0, r0, # 6
 10384 4d22 8911     		asrs r1, r1, # 6
 10385 4d24 9211     		asrs r2, r2, # 6
 10386 4d26 9B11     		asrs r3, r3, # 6
 10387 4d28 8018     		adds r0, r0, r2         @r
 10388 4d2a C918     		adds r1, r1, r3         @i
 10389 4d2c 3618     		adds r6, r6, r0
 10390 4d2e 7F18     		adds r7, r7, r1
 10391              	
 10392              		@6
 10393 4d30 DD46     		mov sp, r11
 10394 4d32 0FBC     		pop {r0-r3}
 10395 4d34 EB46     		mov r11, sp
 10396 4d36 D546     		mov sp, r10
 10397 4d38 10BC     		pop {r4}
 10398 4d3a EA46     		mov r10, sp
 10399 4d3c 2546     		mov r5, r4
 10400 4d3e 2404     		lsls r4, r4, # 16
 10401 4d40 240C     		lsrs r4, r4, # 16
 10402 4d42 2D0C     		lsrs r5, r5, # 16
 10403 4d44 6043     		muls r0, r0, r4		@R
 10404 4d46 6143     		muls r1, r1, r4		@I
 10405 4d48 6A43     		muls r2, r2, r5		@R
 10406 4d4a 6B43     		muls r3, r3, r5		@I
 10407 4d4c 8011     		asrs r0, r0, # 6
 10408 4d4e 8911     		asrs r1, r1, # 6
 10409 4d50 9211     		asrs r2, r2, # 6
ARM GAS  1.s 			page 184


 10410 4d52 9B11     		asrs r3, r3, # 6
 10411 4d54 8018     		adds r0, r0, r2	 @r
 10412 4d56 C918     		adds r1, r1, r3	 @i
 10413 4d58 3618     		adds r6, r6, r0
 10414 4d5a 7F18     		adds r7, r7, r1
 10415              	
 10416 4d5c DD46     		mov sp, r11
 10417 4d5e 0FBC     		pop {r0-r3}
 10418 4d60 EB46     		mov r11, sp
 10419 4d62 D546     		mov sp, r10
 10420 4d64 10BC     		pop {r4}
 10421 4d66 EA46     		mov r10, sp
 10422 4d68 2546     		mov r5, r4
 10423 4d6a 2404     		lsls r4, r4, # 16
 10424 4d6c 240C     		lsrs r4, r4, # 16
 10425 4d6e 2D0C     		lsrs r5, r5, # 16
 10426 4d70 6043     		muls r0, r0, r4
 10427 4d72 6143     		muls r1, r1, r4
 10428 4d74 6A43     		muls r2, r2, r5
 10429 4d76 6B43     		muls r3, r3, r5
 10430 4d78 8011     		asrs r0, r0, # 6
 10431 4d7a 8911     		asrs r1, r1, # 6
 10432 4d7c 9211     		asrs r2, r2, # 6
 10433 4d7e 9B11     		asrs r3, r3, # 6
 10434 4d80 8018     		adds r0, r0, r2         @r
 10435 4d82 C918     		adds r1, r1, r3         @i
 10436 4d84 3618     		adds r6, r6, r0
 10437 4d86 7F18     		adds r7, r7, r1
 10438              	
 10439 4d88 DD46     		mov sp, r11
 10440 4d8a 0FBC     		pop {r0-r3}
 10441 4d8c EB46     		mov r11, sp
 10442 4d8e D546     		mov sp, r10
 10443 4d90 10BC     		pop {r4}
 10444 4d92 EA46     		mov r10, sp
 10445 4d94 2546     		mov r5, r4
 10446 4d96 2404     		lsls r4, r4, # 16
 10447 4d98 240C     		lsrs r4, r4, # 16
 10448 4d9a 2D0C     		lsrs r5, r5, # 16
 10449 4d9c 6043     		muls r0, r0, r4
 10450 4d9e 6143     		muls r1, r1, r4
 10451 4da0 6A43     		muls r2, r2, r5
 10452 4da2 6B43     		muls r3, r3, r5
 10453 4da4 8011     		asrs r0, r0, # 6
 10454 4da6 8911     		asrs r1, r1, # 6
 10455 4da8 9211     		asrs r2, r2, # 6
 10456 4daa 9B11     		asrs r3, r3, # 6
 10457 4dac 8018     		adds r0, r0, r2  @r
 10458 4dae C918     		adds r1, r1, r3  @i
 10459 4db0 3618     		adds r6, r6, r0
 10460 4db2 7F18     		adds r7, r7, r1
 10461              	
 10462 4db4 DD46     		mov sp, r11
 10463 4db6 0FBC     		pop {r0-r3}
 10464 4db8 EB46     		mov r11, sp
 10465 4dba D546     		mov sp, r10
 10466 4dbc 10BC     		pop {r4}
ARM GAS  1.s 			page 185


 10467 4dbe EA46     		mov r10, sp
 10468 4dc0 2546     		mov r5, r4
 10469 4dc2 2404     		lsls r4, r4, # 16
 10470 4dc4 240C     		lsrs r4, r4, # 16
 10471 4dc6 2D0C     		lsrs r5, r5, # 16
 10472 4dc8 6043     		muls r0, r0, r4
 10473 4dca 6143     		muls r1, r1, r4
 10474 4dcc 6A43     		muls r2, r2, r5
 10475 4dce 6B43     		muls r3, r3, r5
 10476 4dd0 8011     		asrs r0, r0, # 6
 10477 4dd2 8911     		asrs r1, r1, # 6
 10478 4dd4 9211     		asrs r2, r2, # 6
 10479 4dd6 9B11     		asrs r3, r3, # 6
 10480 4dd8 8018     		adds r0, r0, r2         @r
 10481 4dda C918     		adds r1, r1, r3         @i
 10482 4ddc 3618     		adds r6, r6, r0
 10483 4dde 7F18     		adds r7, r7, r1
 10484              	
 10485              		@7
 10486 4de0 DD46     		mov sp, r11
 10487 4de2 0FBC     		pop {r0-r3}
 10488 4de4 EB46     		mov r11, sp
 10489 4de6 D546     		mov sp, r10
 10490 4de8 10BC     		pop {r4}
 10491 4dea EA46     		mov r10, sp
 10492 4dec 2546     		mov r5, r4
 10493 4dee 2404     		lsls r4, r4, # 16
 10494 4df0 240C     		lsrs r4, r4, # 16
 10495 4df2 2D0C     		lsrs r5, r5, # 16
 10496 4df4 6043     		muls r0, r0, r4		@R
 10497 4df6 6143     		muls r1, r1, r4		@I
 10498 4df8 6A43     		muls r2, r2, r5		@R
 10499 4dfa 6B43     		muls r3, r3, r5		@I
 10500 4dfc 8011     		asrs r0, r0, # 6
 10501 4dfe 8911     		asrs r1, r1, # 6
 10502 4e00 9211     		asrs r2, r2, # 6
 10503 4e02 9B11     		asrs r3, r3, # 6
 10504 4e04 8018     		adds r0, r0, r2	 @r
 10505 4e06 C918     		adds r1, r1, r3	 @i
 10506 4e08 3618     		adds r6, r6, r0
 10507 4e0a 7F18     		adds r7, r7, r1
 10508              	
 10509 4e0c DD46     		mov sp, r11
 10510 4e0e 0FBC     		pop {r0-r3}
 10511 4e10 EB46     		mov r11, sp
 10512 4e12 D546     		mov sp, r10
 10513 4e14 10BC     		pop {r4}
 10514 4e16 EA46     		mov r10, sp
 10515 4e18 2546     		mov r5, r4
 10516 4e1a 2404     		lsls r4, r4, # 16
 10517 4e1c 240C     		lsrs r4, r4, # 16
 10518 4e1e 2D0C     		lsrs r5, r5, # 16
 10519 4e20 6043     		muls r0, r0, r4
 10520 4e22 6143     		muls r1, r1, r4
 10521 4e24 6A43     		muls r2, r2, r5
 10522 4e26 6B43     		muls r3, r3, r5
 10523 4e28 8011     		asrs r0, r0, # 6
ARM GAS  1.s 			page 186


 10524 4e2a 8911     		asrs r1, r1, # 6
 10525 4e2c 9211     		asrs r2, r2, # 6
 10526 4e2e 9B11     		asrs r3, r3, # 6
 10527 4e30 8018     		adds r0, r0, r2         @r
 10528 4e32 C918     		adds r1, r1, r3         @i
 10529 4e34 3618     		adds r6, r6, r0
 10530 4e36 7F18     		adds r7, r7, r1
 10531              	
 10532 4e38 DD46     		mov sp, r11
 10533 4e3a 0FBC     		pop {r0-r3}
 10534 4e3c EB46     		mov r11, sp
 10535 4e3e D546     		mov sp, r10
 10536 4e40 10BC     		pop {r4}
 10537 4e42 EA46     		mov r10, sp
 10538 4e44 2546     		mov r5, r4
 10539 4e46 2404     		lsls r4, r4, # 16
 10540 4e48 240C     		lsrs r4, r4, # 16
 10541 4e4a 2D0C     		lsrs r5, r5, # 16
 10542 4e4c 6043     		muls r0, r0, r4
 10543 4e4e 6143     		muls r1, r1, r4
 10544 4e50 6A43     		muls r2, r2, r5
 10545 4e52 6B43     		muls r3, r3, r5
 10546 4e54 8011     		asrs r0, r0, # 6
 10547 4e56 8911     		asrs r1, r1, # 6
 10548 4e58 9211     		asrs r2, r2, # 6
 10549 4e5a 9B11     		asrs r3, r3, # 6
 10550 4e5c 8018     		adds r0, r0, r2  @r
 10551 4e5e C918     		adds r1, r1, r3  @i
 10552 4e60 3618     		adds r6, r6, r0
 10553 4e62 7F18     		adds r7, r7, r1
 10554              	
 10555 4e64 DD46     		mov sp, r11
 10556 4e66 0FBC     		pop {r0-r3}
 10557 4e68 EB46     		mov r11, sp
 10558 4e6a D546     		mov sp, r10
 10559 4e6c 10BC     		pop {r4}
 10560 4e6e EA46     		mov r10, sp
 10561 4e70 2546     		mov r5, r4
 10562 4e72 2404     		lsls r4, r4, # 16
 10563 4e74 240C     		lsrs r4, r4, # 16
 10564 4e76 2D0C     		lsrs r5, r5, # 16
 10565 4e78 6043     		muls r0, r0, r4
 10566 4e7a 6143     		muls r1, r1, r4
 10567 4e7c 6A43     		muls r2, r2, r5
 10568 4e7e 6B43     		muls r3, r3, r5
 10569 4e80 8011     		asrs r0, r0, # 6
 10570 4e82 8911     		asrs r1, r1, # 6
 10571 4e84 9211     		asrs r2, r2, # 6
 10572 4e86 9B11     		asrs r3, r3, # 6
 10573 4e88 8018     		adds r0, r0, r2         @r
 10574 4e8a C918     		adds r1, r1, r3         @i
 10575 4e8c 3618     		adds r6, r6, r0
 10576 4e8e 7F18     		adds r7, r7, r1
 10577              	
 10578              		@8
 10579 4e90 DD46     		mov sp, r11
 10580 4e92 0FBC     		pop {r0-r3}
ARM GAS  1.s 			page 187


 10581 4e94 EB46     		mov r11, sp
 10582 4e96 D546     		mov sp, r10
 10583 4e98 10BC     		pop {r4}
 10584 4e9a EA46     		mov r10, sp
 10585 4e9c 2546     		mov r5, r4
 10586 4e9e 2404     		lsls r4, r4, # 16
 10587 4ea0 240C     		lsrs r4, r4, # 16
 10588 4ea2 2D0C     		lsrs r5, r5, # 16
 10589 4ea4 6043     		muls r0, r0, r4		@R
 10590 4ea6 6143     		muls r1, r1, r4		@I
 10591 4ea8 6A43     		muls r2, r2, r5		@R
 10592 4eaa 6B43     		muls r3, r3, r5		@I
 10593 4eac 8011     		asrs r0, r0, # 6
 10594 4eae 8911     		asrs r1, r1, # 6
 10595 4eb0 9211     		asrs r2, r2, # 6
 10596 4eb2 9B11     		asrs r3, r3, # 6
 10597 4eb4 8018     		adds r0, r0, r2	 @r
 10598 4eb6 C918     		adds r1, r1, r3	 @i
 10599 4eb8 3618     		adds r6, r6, r0
 10600 4eba 7F18     		adds r7, r7, r1
 10601              	
 10602 4ebc DD46     		mov sp, r11
 10603 4ebe 0FBC     		pop {r0-r3}
 10604 4ec0 EB46     		mov r11, sp
 10605 4ec2 D546     		mov sp, r10
 10606 4ec4 10BC     		pop {r4}
 10607 4ec6 EA46     		mov r10, sp
 10608 4ec8 2546     		mov r5, r4
 10609 4eca 2404     		lsls r4, r4, # 16
 10610 4ecc 240C     		lsrs r4, r4, # 16
 10611 4ece 2D0C     		lsrs r5, r5, # 16
 10612 4ed0 6043     		muls r0, r0, r4
 10613 4ed2 6143     		muls r1, r1, r4
 10614 4ed4 6A43     		muls r2, r2, r5
 10615 4ed6 6B43     		muls r3, r3, r5
 10616 4ed8 8011     		asrs r0, r0, # 6
 10617 4eda 8911     		asrs r1, r1, # 6
 10618 4edc 9211     		asrs r2, r2, # 6
 10619 4ede 9B11     		asrs r3, r3, # 6
 10620 4ee0 8018     		adds r0, r0, r2         @r
 10621 4ee2 C918     		adds r1, r1, r3         @i
 10622 4ee4 3618     		adds r6, r6, r0
 10623 4ee6 7F18     		adds r7, r7, r1
 10624              	
 10625 4ee8 DD46     		mov sp, r11
 10626 4eea 0FBC     		pop {r0-r3}
 10627 4eec EB46     		mov r11, sp
 10628 4eee D546     		mov sp, r10
 10629 4ef0 10BC     		pop {r4}
 10630 4ef2 EA46     		mov r10, sp
 10631 4ef4 2546     		mov r5, r4
 10632 4ef6 2404     		lsls r4, r4, # 16
 10633 4ef8 240C     		lsrs r4, r4, # 16
 10634 4efa 2D0C     		lsrs r5, r5, # 16
 10635 4efc 6043     		muls r0, r0, r4
 10636 4efe 6143     		muls r1, r1, r4
 10637 4f00 6A43     		muls r2, r2, r5
ARM GAS  1.s 			page 188


 10638 4f02 6B43     		muls r3, r3, r5
 10639 4f04 8011     		asrs r0, r0, # 6
 10640 4f06 8911     		asrs r1, r1, # 6
 10641 4f08 9211     		asrs r2, r2, # 6
 10642 4f0a 9B11     		asrs r3, r3, # 6
 10643 4f0c 8018     		adds r0, r0, r2  @r
 10644 4f0e C918     		adds r1, r1, r3  @i
 10645 4f10 3618     		adds r6, r6, r0
 10646 4f12 7F18     		adds r7, r7, r1
 10647              	
 10648 4f14 DD46     		mov sp, r11
 10649 4f16 0FBC     		pop {r0-r3}
 10650 4f18 EB46     		mov r11, sp
 10651 4f1a D546     		mov sp, r10
 10652 4f1c 10BC     		pop {r4}
 10653 4f1e EA46     		mov r10, sp
 10654 4f20 2546     		mov r5, r4
 10655 4f22 2404     		lsls r4, r4, # 16
 10656 4f24 240C     		lsrs r4, r4, # 16
 10657 4f26 2D0C     		lsrs r5, r5, # 16
 10658 4f28 6043     		muls r0, r0, r4
 10659 4f2a 6143     		muls r1, r1, r4
 10660 4f2c 6A43     		muls r2, r2, r5
 10661 4f2e 6B43     		muls r3, r3, r5
 10662 4f30 8011     		asrs r0, r0, # 6
 10663 4f32 8911     		asrs r1, r1, # 6
 10664 4f34 9211     		asrs r2, r2, # 6
 10665 4f36 9B11     		asrs r3, r3, # 6
 10666 4f38 8018     		adds r0, r0, r2         @r
 10667 4f3a C918     		adds r1, r1, r3         @i
 10668 4f3c 3618     		adds r6, r6, r0
 10669 4f3e 7F18     		adds r7, r7, r1
 10670              	
 10671              		@9
 10672 4f40 DD46     		mov sp, r11
 10673 4f42 0FBC     		pop {r0-r3}
 10674 4f44 EB46     		mov r11, sp
 10675 4f46 D546     		mov sp, r10
 10676 4f48 10BC     		pop {r4}
 10677 4f4a EA46     		mov r10, sp
 10678 4f4c 2546     		mov r5, r4
 10679 4f4e 2404     		lsls r4, r4, # 16
 10680 4f50 240C     		lsrs r4, r4, # 16
 10681 4f52 2D0C     		lsrs r5, r5, # 16
 10682 4f54 6043     		muls r0, r0, r4		@R
 10683 4f56 6143     		muls r1, r1, r4		@I
 10684 4f58 6A43     		muls r2, r2, r5		@R
 10685 4f5a 6B43     		muls r3, r3, r5		@I
 10686 4f5c 8011     		asrs r0, r0, # 6
 10687 4f5e 8911     		asrs r1, r1, # 6
 10688 4f60 9211     		asrs r2, r2, # 6
 10689 4f62 9B11     		asrs r3, r3, # 6
 10690 4f64 8018     		adds r0, r0, r2	 @r
 10691 4f66 C918     		adds r1, r1, r3	 @i
 10692 4f68 3618     		adds r6, r6, r0
 10693 4f6a 7F18     		adds r7, r7, r1
 10694              	
ARM GAS  1.s 			page 189


 10695 4f6c DD46     		mov sp, r11
 10696 4f6e 0FBC     		pop {r0-r3}
 10697 4f70 EB46     		mov r11, sp
 10698 4f72 D546     		mov sp, r10
 10699 4f74 10BC     		pop {r4}
 10700 4f76 EA46     		mov r10, sp
 10701 4f78 2546     		mov r5, r4
 10702 4f7a 2404     		lsls r4, r4, # 16
 10703 4f7c 240C     		lsrs r4, r4, # 16
 10704 4f7e 2D0C     		lsrs r5, r5, # 16
 10705 4f80 6043     		muls r0, r0, r4
 10706 4f82 6143     		muls r1, r1, r4
 10707 4f84 6A43     		muls r2, r2, r5
 10708 4f86 6B43     		muls r3, r3, r5
 10709 4f88 8011     		asrs r0, r0, # 6
 10710 4f8a 8911     		asrs r1, r1, # 6
 10711 4f8c 9211     		asrs r2, r2, # 6
 10712 4f8e 9B11     		asrs r3, r3, # 6
 10713 4f90 8018     		adds r0, r0, r2         @r
 10714 4f92 C918     		adds r1, r1, r3         @i
 10715 4f94 3618     		adds r6, r6, r0
 10716 4f96 7F18     		adds r7, r7, r1
 10717              	
 10718 4f98 DD46     		mov sp, r11
 10719 4f9a 0FBC     		pop {r0-r3}
 10720 4f9c EB46     		mov r11, sp
 10721 4f9e D546     		mov sp, r10
 10722 4fa0 10BC     		pop {r4}
 10723 4fa2 EA46     		mov r10, sp
 10724 4fa4 2546     		mov r5, r4
 10725 4fa6 2404     		lsls r4, r4, # 16
 10726 4fa8 240C     		lsrs r4, r4, # 16
 10727 4faa 2D0C     		lsrs r5, r5, # 16
 10728 4fac 6043     		muls r0, r0, r4
 10729 4fae 6143     		muls r1, r1, r4
 10730 4fb0 6A43     		muls r2, r2, r5
 10731 4fb2 6B43     		muls r3, r3, r5
 10732 4fb4 8011     		asrs r0, r0, # 6
 10733 4fb6 8911     		asrs r1, r1, # 6
 10734 4fb8 9211     		asrs r2, r2, # 6
 10735 4fba 9B11     		asrs r3, r3, # 6
 10736 4fbc 8018     		adds r0, r0, r2  @r
 10737 4fbe C918     		adds r1, r1, r3  @i
 10738 4fc0 3618     		adds r6, r6, r0
 10739 4fc2 7F18     		adds r7, r7, r1
 10740              	
 10741 4fc4 DD46     		mov sp, r11
 10742 4fc6 0FBC     		pop {r0-r3}
 10743 4fc8 EB46     		mov r11, sp
 10744 4fca D546     		mov sp, r10
 10745 4fcc 10BC     		pop {r4}
 10746 4fce EA46     		mov r10, sp
 10747 4fd0 2546     		mov r5, r4
 10748 4fd2 2404     		lsls r4, r4, # 16
 10749 4fd4 240C     		lsrs r4, r4, # 16
 10750 4fd6 2D0C     		lsrs r5, r5, # 16
 10751 4fd8 6043     		muls r0, r0, r4
ARM GAS  1.s 			page 190


 10752 4fda 6143     		muls r1, r1, r4
 10753 4fdc 6A43     		muls r2, r2, r5
 10754 4fde 6B43     		muls r3, r3, r5
 10755 4fe0 8011     		asrs r0, r0, # 6
 10756 4fe2 8911     		asrs r1, r1, # 6
 10757 4fe4 9211     		asrs r2, r2, # 6
 10758 4fe6 9B11     		asrs r3, r3, # 6
 10759 4fe8 8018     		adds r0, r0, r2         @r
 10760 4fea C918     		adds r1, r1, r3         @i
 10761 4fec 3618     		adds r6, r6, r0
 10762 4fee 7F18     		adds r7, r7, r1
 10763              	
 10764              		@yjm10
 10765              		@0
 10766 4ff0 DD46     		mov sp, r11
 10767 4ff2 0FBC     		pop {r0-r3}
 10768 4ff4 EB46     		mov r11, sp
 10769 4ff6 D546     		mov sp, r10
 10770 4ff8 10BC     		pop {r4}
 10771 4ffa EA46     		mov r10, sp
 10772 4ffc 2546     		mov r5, r4
 10773 4ffe 2404     		lsls r4, r4, # 16
 10774 5000 240C     		lsrs r4, r4, # 16
 10775 5002 2D0C     		lsrs r5, r5, # 16
 10776 5004 6043     		muls r0, r0, r4		@R
 10777 5006 6143     		muls r1, r1, r4		@I
 10778 5008 6A43     		muls r2, r2, r5		@R
 10779 500a 6B43     		muls r3, r3, r5		@I
 10780 500c 8011     		asrs r0, r0, # 6
 10781 500e 8911     		asrs r1, r1, # 6
 10782 5010 9211     		asrs r2, r2, # 6
 10783 5012 9B11     		asrs r3, r3, # 6
 10784 5014 8018     		adds r0, r0, r2	 @r
 10785 5016 C918     		adds r1, r1, r3	 @i
 10786 5018 3618     		adds r6, r6, r0
 10787 501a 7F18     		adds r7, r7, r1
 10788              	
 10789 501c DD46     		mov sp, r11
 10790 501e 0FBC     		pop {r0-r3}
 10791 5020 EB46     		mov r11, sp
 10792 5022 D546     		mov sp, r10
 10793 5024 10BC     		pop {r4}
 10794 5026 EA46     		mov r10, sp
 10795 5028 2546     		mov r5, r4
 10796 502a 2404     		lsls r4, r4, # 16
 10797 502c 240C     		lsrs r4, r4, # 16
 10798 502e 2D0C     		lsrs r5, r5, # 16
 10799 5030 6043     		muls r0, r0, r4
 10800 5032 6143     		muls r1, r1, r4
 10801 5034 6A43     		muls r2, r2, r5
 10802 5036 6B43     		muls r3, r3, r5
 10803 5038 8011     		asrs r0, r0, # 6
 10804 503a 8911     		asrs r1, r1, # 6
 10805 503c 9211     		asrs r2, r2, # 6
 10806 503e 9B11     		asrs r3, r3, # 6
 10807 5040 8018     		adds r0, r0, r2         @r
 10808 5042 C918     		adds r1, r1, r3         @i
ARM GAS  1.s 			page 191


 10809 5044 3618     		adds r6, r6, r0
 10810 5046 7F18     		adds r7, r7, r1
 10811              	
 10812 5048 DD46     		mov sp, r11
 10813 504a 0FBC     		pop {r0-r3}
 10814 504c EB46     		mov r11, sp
 10815 504e D546     		mov sp, r10
 10816 5050 10BC     		pop {r4}
 10817 5052 EA46     		mov r10, sp
 10818 5054 2546     		mov r5, r4
 10819 5056 2404     		lsls r4, r4, # 16
 10820 5058 240C     		lsrs r4, r4, # 16
 10821 505a 2D0C     		lsrs r5, r5, # 16
 10822 505c 6043     		muls r0, r0, r4
 10823 505e 6143     		muls r1, r1, r4
 10824 5060 6A43     		muls r2, r2, r5
 10825 5062 6B43     		muls r3, r3, r5
 10826 5064 8011     		asrs r0, r0, # 6
 10827 5066 8911     		asrs r1, r1, # 6
 10828 5068 9211     		asrs r2, r2, # 6
 10829 506a 9B11     		asrs r3, r3, # 6
 10830 506c 8018     		adds r0, r0, r2  @r
 10831 506e C918     		adds r1, r1, r3  @i
 10832 5070 3618     		adds r6, r6, r0
 10833 5072 7F18     		adds r7, r7, r1
 10834              	
 10835 5074 DD46     		mov sp, r11
 10836 5076 0FBC     		pop {r0-r3}
 10837 5078 EB46     		mov r11, sp
 10838 507a D546     		mov sp, r10
 10839 507c 10BC     		pop {r4}
 10840 507e EA46     		mov r10, sp
 10841 5080 2546     		mov r5, r4
 10842 5082 2404     		lsls r4, r4, # 16
 10843 5084 240C     		lsrs r4, r4, # 16
 10844 5086 2D0C     		lsrs r5, r5, # 16
 10845 5088 6043     		muls r0, r0, r4
 10846 508a 6143     		muls r1, r1, r4
 10847 508c 6A43     		muls r2, r2, r5
 10848 508e 6B43     		muls r3, r3, r5
 10849 5090 8011     		asrs r0, r0, # 6
 10850 5092 8911     		asrs r1, r1, # 6
 10851 5094 9211     		asrs r2, r2, # 6
 10852 5096 9B11     		asrs r3, r3, # 6
 10853 5098 8018     		adds r0, r0, r2         @r
 10854 509a C918     		adds r1, r1, r3         @i
 10855 509c 3618     		adds r6, r6, r0
 10856 509e 7F18     		adds r7, r7, r1
 10857              	
 10858              		@1
 10859 50a0 DD46     		mov sp, r11
 10860 50a2 0FBC     		pop {r0-r3}
 10861 50a4 EB46     		mov r11, sp
 10862 50a6 D546     		mov sp, r10
 10863 50a8 10BC     		pop {r4}
 10864 50aa EA46     		mov r10, sp
 10865 50ac 2546     		mov r5, r4
ARM GAS  1.s 			page 192


 10866 50ae 2404     		lsls r4, r4, # 16
 10867 50b0 240C     		lsrs r4, r4, # 16
 10868 50b2 2D0C     		lsrs r5, r5, # 16
 10869 50b4 6043     		muls r0, r0, r4		@R
 10870 50b6 6143     		muls r1, r1, r4		@I
 10871 50b8 6A43     		muls r2, r2, r5		@R
 10872 50ba 6B43     		muls r3, r3, r5		@I
 10873 50bc 8011     		asrs r0, r0, # 6
 10874 50be 8911     		asrs r1, r1, # 6
 10875 50c0 9211     		asrs r2, r2, # 6
 10876 50c2 9B11     		asrs r3, r3, # 6
 10877 50c4 8018     		adds r0, r0, r2	 @r
 10878 50c6 C918     		adds r1, r1, r3	 @i
 10879 50c8 3618     		adds r6, r6, r0
 10880 50ca 7F18     		adds r7, r7, r1
 10881              	
 10882 50cc DD46     		mov sp, r11
 10883 50ce 0FBC     		pop {r0-r3}
 10884 50d0 EB46     		mov r11, sp
 10885 50d2 D546     		mov sp, r10
 10886 50d4 10BC     		pop {r4}
 10887 50d6 EA46     		mov r10, sp
 10888 50d8 2546     		mov r5, r4
 10889 50da 2404     		lsls r4, r4, # 16
 10890 50dc 240C     		lsrs r4, r4, # 16
 10891 50de 2D0C     		lsrs r5, r5, # 16
 10892 50e0 6043     		muls r0, r0, r4
 10893 50e2 6143     		muls r1, r1, r4
 10894 50e4 6A43     		muls r2, r2, r5
 10895 50e6 6B43     		muls r3, r3, r5
 10896 50e8 8011     		asrs r0, r0, # 6
 10897 50ea 8911     		asrs r1, r1, # 6
 10898 50ec 9211     		asrs r2, r2, # 6
 10899 50ee 9B11     		asrs r3, r3, # 6
 10900 50f0 8018     		adds r0, r0, r2         @r
 10901 50f2 C918     		adds r1, r1, r3         @i
 10902 50f4 3618     		adds r6, r6, r0
 10903 50f6 7F18     		adds r7, r7, r1
 10904              	
 10905 50f8 DD46     		mov sp, r11
 10906 50fa 0FBC     		pop {r0-r3}
 10907 50fc EB46     		mov r11, sp
 10908 50fe D546     		mov sp, r10
 10909 5100 10BC     		pop {r4}
 10910 5102 EA46     		mov r10, sp
 10911 5104 2546     		mov r5, r4
 10912 5106 2404     		lsls r4, r4, # 16
 10913 5108 240C     		lsrs r4, r4, # 16
 10914 510a 2D0C     		lsrs r5, r5, # 16
 10915 510c 6043     		muls r0, r0, r4
 10916 510e 6143     		muls r1, r1, r4
 10917 5110 6A43     		muls r2, r2, r5
 10918 5112 6B43     		muls r3, r3, r5
 10919 5114 8011     		asrs r0, r0, # 6
 10920 5116 8911     		asrs r1, r1, # 6
 10921 5118 9211     		asrs r2, r2, # 6
 10922 511a 9B11     		asrs r3, r3, # 6
ARM GAS  1.s 			page 193


 10923 511c 8018     		adds r0, r0, r2  @r
 10924 511e C918     		adds r1, r1, r3  @i
 10925 5120 3618     		adds r6, r6, r0
 10926 5122 7F18     		adds r7, r7, r1
 10927              	
 10928 5124 DD46     		mov sp, r11
 10929 5126 0FBC     		pop {r0-r3}
 10930 5128 EB46     		mov r11, sp
 10931 512a D546     		mov sp, r10
 10932 512c 10BC     		pop {r4}
 10933 512e EA46     		mov r10, sp
 10934 5130 2546     		mov r5, r4
 10935 5132 2404     		lsls r4, r4, # 16
 10936 5134 240C     		lsrs r4, r4, # 16
 10937 5136 2D0C     		lsrs r5, r5, # 16
 10938 5138 6043     		muls r0, r0, r4
 10939 513a 6143     		muls r1, r1, r4
 10940 513c 6A43     		muls r2, r2, r5
 10941 513e 6B43     		muls r3, r3, r5
 10942 5140 8011     		asrs r0, r0, # 6
 10943 5142 8911     		asrs r1, r1, # 6
 10944 5144 9211     		asrs r2, r2, # 6
 10945 5146 9B11     		asrs r3, r3, # 6
 10946 5148 8018     		adds r0, r0, r2         @r
 10947 514a C918     		adds r1, r1, r3         @i
 10948 514c 3618     		adds r6, r6, r0
 10949 514e 7F18     		adds r7, r7, r1
 10950              	
 10951              		@2
 10952 5150 DD46     		mov sp, r11
 10953 5152 0FBC     		pop {r0-r3}
 10954 5154 EB46     		mov r11, sp
 10955 5156 D546     		mov sp, r10
 10956 5158 10BC     		pop {r4}
 10957 515a EA46     		mov r10, sp
 10958 515c 2546     		mov r5, r4
 10959 515e 2404     		lsls r4, r4, # 16
 10960 5160 240C     		lsrs r4, r4, # 16
 10961 5162 2D0C     		lsrs r5, r5, # 16
 10962 5164 6043     		muls r0, r0, r4		@R
 10963 5166 6143     		muls r1, r1, r4		@I
 10964 5168 6A43     		muls r2, r2, r5		@R
 10965 516a 6B43     		muls r3, r3, r5		@I
 10966 516c 8011     		asrs r0, r0, # 6
 10967 516e 8911     		asrs r1, r1, # 6
 10968 5170 9211     		asrs r2, r2, # 6
 10969 5172 9B11     		asrs r3, r3, # 6
 10970 5174 8018     		adds r0, r0, r2	 @r
 10971 5176 C918     		adds r1, r1, r3	 @i
 10972 5178 3618     		adds r6, r6, r0
 10973 517a 7F18     		adds r7, r7, r1
 10974              	
 10975 517c DD46     		mov sp, r11
 10976 517e 0FBC     		pop {r0-r3}
 10977 5180 EB46     		mov r11, sp
 10978 5182 D546     		mov sp, r10
 10979 5184 10BC     		pop {r4}
ARM GAS  1.s 			page 194


 10980 5186 EA46     		mov r10, sp
 10981 5188 2546     		mov r5, r4
 10982 518a 2404     		lsls r4, r4, # 16
 10983 518c 240C     		lsrs r4, r4, # 16
 10984 518e 2D0C     		lsrs r5, r5, # 16
 10985 5190 6043     		muls r0, r0, r4
 10986 5192 6143     		muls r1, r1, r4
 10987 5194 6A43     		muls r2, r2, r5
 10988 5196 6B43     		muls r3, r3, r5
 10989 5198 8011     		asrs r0, r0, # 6
 10990 519a 8911     		asrs r1, r1, # 6
 10991 519c 9211     		asrs r2, r2, # 6
 10992 519e 9B11     		asrs r3, r3, # 6
 10993 51a0 8018     		adds r0, r0, r2         @r
 10994 51a2 C918     		adds r1, r1, r3         @i
 10995 51a4 3618     		adds r6, r6, r0
 10996 51a6 7F18     		adds r7, r7, r1
 10997              	
 10998 51a8 DD46     		mov sp, r11
 10999 51aa 0FBC     		pop {r0-r3}
 11000 51ac EB46     		mov r11, sp
 11001 51ae D546     		mov sp, r10
 11002 51b0 10BC     		pop {r4}
 11003 51b2 EA46     		mov r10, sp
 11004 51b4 2546     		mov r5, r4
 11005 51b6 2404     		lsls r4, r4, # 16
 11006 51b8 240C     		lsrs r4, r4, # 16
 11007 51ba 2D0C     		lsrs r5, r5, # 16
 11008 51bc 6043     		muls r0, r0, r4
 11009 51be 6143     		muls r1, r1, r4
 11010 51c0 6A43     		muls r2, r2, r5
 11011 51c2 6B43     		muls r3, r3, r5
 11012 51c4 8011     		asrs r0, r0, # 6
 11013 51c6 8911     		asrs r1, r1, # 6
 11014 51c8 9211     		asrs r2, r2, # 6
 11015 51ca 9B11     		asrs r3, r3, # 6
 11016 51cc 8018     		adds r0, r0, r2  @r
 11017 51ce C918     		adds r1, r1, r3  @i
 11018 51d0 3618     		adds r6, r6, r0
 11019 51d2 7F18     		adds r7, r7, r1
 11020              	
 11021 51d4 DD46     		mov sp, r11
 11022 51d6 0FBC     		pop {r0-r3}
 11023 51d8 EB46     		mov r11, sp
 11024 51da D546     		mov sp, r10
 11025 51dc 10BC     		pop {r4}
 11026 51de EA46     		mov r10, sp
 11027 51e0 2546     		mov r5, r4
 11028 51e2 2404     		lsls r4, r4, # 16
 11029 51e4 240C     		lsrs r4, r4, # 16
 11030 51e6 2D0C     		lsrs r5, r5, # 16
 11031 51e8 6043     		muls r0, r0, r4
 11032 51ea 6143     		muls r1, r1, r4
 11033 51ec 6A43     		muls r2, r2, r5
 11034 51ee 6B43     		muls r3, r3, r5
 11035 51f0 8011     		asrs r0, r0, # 6
 11036 51f2 8911     		asrs r1, r1, # 6
ARM GAS  1.s 			page 195


 11037 51f4 9211     		asrs r2, r2, # 6
 11038 51f6 9B11     		asrs r3, r3, # 6
 11039 51f8 8018     		adds r0, r0, r2         @r
 11040 51fa C918     		adds r1, r1, r3         @i
 11041 51fc 3618     		adds r6, r6, r0
 11042 51fe 7F18     		adds r7, r7, r1
 11043              	
 11044              		@3
 11045 5200 DD46     		mov sp, r11
 11046 5202 0FBC     		pop {r0-r3}
 11047 5204 EB46     		mov r11, sp
 11048 5206 D546     		mov sp, r10
 11049 5208 10BC     		pop {r4}
 11050 520a EA46     		mov r10, sp
 11051 520c 2546     		mov r5, r4
 11052 520e 2404     		lsls r4, r4, # 16
 11053 5210 240C     		lsrs r4, r4, # 16
 11054 5212 2D0C     		lsrs r5, r5, # 16
 11055 5214 6043     		muls r0, r0, r4		@R
 11056 5216 6143     		muls r1, r1, r4		@I
 11057 5218 6A43     		muls r2, r2, r5		@R
 11058 521a 6B43     		muls r3, r3, r5		@I
 11059 521c 8011     		asrs r0, r0, # 6
 11060 521e 8911     		asrs r1, r1, # 6
 11061 5220 9211     		asrs r2, r2, # 6
 11062 5222 9B11     		asrs r3, r3, # 6
 11063 5224 8018     		adds r0, r0, r2	 @r
 11064 5226 C918     		adds r1, r1, r3	 @i
 11065 5228 3618     		adds r6, r6, r0
 11066 522a 7F18     		adds r7, r7, r1
 11067              	
 11068 522c DD46     		mov sp, r11
 11069 522e 0FBC     		pop {r0-r3}
 11070 5230 EB46     		mov r11, sp
 11071 5232 D546     		mov sp, r10
 11072 5234 10BC     		pop {r4}
 11073 5236 EA46     		mov r10, sp
 11074 5238 2546     		mov r5, r4
 11075 523a 2404     		lsls r4, r4, # 16
 11076 523c 240C     		lsrs r4, r4, # 16
 11077 523e 2D0C     		lsrs r5, r5, # 16
 11078 5240 6043     		muls r0, r0, r4
 11079 5242 6143     		muls r1, r1, r4
 11080 5244 6A43     		muls r2, r2, r5
 11081 5246 6B43     		muls r3, r3, r5
 11082 5248 8011     		asrs r0, r0, # 6
 11083 524a 8911     		asrs r1, r1, # 6
 11084 524c 9211     		asrs r2, r2, # 6
 11085 524e 9B11     		asrs r3, r3, # 6
 11086 5250 8018     		adds r0, r0, r2         @r
 11087 5252 C918     		adds r1, r1, r3         @i
 11088 5254 3618     		adds r6, r6, r0
 11089 5256 7F18     		adds r7, r7, r1
 11090              	
 11091 5258 DD46     		mov sp, r11
 11092 525a 0FBC     		pop {r0-r3}
 11093 525c EB46     		mov r11, sp
ARM GAS  1.s 			page 196


 11094 525e D546     		mov sp, r10
 11095 5260 10BC     		pop {r4}
 11096 5262 EA46     		mov r10, sp
 11097 5264 2546     		mov r5, r4
 11098 5266 2404     		lsls r4, r4, # 16
 11099 5268 240C     		lsrs r4, r4, # 16
 11100 526a 2D0C     		lsrs r5, r5, # 16
 11101 526c 6043     		muls r0, r0, r4
 11102 526e 6143     		muls r1, r1, r4
 11103 5270 6A43     		muls r2, r2, r5
 11104 5272 6B43     		muls r3, r3, r5
 11105 5274 8011     		asrs r0, r0, # 6
 11106 5276 8911     		asrs r1, r1, # 6
 11107 5278 9211     		asrs r2, r2, # 6
 11108 527a 9B11     		asrs r3, r3, # 6
 11109 527c 8018     		adds r0, r0, r2  @r
 11110 527e C918     		adds r1, r1, r3  @i
 11111 5280 3618     		adds r6, r6, r0
 11112 5282 7F18     		adds r7, r7, r1
 11113              	
 11114 5284 DD46     		mov sp, r11
 11115 5286 0FBC     		pop {r0-r3}
 11116 5288 EB46     		mov r11, sp
 11117 528a D546     		mov sp, r10
 11118 528c 10BC     		pop {r4}
 11119 528e EA46     		mov r10, sp
 11120 5290 2546     		mov r5, r4
 11121 5292 2404     		lsls r4, r4, # 16
 11122 5294 240C     		lsrs r4, r4, # 16
 11123 5296 2D0C     		lsrs r5, r5, # 16
 11124 5298 6043     		muls r0, r0, r4
 11125 529a 6143     		muls r1, r1, r4
 11126 529c 6A43     		muls r2, r2, r5
 11127 529e 6B43     		muls r3, r3, r5
 11128 52a0 8011     		asrs r0, r0, # 6
 11129 52a2 8911     		asrs r1, r1, # 6
 11130 52a4 9211     		asrs r2, r2, # 6
 11131 52a6 9B11     		asrs r3, r3, # 6
 11132 52a8 8018     		adds r0, r0, r2         @r
 11133 52aa C918     		adds r1, r1, r3         @i
 11134 52ac 3618     		adds r6, r6, r0
 11135 52ae 7F18     		adds r7, r7, r1
 11136              	
 11137              		@4
 11138 52b0 DD46     		mov sp, r11
 11139 52b2 0FBC     		pop {r0-r3}
 11140 52b4 EB46     		mov r11, sp
 11141 52b6 D546     		mov sp, r10
 11142 52b8 10BC     		pop {r4}
 11143 52ba EA46     		mov r10, sp
 11144 52bc 2546     		mov r5, r4
 11145 52be 2404     		lsls r4, r4, # 16
 11146 52c0 240C     		lsrs r4, r4, # 16
 11147 52c2 2D0C     		lsrs r5, r5, # 16
 11148 52c4 6043     		muls r0, r0, r4		@R
 11149 52c6 6143     		muls r1, r1, r4		@I
 11150 52c8 6A43     		muls r2, r2, r5		@R
ARM GAS  1.s 			page 197


 11151 52ca 6B43     		muls r3, r3, r5		@I
 11152 52cc 8011     		asrs r0, r0, # 6
 11153 52ce 8911     		asrs r1, r1, # 6
 11154 52d0 9211     		asrs r2, r2, # 6
 11155 52d2 9B11     		asrs r3, r3, # 6
 11156 52d4 8018     		adds r0, r0, r2	 @r
 11157 52d6 C918     		adds r1, r1, r3	 @i
 11158 52d8 3618     		adds r6, r6, r0
 11159 52da 7F18     		adds r7, r7, r1
 11160              	
 11161 52dc DD46     		mov sp, r11
 11162 52de 0FBC     		pop {r0-r3}
 11163 52e0 EB46     		mov r11, sp
 11164 52e2 D546     		mov sp, r10
 11165 52e4 10BC     		pop {r4}
 11166 52e6 EA46     		mov r10, sp
 11167 52e8 2546     		mov r5, r4
 11168 52ea 2404     		lsls r4, r4, # 16
 11169 52ec 240C     		lsrs r4, r4, # 16
 11170 52ee 2D0C     		lsrs r5, r5, # 16
 11171 52f0 6043     		muls r0, r0, r4
 11172 52f2 6143     		muls r1, r1, r4
 11173 52f4 6A43     		muls r2, r2, r5
 11174 52f6 6B43     		muls r3, r3, r5
 11175 52f8 8011     		asrs r0, r0, # 6
 11176 52fa 8911     		asrs r1, r1, # 6
 11177 52fc 9211     		asrs r2, r2, # 6
 11178 52fe 9B11     		asrs r3, r3, # 6
 11179 5300 8018     		adds r0, r0, r2         @r
 11180 5302 C918     		adds r1, r1, r3         @i
 11181 5304 3618     		adds r6, r6, r0
 11182 5306 7F18     		adds r7, r7, r1
 11183              	
 11184 5308 DD46     		mov sp, r11
 11185 530a 0FBC     		pop {r0-r3}
 11186 530c EB46     		mov r11, sp
 11187 530e D546     		mov sp, r10
 11188 5310 10BC     		pop {r4}
 11189 5312 EA46     		mov r10, sp
 11190 5314 2546     		mov r5, r4
 11191 5316 2404     		lsls r4, r4, # 16
 11192 5318 240C     		lsrs r4, r4, # 16
 11193 531a 2D0C     		lsrs r5, r5, # 16
 11194 531c 6043     		muls r0, r0, r4
 11195 531e 6143     		muls r1, r1, r4
 11196 5320 6A43     		muls r2, r2, r5
 11197 5322 6B43     		muls r3, r3, r5
 11198 5324 8011     		asrs r0, r0, # 6
 11199 5326 8911     		asrs r1, r1, # 6
 11200 5328 9211     		asrs r2, r2, # 6
 11201 532a 9B11     		asrs r3, r3, # 6
 11202 532c 8018     		adds r0, r0, r2  @r
 11203 532e C918     		adds r1, r1, r3  @i
 11204 5330 3618     		adds r6, r6, r0
 11205 5332 7F18     		adds r7, r7, r1
 11206              	
 11207 5334 DD46     		mov sp, r11
ARM GAS  1.s 			page 198


 11208 5336 0FBC     		pop {r0-r3}
 11209 5338 EB46     		mov r11, sp
 11210 533a D546     		mov sp, r10
 11211 533c 10BC     		pop {r4}
 11212 533e EA46     		mov r10, sp
 11213 5340 2546     		mov r5, r4
 11214 5342 2404     		lsls r4, r4, # 16
 11215 5344 240C     		lsrs r4, r4, # 16
 11216 5346 2D0C     		lsrs r5, r5, # 16
 11217 5348 6043     		muls r0, r0, r4
 11218 534a 6143     		muls r1, r1, r4
 11219 534c 6A43     		muls r2, r2, r5
 11220 534e 6B43     		muls r3, r3, r5
 11221 5350 8011     		asrs r0, r0, # 6
 11222 5352 8911     		asrs r1, r1, # 6
 11223 5354 9211     		asrs r2, r2, # 6
 11224 5356 9B11     		asrs r3, r3, # 6
 11225 5358 8018     		adds r0, r0, r2         @r
 11226 535a C918     		adds r1, r1, r3         @i
 11227 535c 3618     		adds r6, r6, r0
 11228 535e 7F18     		adds r7, r7, r1
 11229              	
 11230              		@5
 11231 5360 DD46     		mov sp, r11
 11232 5362 0FBC     		pop {r0-r3}
 11233 5364 EB46     		mov r11, sp
 11234 5366 D546     		mov sp, r10
 11235 5368 10BC     		pop {r4}
 11236 536a EA46     		mov r10, sp
 11237 536c 2546     		mov r5, r4
 11238 536e 2404     		lsls r4, r4, # 16
 11239 5370 240C     		lsrs r4, r4, # 16
 11240 5372 2D0C     		lsrs r5, r5, # 16
 11241 5374 6043     		muls r0, r0, r4		@R
 11242 5376 6143     		muls r1, r1, r4		@I
 11243 5378 6A43     		muls r2, r2, r5		@R
 11244 537a 6B43     		muls r3, r3, r5		@I
 11245 537c 8011     		asrs r0, r0, # 6
 11246 537e 8911     		asrs r1, r1, # 6
 11247 5380 9211     		asrs r2, r2, # 6
 11248 5382 9B11     		asrs r3, r3, # 6
 11249 5384 8018     		adds r0, r0, r2	 @r
 11250 5386 C918     		adds r1, r1, r3	 @i
 11251 5388 3618     		adds r6, r6, r0
 11252 538a 7F18     		adds r7, r7, r1
 11253              	
 11254 538c DD46     		mov sp, r11
 11255 538e 0FBC     		pop {r0-r3}
 11256 5390 EB46     		mov r11, sp
 11257 5392 D546     		mov sp, r10
 11258 5394 10BC     		pop {r4}
 11259 5396 EA46     		mov r10, sp
 11260 5398 2546     		mov r5, r4
 11261 539a 2404     		lsls r4, r4, # 16
 11262 539c 240C     		lsrs r4, r4, # 16
 11263 539e 2D0C     		lsrs r5, r5, # 16
 11264 53a0 6043     		muls r0, r0, r4
ARM GAS  1.s 			page 199


 11265 53a2 6143     		muls r1, r1, r4
 11266 53a4 6A43     		muls r2, r2, r5
 11267 53a6 6B43     		muls r3, r3, r5
 11268 53a8 8011     		asrs r0, r0, # 6
 11269 53aa 8911     		asrs r1, r1, # 6
 11270 53ac 9211     		asrs r2, r2, # 6
 11271 53ae 9B11     		asrs r3, r3, # 6
 11272 53b0 8018     		adds r0, r0, r2         @r
 11273 53b2 C918     		adds r1, r1, r3         @i
 11274 53b4 3618     		adds r6, r6, r0
 11275 53b6 7F18     		adds r7, r7, r1
 11276              	
 11277 53b8 DD46     		mov sp, r11
 11278 53ba 0FBC     		pop {r0-r3}
 11279 53bc EB46     		mov r11, sp
 11280 53be D546     		mov sp, r10
 11281 53c0 10BC     		pop {r4}
 11282 53c2 EA46     		mov r10, sp
 11283 53c4 2546     		mov r5, r4
 11284 53c6 2404     		lsls r4, r4, # 16
 11285 53c8 240C     		lsrs r4, r4, # 16
 11286 53ca 2D0C     		lsrs r5, r5, # 16
 11287 53cc 6043     		muls r0, r0, r4
 11288 53ce 6143     		muls r1, r1, r4
 11289 53d0 6A43     		muls r2, r2, r5
 11290 53d2 6B43     		muls r3, r3, r5
 11291 53d4 8011     		asrs r0, r0, # 6
 11292 53d6 8911     		asrs r1, r1, # 6
 11293 53d8 9211     		asrs r2, r2, # 6
 11294 53da 9B11     		asrs r3, r3, # 6
 11295 53dc 8018     		adds r0, r0, r2  @r
 11296 53de C918     		adds r1, r1, r3  @i
 11297 53e0 3618     		adds r6, r6, r0
 11298 53e2 7F18     		adds r7, r7, r1
 11299              	
 11300 53e4 DD46     		mov sp, r11
 11301 53e6 0FBC     		pop {r0-r3}
 11302 53e8 EB46     		mov r11, sp
 11303 53ea D546     		mov sp, r10
 11304 53ec 10BC     		pop {r4}
 11305 53ee EA46     		mov r10, sp
 11306 53f0 2546     		mov r5, r4
 11307 53f2 2404     		lsls r4, r4, # 16
 11308 53f4 240C     		lsrs r4, r4, # 16
 11309 53f6 2D0C     		lsrs r5, r5, # 16
 11310 53f8 6043     		muls r0, r0, r4
 11311 53fa 6143     		muls r1, r1, r4
 11312 53fc 6A43     		muls r2, r2, r5
 11313 53fe 6B43     		muls r3, r3, r5
 11314 5400 8011     		asrs r0, r0, # 6
 11315 5402 8911     		asrs r1, r1, # 6
 11316 5404 9211     		asrs r2, r2, # 6
 11317 5406 9B11     		asrs r3, r3, # 6
 11318 5408 8018     		adds r0, r0, r2         @r
 11319 540a C918     		adds r1, r1, r3         @i
 11320 540c 3618     		adds r6, r6, r0
 11321 540e 7F18     		adds r7, r7, r1
ARM GAS  1.s 			page 200


 11322              	
 11323              		@6
 11324 5410 DD46     		mov sp, r11
 11325 5412 0FBC     		pop {r0-r3}
 11326 5414 EB46     		mov r11, sp
 11327 5416 D546     		mov sp, r10
 11328 5418 10BC     		pop {r4}
 11329 541a EA46     		mov r10, sp
 11330 541c 2546     		mov r5, r4
 11331 541e 2404     		lsls r4, r4, # 16
 11332 5420 240C     		lsrs r4, r4, # 16
 11333 5422 2D0C     		lsrs r5, r5, # 16
 11334 5424 6043     		muls r0, r0, r4		@R
 11335 5426 6143     		muls r1, r1, r4		@I
 11336 5428 6A43     		muls r2, r2, r5		@R
 11337 542a 6B43     		muls r3, r3, r5		@I
 11338 542c 8011     		asrs r0, r0, # 6
 11339 542e 8911     		asrs r1, r1, # 6
 11340 5430 9211     		asrs r2, r2, # 6
 11341 5432 9B11     		asrs r3, r3, # 6
 11342 5434 8018     		adds r0, r0, r2	 @r
 11343 5436 C918     		adds r1, r1, r3	 @i
 11344 5438 3618     		adds r6, r6, r0
 11345 543a 7F18     		adds r7, r7, r1
 11346              	
 11347 543c DD46     		mov sp, r11
 11348 543e 0FBC     		pop {r0-r3}
 11349 5440 EB46     		mov r11, sp
 11350 5442 D546     		mov sp, r10
 11351 5444 10BC     		pop {r4}
 11352 5446 EA46     		mov r10, sp
 11353 5448 2546     		mov r5, r4
 11354 544a 2404     		lsls r4, r4, # 16
 11355 544c 240C     		lsrs r4, r4, # 16
 11356 544e 2D0C     		lsrs r5, r5, # 16
 11357 5450 6043     		muls r0, r0, r4
 11358 5452 6143     		muls r1, r1, r4
 11359 5454 6A43     		muls r2, r2, r5
 11360 5456 6B43     		muls r3, r3, r5
 11361 5458 8011     		asrs r0, r0, # 6
 11362 545a 8911     		asrs r1, r1, # 6
 11363 545c 9211     		asrs r2, r2, # 6
 11364 545e 9B11     		asrs r3, r3, # 6
 11365 5460 8018     		adds r0, r0, r2         @r
 11366 5462 C918     		adds r1, r1, r3         @i
 11367 5464 3618     		adds r6, r6, r0
 11368 5466 7F18     		adds r7, r7, r1
 11369              	
 11370 5468 DD46     		mov sp, r11
 11371 546a 0FBC     		pop {r0-r3}
 11372 546c EB46     		mov r11, sp
 11373 546e D546     		mov sp, r10
 11374 5470 10BC     		pop {r4}
 11375 5472 EA46     		mov r10, sp
 11376 5474 2546     		mov r5, r4
 11377 5476 2404     		lsls r4, r4, # 16
 11378 5478 240C     		lsrs r4, r4, # 16
ARM GAS  1.s 			page 201


 11379 547a 2D0C     		lsrs r5, r5, # 16
 11380 547c 6043     		muls r0, r0, r4
 11381 547e 6143     		muls r1, r1, r4
 11382 5480 6A43     		muls r2, r2, r5
 11383 5482 6B43     		muls r3, r3, r5
 11384 5484 8011     		asrs r0, r0, # 6
 11385 5486 8911     		asrs r1, r1, # 6
 11386 5488 9211     		asrs r2, r2, # 6
 11387 548a 9B11     		asrs r3, r3, # 6
 11388 548c 8018     		adds r0, r0, r2  @r
 11389 548e C918     		adds r1, r1, r3  @i
 11390 5490 3618     		adds r6, r6, r0
 11391 5492 7F18     		adds r7, r7, r1
 11392              	
 11393 5494 DD46     		mov sp, r11
 11394 5496 0FBC     		pop {r0-r3}
 11395 5498 EB46     		mov r11, sp
 11396 549a D546     		mov sp, r10
 11397 549c 10BC     		pop {r4}
 11398 549e EA46     		mov r10, sp
 11399 54a0 2546     		mov r5, r4
 11400 54a2 2404     		lsls r4, r4, # 16
 11401 54a4 240C     		lsrs r4, r4, # 16
 11402 54a6 2D0C     		lsrs r5, r5, # 16
 11403 54a8 6043     		muls r0, r0, r4
 11404 54aa 6143     		muls r1, r1, r4
 11405 54ac 6A43     		muls r2, r2, r5
 11406 54ae 6B43     		muls r3, r3, r5
 11407 54b0 8011     		asrs r0, r0, # 6
 11408 54b2 8911     		asrs r1, r1, # 6
 11409 54b4 9211     		asrs r2, r2, # 6
 11410 54b6 9B11     		asrs r3, r3, # 6
 11411 54b8 8018     		adds r0, r0, r2         @r
 11412 54ba C918     		adds r1, r1, r3         @i
 11413 54bc 3618     		adds r6, r6, r0
 11414 54be 7F18     		adds r7, r7, r1
 11415              	
 11416              		@7
 11417 54c0 DD46     		mov sp, r11
 11418 54c2 0FBC     		pop {r0-r3}
 11419 54c4 EB46     		mov r11, sp
 11420 54c6 D546     		mov sp, r10
 11421 54c8 10BC     		pop {r4}
 11422 54ca EA46     		mov r10, sp
 11423 54cc 2546     		mov r5, r4
 11424 54ce 2404     		lsls r4, r4, # 16
 11425 54d0 240C     		lsrs r4, r4, # 16
 11426 54d2 2D0C     		lsrs r5, r5, # 16
 11427 54d4 6043     		muls r0, r0, r4		@R
 11428 54d6 6143     		muls r1, r1, r4		@I
 11429 54d8 6A43     		muls r2, r2, r5		@R
 11430 54da 6B43     		muls r3, r3, r5		@I
 11431 54dc 8011     		asrs r0, r0, # 6
 11432 54de 8911     		asrs r1, r1, # 6
 11433 54e0 9211     		asrs r2, r2, # 6
 11434 54e2 9B11     		asrs r3, r3, # 6
 11435 54e4 8018     		adds r0, r0, r2	 @r
ARM GAS  1.s 			page 202


 11436 54e6 C918     		adds r1, r1, r3	 @i
 11437 54e8 3618     		adds r6, r6, r0
 11438 54ea 7F18     		adds r7, r7, r1
 11439              	
 11440 54ec DD46     		mov sp, r11
 11441 54ee 0FBC     		pop {r0-r3}
 11442 54f0 EB46     		mov r11, sp
 11443 54f2 D546     		mov sp, r10
 11444 54f4 10BC     		pop {r4}
 11445 54f6 EA46     		mov r10, sp
 11446 54f8 2546     		mov r5, r4
 11447 54fa 2404     		lsls r4, r4, # 16
 11448 54fc 240C     		lsrs r4, r4, # 16
 11449 54fe 2D0C     		lsrs r5, r5, # 16
 11450 5500 6043     		muls r0, r0, r4
 11451 5502 6143     		muls r1, r1, r4
 11452 5504 6A43     		muls r2, r2, r5
 11453 5506 6B43     		muls r3, r3, r5
 11454 5508 8011     		asrs r0, r0, # 6
 11455 550a 8911     		asrs r1, r1, # 6
 11456 550c 9211     		asrs r2, r2, # 6
 11457 550e 9B11     		asrs r3, r3, # 6
 11458 5510 8018     		adds r0, r0, r2         @r
 11459 5512 C918     		adds r1, r1, r3         @i
 11460 5514 3618     		adds r6, r6, r0
 11461 5516 7F18     		adds r7, r7, r1
 11462              	
 11463 5518 DD46     		mov sp, r11
 11464 551a 0FBC     		pop {r0-r3}
 11465 551c EB46     		mov r11, sp
 11466 551e D546     		mov sp, r10
 11467 5520 10BC     		pop {r4}
 11468 5522 EA46     		mov r10, sp
 11469 5524 2546     		mov r5, r4
 11470 5526 2404     		lsls r4, r4, # 16
 11471 5528 240C     		lsrs r4, r4, # 16
 11472 552a 2D0C     		lsrs r5, r5, # 16
 11473 552c 6043     		muls r0, r0, r4
 11474 552e 6143     		muls r1, r1, r4
 11475 5530 6A43     		muls r2, r2, r5
 11476 5532 6B43     		muls r3, r3, r5
 11477 5534 8011     		asrs r0, r0, # 6
 11478 5536 8911     		asrs r1, r1, # 6
 11479 5538 9211     		asrs r2, r2, # 6
 11480 553a 9B11     		asrs r3, r3, # 6
 11481 553c 8018     		adds r0, r0, r2  @r
 11482 553e C918     		adds r1, r1, r3  @i
 11483 5540 3618     		adds r6, r6, r0
 11484 5542 7F18     		adds r7, r7, r1
 11485              	
 11486 5544 DD46     		mov sp, r11
 11487 5546 0FBC     		pop {r0-r3}
 11488 5548 EB46     		mov r11, sp
 11489 554a D546     		mov sp, r10
 11490 554c 10BC     		pop {r4}
 11491 554e EA46     		mov r10, sp
 11492 5550 2546     		mov r5, r4
ARM GAS  1.s 			page 203


 11493 5552 2404     		lsls r4, r4, # 16
 11494 5554 240C     		lsrs r4, r4, # 16
 11495 5556 2D0C     		lsrs r5, r5, # 16
 11496 5558 6043     		muls r0, r0, r4
 11497 555a 6143     		muls r1, r1, r4
 11498 555c 6A43     		muls r2, r2, r5
 11499 555e 6B43     		muls r3, r3, r5
 11500 5560 8011     		asrs r0, r0, # 6
 11501 5562 8911     		asrs r1, r1, # 6
 11502 5564 9211     		asrs r2, r2, # 6
 11503 5566 9B11     		asrs r3, r3, # 6
 11504 5568 8018     		adds r0, r0, r2         @r
 11505 556a C918     		adds r1, r1, r3         @i
 11506 556c 3618     		adds r6, r6, r0
 11507 556e 7F18     		adds r7, r7, r1
 11508              	
 11509              		@8
 11510 5570 DD46     		mov sp, r11
 11511 5572 0FBC     		pop {r0-r3}
 11512 5574 EB46     		mov r11, sp
 11513 5576 D546     		mov sp, r10
 11514 5578 10BC     		pop {r4}
 11515 557a EA46     		mov r10, sp
 11516 557c 2546     		mov r5, r4
 11517 557e 2404     		lsls r4, r4, # 16
 11518 5580 240C     		lsrs r4, r4, # 16
 11519 5582 2D0C     		lsrs r5, r5, # 16
 11520 5584 6043     		muls r0, r0, r4		@R
 11521 5586 6143     		muls r1, r1, r4		@I
 11522 5588 6A43     		muls r2, r2, r5		@R
 11523 558a 6B43     		muls r3, r3, r5		@I
 11524 558c 8011     		asrs r0, r0, # 6
 11525 558e 8911     		asrs r1, r1, # 6
 11526 5590 9211     		asrs r2, r2, # 6
 11527 5592 9B11     		asrs r3, r3, # 6
 11528 5594 8018     		adds r0, r0, r2	 @r
 11529 5596 C918     		adds r1, r1, r3	 @i
 11530 5598 3618     		adds r6, r6, r0
 11531 559a 7F18     		adds r7, r7, r1
 11532              	
 11533 559c DD46     		mov sp, r11
 11534 559e 0FBC     		pop {r0-r3}
 11535 55a0 EB46     		mov r11, sp
 11536 55a2 D546     		mov sp, r10
 11537 55a4 10BC     		pop {r4}
 11538 55a6 EA46     		mov r10, sp
 11539 55a8 2546     		mov r5, r4
 11540 55aa 2404     		lsls r4, r4, # 16
 11541 55ac 240C     		lsrs r4, r4, # 16
 11542 55ae 2D0C     		lsrs r5, r5, # 16
 11543 55b0 6043     		muls r0, r0, r4
 11544 55b2 6143     		muls r1, r1, r4
 11545 55b4 6A43     		muls r2, r2, r5
 11546 55b6 6B43     		muls r3, r3, r5
 11547 55b8 8011     		asrs r0, r0, # 6
 11548 55ba 8911     		asrs r1, r1, # 6
 11549 55bc 9211     		asrs r2, r2, # 6
ARM GAS  1.s 			page 204


 11550 55be 9B11     		asrs r3, r3, # 6
 11551 55c0 8018     		adds r0, r0, r2         @r
 11552 55c2 C918     		adds r1, r1, r3         @i
 11553 55c4 3618     		adds r6, r6, r0
 11554 55c6 7F18     		adds r7, r7, r1
 11555              	
 11556 55c8 DD46     		mov sp, r11
 11557 55ca 0FBC     		pop {r0-r3}
 11558 55cc EB46     		mov r11, sp
 11559 55ce D546     		mov sp, r10
 11560 55d0 10BC     		pop {r4}
 11561 55d2 EA46     		mov r10, sp
 11562 55d4 2546     		mov r5, r4
 11563 55d6 2404     		lsls r4, r4, # 16
 11564 55d8 240C     		lsrs r4, r4, # 16
 11565 55da 2D0C     		lsrs r5, r5, # 16
 11566 55dc 6043     		muls r0, r0, r4
 11567 55de 6143     		muls r1, r1, r4
 11568 55e0 6A43     		muls r2, r2, r5
 11569 55e2 6B43     		muls r3, r3, r5
 11570 55e4 8011     		asrs r0, r0, # 6
 11571 55e6 8911     		asrs r1, r1, # 6
 11572 55e8 9211     		asrs r2, r2, # 6
 11573 55ea 9B11     		asrs r3, r3, # 6
 11574 55ec 8018     		adds r0, r0, r2  @r
 11575 55ee C918     		adds r1, r1, r3  @i
 11576 55f0 3618     		adds r6, r6, r0
 11577 55f2 7F18     		adds r7, r7, r1
 11578              	
 11579 55f4 DD46     		mov sp, r11
 11580 55f6 0FBC     		pop {r0-r3}
 11581 55f8 EB46     		mov r11, sp
 11582 55fa D546     		mov sp, r10
 11583 55fc 10BC     		pop {r4}
 11584 55fe EA46     		mov r10, sp
 11585 5600 2546     		mov r5, r4
 11586 5602 2404     		lsls r4, r4, # 16
 11587 5604 240C     		lsrs r4, r4, # 16
 11588 5606 2D0C     		lsrs r5, r5, # 16
 11589 5608 6043     		muls r0, r0, r4
 11590 560a 6143     		muls r1, r1, r4
 11591 560c 6A43     		muls r2, r2, r5
 11592 560e 6B43     		muls r3, r3, r5
 11593 5610 8011     		asrs r0, r0, # 6
 11594 5612 8911     		asrs r1, r1, # 6
 11595 5614 9211     		asrs r2, r2, # 6
 11596 5616 9B11     		asrs r3, r3, # 6
 11597 5618 8018     		adds r0, r0, r2         @r
 11598 561a C918     		adds r1, r1, r3         @i
 11599 561c 3618     		adds r6, r6, r0
 11600 561e 7F18     		adds r7, r7, r1
 11601              	
 11602              		@9
 11603 5620 DD46     		mov sp, r11
 11604 5622 0FBC     		pop {r0-r3}
 11605 5624 EB46     		mov r11, sp
 11606 5626 D546     		mov sp, r10
ARM GAS  1.s 			page 205


 11607 5628 10BC     		pop {r4}
 11608 562a EA46     		mov r10, sp
 11609 562c 2546     		mov r5, r4
 11610 562e 2404     		lsls r4, r4, # 16
 11611 5630 240C     		lsrs r4, r4, # 16
 11612 5632 2D0C     		lsrs r5, r5, # 16
 11613 5634 6043     		muls r0, r0, r4		@R
 11614 5636 6143     		muls r1, r1, r4		@I
 11615 5638 6A43     		muls r2, r2, r5		@R
 11616 563a 6B43     		muls r3, r3, r5		@I
 11617 563c 8011     		asrs r0, r0, # 6
 11618 563e 8911     		asrs r1, r1, # 6
 11619 5640 9211     		asrs r2, r2, # 6
 11620 5642 9B11     		asrs r3, r3, # 6
 11621 5644 8018     		adds r0, r0, r2	 @r
 11622 5646 C918     		adds r1, r1, r3	 @i
 11623 5648 3618     		adds r6, r6, r0
 11624 564a 7F18     		adds r7, r7, r1
 11625              	
 11626 564c DD46     		mov sp, r11
 11627 564e 0FBC     		pop {r0-r3}
 11628 5650 EB46     		mov r11, sp
 11629 5652 D546     		mov sp, r10
 11630 5654 10BC     		pop {r4}
 11631 5656 EA46     		mov r10, sp
 11632 5658 2546     		mov r5, r4
 11633 565a 2404     		lsls r4, r4, # 16
 11634 565c 240C     		lsrs r4, r4, # 16
 11635 565e 2D0C     		lsrs r5, r5, # 16
 11636 5660 6043     		muls r0, r0, r4
 11637 5662 6143     		muls r1, r1, r4
 11638 5664 6A43     		muls r2, r2, r5
 11639 5666 6B43     		muls r3, r3, r5
 11640 5668 8011     		asrs r0, r0, # 6
 11641 566a 8911     		asrs r1, r1, # 6
 11642 566c 9211     		asrs r2, r2, # 6
 11643 566e 9B11     		asrs r3, r3, # 6
 11644 5670 8018     		adds r0, r0, r2         @r
 11645 5672 C918     		adds r1, r1, r3         @i
 11646 5674 3618     		adds r6, r6, r0
 11647 5676 7F18     		adds r7, r7, r1
 11648              	
 11649 5678 DD46     		mov sp, r11
 11650 567a 0FBC     		pop {r0-r3}
 11651 567c EB46     		mov r11, sp
 11652 567e D546     		mov sp, r10
 11653 5680 10BC     		pop {r4}
 11654 5682 EA46     		mov r10, sp
 11655 5684 2546     		mov r5, r4
 11656 5686 2404     		lsls r4, r4, # 16
 11657 5688 240C     		lsrs r4, r4, # 16
 11658 568a 2D0C     		lsrs r5, r5, # 16
 11659 568c 6043     		muls r0, r0, r4
 11660 568e 6143     		muls r1, r1, r4
 11661 5690 6A43     		muls r2, r2, r5
 11662 5692 6B43     		muls r3, r3, r5
 11663 5694 8011     		asrs r0, r0, # 6
ARM GAS  1.s 			page 206


 11664 5696 8911     		asrs r1, r1, # 6
 11665 5698 9211     		asrs r2, r2, # 6
 11666 569a 9B11     		asrs r3, r3, # 6
 11667 569c 8018     		adds r0, r0, r2  @r
 11668 569e C918     		adds r1, r1, r3  @i
 11669 56a0 3618     		adds r6, r6, r0
 11670 56a2 7F18     		adds r7, r7, r1
 11671              	
 11672 56a4 DD46     		mov sp, r11
 11673 56a6 0FBC     		pop {r0-r3}
 11674 56a8 EB46     		mov r11, sp
 11675 56aa D546     		mov sp, r10
 11676 56ac 10BC     		pop {r4}
 11677 56ae EA46     		mov r10, sp
 11678 56b0 2546     		mov r5, r4
 11679 56b2 2404     		lsls r4, r4, # 16
 11680 56b4 240C     		lsrs r4, r4, # 16
 11681 56b6 2D0C     		lsrs r5, r5, # 16
 11682 56b8 6043     		muls r0, r0, r4
 11683 56ba 6143     		muls r1, r1, r4
 11684 56bc 6A43     		muls r2, r2, r5
 11685 56be 6B43     		muls r3, r3, r5
 11686 56c0 8011     		asrs r0, r0, # 6
 11687 56c2 8911     		asrs r1, r1, # 6
 11688 56c4 9211     		asrs r2, r2, # 6
 11689 56c6 9B11     		asrs r3, r3, # 6
 11690 56c8 8018     		adds r0, r0, r2         @r
 11691 56ca C918     		adds r1, r1, r3         @i
 11692 56cc 3618     		adds r6, r6, r0
 11693 56ce 7F18     		adds r7, r7, r1
 11694              		@yjm11
 11695              		@0
 11696 56d0 DD46     		mov sp, r11
 11697 56d2 0FBC     		pop {r0-r3}
 11698 56d4 EB46     		mov r11, sp
 11699 56d6 D546     		mov sp, r10
 11700 56d8 10BC     		pop {r4}
 11701 56da EA46     		mov r10, sp
 11702 56dc 2546     		mov r5, r4
 11703 56de 2404     		lsls r4, r4, # 16
 11704 56e0 240C     		lsrs r4, r4, # 16
 11705 56e2 2D0C     		lsrs r5, r5, # 16
 11706 56e4 6043     		muls r0, r0, r4		@R
 11707 56e6 6143     		muls r1, r1, r4		@I
 11708 56e8 6A43     		muls r2, r2, r5		@R
 11709 56ea 6B43     		muls r3, r3, r5		@I
 11710 56ec 8011     		asrs r0, r0, # 6
 11711 56ee 8911     		asrs r1, r1, # 6
 11712 56f0 9211     		asrs r2, r2, # 6
 11713 56f2 9B11     		asrs r3, r3, # 6
 11714 56f4 8018     		adds r0, r0, r2	 @r
 11715 56f6 C918     		adds r1, r1, r3	 @i
 11716 56f8 3618     		adds r6, r6, r0
 11717 56fa 7F18     		adds r7, r7, r1
 11718              	
 11719 56fc DD46     		mov sp, r11
 11720 56fe 0FBC     		pop {r0-r3}
ARM GAS  1.s 			page 207


 11721 5700 EB46     		mov r11, sp
 11722 5702 D546     		mov sp, r10
 11723 5704 10BC     		pop {r4}
 11724 5706 EA46     		mov r10, sp
 11725 5708 2546     		mov r5, r4
 11726 570a 2404     		lsls r4, r4, # 16
 11727 570c 240C     		lsrs r4, r4, # 16
 11728 570e 2D0C     		lsrs r5, r5, # 16
 11729 5710 6043     		muls r0, r0, r4
 11730 5712 6143     		muls r1, r1, r4
 11731 5714 6A43     		muls r2, r2, r5
 11732 5716 6B43     		muls r3, r3, r5
 11733 5718 8011     		asrs r0, r0, # 6
 11734 571a 8911     		asrs r1, r1, # 6
 11735 571c 9211     		asrs r2, r2, # 6
 11736 571e 9B11     		asrs r3, r3, # 6
 11737 5720 8018     		adds r0, r0, r2         @r
 11738 5722 C918     		adds r1, r1, r3         @i
 11739 5724 3618     		adds r6, r6, r0
 11740 5726 7F18     		adds r7, r7, r1
 11741              	
 11742 5728 DD46     		mov sp, r11
 11743 572a 0FBC     		pop {r0-r3}
 11744 572c EB46     		mov r11, sp
 11745 572e D546     		mov sp, r10
 11746 5730 10BC     		pop {r4}
 11747 5732 EA46     		mov r10, sp
 11748 5734 2546     		mov r5, r4
 11749 5736 2404     		lsls r4, r4, # 16
 11750 5738 240C     		lsrs r4, r4, # 16
 11751 573a 2D0C     		lsrs r5, r5, # 16
 11752 573c 6043     		muls r0, r0, r4
 11753 573e 6143     		muls r1, r1, r4
 11754 5740 6A43     		muls r2, r2, r5
 11755 5742 6B43     		muls r3, r3, r5
 11756 5744 8011     		asrs r0, r0, # 6
 11757 5746 8911     		asrs r1, r1, # 6
 11758 5748 9211     		asrs r2, r2, # 6
 11759 574a 9B11     		asrs r3, r3, # 6
 11760 574c 8018     		adds r0, r0, r2  @r
 11761 574e C918     		adds r1, r1, r3  @i
 11762 5750 3618     		adds r6, r6, r0
 11763 5752 7F18     		adds r7, r7, r1
 11764              	
 11765 5754 DD46     		mov sp, r11
 11766 5756 0FBC     		pop {r0-r3}
 11767 5758 EB46     		mov r11, sp
 11768 575a D546     		mov sp, r10
 11769 575c 10BC     		pop {r4}
 11770 575e EA46     		mov r10, sp
 11771 5760 2546     		mov r5, r4
 11772 5762 2404     		lsls r4, r4, # 16
 11773 5764 240C     		lsrs r4, r4, # 16
 11774 5766 2D0C     		lsrs r5, r5, # 16
 11775 5768 6043     		muls r0, r0, r4
 11776 576a 6143     		muls r1, r1, r4
 11777 576c 6A43     		muls r2, r2, r5
ARM GAS  1.s 			page 208


 11778 576e 6B43     		muls r3, r3, r5
 11779 5770 8011     		asrs r0, r0, # 6
 11780 5772 8911     		asrs r1, r1, # 6
 11781 5774 9211     		asrs r2, r2, # 6
 11782 5776 9B11     		asrs r3, r3, # 6
 11783 5778 8018     		adds r0, r0, r2         @r
 11784 577a C918     		adds r1, r1, r3         @i
 11785 577c 3618     		adds r6, r6, r0
 11786 577e 7F18     		adds r7, r7, r1
 11787              	
 11788              		@1
 11789 5780 DD46     		mov sp, r11
 11790 5782 0FBC     		pop {r0-r3}
 11791 5784 EB46     		mov r11, sp
 11792 5786 D546     		mov sp, r10
 11793 5788 10BC     		pop {r4}
 11794 578a EA46     		mov r10, sp
 11795 578c 2546     		mov r5, r4
 11796 578e 2404     		lsls r4, r4, # 16
 11797 5790 240C     		lsrs r4, r4, # 16
 11798 5792 2D0C     		lsrs r5, r5, # 16
 11799 5794 6043     		muls r0, r0, r4		@R
 11800 5796 6143     		muls r1, r1, r4		@I
 11801 5798 6A43     		muls r2, r2, r5		@R
 11802 579a 6B43     		muls r3, r3, r5		@I
 11803 579c 8011     		asrs r0, r0, # 6
 11804 579e 8911     		asrs r1, r1, # 6
 11805 57a0 9211     		asrs r2, r2, # 6
 11806 57a2 9B11     		asrs r3, r3, # 6
 11807 57a4 8018     		adds r0, r0, r2	 @r
 11808 57a6 C918     		adds r1, r1, r3	 @i
 11809 57a8 3618     		adds r6, r6, r0
 11810 57aa 7F18     		adds r7, r7, r1
 11811              	
 11812 57ac DD46     		mov sp, r11
 11813 57ae 0FBC     		pop {r0-r3}
 11814 57b0 EB46     		mov r11, sp
 11815 57b2 D546     		mov sp, r10
 11816 57b4 10BC     		pop {r4}
 11817 57b6 EA46     		mov r10, sp
 11818 57b8 2546     		mov r5, r4
 11819 57ba 2404     		lsls r4, r4, # 16
 11820 57bc 240C     		lsrs r4, r4, # 16
 11821 57be 2D0C     		lsrs r5, r5, # 16
 11822 57c0 6043     		muls r0, r0, r4
 11823 57c2 6143     		muls r1, r1, r4
 11824 57c4 6A43     		muls r2, r2, r5
 11825 57c6 6B43     		muls r3, r3, r5
 11826 57c8 8011     		asrs r0, r0, # 6
 11827 57ca 8911     		asrs r1, r1, # 6
 11828 57cc 9211     		asrs r2, r2, # 6
 11829 57ce 9B11     		asrs r3, r3, # 6
 11830 57d0 8018     		adds r0, r0, r2         @r
 11831 57d2 C918     		adds r1, r1, r3         @i
 11832 57d4 3618     		adds r6, r6, r0
 11833 57d6 7F18     		adds r7, r7, r1
 11834              	
ARM GAS  1.s 			page 209


 11835 57d8 DD46     		mov sp, r11
 11836 57da 0FBC     		pop {r0-r3}
 11837 57dc EB46     		mov r11, sp
 11838 57de D546     		mov sp, r10
 11839 57e0 10BC     		pop {r4}
 11840 57e2 EA46     		mov r10, sp
 11841 57e4 2546     		mov r5, r4
 11842 57e6 2404     		lsls r4, r4, # 16
 11843 57e8 240C     		lsrs r4, r4, # 16
 11844 57ea 2D0C     		lsrs r5, r5, # 16
 11845 57ec 6043     		muls r0, r0, r4
 11846 57ee 6143     		muls r1, r1, r4
 11847 57f0 6A43     		muls r2, r2, r5
 11848 57f2 6B43     		muls r3, r3, r5
 11849 57f4 8011     		asrs r0, r0, # 6
 11850 57f6 8911     		asrs r1, r1, # 6
 11851 57f8 9211     		asrs r2, r2, # 6
 11852 57fa 9B11     		asrs r3, r3, # 6
 11853 57fc 8018     		adds r0, r0, r2  @r
 11854 57fe C918     		adds r1, r1, r3  @i
 11855 5800 3618     		adds r6, r6, r0
 11856 5802 7F18     		adds r7, r7, r1
 11857              	
 11858 5804 DD46     		mov sp, r11
 11859 5806 0FBC     		pop {r0-r3}
 11860 5808 EB46     		mov r11, sp
 11861 580a D546     		mov sp, r10
 11862 580c 10BC     		pop {r4}
 11863 580e EA46     		mov r10, sp
 11864 5810 2546     		mov r5, r4
 11865 5812 2404     		lsls r4, r4, # 16
 11866 5814 240C     		lsrs r4, r4, # 16
 11867 5816 2D0C     		lsrs r5, r5, # 16
 11868 5818 6043     		muls r0, r0, r4
 11869 581a 6143     		muls r1, r1, r4
 11870 581c 6A43     		muls r2, r2, r5
 11871 581e 6B43     		muls r3, r3, r5
 11872 5820 8011     		asrs r0, r0, # 6
 11873 5822 8911     		asrs r1, r1, # 6
 11874 5824 9211     		asrs r2, r2, # 6
 11875 5826 9B11     		asrs r3, r3, # 6
 11876 5828 8018     		adds r0, r0, r2         @r
 11877 582a C918     		adds r1, r1, r3         @i
 11878 582c 3618     		adds r6, r6, r0
 11879 582e 7F18     		adds r7, r7, r1
 11880              	
 11881              		@2
 11882 5830 DD46     		mov sp, r11
 11883 5832 0FBC     		pop {r0-r3}
 11884 5834 EB46     		mov r11, sp
 11885 5836 D546     		mov sp, r10
 11886 5838 10BC     		pop {r4}
 11887 583a EA46     		mov r10, sp
 11888 583c 2546     		mov r5, r4
 11889 583e 2404     		lsls r4, r4, # 16
 11890 5840 240C     		lsrs r4, r4, # 16
 11891 5842 2D0C     		lsrs r5, r5, # 16
ARM GAS  1.s 			page 210


 11892 5844 6043     		muls r0, r0, r4		@R
 11893 5846 6143     		muls r1, r1, r4		@I
 11894 5848 6A43     		muls r2, r2, r5		@R
 11895 584a 6B43     		muls r3, r3, r5		@I
 11896 584c 8011     		asrs r0, r0, # 6
 11897 584e 8911     		asrs r1, r1, # 6
 11898 5850 9211     		asrs r2, r2, # 6
 11899 5852 9B11     		asrs r3, r3, # 6
 11900 5854 8018     		adds r0, r0, r2	 @r
 11901 5856 C918     		adds r1, r1, r3	 @i
 11902 5858 3618     		adds r6, r6, r0
 11903 585a 7F18     		adds r7, r7, r1
 11904              	
 11905 585c DD46     		mov sp, r11
 11906 585e 0FBC     		pop {r0-r3}
 11907 5860 EB46     		mov r11, sp
 11908 5862 D546     		mov sp, r10
 11909 5864 10BC     		pop {r4}
 11910 5866 EA46     		mov r10, sp
 11911 5868 2546     		mov r5, r4
 11912 586a 2404     		lsls r4, r4, # 16
 11913 586c 240C     		lsrs r4, r4, # 16
 11914 586e 2D0C     		lsrs r5, r5, # 16
 11915 5870 6043     		muls r0, r0, r4
 11916 5872 6143     		muls r1, r1, r4
 11917 5874 6A43     		muls r2, r2, r5
 11918 5876 6B43     		muls r3, r3, r5
 11919 5878 8011     		asrs r0, r0, # 6
 11920 587a 8911     		asrs r1, r1, # 6
 11921 587c 9211     		asrs r2, r2, # 6
 11922 587e 9B11     		asrs r3, r3, # 6
 11923 5880 8018     		adds r0, r0, r2         @r
 11924 5882 C918     		adds r1, r1, r3         @i
 11925 5884 3618     		adds r6, r6, r0
 11926 5886 7F18     		adds r7, r7, r1
 11927              	
 11928 5888 DD46     		mov sp, r11
 11929 588a 0FBC     		pop {r0-r3}
 11930 588c EB46     		mov r11, sp
 11931 588e D546     		mov sp, r10
 11932 5890 10BC     		pop {r4}
 11933 5892 EA46     		mov r10, sp
 11934 5894 2546     		mov r5, r4
 11935 5896 2404     		lsls r4, r4, # 16
 11936 5898 240C     		lsrs r4, r4, # 16
 11937 589a 2D0C     		lsrs r5, r5, # 16
 11938 589c 6043     		muls r0, r0, r4
 11939 589e 6143     		muls r1, r1, r4
 11940 58a0 6A43     		muls r2, r2, r5
 11941 58a2 6B43     		muls r3, r3, r5
 11942 58a4 8011     		asrs r0, r0, # 6
 11943 58a6 8911     		asrs r1, r1, # 6
 11944 58a8 9211     		asrs r2, r2, # 6
 11945 58aa 9B11     		asrs r3, r3, # 6
 11946 58ac 8018     		adds r0, r0, r2  @r
 11947 58ae C918     		adds r1, r1, r3  @i
 11948 58b0 3618     		adds r6, r6, r0
ARM GAS  1.s 			page 211


 11949 58b2 7F18     		adds r7, r7, r1
 11950              	
 11951 58b4 DD46     		mov sp, r11
 11952 58b6 0FBC     		pop {r0-r3}
 11953 58b8 EB46     		mov r11, sp
 11954 58ba D546     		mov sp, r10
 11955 58bc 10BC     		pop {r4}
 11956 58be EA46     		mov r10, sp
 11957 58c0 2546     		mov r5, r4
 11958 58c2 2404     		lsls r4, r4, # 16
 11959 58c4 240C     		lsrs r4, r4, # 16
 11960 58c6 2D0C     		lsrs r5, r5, # 16
 11961 58c8 6043     		muls r0, r0, r4
 11962 58ca 6143     		muls r1, r1, r4
 11963 58cc 6A43     		muls r2, r2, r5
 11964 58ce 6B43     		muls r3, r3, r5
 11965 58d0 8011     		asrs r0, r0, # 6
 11966 58d2 8911     		asrs r1, r1, # 6
 11967 58d4 9211     		asrs r2, r2, # 6
 11968 58d6 9B11     		asrs r3, r3, # 6
 11969 58d8 8018     		adds r0, r0, r2         @r
 11970 58da C918     		adds r1, r1, r3         @i
 11971 58dc 3618     		adds r6, r6, r0
 11972 58de 7F18     		adds r7, r7, r1
 11973              	
 11974              		@3
 11975 58e0 DD46     		mov sp, r11
 11976 58e2 0FBC     		pop {r0-r3}
 11977 58e4 EB46     		mov r11, sp
 11978 58e6 D546     		mov sp, r10
 11979 58e8 10BC     		pop {r4}
 11980 58ea EA46     		mov r10, sp
 11981 58ec 2546     		mov r5, r4
 11982 58ee 2404     		lsls r4, r4, # 16
 11983 58f0 240C     		lsrs r4, r4, # 16
 11984 58f2 2D0C     		lsrs r5, r5, # 16
 11985 58f4 6043     		muls r0, r0, r4		@R
 11986 58f6 6143     		muls r1, r1, r4		@I
 11987 58f8 6A43     		muls r2, r2, r5		@R
 11988 58fa 6B43     		muls r3, r3, r5		@I
 11989 58fc 8011     		asrs r0, r0, # 6
 11990 58fe 8911     		asrs r1, r1, # 6
 11991 5900 9211     		asrs r2, r2, # 6
 11992 5902 9B11     		asrs r3, r3, # 6
 11993 5904 8018     		adds r0, r0, r2	 @r
 11994 5906 C918     		adds r1, r1, r3	 @i
 11995 5908 3618     		adds r6, r6, r0
 11996 590a 7F18     		adds r7, r7, r1
 11997              	
 11998 590c DD46     		mov sp, r11
 11999 590e 0FBC     		pop {r0-r3}
 12000 5910 EB46     		mov r11, sp
 12001 5912 D546     		mov sp, r10
 12002 5914 10BC     		pop {r4}
 12003 5916 EA46     		mov r10, sp
 12004 5918 2546     		mov r5, r4
 12005 591a 2404     		lsls r4, r4, # 16
ARM GAS  1.s 			page 212


 12006 591c 240C     		lsrs r4, r4, # 16
 12007 591e 2D0C     		lsrs r5, r5, # 16
 12008 5920 6043     		muls r0, r0, r4
 12009 5922 6143     		muls r1, r1, r4
 12010 5924 6A43     		muls r2, r2, r5
 12011 5926 6B43     		muls r3, r3, r5
 12012 5928 8011     		asrs r0, r0, # 6
 12013 592a 8911     		asrs r1, r1, # 6
 12014 592c 9211     		asrs r2, r2, # 6
 12015 592e 9B11     		asrs r3, r3, # 6
 12016 5930 8018     		adds r0, r0, r2         @r
 12017 5932 C918     		adds r1, r1, r3         @i
 12018 5934 3618     		adds r6, r6, r0
 12019 5936 7F18     		adds r7, r7, r1
 12020              	
 12021 5938 DD46     		mov sp, r11
 12022 593a 0FBC     		pop {r0-r3}
 12023 593c EB46     		mov r11, sp
 12024 593e D546     		mov sp, r10
 12025 5940 10BC     		pop {r4}
 12026 5942 EA46     		mov r10, sp
 12027 5944 2546     		mov r5, r4
 12028 5946 2404     		lsls r4, r4, # 16
 12029 5948 240C     		lsrs r4, r4, # 16
 12030 594a 2D0C     		lsrs r5, r5, # 16
 12031 594c 6043     		muls r0, r0, r4
 12032 594e 6143     		muls r1, r1, r4
 12033 5950 6A43     		muls r2, r2, r5
 12034 5952 6B43     		muls r3, r3, r5
 12035 5954 8011     		asrs r0, r0, # 6
 12036 5956 8911     		asrs r1, r1, # 6
 12037 5958 9211     		asrs r2, r2, # 6
 12038 595a 9B11     		asrs r3, r3, # 6
 12039 595c 8018     		adds r0, r0, r2  @r
 12040 595e C918     		adds r1, r1, r3  @i
 12041 5960 3618     		adds r6, r6, r0
 12042 5962 7F18     		adds r7, r7, r1
 12043              	
 12044 5964 DD46     		mov sp, r11
 12045 5966 0FBC     		pop {r0-r3}
 12046 5968 EB46     		mov r11, sp
 12047 596a D546     		mov sp, r10
 12048 596c 10BC     		pop {r4}
 12049 596e EA46     		mov r10, sp
 12050 5970 2546     		mov r5, r4
 12051 5972 2404     		lsls r4, r4, # 16
 12052 5974 240C     		lsrs r4, r4, # 16
 12053 5976 2D0C     		lsrs r5, r5, # 16
 12054 5978 6043     		muls r0, r0, r4
 12055 597a 6143     		muls r1, r1, r4
 12056 597c 6A43     		muls r2, r2, r5
 12057 597e 6B43     		muls r3, r3, r5
 12058 5980 8011     		asrs r0, r0, # 6
 12059 5982 8911     		asrs r1, r1, # 6
 12060 5984 9211     		asrs r2, r2, # 6
 12061 5986 9B11     		asrs r3, r3, # 6
 12062 5988 8018     		adds r0, r0, r2         @r
ARM GAS  1.s 			page 213


 12063 598a C918     		adds r1, r1, r3         @i
 12064 598c 3618     		adds r6, r6, r0
 12065 598e 7F18     		adds r7, r7, r1
 12066              	
 12067              		@4
 12068 5990 DD46     		mov sp, r11
 12069 5992 0FBC     		pop {r0-r3}
 12070 5994 EB46     		mov r11, sp
 12071 5996 D546     		mov sp, r10
 12072 5998 10BC     		pop {r4}
 12073 599a EA46     		mov r10, sp
 12074 599c 2546     		mov r5, r4
 12075 599e 2404     		lsls r4, r4, # 16
 12076 59a0 240C     		lsrs r4, r4, # 16
 12077 59a2 2D0C     		lsrs r5, r5, # 16
 12078 59a4 6043     		muls r0, r0, r4		@R
 12079 59a6 6143     		muls r1, r1, r4		@I
 12080 59a8 6A43     		muls r2, r2, r5		@R
 12081 59aa 6B43     		muls r3, r3, r5		@I
 12082 59ac 8011     		asrs r0, r0, # 6
 12083 59ae 8911     		asrs r1, r1, # 6
 12084 59b0 9211     		asrs r2, r2, # 6
 12085 59b2 9B11     		asrs r3, r3, # 6
 12086 59b4 8018     		adds r0, r0, r2	 @r
 12087 59b6 C918     		adds r1, r1, r3	 @i
 12088 59b8 3618     		adds r6, r6, r0
 12089 59ba 7F18     		adds r7, r7, r1
 12090              	
 12091 59bc DD46     		mov sp, r11
 12092 59be 0FBC     		pop {r0-r3}
 12093 59c0 EB46     		mov r11, sp
 12094 59c2 D546     		mov sp, r10
 12095 59c4 10BC     		pop {r4}
 12096 59c6 EA46     		mov r10, sp
 12097 59c8 2546     		mov r5, r4
 12098 59ca 2404     		lsls r4, r4, # 16
 12099 59cc 240C     		lsrs r4, r4, # 16
 12100 59ce 2D0C     		lsrs r5, r5, # 16
 12101 59d0 6043     		muls r0, r0, r4
 12102 59d2 6143     		muls r1, r1, r4
 12103 59d4 6A43     		muls r2, r2, r5
 12104 59d6 6B43     		muls r3, r3, r5
 12105 59d8 8011     		asrs r0, r0, # 6
 12106 59da 8911     		asrs r1, r1, # 6
 12107 59dc 9211     		asrs r2, r2, # 6
 12108 59de 9B11     		asrs r3, r3, # 6
 12109 59e0 8018     		adds r0, r0, r2         @r
 12110 59e2 C918     		adds r1, r1, r3         @i
 12111 59e4 3618     		adds r6, r6, r0
 12112 59e6 7F18     		adds r7, r7, r1
 12113              	
 12114 59e8 DD46     		mov sp, r11
 12115 59ea 0FBC     		pop {r0-r3}
 12116 59ec EB46     		mov r11, sp
 12117 59ee D546     		mov sp, r10
 12118 59f0 10BC     		pop {r4}
 12119 59f2 EA46     		mov r10, sp
ARM GAS  1.s 			page 214


 12120 59f4 2546     		mov r5, r4
 12121 59f6 2404     		lsls r4, r4, # 16
 12122 59f8 240C     		lsrs r4, r4, # 16
 12123 59fa 2D0C     		lsrs r5, r5, # 16
 12124 59fc 6043     		muls r0, r0, r4
 12125 59fe 6143     		muls r1, r1, r4
 12126 5a00 6A43     		muls r2, r2, r5
 12127 5a02 6B43     		muls r3, r3, r5
 12128 5a04 8011     		asrs r0, r0, # 6
 12129 5a06 8911     		asrs r1, r1, # 6
 12130 5a08 9211     		asrs r2, r2, # 6
 12131 5a0a 9B11     		asrs r3, r3, # 6
 12132 5a0c 8018     		adds r0, r0, r2  @r
 12133 5a0e C918     		adds r1, r1, r3  @i
 12134 5a10 3618     		adds r6, r6, r0
 12135 5a12 7F18     		adds r7, r7, r1
 12136              	
 12137 5a14 DD46     		mov sp, r11
 12138 5a16 0FBC     		pop {r0-r3}
 12139 5a18 EB46     		mov r11, sp
 12140 5a1a D546     		mov sp, r10
 12141 5a1c 10BC     		pop {r4}
 12142 5a1e EA46     		mov r10, sp
 12143 5a20 2546     		mov r5, r4
 12144 5a22 2404     		lsls r4, r4, # 16
 12145 5a24 240C     		lsrs r4, r4, # 16
 12146 5a26 2D0C     		lsrs r5, r5, # 16
 12147 5a28 6043     		muls r0, r0, r4
 12148 5a2a 6143     		muls r1, r1, r4
 12149 5a2c 6A43     		muls r2, r2, r5
 12150 5a2e 6B43     		muls r3, r3, r5
 12151 5a30 8011     		asrs r0, r0, # 6
 12152 5a32 8911     		asrs r1, r1, # 6
 12153 5a34 9211     		asrs r2, r2, # 6
 12154 5a36 9B11     		asrs r3, r3, # 6
 12155 5a38 8018     		adds r0, r0, r2         @r
 12156 5a3a C918     		adds r1, r1, r3         @i
 12157 5a3c 3618     		adds r6, r6, r0
 12158 5a3e 7F18     		adds r7, r7, r1
 12159              	
 12160              		@5
 12161 5a40 DD46     		mov sp, r11
 12162 5a42 0FBC     		pop {r0-r3}
 12163 5a44 EB46     		mov r11, sp
 12164 5a46 D546     		mov sp, r10
 12165 5a48 10BC     		pop {r4}
 12166 5a4a EA46     		mov r10, sp
 12167 5a4c 2546     		mov r5, r4
 12168 5a4e 2404     		lsls r4, r4, # 16
 12169 5a50 240C     		lsrs r4, r4, # 16
 12170 5a52 2D0C     		lsrs r5, r5, # 16
 12171 5a54 6043     		muls r0, r0, r4		@R
 12172 5a56 6143     		muls r1, r1, r4		@I
 12173 5a58 6A43     		muls r2, r2, r5		@R
 12174 5a5a 6B43     		muls r3, r3, r5		@I
 12175 5a5c 8011     		asrs r0, r0, # 6
 12176 5a5e 8911     		asrs r1, r1, # 6
ARM GAS  1.s 			page 215


 12177 5a60 9211     		asrs r2, r2, # 6
 12178 5a62 9B11     		asrs r3, r3, # 6
 12179 5a64 8018     		adds r0, r0, r2	 @r
 12180 5a66 C918     		adds r1, r1, r3	 @i
 12181 5a68 3618     		adds r6, r6, r0
 12182 5a6a 7F18     		adds r7, r7, r1
 12183              	
 12184 5a6c DD46     		mov sp, r11
 12185 5a6e 0FBC     		pop {r0-r3}
 12186 5a70 EB46     		mov r11, sp
 12187 5a72 D546     		mov sp, r10
 12188 5a74 10BC     		pop {r4}
 12189 5a76 EA46     		mov r10, sp
 12190 5a78 2546     		mov r5, r4
 12191 5a7a 2404     		lsls r4, r4, # 16
 12192 5a7c 240C     		lsrs r4, r4, # 16
 12193 5a7e 2D0C     		lsrs r5, r5, # 16
 12194 5a80 6043     		muls r0, r0, r4
 12195 5a82 6143     		muls r1, r1, r4
 12196 5a84 6A43     		muls r2, r2, r5
 12197 5a86 6B43     		muls r3, r3, r5
 12198 5a88 8011     		asrs r0, r0, # 6
 12199 5a8a 8911     		asrs r1, r1, # 6
 12200 5a8c 9211     		asrs r2, r2, # 6
 12201 5a8e 9B11     		asrs r3, r3, # 6
 12202 5a90 8018     		adds r0, r0, r2         @r
 12203 5a92 C918     		adds r1, r1, r3         @i
 12204 5a94 3618     		adds r6, r6, r0
 12205 5a96 7F18     		adds r7, r7, r1
 12206              	
 12207 5a98 DD46     		mov sp, r11
 12208 5a9a 0FBC     		pop {r0-r3}
 12209 5a9c EB46     		mov r11, sp
 12210 5a9e D546     		mov sp, r10
 12211 5aa0 10BC     		pop {r4}
 12212 5aa2 EA46     		mov r10, sp
 12213 5aa4 2546     		mov r5, r4
 12214 5aa6 2404     		lsls r4, r4, # 16
 12215 5aa8 240C     		lsrs r4, r4, # 16
 12216 5aaa 2D0C     		lsrs r5, r5, # 16
 12217 5aac 6043     		muls r0, r0, r4
 12218 5aae 6143     		muls r1, r1, r4
 12219 5ab0 6A43     		muls r2, r2, r5
 12220 5ab2 6B43     		muls r3, r3, r5
 12221 5ab4 8011     		asrs r0, r0, # 6
 12222 5ab6 8911     		asrs r1, r1, # 6
 12223 5ab8 9211     		asrs r2, r2, # 6
 12224 5aba 9B11     		asrs r3, r3, # 6
 12225 5abc 8018     		adds r0, r0, r2  @r
 12226 5abe C918     		adds r1, r1, r3  @i
 12227 5ac0 3618     		adds r6, r6, r0
 12228 5ac2 7F18     		adds r7, r7, r1
 12229              	
 12230 5ac4 DD46     		mov sp, r11
 12231 5ac6 0FBC     		pop {r0-r3}
 12232 5ac8 EB46     		mov r11, sp
 12233 5aca D546     		mov sp, r10
ARM GAS  1.s 			page 216


 12234 5acc 10BC     		pop {r4}
 12235 5ace EA46     		mov r10, sp
 12236 5ad0 2546     		mov r5, r4
 12237 5ad2 2404     		lsls r4, r4, # 16
 12238 5ad4 240C     		lsrs r4, r4, # 16
 12239 5ad6 2D0C     		lsrs r5, r5, # 16
 12240 5ad8 6043     		muls r0, r0, r4
 12241 5ada 6143     		muls r1, r1, r4
 12242 5adc 6A43     		muls r2, r2, r5
 12243 5ade 6B43     		muls r3, r3, r5
 12244 5ae0 8011     		asrs r0, r0, # 6
 12245 5ae2 8911     		asrs r1, r1, # 6
 12246 5ae4 9211     		asrs r2, r2, # 6
 12247 5ae6 9B11     		asrs r3, r3, # 6
 12248 5ae8 8018     		adds r0, r0, r2         @r
 12249 5aea C918     		adds r1, r1, r3         @i
 12250 5aec 3618     		adds r6, r6, r0
 12251 5aee 7F18     		adds r7, r7, r1
 12252              	
 12253              		@6
 12254 5af0 DD46     		mov sp, r11
 12255 5af2 0FBC     		pop {r0-r3}
 12256 5af4 EB46     		mov r11, sp
 12257 5af6 D546     		mov sp, r10
 12258 5af8 10BC     		pop {r4}
 12259 5afa EA46     		mov r10, sp
 12260 5afc 2546     		mov r5, r4
 12261 5afe 2404     		lsls r4, r4, # 16
 12262 5b00 240C     		lsrs r4, r4, # 16
 12263 5b02 2D0C     		lsrs r5, r5, # 16
 12264 5b04 6043     		muls r0, r0, r4		@R
 12265 5b06 6143     		muls r1, r1, r4		@I
 12266 5b08 6A43     		muls r2, r2, r5		@R
 12267 5b0a 6B43     		muls r3, r3, r5		@I
 12268 5b0c 8011     		asrs r0, r0, # 6
 12269 5b0e 8911     		asrs r1, r1, # 6
 12270 5b10 9211     		asrs r2, r2, # 6
 12271 5b12 9B11     		asrs r3, r3, # 6
 12272 5b14 8018     		adds r0, r0, r2	 @r
 12273 5b16 C918     		adds r1, r1, r3	 @i
 12274 5b18 3618     		adds r6, r6, r0
 12275 5b1a 7F18     		adds r7, r7, r1
 12276              	
 12277 5b1c DD46     		mov sp, r11
 12278 5b1e 0FBC     		pop {r0-r3}
 12279 5b20 EB46     		mov r11, sp
 12280 5b22 D546     		mov sp, r10
 12281 5b24 10BC     		pop {r4}
 12282 5b26 EA46     		mov r10, sp
 12283 5b28 2546     		mov r5, r4
 12284 5b2a 2404     		lsls r4, r4, # 16
 12285 5b2c 240C     		lsrs r4, r4, # 16
 12286 5b2e 2D0C     		lsrs r5, r5, # 16
 12287 5b30 6043     		muls r0, r0, r4
 12288 5b32 6143     		muls r1, r1, r4
 12289 5b34 6A43     		muls r2, r2, r5
 12290 5b36 6B43     		muls r3, r3, r5
ARM GAS  1.s 			page 217


 12291 5b38 8011     		asrs r0, r0, # 6
 12292 5b3a 8911     		asrs r1, r1, # 6
 12293 5b3c 9211     		asrs r2, r2, # 6
 12294 5b3e 9B11     		asrs r3, r3, # 6
 12295 5b40 8018     		adds r0, r0, r2         @r
 12296 5b42 C918     		adds r1, r1, r3         @i
 12297 5b44 3618     		adds r6, r6, r0
 12298 5b46 7F18     		adds r7, r7, r1
 12299              	
 12300 5b48 DD46     		mov sp, r11
 12301 5b4a 0FBC     		pop {r0-r3}
 12302 5b4c EB46     		mov r11, sp
 12303 5b4e D546     		mov sp, r10
 12304 5b50 10BC     		pop {r4}
 12305 5b52 EA46     		mov r10, sp
 12306 5b54 2546     		mov r5, r4
 12307 5b56 2404     		lsls r4, r4, # 16
 12308 5b58 240C     		lsrs r4, r4, # 16
 12309 5b5a 2D0C     		lsrs r5, r5, # 16
 12310 5b5c 6043     		muls r0, r0, r4
 12311 5b5e 6143     		muls r1, r1, r4
 12312 5b60 6A43     		muls r2, r2, r5
 12313 5b62 6B43     		muls r3, r3, r5
 12314 5b64 8011     		asrs r0, r0, # 6
 12315 5b66 8911     		asrs r1, r1, # 6
 12316 5b68 9211     		asrs r2, r2, # 6
 12317 5b6a 9B11     		asrs r3, r3, # 6
 12318 5b6c 8018     		adds r0, r0, r2  @r
 12319 5b6e C918     		adds r1, r1, r3  @i
 12320 5b70 3618     		adds r6, r6, r0
 12321 5b72 7F18     		adds r7, r7, r1
 12322              	
 12323 5b74 DD46     		mov sp, r11
 12324 5b76 0FBC     		pop {r0-r3}
 12325 5b78 EB46     		mov r11, sp
 12326 5b7a D546     		mov sp, r10
 12327 5b7c 10BC     		pop {r4}
 12328 5b7e EA46     		mov r10, sp
 12329 5b80 2546     		mov r5, r4
 12330 5b82 2404     		lsls r4, r4, # 16
 12331 5b84 240C     		lsrs r4, r4, # 16
 12332 5b86 2D0C     		lsrs r5, r5, # 16
 12333 5b88 6043     		muls r0, r0, r4
 12334 5b8a 6143     		muls r1, r1, r4
 12335 5b8c 6A43     		muls r2, r2, r5
 12336 5b8e 6B43     		muls r3, r3, r5
 12337 5b90 8011     		asrs r0, r0, # 6
 12338 5b92 8911     		asrs r1, r1, # 6
 12339 5b94 9211     		asrs r2, r2, # 6
 12340 5b96 9B11     		asrs r3, r3, # 6
 12341 5b98 8018     		adds r0, r0, r2         @r
 12342 5b9a C918     		adds r1, r1, r3         @i
 12343 5b9c 3618     		adds r6, r6, r0
 12344 5b9e 7F18     		adds r7, r7, r1
 12345              	
 12346              		@7
 12347 5ba0 DD46     		mov sp, r11
ARM GAS  1.s 			page 218


 12348 5ba2 0FBC     		pop {r0-r3}
 12349 5ba4 EB46     		mov r11, sp
 12350 5ba6 D546     		mov sp, r10
 12351 5ba8 10BC     		pop {r4}
 12352 5baa EA46     		mov r10, sp
 12353 5bac 2546     		mov r5, r4
 12354 5bae 2404     		lsls r4, r4, # 16
 12355 5bb0 240C     		lsrs r4, r4, # 16
 12356 5bb2 2D0C     		lsrs r5, r5, # 16
 12357 5bb4 6043     		muls r0, r0, r4		@R
 12358 5bb6 6143     		muls r1, r1, r4		@I
 12359 5bb8 6A43     		muls r2, r2, r5		@R
 12360 5bba 6B43     		muls r3, r3, r5		@I
 12361 5bbc 8011     		asrs r0, r0, # 6
 12362 5bbe 8911     		asrs r1, r1, # 6
 12363 5bc0 9211     		asrs r2, r2, # 6
 12364 5bc2 9B11     		asrs r3, r3, # 6
 12365 5bc4 8018     		adds r0, r0, r2	 @r
 12366 5bc6 C918     		adds r1, r1, r3	 @i
 12367 5bc8 3618     		adds r6, r6, r0
 12368 5bca 7F18     		adds r7, r7, r1
 12369              	
 12370 5bcc DD46     		mov sp, r11
 12371 5bce 0FBC     		pop {r0-r3}
 12372 5bd0 EB46     		mov r11, sp
 12373 5bd2 D546     		mov sp, r10
 12374 5bd4 10BC     		pop {r4}
 12375 5bd6 EA46     		mov r10, sp
 12376 5bd8 2546     		mov r5, r4
 12377 5bda 2404     		lsls r4, r4, # 16
 12378 5bdc 240C     		lsrs r4, r4, # 16
 12379 5bde 2D0C     		lsrs r5, r5, # 16
 12380 5be0 6043     		muls r0, r0, r4
 12381 5be2 6143     		muls r1, r1, r4
 12382 5be4 6A43     		muls r2, r2, r5
 12383 5be6 6B43     		muls r3, r3, r5
 12384 5be8 8011     		asrs r0, r0, # 6
 12385 5bea 8911     		asrs r1, r1, # 6
 12386 5bec 9211     		asrs r2, r2, # 6
 12387 5bee 9B11     		asrs r3, r3, # 6
 12388 5bf0 8018     		adds r0, r0, r2         @r
 12389 5bf2 C918     		adds r1, r1, r3         @i
 12390 5bf4 3618     		adds r6, r6, r0
 12391 5bf6 7F18     		adds r7, r7, r1
 12392              	
 12393 5bf8 DD46     		mov sp, r11
 12394 5bfa 0FBC     		pop {r0-r3}
 12395 5bfc EB46     		mov r11, sp
 12396 5bfe D546     		mov sp, r10
 12397 5c00 10BC     		pop {r4}
 12398 5c02 EA46     		mov r10, sp
 12399 5c04 2546     		mov r5, r4
 12400 5c06 2404     		lsls r4, r4, # 16
 12401 5c08 240C     		lsrs r4, r4, # 16
 12402 5c0a 2D0C     		lsrs r5, r5, # 16
 12403 5c0c 6043     		muls r0, r0, r4
 12404 5c0e 6143     		muls r1, r1, r4
ARM GAS  1.s 			page 219


 12405 5c10 6A43     		muls r2, r2, r5
 12406 5c12 6B43     		muls r3, r3, r5
 12407 5c14 8011     		asrs r0, r0, # 6
 12408 5c16 8911     		asrs r1, r1, # 6
 12409 5c18 9211     		asrs r2, r2, # 6
 12410 5c1a 9B11     		asrs r3, r3, # 6
 12411 5c1c 8018     		adds r0, r0, r2  @r
 12412 5c1e C918     		adds r1, r1, r3  @i
 12413 5c20 3618     		adds r6, r6, r0
 12414 5c22 7F18     		adds r7, r7, r1
 12415              	
 12416 5c24 DD46     		mov sp, r11
 12417 5c26 0FBC     		pop {r0-r3}
 12418 5c28 EB46     		mov r11, sp
 12419 5c2a D546     		mov sp, r10
 12420 5c2c 10BC     		pop {r4}
 12421 5c2e EA46     		mov r10, sp
 12422 5c30 2546     		mov r5, r4
 12423 5c32 2404     		lsls r4, r4, # 16
 12424 5c34 240C     		lsrs r4, r4, # 16
 12425 5c36 2D0C     		lsrs r5, r5, # 16
 12426 5c38 6043     		muls r0, r0, r4
 12427 5c3a 6143     		muls r1, r1, r4
 12428 5c3c 6A43     		muls r2, r2, r5
 12429 5c3e 6B43     		muls r3, r3, r5
 12430 5c40 8011     		asrs r0, r0, # 6
 12431 5c42 8911     		asrs r1, r1, # 6
 12432 5c44 9211     		asrs r2, r2, # 6
 12433 5c46 9B11     		asrs r3, r3, # 6
 12434 5c48 8018     		adds r0, r0, r2         @r
 12435 5c4a C918     		adds r1, r1, r3         @i
 12436 5c4c 3618     		adds r6, r6, r0
 12437 5c4e 7F18     		adds r7, r7, r1
 12438              	
 12439              		@8
 12440 5c50 DD46     		mov sp, r11
 12441 5c52 0FBC     		pop {r0-r3}
 12442 5c54 EB46     		mov r11, sp
 12443 5c56 D546     		mov sp, r10
 12444 5c58 10BC     		pop {r4}
 12445 5c5a EA46     		mov r10, sp
 12446 5c5c 2546     		mov r5, r4
 12447 5c5e 2404     		lsls r4, r4, # 16
 12448 5c60 240C     		lsrs r4, r4, # 16
 12449 5c62 2D0C     		lsrs r5, r5, # 16
 12450 5c64 6043     		muls r0, r0, r4		@R
 12451 5c66 6143     		muls r1, r1, r4		@I
 12452 5c68 6A43     		muls r2, r2, r5		@R
 12453 5c6a 6B43     		muls r3, r3, r5		@I
 12454 5c6c 8011     		asrs r0, r0, # 6
 12455 5c6e 8911     		asrs r1, r1, # 6
 12456 5c70 9211     		asrs r2, r2, # 6
 12457 5c72 9B11     		asrs r3, r3, # 6
 12458 5c74 8018     		adds r0, r0, r2	 @r
 12459 5c76 C918     		adds r1, r1, r3	 @i
 12460 5c78 3618     		adds r6, r6, r0
 12461 5c7a 7F18     		adds r7, r7, r1
ARM GAS  1.s 			page 220


 12462              	
 12463 5c7c DD46     		mov sp, r11
 12464 5c7e 0FBC     		pop {r0-r3}
 12465 5c80 EB46     		mov r11, sp
 12466 5c82 D546     		mov sp, r10
 12467 5c84 10BC     		pop {r4}
 12468 5c86 EA46     		mov r10, sp
 12469 5c88 2546     		mov r5, r4
 12470 5c8a 2404     		lsls r4, r4, # 16
 12471 5c8c 240C     		lsrs r4, r4, # 16
 12472 5c8e 2D0C     		lsrs r5, r5, # 16
 12473 5c90 6043     		muls r0, r0, r4
 12474 5c92 6143     		muls r1, r1, r4
 12475 5c94 6A43     		muls r2, r2, r5
 12476 5c96 6B43     		muls r3, r3, r5
 12477 5c98 8011     		asrs r0, r0, # 6
 12478 5c9a 8911     		asrs r1, r1, # 6
 12479 5c9c 9211     		asrs r2, r2, # 6
 12480 5c9e 9B11     		asrs r3, r3, # 6
 12481 5ca0 8018     		adds r0, r0, r2         @r
 12482 5ca2 C918     		adds r1, r1, r3         @i
 12483 5ca4 3618     		adds r6, r6, r0
 12484 5ca6 7F18     		adds r7, r7, r1
 12485              	
 12486 5ca8 DD46     		mov sp, r11
 12487 5caa 0FBC     		pop {r0-r3}
 12488 5cac EB46     		mov r11, sp
 12489 5cae D546     		mov sp, r10
 12490 5cb0 10BC     		pop {r4}
 12491 5cb2 EA46     		mov r10, sp
 12492 5cb4 2546     		mov r5, r4
 12493 5cb6 2404     		lsls r4, r4, # 16
 12494 5cb8 240C     		lsrs r4, r4, # 16
 12495 5cba 2D0C     		lsrs r5, r5, # 16
 12496 5cbc 6043     		muls r0, r0, r4
 12497 5cbe 6143     		muls r1, r1, r4
 12498 5cc0 6A43     		muls r2, r2, r5
 12499 5cc2 6B43     		muls r3, r3, r5
 12500 5cc4 8011     		asrs r0, r0, # 6
 12501 5cc6 8911     		asrs r1, r1, # 6
 12502 5cc8 9211     		asrs r2, r2, # 6
 12503 5cca 9B11     		asrs r3, r3, # 6
 12504 5ccc 8018     		adds r0, r0, r2  @r
 12505 5cce C918     		adds r1, r1, r3  @i
 12506 5cd0 3618     		adds r6, r6, r0
 12507 5cd2 7F18     		adds r7, r7, r1
 12508              	
 12509 5cd4 DD46     		mov sp, r11
 12510 5cd6 0FBC     		pop {r0-r3}
 12511 5cd8 EB46     		mov r11, sp
 12512 5cda D546     		mov sp, r10
 12513 5cdc 10BC     		pop {r4}
 12514 5cde EA46     		mov r10, sp
 12515 5ce0 2546     		mov r5, r4
 12516 5ce2 2404     		lsls r4, r4, # 16
 12517 5ce4 240C     		lsrs r4, r4, # 16
 12518 5ce6 2D0C     		lsrs r5, r5, # 16
ARM GAS  1.s 			page 221


 12519 5ce8 6043     		muls r0, r0, r4
 12520 5cea 6143     		muls r1, r1, r4
 12521 5cec 6A43     		muls r2, r2, r5
 12522 5cee 6B43     		muls r3, r3, r5
 12523 5cf0 8011     		asrs r0, r0, # 6
 12524 5cf2 8911     		asrs r1, r1, # 6
 12525 5cf4 9211     		asrs r2, r2, # 6
 12526 5cf6 9B11     		asrs r3, r3, # 6
 12527 5cf8 8018     		adds r0, r0, r2         @r
 12528 5cfa C918     		adds r1, r1, r3         @i
 12529 5cfc 3618     		adds r6, r6, r0
 12530 5cfe 7F18     		adds r7, r7, r1
 12531              	
 12532              		@9
 12533 5d00 DD46     		mov sp, r11
 12534 5d02 0FBC     		pop {r0-r3}
 12535 5d04 EB46     		mov r11, sp
 12536 5d06 D546     		mov sp, r10
 12537 5d08 10BC     		pop {r4}
 12538 5d0a EA46     		mov r10, sp
 12539 5d0c 2546     		mov r5, r4
 12540 5d0e 2404     		lsls r4, r4, # 16
 12541 5d10 240C     		lsrs r4, r4, # 16
 12542 5d12 2D0C     		lsrs r5, r5, # 16
 12543 5d14 6043     		muls r0, r0, r4		@R
 12544 5d16 6143     		muls r1, r1, r4		@I
 12545 5d18 6A43     		muls r2, r2, r5		@R
 12546 5d1a 6B43     		muls r3, r3, r5		@I
 12547 5d1c 8011     		asrs r0, r0, # 6
 12548 5d1e 8911     		asrs r1, r1, # 6
 12549 5d20 9211     		asrs r2, r2, # 6
 12550 5d22 9B11     		asrs r3, r3, # 6
 12551 5d24 8018     		adds r0, r0, r2	 @r
 12552 5d26 C918     		adds r1, r1, r3	 @i
 12553 5d28 3618     		adds r6, r6, r0
 12554 5d2a 7F18     		adds r7, r7, r1
 12555              	
 12556 5d2c DD46     		mov sp, r11
 12557 5d2e 0FBC     		pop {r0-r3}
 12558 5d30 EB46     		mov r11, sp
 12559 5d32 D546     		mov sp, r10
 12560 5d34 10BC     		pop {r4}
 12561 5d36 EA46     		mov r10, sp
 12562 5d38 2546     		mov r5, r4
 12563 5d3a 2404     		lsls r4, r4, # 16
 12564 5d3c 240C     		lsrs r4, r4, # 16
 12565 5d3e 2D0C     		lsrs r5, r5, # 16
 12566 5d40 6043     		muls r0, r0, r4
 12567 5d42 6143     		muls r1, r1, r4
 12568 5d44 6A43     		muls r2, r2, r5
 12569 5d46 6B43     		muls r3, r3, r5
 12570 5d48 8011     		asrs r0, r0, # 6
 12571 5d4a 8911     		asrs r1, r1, # 6
 12572 5d4c 9211     		asrs r2, r2, # 6
 12573 5d4e 9B11     		asrs r3, r3, # 6
 12574 5d50 8018     		adds r0, r0, r2         @r
 12575 5d52 C918     		adds r1, r1, r3         @i
ARM GAS  1.s 			page 222


 12576 5d54 3618     		adds r6, r6, r0
 12577 5d56 7F18     		adds r7, r7, r1
 12578              	
 12579 5d58 DD46     		mov sp, r11
 12580 5d5a 0FBC     		pop {r0-r3}
 12581 5d5c EB46     		mov r11, sp
 12582 5d5e D546     		mov sp, r10
 12583 5d60 10BC     		pop {r4}
 12584 5d62 EA46     		mov r10, sp
 12585 5d64 2546     		mov r5, r4
 12586 5d66 2404     		lsls r4, r4, # 16
 12587 5d68 240C     		lsrs r4, r4, # 16
 12588 5d6a 2D0C     		lsrs r5, r5, # 16
 12589 5d6c 6043     		muls r0, r0, r4
 12590 5d6e 6143     		muls r1, r1, r4
 12591 5d70 6A43     		muls r2, r2, r5
 12592 5d72 6B43     		muls r3, r3, r5
 12593 5d74 8011     		asrs r0, r0, # 6
 12594 5d76 8911     		asrs r1, r1, # 6
 12595 5d78 9211     		asrs r2, r2, # 6
 12596 5d7a 9B11     		asrs r3, r3, # 6
 12597 5d7c 8018     		adds r0, r0, r2  @r
 12598 5d7e C918     		adds r1, r1, r3  @i
 12599 5d80 3618     		adds r6, r6, r0
 12600 5d82 7F18     		adds r7, r7, r1
 12601              	
 12602 5d84 DD46     		mov sp, r11
 12603 5d86 0FBC     		pop {r0-r3}
 12604 5d88 EB46     		mov r11, sp
 12605 5d8a D546     		mov sp, r10
 12606 5d8c 10BC     		pop {r4}
 12607 5d8e EA46     		mov r10, sp
 12608 5d90 2546     		mov r5, r4
 12609 5d92 2404     		lsls r4, r4, # 16
 12610 5d94 240C     		lsrs r4, r4, # 16
 12611 5d96 2D0C     		lsrs r5, r5, # 16
 12612 5d98 6043     		muls r0, r0, r4
 12613 5d9a 6143     		muls r1, r1, r4
 12614 5d9c 6A43     		muls r2, r2, r5
 12615 5d9e 6B43     		muls r3, r3, r5
 12616 5da0 8011     		asrs r0, r0, # 6
 12617 5da2 8911     		asrs r1, r1, # 6
 12618 5da4 9211     		asrs r2, r2, # 6
 12619 5da6 9B11     		asrs r3, r3, # 6
 12620 5da8 8018     		adds r0, r0, r2         @r
 12621 5daa C918     		adds r1, r1, r3         @i
 12622 5dac 3618     		adds r6, r6, r0
 12623 5dae 7F18     		adds r7, r7, r1
 12624              		@yjm12
 12625              		@0
 12626 5db0 DD46     		mov sp, r11
 12627 5db2 0FBC     		pop {r0-r3}
 12628 5db4 EB46     		mov r11, sp
 12629 5db6 D546     		mov sp, r10
 12630 5db8 10BC     		pop {r4}
 12631 5dba EA46     		mov r10, sp
 12632 5dbc 2546     		mov r5, r4
ARM GAS  1.s 			page 223


 12633 5dbe 2404     		lsls r4, r4, # 16
 12634 5dc0 240C     		lsrs r4, r4, # 16
 12635 5dc2 2D0C     		lsrs r5, r5, # 16
 12636 5dc4 6043     		muls r0, r0, r4		@R
 12637 5dc6 6143     		muls r1, r1, r4		@I
 12638 5dc8 6A43     		muls r2, r2, r5		@R
 12639 5dca 6B43     		muls r3, r3, r5		@I
 12640 5dcc 8011     		asrs r0, r0, # 6
 12641 5dce 8911     		asrs r1, r1, # 6
 12642 5dd0 9211     		asrs r2, r2, # 6
 12643 5dd2 9B11     		asrs r3, r3, # 6
 12644 5dd4 8018     		adds r0, r0, r2	 @r
 12645 5dd6 C918     		adds r1, r1, r3	 @i
 12646 5dd8 3618     		adds r6, r6, r0
 12647 5dda 7F18     		adds r7, r7, r1
 12648              	
 12649 5ddc DD46     		mov sp, r11
 12650 5dde 0FBC     		pop {r0-r3}
 12651 5de0 EB46     		mov r11, sp
 12652 5de2 D546     		mov sp, r10
 12653 5de4 10BC     		pop {r4}
 12654 5de6 EA46     		mov r10, sp
 12655 5de8 2546     		mov r5, r4
 12656 5dea 2404     		lsls r4, r4, # 16
 12657 5dec 240C     		lsrs r4, r4, # 16
 12658 5dee 2D0C     		lsrs r5, r5, # 16
 12659 5df0 6043     		muls r0, r0, r4
 12660 5df2 6143     		muls r1, r1, r4
 12661 5df4 6A43     		muls r2, r2, r5
 12662 5df6 6B43     		muls r3, r3, r5
 12663 5df8 8011     		asrs r0, r0, # 6
 12664 5dfa 8911     		asrs r1, r1, # 6
 12665 5dfc 9211     		asrs r2, r2, # 6
 12666 5dfe 9B11     		asrs r3, r3, # 6
 12667 5e00 8018     		adds r0, r0, r2         @r
 12668 5e02 C918     		adds r1, r1, r3         @i
 12669 5e04 3618     		adds r6, r6, r0
 12670 5e06 7F18     		adds r7, r7, r1
 12671              	
 12672 5e08 DD46     		mov sp, r11
 12673 5e0a 0FBC     		pop {r0-r3}
 12674 5e0c EB46     		mov r11, sp
 12675 5e0e D546     		mov sp, r10
 12676 5e10 10BC     		pop {r4}
 12677 5e12 EA46     		mov r10, sp
 12678 5e14 2546     		mov r5, r4
 12679 5e16 2404     		lsls r4, r4, # 16
 12680 5e18 240C     		lsrs r4, r4, # 16
 12681 5e1a 2D0C     		lsrs r5, r5, # 16
 12682 5e1c 6043     		muls r0, r0, r4
 12683 5e1e 6143     		muls r1, r1, r4
 12684 5e20 6A43     		muls r2, r2, r5
 12685 5e22 6B43     		muls r3, r3, r5
 12686 5e24 8011     		asrs r0, r0, # 6
 12687 5e26 8911     		asrs r1, r1, # 6
 12688 5e28 9211     		asrs r2, r2, # 6
 12689 5e2a 9B11     		asrs r3, r3, # 6
ARM GAS  1.s 			page 224


 12690 5e2c 8018     		adds r0, r0, r2  @r
 12691 5e2e C918     		adds r1, r1, r3  @i
 12692 5e30 3618     		adds r6, r6, r0
 12693 5e32 7F18     		adds r7, r7, r1
 12694              	
 12695 5e34 DD46     		mov sp, r11
 12696 5e36 0FBC     		pop {r0-r3}
 12697 5e38 EB46     		mov r11, sp
 12698 5e3a D546     		mov sp, r10
 12699 5e3c 10BC     		pop {r4}
 12700 5e3e EA46     		mov r10, sp
 12701 5e40 2546     		mov r5, r4
 12702 5e42 2404     		lsls r4, r4, # 16
 12703 5e44 240C     		lsrs r4, r4, # 16
 12704 5e46 2D0C     		lsrs r5, r5, # 16
 12705 5e48 6043     		muls r0, r0, r4
 12706 5e4a 6143     		muls r1, r1, r4
 12707 5e4c 6A43     		muls r2, r2, r5
 12708 5e4e 6B43     		muls r3, r3, r5
 12709 5e50 8011     		asrs r0, r0, # 6
 12710 5e52 8911     		asrs r1, r1, # 6
 12711 5e54 9211     		asrs r2, r2, # 6
 12712 5e56 9B11     		asrs r3, r3, # 6
 12713 5e58 8018     		adds r0, r0, r2         @r
 12714 5e5a C918     		adds r1, r1, r3         @i
 12715 5e5c 3618     		adds r6, r6, r0
 12716 5e5e 7F18     		adds r7, r7, r1
 12717              	
 12718              		@1
 12719 5e60 DD46     		mov sp, r11
 12720 5e62 0FBC     		pop {r0-r3}
 12721 5e64 EB46     		mov r11, sp
 12722 5e66 D546     		mov sp, r10
 12723 5e68 10BC     		pop {r4}
 12724 5e6a EA46     		mov r10, sp
 12725 5e6c 2546     		mov r5, r4
 12726 5e6e 2404     		lsls r4, r4, # 16
 12727 5e70 240C     		lsrs r4, r4, # 16
 12728 5e72 2D0C     		lsrs r5, r5, # 16
 12729 5e74 6043     		muls r0, r0, r4		@R
 12730 5e76 6143     		muls r1, r1, r4		@I
 12731 5e78 6A43     		muls r2, r2, r5		@R
 12732 5e7a 6B43     		muls r3, r3, r5		@I
 12733 5e7c 8011     		asrs r0, r0, # 6
 12734 5e7e 8911     		asrs r1, r1, # 6
 12735 5e80 9211     		asrs r2, r2, # 6
 12736 5e82 9B11     		asrs r3, r3, # 6
 12737 5e84 8018     		adds r0, r0, r2	 @r
 12738 5e86 C918     		adds r1, r1, r3	 @i
 12739 5e88 3618     		adds r6, r6, r0
 12740 5e8a 7F18     		adds r7, r7, r1
 12741              	
 12742 5e8c DD46     		mov sp, r11
 12743 5e8e 0FBC     		pop {r0-r3}
 12744 5e90 EB46     		mov r11, sp
 12745 5e92 D546     		mov sp, r10
 12746 5e94 10BC     		pop {r4}
ARM GAS  1.s 			page 225


 12747 5e96 EA46     		mov r10, sp
 12748 5e98 2546     		mov r5, r4
 12749 5e9a 2404     		lsls r4, r4, # 16
 12750 5e9c 240C     		lsrs r4, r4, # 16
 12751 5e9e 2D0C     		lsrs r5, r5, # 16
 12752 5ea0 6043     		muls r0, r0, r4
 12753 5ea2 6143     		muls r1, r1, r4
 12754 5ea4 6A43     		muls r2, r2, r5
 12755 5ea6 6B43     		muls r3, r3, r5
 12756 5ea8 8011     		asrs r0, r0, # 6
 12757 5eaa 8911     		asrs r1, r1, # 6
 12758 5eac 9211     		asrs r2, r2, # 6
 12759 5eae 9B11     		asrs r3, r3, # 6
 12760 5eb0 8018     		adds r0, r0, r2         @r
 12761 5eb2 C918     		adds r1, r1, r3         @i
 12762 5eb4 3618     		adds r6, r6, r0
 12763 5eb6 7F18     		adds r7, r7, r1
 12764              	
 12765 5eb8 DD46     		mov sp, r11
 12766 5eba 0FBC     		pop {r0-r3}
 12767 5ebc EB46     		mov r11, sp
 12768 5ebe D546     		mov sp, r10
 12769 5ec0 10BC     		pop {r4}
 12770 5ec2 EA46     		mov r10, sp
 12771 5ec4 2546     		mov r5, r4
 12772 5ec6 2404     		lsls r4, r4, # 16
 12773 5ec8 240C     		lsrs r4, r4, # 16
 12774 5eca 2D0C     		lsrs r5, r5, # 16
 12775 5ecc 6043     		muls r0, r0, r4
 12776 5ece 6143     		muls r1, r1, r4
 12777 5ed0 6A43     		muls r2, r2, r5
 12778 5ed2 6B43     		muls r3, r3, r5
 12779 5ed4 8011     		asrs r0, r0, # 6
 12780 5ed6 8911     		asrs r1, r1, # 6
 12781 5ed8 9211     		asrs r2, r2, # 6
 12782 5eda 9B11     		asrs r3, r3, # 6
 12783 5edc 8018     		adds r0, r0, r2  @r
 12784 5ede C918     		adds r1, r1, r3  @i
 12785 5ee0 3618     		adds r6, r6, r0
 12786 5ee2 7F18     		adds r7, r7, r1
 12787              	
 12788 5ee4 DD46     		mov sp, r11
 12789 5ee6 0FBC     		pop {r0-r3}
 12790 5ee8 EB46     		mov r11, sp
 12791 5eea D546     		mov sp, r10
 12792 5eec 10BC     		pop {r4}
 12793 5eee EA46     		mov r10, sp
 12794 5ef0 2546     		mov r5, r4
 12795 5ef2 2404     		lsls r4, r4, # 16
 12796 5ef4 240C     		lsrs r4, r4, # 16
 12797 5ef6 2D0C     		lsrs r5, r5, # 16
 12798 5ef8 6043     		muls r0, r0, r4
 12799 5efa 6143     		muls r1, r1, r4
 12800 5efc 6A43     		muls r2, r2, r5
 12801 5efe 6B43     		muls r3, r3, r5
 12802 5f00 8011     		asrs r0, r0, # 6
 12803 5f02 8911     		asrs r1, r1, # 6
ARM GAS  1.s 			page 226


 12804 5f04 9211     		asrs r2, r2, # 6
 12805 5f06 9B11     		asrs r3, r3, # 6
 12806 5f08 8018     		adds r0, r0, r2         @r
 12807 5f0a C918     		adds r1, r1, r3         @i
 12808 5f0c 3618     		adds r6, r6, r0
 12809 5f0e 7F18     		adds r7, r7, r1
 12810              	
 12811              		@2
 12812 5f10 DD46     		mov sp, r11
 12813 5f12 0FBC     		pop {r0-r3}
 12814 5f14 EB46     		mov r11, sp
 12815 5f16 D546     		mov sp, r10
 12816 5f18 10BC     		pop {r4}
 12817 5f1a EA46     		mov r10, sp
 12818 5f1c 2546     		mov r5, r4
 12819 5f1e 2404     		lsls r4, r4, # 16
 12820 5f20 240C     		lsrs r4, r4, # 16
 12821 5f22 2D0C     		lsrs r5, r5, # 16
 12822 5f24 6043     		muls r0, r0, r4		@R
 12823 5f26 6143     		muls r1, r1, r4		@I
 12824 5f28 6A43     		muls r2, r2, r5		@R
 12825 5f2a 6B43     		muls r3, r3, r5		@I
 12826 5f2c 8011     		asrs r0, r0, # 6
 12827 5f2e 8911     		asrs r1, r1, # 6
 12828 5f30 9211     		asrs r2, r2, # 6
 12829 5f32 9B11     		asrs r3, r3, # 6
 12830 5f34 8018     		adds r0, r0, r2	 @r
 12831 5f36 C918     		adds r1, r1, r3	 @i
 12832 5f38 3618     		adds r6, r6, r0
 12833 5f3a 7F18     		adds r7, r7, r1
 12834              	
 12835 5f3c DD46     		mov sp, r11
 12836 5f3e 0FBC     		pop {r0-r3}
 12837 5f40 EB46     		mov r11, sp
 12838 5f42 D546     		mov sp, r10
 12839 5f44 10BC     		pop {r4}
 12840 5f46 EA46     		mov r10, sp
 12841 5f48 2546     		mov r5, r4
 12842 5f4a 2404     		lsls r4, r4, # 16
 12843 5f4c 240C     		lsrs r4, r4, # 16
 12844 5f4e 2D0C     		lsrs r5, r5, # 16
 12845 5f50 6043     		muls r0, r0, r4
 12846 5f52 6143     		muls r1, r1, r4
 12847 5f54 6A43     		muls r2, r2, r5
 12848 5f56 6B43     		muls r3, r3, r5
 12849 5f58 8011     		asrs r0, r0, # 6
 12850 5f5a 8911     		asrs r1, r1, # 6
 12851 5f5c 9211     		asrs r2, r2, # 6
 12852 5f5e 9B11     		asrs r3, r3, # 6
 12853 5f60 8018     		adds r0, r0, r2         @r
 12854 5f62 C918     		adds r1, r1, r3         @i
 12855 5f64 3618     		adds r6, r6, r0
 12856 5f66 7F18     		adds r7, r7, r1
 12857              	
 12858 5f68 DD46     		mov sp, r11
 12859 5f6a 0FBC     		pop {r0-r3}
 12860 5f6c EB46     		mov r11, sp
ARM GAS  1.s 			page 227


 12861 5f6e D546     		mov sp, r10
 12862 5f70 10BC     		pop {r4}
 12863 5f72 EA46     		mov r10, sp
 12864 5f74 2546     		mov r5, r4
 12865 5f76 2404     		lsls r4, r4, # 16
 12866 5f78 240C     		lsrs r4, r4, # 16
 12867 5f7a 2D0C     		lsrs r5, r5, # 16
 12868 5f7c 6043     		muls r0, r0, r4
 12869 5f7e 6143     		muls r1, r1, r4
 12870 5f80 6A43     		muls r2, r2, r5
 12871 5f82 6B43     		muls r3, r3, r5
 12872 5f84 8011     		asrs r0, r0, # 6
 12873 5f86 8911     		asrs r1, r1, # 6
 12874 5f88 9211     		asrs r2, r2, # 6
 12875 5f8a 9B11     		asrs r3, r3, # 6
 12876 5f8c 8018     		adds r0, r0, r2  @r
 12877 5f8e C918     		adds r1, r1, r3  @i
 12878 5f90 3618     		adds r6, r6, r0
 12879 5f92 7F18     		adds r7, r7, r1
 12880              	
 12881 5f94 DD46     		mov sp, r11
 12882 5f96 0FBC     		pop {r0-r3}
 12883 5f98 EB46     		mov r11, sp
 12884 5f9a D546     		mov sp, r10
 12885 5f9c 10BC     		pop {r4}
 12886 5f9e EA46     		mov r10, sp
 12887 5fa0 2546     		mov r5, r4
 12888 5fa2 2404     		lsls r4, r4, # 16
 12889 5fa4 240C     		lsrs r4, r4, # 16
 12890 5fa6 2D0C     		lsrs r5, r5, # 16
 12891 5fa8 6043     		muls r0, r0, r4
 12892 5faa 6143     		muls r1, r1, r4
 12893 5fac 6A43     		muls r2, r2, r5
 12894 5fae 6B43     		muls r3, r3, r5
 12895 5fb0 8011     		asrs r0, r0, # 6
 12896 5fb2 8911     		asrs r1, r1, # 6
 12897 5fb4 9211     		asrs r2, r2, # 6
 12898 5fb6 9B11     		asrs r3, r3, # 6
 12899 5fb8 8018     		adds r0, r0, r2         @r
 12900 5fba C918     		adds r1, r1, r3         @i
 12901 5fbc 3618     		adds r6, r6, r0
 12902 5fbe 7F18     		adds r7, r7, r1
 12903              	
 12904              		@3
 12905 5fc0 DD46     		mov sp, r11
 12906 5fc2 0FBC     		pop {r0-r3}
 12907 5fc4 EB46     		mov r11, sp
 12908 5fc6 D546     		mov sp, r10
 12909 5fc8 10BC     		pop {r4}
 12910 5fca EA46     		mov r10, sp
 12911 5fcc 2546     		mov r5, r4
 12912 5fce 2404     		lsls r4, r4, # 16
 12913 5fd0 240C     		lsrs r4, r4, # 16
 12914 5fd2 2D0C     		lsrs r5, r5, # 16
 12915 5fd4 6043     		muls r0, r0, r4		@R
 12916 5fd6 6143     		muls r1, r1, r4		@I
 12917 5fd8 6A43     		muls r2, r2, r5		@R
ARM GAS  1.s 			page 228


 12918 5fda 6B43     		muls r3, r3, r5		@I
 12919 5fdc 8011     		asrs r0, r0, # 6
 12920 5fde 8911     		asrs r1, r1, # 6
 12921 5fe0 9211     		asrs r2, r2, # 6
 12922 5fe2 9B11     		asrs r3, r3, # 6
 12923 5fe4 8018     		adds r0, r0, r2	 @r
 12924 5fe6 C918     		adds r1, r1, r3	 @i
 12925 5fe8 3618     		adds r6, r6, r0
 12926 5fea 7F18     		adds r7, r7, r1
 12927              	
 12928 5fec DD46     		mov sp, r11
 12929 5fee 0FBC     		pop {r0-r3}
 12930 5ff0 EB46     		mov r11, sp
 12931 5ff2 D546     		mov sp, r10
 12932 5ff4 10BC     		pop {r4}
 12933 5ff6 EA46     		mov r10, sp
 12934 5ff8 2546     		mov r5, r4
 12935 5ffa 2404     		lsls r4, r4, # 16
 12936 5ffc 240C     		lsrs r4, r4, # 16
 12937 5ffe 2D0C     		lsrs r5, r5, # 16
 12938 6000 6043     		muls r0, r0, r4
 12939 6002 6143     		muls r1, r1, r4
 12940 6004 6A43     		muls r2, r2, r5
 12941 6006 6B43     		muls r3, r3, r5
 12942 6008 8011     		asrs r0, r0, # 6
 12943 600a 8911     		asrs r1, r1, # 6
 12944 600c 9211     		asrs r2, r2, # 6
 12945 600e 9B11     		asrs r3, r3, # 6
 12946 6010 8018     		adds r0, r0, r2         @r
 12947 6012 C918     		adds r1, r1, r3         @i
 12948 6014 3618     		adds r6, r6, r0
 12949 6016 7F18     		adds r7, r7, r1
 12950              	
 12951 6018 DD46     		mov sp, r11
 12952 601a 0FBC     		pop {r0-r3}
 12953 601c EB46     		mov r11, sp
 12954 601e D546     		mov sp, r10
 12955 6020 10BC     		pop {r4}
 12956 6022 EA46     		mov r10, sp
 12957 6024 2546     		mov r5, r4
 12958 6026 2404     		lsls r4, r4, # 16
 12959 6028 240C     		lsrs r4, r4, # 16
 12960 602a 2D0C     		lsrs r5, r5, # 16
 12961 602c 6043     		muls r0, r0, r4
 12962 602e 6143     		muls r1, r1, r4
 12963 6030 6A43     		muls r2, r2, r5
 12964 6032 6B43     		muls r3, r3, r5
 12965 6034 8011     		asrs r0, r0, # 6
 12966 6036 8911     		asrs r1, r1, # 6
 12967 6038 9211     		asrs r2, r2, # 6
 12968 603a 9B11     		asrs r3, r3, # 6
 12969 603c 8018     		adds r0, r0, r2  @r
 12970 603e C918     		adds r1, r1, r3  @i
 12971 6040 3618     		adds r6, r6, r0
 12972 6042 7F18     		adds r7, r7, r1
 12973              	
 12974 6044 DD46     		mov sp, r11
ARM GAS  1.s 			page 229


 12975 6046 0FBC     		pop {r0-r3}
 12976 6048 EB46     		mov r11, sp
 12977 604a D546     		mov sp, r10
 12978 604c 10BC     		pop {r4}
 12979 604e EA46     		mov r10, sp
 12980 6050 2546     		mov r5, r4
 12981 6052 2404     		lsls r4, r4, # 16
 12982 6054 240C     		lsrs r4, r4, # 16
 12983 6056 2D0C     		lsrs r5, r5, # 16
 12984 6058 6043     		muls r0, r0, r4
 12985 605a 6143     		muls r1, r1, r4
 12986 605c 6A43     		muls r2, r2, r5
 12987 605e 6B43     		muls r3, r3, r5
 12988 6060 8011     		asrs r0, r0, # 6
 12989 6062 8911     		asrs r1, r1, # 6
 12990 6064 9211     		asrs r2, r2, # 6
 12991 6066 9B11     		asrs r3, r3, # 6
 12992 6068 8018     		adds r0, r0, r2         @r
 12993 606a C918     		adds r1, r1, r3         @i
 12994 606c 3618     		adds r6, r6, r0
 12995 606e 7F18     		adds r7, r7, r1
 12996              	
 12997              		@4
 12998 6070 DD46     		mov sp, r11
 12999 6072 0FBC     		pop {r0-r3}
 13000 6074 EB46     		mov r11, sp
 13001 6076 D546     		mov sp, r10
 13002 6078 10BC     		pop {r4}
 13003 607a EA46     		mov r10, sp
 13004 607c 2546     		mov r5, r4
 13005 607e 2404     		lsls r4, r4, # 16
 13006 6080 240C     		lsrs r4, r4, # 16
 13007 6082 2D0C     		lsrs r5, r5, # 16
 13008 6084 6043     		muls r0, r0, r4		@R
 13009 6086 6143     		muls r1, r1, r4		@I
 13010 6088 6A43     		muls r2, r2, r5		@R
 13011 608a 6B43     		muls r3, r3, r5		@I
 13012 608c 8011     		asrs r0, r0, # 6
 13013 608e 8911     		asrs r1, r1, # 6
 13014 6090 9211     		asrs r2, r2, # 6
 13015 6092 9B11     		asrs r3, r3, # 6
 13016 6094 8018     		adds r0, r0, r2	 @r
 13017 6096 C918     		adds r1, r1, r3	 @i
 13018 6098 3618     		adds r6, r6, r0
 13019 609a 7F18     		adds r7, r7, r1
 13020              	
 13021 609c DD46     		mov sp, r11
 13022 609e 0FBC     		pop {r0-r3}
 13023 60a0 EB46     		mov r11, sp
 13024 60a2 D546     		mov sp, r10
 13025 60a4 10BC     		pop {r4}
 13026 60a6 EA46     		mov r10, sp
 13027 60a8 2546     		mov r5, r4
 13028 60aa 2404     		lsls r4, r4, # 16
 13029 60ac 240C     		lsrs r4, r4, # 16
 13030 60ae 2D0C     		lsrs r5, r5, # 16
 13031 60b0 6043     		muls r0, r0, r4
ARM GAS  1.s 			page 230


 13032 60b2 6143     		muls r1, r1, r4
 13033 60b4 6A43     		muls r2, r2, r5
 13034 60b6 6B43     		muls r3, r3, r5
 13035 60b8 8011     		asrs r0, r0, # 6
 13036 60ba 8911     		asrs r1, r1, # 6
 13037 60bc 9211     		asrs r2, r2, # 6
 13038 60be 9B11     		asrs r3, r3, # 6
 13039 60c0 8018     		adds r0, r0, r2         @r
 13040 60c2 C918     		adds r1, r1, r3         @i
 13041 60c4 3618     		adds r6, r6, r0
 13042 60c6 7F18     		adds r7, r7, r1
 13043              	
 13044 60c8 DD46     		mov sp, r11
 13045 60ca 0FBC     		pop {r0-r3}
 13046 60cc EB46     		mov r11, sp
 13047 60ce D546     		mov sp, r10
 13048 60d0 10BC     		pop {r4}
 13049 60d2 EA46     		mov r10, sp
 13050 60d4 2546     		mov r5, r4
 13051 60d6 2404     		lsls r4, r4, # 16
 13052 60d8 240C     		lsrs r4, r4, # 16
 13053 60da 2D0C     		lsrs r5, r5, # 16
 13054 60dc 6043     		muls r0, r0, r4
 13055 60de 6143     		muls r1, r1, r4
 13056 60e0 6A43     		muls r2, r2, r5
 13057 60e2 6B43     		muls r3, r3, r5
 13058 60e4 8011     		asrs r0, r0, # 6
 13059 60e6 8911     		asrs r1, r1, # 6
 13060 60e8 9211     		asrs r2, r2, # 6
 13061 60ea 9B11     		asrs r3, r3, # 6
 13062 60ec 8018     		adds r0, r0, r2  @r
 13063 60ee C918     		adds r1, r1, r3  @i
 13064 60f0 3618     		adds r6, r6, r0
 13065 60f2 7F18     		adds r7, r7, r1
 13066              	
 13067 60f4 DD46     		mov sp, r11
 13068 60f6 0FBC     		pop {r0-r3}
 13069 60f8 EB46     		mov r11, sp
 13070 60fa D546     		mov sp, r10
 13071 60fc 10BC     		pop {r4}
 13072 60fe EA46     		mov r10, sp
 13073 6100 2546     		mov r5, r4
 13074 6102 2404     		lsls r4, r4, # 16
 13075 6104 240C     		lsrs r4, r4, # 16
 13076 6106 2D0C     		lsrs r5, r5, # 16
 13077 6108 6043     		muls r0, r0, r4
 13078 610a 6143     		muls r1, r1, r4
 13079 610c 6A43     		muls r2, r2, r5
 13080 610e 6B43     		muls r3, r3, r5
 13081 6110 8011     		asrs r0, r0, # 6
 13082 6112 8911     		asrs r1, r1, # 6
 13083 6114 9211     		asrs r2, r2, # 6
 13084 6116 9B11     		asrs r3, r3, # 6
 13085 6118 8018     		adds r0, r0, r2         @r
 13086 611a C918     		adds r1, r1, r3         @i
 13087 611c 3618     		adds r6, r6, r0
 13088 611e 7F18     		adds r7, r7, r1
ARM GAS  1.s 			page 231


 13089              	
 13090              		@5
 13091              		@	bkpt # 4
 13092 6120 5846     		mov r0, r11
 13093 6122 7D21     		movs r1, # 125
 13094 6124 8901     		lsls r1, r1, # 6
 13095 6126 401A     		subs r0, r0, r1
 13096 6128 8346     		mov r11, r0
 13097 612a DD46     		mov sp, r11
 13098 612c 0FBC     		pop {r0-r3}
 13099 612e EB46     		mov r11, sp
 13100 6130 D546     		mov sp, r10
 13101 6132 10BC     		pop {r4}
 13102 6134 EA46     		mov r10, sp
 13103 6136 2546     		mov r5, r4
 13104 6138 2404     		lsls r4, r4, # 16
 13105 613a 240C     		lsrs r4, r4, # 16
 13106 613c 2D0C     		lsrs r5, r5, # 16
 13107 613e 6043     		muls r0, r0, r4		@R
 13108 6140 6143     		muls r1, r1, r4		@I
 13109 6142 6A43     		muls r2, r2, r5		@R
 13110 6144 6B43     		muls r3, r3, r5		@I
 13111 6146 8011     		asrs r0, r0, # 6
 13112 6148 8911     		asrs r1, r1, # 6
 13113 614a 9211     		asrs r2, r2, # 6
 13114 614c 9B11     		asrs r3, r3, # 6
 13115 614e 8018     		adds r0, r0, r2	 @r
 13116 6150 C918     		adds r1, r1, r3	 @i
 13117 6152 3618     		adds r6, r6, r0
 13118 6154 7F18     		adds r7, r7, r1
 13119              	
 13120 6156 DD46     		mov sp, r11
 13121 6158 0FBC     		pop {r0-r3}
 13122 615a EB46     		mov r11, sp
 13123 615c D546     		mov sp, r10
 13124 615e 10BC     		pop {r4}
 13125 6160 EA46     		mov r10, sp
 13126 6162 2546     		mov r5, r4
 13127 6164 2404     		lsls r4, r4, # 16
 13128 6166 240C     		lsrs r4, r4, # 16
 13129 6168 2D0C     		lsrs r5, r5, # 16
 13130 616a 6043     		muls r0, r0, r4
 13131 616c 6143     		muls r1, r1, r4
 13132 616e 6A43     		muls r2, r2, r5
 13133 6170 6B43     		muls r3, r3, r5
 13134 6172 8011     		asrs r0, r0, # 6
 13135 6174 8911     		asrs r1, r1, # 6
 13136 6176 9211     		asrs r2, r2, # 6
 13137 6178 9B11     		asrs r3, r3, # 6
 13138 617a 8018     		adds r0, r0, r2         @r
 13139 617c C918     		adds r1, r1, r3         @i
 13140 617e 3618     		adds r6, r6, r0
 13141 6180 7F18     		adds r7, r7, r1
 13142              	
 13143 6182 DD46     		mov sp, r11
 13144 6184 0FBC     		pop {r0-r3}
 13145 6186 EB46     		mov r11, sp
ARM GAS  1.s 			page 232


 13146 6188 D546     		mov sp, r10
 13147 618a 10BC     		pop {r4}
 13148 618c EA46     		mov r10, sp
 13149 618e 2546     		mov r5, r4
 13150 6190 2404     		lsls r4, r4, # 16
 13151 6192 240C     		lsrs r4, r4, # 16
 13152 6194 2D0C     		lsrs r5, r5, # 16
 13153 6196 6043     		muls r0, r0, r4
 13154 6198 6143     		muls r1, r1, r4
 13155 619a 6A43     		muls r2, r2, r5
 13156 619c 6B43     		muls r3, r3, r5
 13157 619e 8011     		asrs r0, r0, # 6
 13158 61a0 8911     		asrs r1, r1, # 6
 13159 61a2 9211     		asrs r2, r2, # 6
 13160 61a4 9B11     		asrs r3, r3, # 6
 13161 61a6 8018     		adds r0, r0, r2  @r
 13162 61a8 C918     		adds r1, r1, r3  @i
 13163 61aa 3618     		adds r6, r6, r0
 13164 61ac 7F18     		adds r7, r7, r1
 13165              	
 13166 61ae DD46     		mov sp, r11
 13167 61b0 0FBC     		pop {r0-r3}
 13168 61b2 EB46     		mov r11, sp
 13169 61b4 D546     		mov sp, r10
 13170 61b6 10BC     		pop {r4}
 13171 61b8 EA46     		mov r10, sp
 13172 61ba 2546     		mov r5, r4
 13173 61bc 2404     		lsls r4, r4, # 16
 13174 61be 240C     		lsrs r4, r4, # 16
 13175 61c0 2D0C     		lsrs r5, r5, # 16
 13176 61c2 6043     		muls r0, r0, r4
 13177 61c4 6143     		muls r1, r1, r4
 13178 61c6 6A43     		muls r2, r2, r5
 13179 61c8 6B43     		muls r3, r3, r5
 13180 61ca 8011     		asrs r0, r0, # 6
 13181 61cc 8911     		asrs r1, r1, # 6
 13182 61ce 9211     		asrs r2, r2, # 6
 13183 61d0 9B11     		asrs r3, r3, # 6
 13184 61d2 8018     		adds r0, r0, r2         @r
 13185 61d4 C918     		adds r1, r1, r3         @i
 13186 61d6 3618     		adds r6, r6, r0
 13187 61d8 7F18     		adds r7, r7, r1
 13188              	
 13189              		@6
 13190 61da DD46     		mov sp, r11
 13191 61dc 0FBC     		pop {r0-r3}
 13192 61de EB46     		mov r11, sp
 13193 61e0 D546     		mov sp, r10
 13194 61e2 10BC     		pop {r4}
 13195 61e4 EA46     		mov r10, sp
 13196 61e6 2546     		mov r5, r4
 13197 61e8 2404     		lsls r4, r4, # 16
 13198 61ea 240C     		lsrs r4, r4, # 16
 13199 61ec 2D0C     		lsrs r5, r5, # 16
 13200 61ee 6043     		muls r0, r0, r4		@R
 13201 61f0 6143     		muls r1, r1, r4		@I
 13202 61f2 6A43     		muls r2, r2, r5		@R
ARM GAS  1.s 			page 233


 13203 61f4 6B43     		muls r3, r3, r5		@I
 13204 61f6 8011     		asrs r0, r0, # 6
 13205 61f8 8911     		asrs r1, r1, # 6
 13206 61fa 9211     		asrs r2, r2, # 6
 13207 61fc 9B11     		asrs r3, r3, # 6
 13208 61fe 8018     		adds r0, r0, r2	 @r
 13209 6200 C918     		adds r1, r1, r3	 @i
 13210 6202 3618     		adds r6, r6, r0
 13211 6204 7F18     		adds r7, r7, r1
 13212              	
 13213 6206 DD46     		mov sp, r11
 13214 6208 0FBC     		pop {r0-r3}
 13215 620a EB46     		mov r11, sp
 13216 620c D546     		mov sp, r10
 13217 620e 10BC     		pop {r4}
 13218 6210 EA46     		mov r10, sp
 13219 6212 2546     		mov r5, r4
 13220 6214 2404     		lsls r4, r4, # 16
 13221 6216 240C     		lsrs r4, r4, # 16
 13222 6218 2D0C     		lsrs r5, r5, # 16
 13223 621a 6043     		muls r0, r0, r4
 13224 621c 6143     		muls r1, r1, r4
 13225 621e 6A43     		muls r2, r2, r5
 13226 6220 6B43     		muls r3, r3, r5
 13227 6222 8011     		asrs r0, r0, # 6
 13228 6224 8911     		asrs r1, r1, # 6
 13229 6226 9211     		asrs r2, r2, # 6
 13230 6228 9B11     		asrs r3, r3, # 6
 13231 622a 8018     		adds r0, r0, r2         @r
 13232 622c C918     		adds r1, r1, r3         @i
 13233 622e 3618     		adds r6, r6, r0
 13234 6230 7F18     		adds r7, r7, r1
 13235              	
 13236 6232 DD46     		mov sp, r11
 13237 6234 0FBC     		pop {r0-r3}
 13238 6236 EB46     		mov r11, sp
 13239 6238 D546     		mov sp, r10
 13240 623a 10BC     		pop {r4}
 13241 623c EA46     		mov r10, sp
 13242 623e 2546     		mov r5, r4
 13243 6240 2404     		lsls r4, r4, # 16
 13244 6242 240C     		lsrs r4, r4, # 16
 13245 6244 2D0C     		lsrs r5, r5, # 16
 13246 6246 6043     		muls r0, r0, r4
 13247 6248 6143     		muls r1, r1, r4
 13248 624a 6A43     		muls r2, r2, r5
 13249 624c 6B43     		muls r3, r3, r5
 13250 624e 8011     		asrs r0, r0, # 6
 13251 6250 8911     		asrs r1, r1, # 6
 13252 6252 9211     		asrs r2, r2, # 6
 13253 6254 9B11     		asrs r3, r3, # 6
 13254 6256 8018     		adds r0, r0, r2  @r
 13255 6258 C918     		adds r1, r1, r3  @i
 13256 625a 3618     		adds r6, r6, r0
 13257 625c 7F18     		adds r7, r7, r1
 13258              	
 13259 625e DD46     		mov sp, r11
ARM GAS  1.s 			page 234


 13260 6260 0FBC     		pop {r0-r3}
 13261 6262 EB46     		mov r11, sp
 13262 6264 D546     		mov sp, r10
 13263 6266 10BC     		pop {r4}
 13264 6268 EA46     		mov r10, sp
 13265 626a 2546     		mov r5, r4
 13266 626c 2404     		lsls r4, r4, # 16
 13267 626e 240C     		lsrs r4, r4, # 16
 13268 6270 2D0C     		lsrs r5, r5, # 16
 13269 6272 6043     		muls r0, r0, r4
 13270 6274 6143     		muls r1, r1, r4
 13271 6276 6A43     		muls r2, r2, r5
 13272 6278 6B43     		muls r3, r3, r5
 13273 627a 8011     		asrs r0, r0, # 6
 13274 627c 8911     		asrs r1, r1, # 6
 13275 627e 9211     		asrs r2, r2, # 6
 13276 6280 9B11     		asrs r3, r3, # 6
 13277 6282 8018     		adds r0, r0, r2         @r
 13278 6284 C918     		adds r1, r1, r3         @i
 13279 6286 3618     		adds r6, r6, r0
 13280 6288 7F18     		adds r7, r7, r1
 13281              	
 13282              		@7
 13283 628a DD46     		mov sp, r11
 13284 628c 0FBC     		pop {r0-r3}
 13285 628e EB46     		mov r11, sp
 13286 6290 D546     		mov sp, r10
 13287 6292 10BC     		pop {r4}
 13288 6294 EA46     		mov r10, sp
 13289 6296 2546     		mov r5, r4
 13290 6298 2404     		lsls r4, r4, # 16
 13291 629a 240C     		lsrs r4, r4, # 16
 13292 629c 2D0C     		lsrs r5, r5, # 16
 13293 629e 6043     		muls r0, r0, r4		@R
 13294 62a0 6143     		muls r1, r1, r4		@I
 13295 62a2 6A43     		muls r2, r2, r5		@R
 13296 62a4 6B43     		muls r3, r3, r5		@I
 13297 62a6 8011     		asrs r0, r0, # 6
 13298 62a8 8911     		asrs r1, r1, # 6
 13299 62aa 9211     		asrs r2, r2, # 6
 13300 62ac 9B11     		asrs r3, r3, # 6
 13301 62ae 8018     		adds r0, r0, r2	 @r
 13302 62b0 C918     		adds r1, r1, r3	 @i
 13303 62b2 3618     		adds r6, r6, r0
 13304 62b4 7F18     		adds r7, r7, r1
 13305              	
 13306 62b6 DD46     		mov sp, r11
 13307 62b8 0FBC     		pop {r0-r3}
 13308 62ba EB46     		mov r11, sp
 13309 62bc D546     		mov sp, r10
 13310 62be 10BC     		pop {r4}
 13311 62c0 EA46     		mov r10, sp
 13312 62c2 2546     		mov r5, r4
 13313 62c4 2404     		lsls r4, r4, # 16
 13314 62c6 240C     		lsrs r4, r4, # 16
 13315 62c8 2D0C     		lsrs r5, r5, # 16
 13316 62ca 6043     		muls r0, r0, r4
ARM GAS  1.s 			page 235


 13317 62cc 6143     		muls r1, r1, r4
 13318 62ce 6A43     		muls r2, r2, r5
 13319 62d0 6B43     		muls r3, r3, r5
 13320 62d2 8011     		asrs r0, r0, # 6
 13321 62d4 8911     		asrs r1, r1, # 6
 13322 62d6 9211     		asrs r2, r2, # 6
 13323 62d8 9B11     		asrs r3, r3, # 6
 13324 62da 8018     		adds r0, r0, r2         @r
 13325 62dc C918     		adds r1, r1, r3         @i
 13326 62de 3618     		adds r6, r6, r0
 13327 62e0 7F18     		adds r7, r7, r1
 13328              	
 13329 62e2 DD46     		mov sp, r11
 13330 62e4 0FBC     		pop {r0-r3}
 13331 62e6 EB46     		mov r11, sp
 13332 62e8 D546     		mov sp, r10
 13333 62ea 10BC     		pop {r4}
 13334 62ec EA46     		mov r10, sp
 13335 62ee 2546     		mov r5, r4
 13336 62f0 2404     		lsls r4, r4, # 16
 13337 62f2 240C     		lsrs r4, r4, # 16
 13338 62f4 2D0C     		lsrs r5, r5, # 16
 13339 62f6 6043     		muls r0, r0, r4
 13340 62f8 6143     		muls r1, r1, r4
 13341 62fa 6A43     		muls r2, r2, r5
 13342 62fc 6B43     		muls r3, r3, r5
 13343 62fe 8011     		asrs r0, r0, # 6
 13344 6300 8911     		asrs r1, r1, # 6
 13345 6302 9211     		asrs r2, r2, # 6
 13346 6304 9B11     		asrs r3, r3, # 6
 13347 6306 8018     		adds r0, r0, r2  @r
 13348 6308 C918     		adds r1, r1, r3  @i
 13349 630a 3618     		adds r6, r6, r0
 13350 630c 7F18     		adds r7, r7, r1
 13351              	
 13352 630e DD46     		mov sp, r11
 13353 6310 0FBC     		pop {r0-r3}
 13354 6312 EB46     		mov r11, sp
 13355 6314 D546     		mov sp, r10
 13356 6316 10BC     		pop {r4}
 13357 6318 EA46     		mov r10, sp
 13358 631a 2546     		mov r5, r4
 13359 631c 2404     		lsls r4, r4, # 16
 13360 631e 240C     		lsrs r4, r4, # 16
 13361 6320 2D0C     		lsrs r5, r5, # 16
 13362 6322 6043     		muls r0, r0, r4
 13363 6324 6143     		muls r1, r1, r4
 13364 6326 6A43     		muls r2, r2, r5
 13365 6328 6B43     		muls r3, r3, r5
 13366 632a 8011     		asrs r0, r0, # 6
 13367 632c 8911     		asrs r1, r1, # 6
 13368 632e 9211     		asrs r2, r2, # 6
 13369 6330 9B11     		asrs r3, r3, # 6
 13370 6332 8018     		adds r0, r0, r2         @r
 13371 6334 C918     		adds r1, r1, r3         @i
 13372 6336 3618     		adds r6, r6, r0
 13373 6338 7F18     		adds r7, r7, r1
ARM GAS  1.s 			page 236


 13374              	
 13375              		@8
 13376 633a DD46     		mov sp, r11
 13377 633c 0FBC     		pop {r0-r3}
 13378 633e EB46     		mov r11, sp
 13379 6340 D546     		mov sp, r10
 13380 6342 10BC     		pop {r4}
 13381 6344 EA46     		mov r10, sp
 13382 6346 2546     		mov r5, r4
 13383 6348 2404     		lsls r4, r4, # 16
 13384 634a 240C     		lsrs r4, r4, # 16
 13385 634c 2D0C     		lsrs r5, r5, # 16
 13386 634e 6043     		muls r0, r0, r4		@R
 13387 6350 6143     		muls r1, r1, r4		@I
 13388 6352 6A43     		muls r2, r2, r5		@R
 13389 6354 6B43     		muls r3, r3, r5		@I
 13390 6356 8011     		asrs r0, r0, # 6
 13391 6358 8911     		asrs r1, r1, # 6
 13392 635a 9211     		asrs r2, r2, # 6
 13393 635c 9B11     		asrs r3, r3, # 6
 13394 635e 8018     		adds r0, r0, r2	 @r
 13395 6360 C918     		adds r1, r1, r3	 @i
 13396 6362 3618     		adds r6, r6, r0
 13397 6364 7F18     		adds r7, r7, r1
 13398              	
 13399 6366 DD46     		mov sp, r11
 13400 6368 0FBC     		pop {r0-r3}
 13401 636a EB46     		mov r11, sp
 13402 636c D546     		mov sp, r10
 13403 636e 10BC     		pop {r4}
 13404 6370 EA46     		mov r10, sp
 13405 6372 2546     		mov r5, r4
 13406 6374 2404     		lsls r4, r4, # 16
 13407 6376 240C     		lsrs r4, r4, # 16
 13408 6378 2D0C     		lsrs r5, r5, # 16
 13409 637a 6043     		muls r0, r0, r4
 13410 637c 6143     		muls r1, r1, r4
 13411 637e 6A43     		muls r2, r2, r5
 13412 6380 6B43     		muls r3, r3, r5
 13413 6382 8011     		asrs r0, r0, # 6
 13414 6384 8911     		asrs r1, r1, # 6
 13415 6386 9211     		asrs r2, r2, # 6
 13416 6388 9B11     		asrs r3, r3, # 6
 13417 638a 8018     		adds r0, r0, r2         @r
 13418 638c C918     		adds r1, r1, r3         @i
 13419 638e 3618     		adds r6, r6, r0
 13420 6390 7F18     		adds r7, r7, r1
 13421              	
 13422 6392 DD46     		mov sp, r11
 13423 6394 0FBC     		pop {r0-r3}
 13424 6396 EB46     		mov r11, sp
 13425 6398 D546     		mov sp, r10
 13426 639a 10BC     		pop {r4}
 13427 639c EA46     		mov r10, sp
 13428 639e 2546     		mov r5, r4
 13429 63a0 2404     		lsls r4, r4, # 16
 13430 63a2 240C     		lsrs r4, r4, # 16
ARM GAS  1.s 			page 237


 13431 63a4 2D0C     		lsrs r5, r5, # 16
 13432 63a6 6043     		muls r0, r0, r4
 13433 63a8 6143     		muls r1, r1, r4
 13434 63aa 6A43     		muls r2, r2, r5
 13435 63ac 6B43     		muls r3, r3, r5
 13436 63ae 8011     		asrs r0, r0, # 6
 13437 63b0 8911     		asrs r1, r1, # 6
 13438 63b2 9211     		asrs r2, r2, # 6
 13439 63b4 9B11     		asrs r3, r3, # 6
 13440 63b6 8018     		adds r0, r0, r2  @r
 13441 63b8 C918     		adds r1, r1, r3  @i
 13442 63ba 3618     		adds r6, r6, r0
 13443 63bc 7F18     		adds r7, r7, r1
 13444              	
 13445 63be DD46     		mov sp, r11
 13446 63c0 0FBC     		pop {r0-r3}
 13447 63c2 EB46     		mov r11, sp
 13448 63c4 D546     		mov sp, r10
 13449 63c6 10BC     		pop {r4}
 13450 63c8 EA46     		mov r10, sp
 13451 63ca 2546     		mov r5, r4
 13452 63cc 2404     		lsls r4, r4, # 16
 13453 63ce 240C     		lsrs r4, r4, # 16
 13454 63d0 2D0C     		lsrs r5, r5, # 16
 13455 63d2 6043     		muls r0, r0, r4
 13456 63d4 6143     		muls r1, r1, r4
 13457 63d6 6A43     		muls r2, r2, r5
 13458 63d8 6B43     		muls r3, r3, r5
 13459 63da 8011     		asrs r0, r0, # 6
 13460 63dc 8911     		asrs r1, r1, # 6
 13461 63de 9211     		asrs r2, r2, # 6
 13462 63e0 9B11     		asrs r3, r3, # 6
 13463 63e2 8018     		adds r0, r0, r2         @r
 13464 63e4 C918     		adds r1, r1, r3         @i
 13465 63e6 3618     		adds r6, r6, r0
 13466 63e8 7F18     		adds r7, r7, r1
 13467              	
 13468              		@9
 13469 63ea DD46     		mov sp, r11
 13470 63ec 0FBC     		pop {r0-r3}
 13471 63ee EB46     		mov r11, sp
 13472 63f0 D546     		mov sp, r10
 13473 63f2 10BC     		pop {r4}
 13474 63f4 EA46     		mov r10, sp
 13475 63f6 2546     		mov r5, r4
 13476 63f8 2404     		lsls r4, r4, # 16
 13477 63fa 240C     		lsrs r4, r4, # 16
 13478 63fc 2D0C     		lsrs r5, r5, # 16
 13479 63fe 6043     		muls r0, r0, r4		@R
 13480 6400 6143     		muls r1, r1, r4		@I
 13481 6402 6A43     		muls r2, r2, r5		@R
 13482 6404 6B43     		muls r3, r3, r5		@I
 13483 6406 8011     		asrs r0, r0, # 6
 13484 6408 8911     		asrs r1, r1, # 6
 13485 640a 9211     		asrs r2, r2, # 6
 13486 640c 9B11     		asrs r3, r3, # 6
 13487 640e 8018     		adds r0, r0, r2	 @r
ARM GAS  1.s 			page 238


 13488 6410 C918     		adds r1, r1, r3	 @i
 13489 6412 3618     		adds r6, r6, r0
 13490 6414 7F18     		adds r7, r7, r1
 13491              	
 13492 6416 DD46     		mov sp, r11
 13493 6418 0FBC     		pop {r0-r3}
 13494 641a EB46     		mov r11, sp
 13495 641c D546     		mov sp, r10
 13496 641e 10BC     		pop {r4}
 13497 6420 EA46     		mov r10, sp
 13498 6422 2546     		mov r5, r4
 13499 6424 2404     		lsls r4, r4, # 16
 13500 6426 240C     		lsrs r4, r4, # 16
 13501 6428 2D0C     		lsrs r5, r5, # 16
 13502 642a 6043     		muls r0, r0, r4
 13503 642c 6143     		muls r1, r1, r4
 13504 642e 6A43     		muls r2, r2, r5
 13505 6430 6B43     		muls r3, r3, r5
 13506 6432 8011     		asrs r0, r0, # 6
 13507 6434 8911     		asrs r1, r1, # 6
 13508 6436 9211     		asrs r2, r2, # 6
 13509 6438 9B11     		asrs r3, r3, # 6
 13510 643a 8018     		adds r0, r0, r2         @r
 13511 643c C918     		adds r1, r1, r3         @i
 13512 643e 3618     		adds r6, r6, r0
 13513 6440 7F18     		adds r7, r7, r1
 13514              	
 13515 6442 DD46     		mov sp, r11
 13516 6444 0FBC     		pop {r0-r3}
 13517 6446 EB46     		mov r11, sp
 13518 6448 D546     		mov sp, r10
 13519 644a 10BC     		pop {r4}
 13520 644c EA46     		mov r10, sp
 13521 644e 2546     		mov r5, r4
 13522 6450 2404     		lsls r4, r4, # 16
 13523 6452 240C     		lsrs r4, r4, # 16
 13524 6454 2D0C     		lsrs r5, r5, # 16
 13525 6456 6043     		muls r0, r0, r4
 13526 6458 6143     		muls r1, r1, r4
 13527 645a 6A43     		muls r2, r2, r5
 13528 645c 6B43     		muls r3, r3, r5
 13529 645e 8011     		asrs r0, r0, # 6
 13530 6460 8911     		asrs r1, r1, # 6
 13531 6462 9211     		asrs r2, r2, # 6
 13532 6464 9B11     		asrs r3, r3, # 6
 13533 6466 8018     		adds r0, r0, r2  @r
 13534 6468 C918     		adds r1, r1, r3  @i
 13535 646a 3618     		adds r6, r6, r0
 13536 646c 7F18     		adds r7, r7, r1
 13537              	
 13538 646e DD46     		mov sp, r11
 13539 6470 0FBC     		pop {r0-r3}
 13540 6472 EB46     		mov r11, sp
 13541 6474 D546     		mov sp, r10
 13542 6476 10BC     		pop {r4}
 13543 6478 EA46     		mov r10, sp
 13544 647a 2546     		mov r5, r4
ARM GAS  1.s 			page 239


 13545 647c 2404     		lsls r4, r4, # 16
 13546 647e 240C     		lsrs r4, r4, # 16
 13547 6480 2D0C     		lsrs r5, r5, # 16
 13548 6482 6043     		muls r0, r0, r4
 13549 6484 6143     		muls r1, r1, r4
 13550 6486 6A43     		muls r2, r2, r5
 13551 6488 6B43     		muls r3, r3, r5
 13552 648a 8011     		asrs r0, r0, # 6
 13553 648c 8911     		asrs r1, r1, # 6
 13554 648e 9211     		asrs r2, r2, # 6
 13555 6490 9B11     		asrs r3, r3, # 6
 13556 6492 8018     		adds r0, r0, r2         @r
 13557 6494 C918     		adds r1, r1, r3         @i
 13558 6496 3618     		adds r6, r6, r0
 13559 6498 7F18     		adds r7, r7, r1
 13560              	
 13561              		@yjm13
 13562              		@0
 13563 649a DD46     		mov sp, r11
 13564 649c 0FBC     		pop {r0-r3}
 13565 649e EB46     		mov r11, sp
 13566 64a0 D546     		mov sp, r10
 13567 64a2 10BC     		pop {r4}
 13568 64a4 EA46     		mov r10, sp
 13569 64a6 2546     		mov r5, r4
 13570 64a8 2404     		lsls r4, r4, # 16
 13571 64aa 240C     		lsrs r4, r4, # 16
 13572 64ac 2D0C     		lsrs r5, r5, # 16
 13573 64ae 6043     		muls r0, r0, r4		@R
 13574 64b0 6143     		muls r1, r1, r4		@I
 13575 64b2 6A43     		muls r2, r2, r5		@R
 13576 64b4 6B43     		muls r3, r3, r5		@I
 13577 64b6 8011     		asrs r0, r0, # 6
 13578 64b8 8911     		asrs r1, r1, # 6
 13579 64ba 9211     		asrs r2, r2, # 6
 13580 64bc 9B11     		asrs r3, r3, # 6
 13581 64be 8018     		adds r0, r0, r2	 @r
 13582 64c0 C918     		adds r1, r1, r3	 @i
 13583 64c2 3618     		adds r6, r6, r0
 13584 64c4 7F18     		adds r7, r7, r1
 13585              	
 13586 64c6 DD46     		mov sp, r11
 13587 64c8 0FBC     		pop {r0-r3}
 13588 64ca EB46     		mov r11, sp
 13589 64cc D546     		mov sp, r10
 13590 64ce 10BC     		pop {r4}
 13591 64d0 EA46     		mov r10, sp
 13592 64d2 2546     		mov r5, r4
 13593 64d4 2404     		lsls r4, r4, # 16
 13594 64d6 240C     		lsrs r4, r4, # 16
 13595 64d8 2D0C     		lsrs r5, r5, # 16
 13596 64da 6043     		muls r0, r0, r4
 13597 64dc 6143     		muls r1, r1, r4
 13598 64de 6A43     		muls r2, r2, r5
 13599 64e0 6B43     		muls r3, r3, r5
 13600 64e2 8011     		asrs r0, r0, # 6
 13601 64e4 8911     		asrs r1, r1, # 6
ARM GAS  1.s 			page 240


 13602 64e6 9211     		asrs r2, r2, # 6
 13603 64e8 9B11     		asrs r3, r3, # 6
 13604 64ea 8018     		adds r0, r0, r2         @r
 13605 64ec C918     		adds r1, r1, r3         @i
 13606 64ee 3618     		adds r6, r6, r0
 13607 64f0 7F18     		adds r7, r7, r1
 13608              	
 13609 64f2 DD46     		mov sp, r11
 13610 64f4 0FBC     		pop {r0-r3}
 13611 64f6 EB46     		mov r11, sp
 13612 64f8 D546     		mov sp, r10
 13613 64fa 10BC     		pop {r4}
 13614 64fc EA46     		mov r10, sp
 13615 64fe 2546     		mov r5, r4
 13616 6500 2404     		lsls r4, r4, # 16
 13617 6502 240C     		lsrs r4, r4, # 16
 13618 6504 2D0C     		lsrs r5, r5, # 16
 13619 6506 6043     		muls r0, r0, r4
 13620 6508 6143     		muls r1, r1, r4
 13621 650a 6A43     		muls r2, r2, r5
 13622 650c 6B43     		muls r3, r3, r5
 13623 650e 8011     		asrs r0, r0, # 6
 13624 6510 8911     		asrs r1, r1, # 6
 13625 6512 9211     		asrs r2, r2, # 6
 13626 6514 9B11     		asrs r3, r3, # 6
 13627 6516 8018     		adds r0, r0, r2  @r
 13628 6518 C918     		adds r1, r1, r3  @i
 13629 651a 3618     		adds r6, r6, r0
 13630 651c 7F18     		adds r7, r7, r1
 13631              	
 13632 651e DD46     		mov sp, r11
 13633 6520 0FBC     		pop {r0-r3}
 13634 6522 EB46     		mov r11, sp
 13635 6524 D546     		mov sp, r10
 13636 6526 10BC     		pop {r4}
 13637 6528 EA46     		mov r10, sp
 13638 652a 2546     		mov r5, r4
 13639 652c 2404     		lsls r4, r4, # 16
 13640 652e 240C     		lsrs r4, r4, # 16
 13641 6530 2D0C     		lsrs r5, r5, # 16
 13642 6532 6043     		muls r0, r0, r4
 13643 6534 6143     		muls r1, r1, r4
 13644 6536 6A43     		muls r2, r2, r5
 13645 6538 6B43     		muls r3, r3, r5
 13646 653a 8011     		asrs r0, r0, # 6
 13647 653c 8911     		asrs r1, r1, # 6
 13648 653e 9211     		asrs r2, r2, # 6
 13649 6540 9B11     		asrs r3, r3, # 6
 13650 6542 8018     		adds r0, r0, r2         @r
 13651 6544 C918     		adds r1, r1, r3         @i
 13652 6546 3618     		adds r6, r6, r0
 13653 6548 7F18     		adds r7, r7, r1
 13654              	
 13655              		@1
 13656 654a DD46     		mov sp, r11
 13657 654c 0FBC     		pop {r0-r3}
 13658 654e EB46     		mov r11, sp
ARM GAS  1.s 			page 241


 13659 6550 D546     		mov sp, r10
 13660 6552 10BC     		pop {r4}
 13661 6554 EA46     		mov r10, sp
 13662 6556 2546     		mov r5, r4
 13663 6558 2404     		lsls r4, r4, # 16
 13664 655a 240C     		lsrs r4, r4, # 16
 13665 655c 2D0C     		lsrs r5, r5, # 16
 13666 655e 6043     		muls r0, r0, r4		@R
 13667 6560 6143     		muls r1, r1, r4		@I
 13668 6562 6A43     		muls r2, r2, r5		@R
 13669 6564 6B43     		muls r3, r3, r5		@I
 13670 6566 8011     		asrs r0, r0, # 6
 13671 6568 8911     		asrs r1, r1, # 6
 13672 656a 9211     		asrs r2, r2, # 6
 13673 656c 9B11     		asrs r3, r3, # 6
 13674 656e 8018     		adds r0, r0, r2	 @r
 13675 6570 C918     		adds r1, r1, r3	 @i
 13676 6572 3618     		adds r6, r6, r0
 13677 6574 7F18     		adds r7, r7, r1
 13678              	
 13679 6576 DD46     		mov sp, r11
 13680 6578 0FBC     		pop {r0-r3}
 13681 657a EB46     		mov r11, sp
 13682 657c D546     		mov sp, r10
 13683 657e 10BC     		pop {r4}
 13684 6580 EA46     		mov r10, sp
 13685 6582 2546     		mov r5, r4
 13686 6584 2404     		lsls r4, r4, # 16
 13687 6586 240C     		lsrs r4, r4, # 16
 13688 6588 2D0C     		lsrs r5, r5, # 16
 13689 658a 6043     		muls r0, r0, r4
 13690 658c 6143     		muls r1, r1, r4
 13691 658e 6A43     		muls r2, r2, r5
 13692 6590 6B43     		muls r3, r3, r5
 13693 6592 8011     		asrs r0, r0, # 6
 13694 6594 8911     		asrs r1, r1, # 6
 13695 6596 9211     		asrs r2, r2, # 6
 13696 6598 9B11     		asrs r3, r3, # 6
 13697 659a 8018     		adds r0, r0, r2         @r
 13698 659c C918     		adds r1, r1, r3         @i
 13699 659e 3618     		adds r6, r6, r0
 13700 65a0 7F18     		adds r7, r7, r1
 13701              	
 13702 65a2 DD46     		mov sp, r11
 13703 65a4 0FBC     		pop {r0-r3}
 13704 65a6 EB46     		mov r11, sp
 13705 65a8 D546     		mov sp, r10
 13706 65aa 10BC     		pop {r4}
 13707 65ac EA46     		mov r10, sp
 13708 65ae 2546     		mov r5, r4
 13709 65b0 2404     		lsls r4, r4, # 16
 13710 65b2 240C     		lsrs r4, r4, # 16
 13711 65b4 2D0C     		lsrs r5, r5, # 16
 13712 65b6 6043     		muls r0, r0, r4
 13713 65b8 6143     		muls r1, r1, r4
 13714 65ba 6A43     		muls r2, r2, r5
 13715 65bc 6B43     		muls r3, r3, r5
ARM GAS  1.s 			page 242


 13716 65be 8011     		asrs r0, r0, # 6
 13717 65c0 8911     		asrs r1, r1, # 6
 13718 65c2 9211     		asrs r2, r2, # 6
 13719 65c4 9B11     		asrs r3, r3, # 6
 13720 65c6 8018     		adds r0, r0, r2  @r
 13721 65c8 C918     		adds r1, r1, r3  @i
 13722 65ca 3618     		adds r6, r6, r0
 13723 65cc 7F18     		adds r7, r7, r1
 13724              	
 13725 65ce DD46     		mov sp, r11
 13726 65d0 0FBC     		pop {r0-r3}
 13727 65d2 EB46     		mov r11, sp
 13728 65d4 D546     		mov sp, r10
 13729 65d6 10BC     		pop {r4}
 13730 65d8 EA46     		mov r10, sp
 13731 65da 2546     		mov r5, r4
 13732 65dc 2404     		lsls r4, r4, # 16
 13733 65de 240C     		lsrs r4, r4, # 16
 13734 65e0 2D0C     		lsrs r5, r5, # 16
 13735 65e2 6043     		muls r0, r0, r4
 13736 65e4 6143     		muls r1, r1, r4
 13737 65e6 6A43     		muls r2, r2, r5
 13738 65e8 6B43     		muls r3, r3, r5
 13739 65ea 8011     		asrs r0, r0, # 6
 13740 65ec 8911     		asrs r1, r1, # 6
 13741 65ee 9211     		asrs r2, r2, # 6
 13742 65f0 9B11     		asrs r3, r3, # 6
 13743 65f2 8018     		adds r0, r0, r2         @r
 13744 65f4 C918     		adds r1, r1, r3         @i
 13745 65f6 3618     		adds r6, r6, r0
 13746 65f8 7F18     		adds r7, r7, r1
 13747              	
 13748              		@2
 13749 65fa DD46     		mov sp, r11
 13750 65fc 0FBC     		pop {r0-r3}
 13751 65fe EB46     		mov r11, sp
 13752 6600 D546     		mov sp, r10
 13753 6602 10BC     		pop {r4}
 13754 6604 EA46     		mov r10, sp
 13755 6606 2546     		mov r5, r4
 13756 6608 2404     		lsls r4, r4, # 16
 13757 660a 240C     		lsrs r4, r4, # 16
 13758 660c 2D0C     		lsrs r5, r5, # 16
 13759 660e 6043     		muls r0, r0, r4		@R
 13760 6610 6143     		muls r1, r1, r4		@I
 13761 6612 6A43     		muls r2, r2, r5		@R
 13762 6614 6B43     		muls r3, r3, r5		@I
 13763 6616 8011     		asrs r0, r0, # 6
 13764 6618 8911     		asrs r1, r1, # 6
 13765 661a 9211     		asrs r2, r2, # 6
 13766 661c 9B11     		asrs r3, r3, # 6
 13767 661e 8018     		adds r0, r0, r2	 @r
 13768 6620 C918     		adds r1, r1, r3	 @i
 13769 6622 3618     		adds r6, r6, r0
 13770 6624 7F18     		adds r7, r7, r1
 13771              	
 13772 6626 DD46     		mov sp, r11
ARM GAS  1.s 			page 243


 13773 6628 0FBC     		pop {r0-r3}
 13774 662a EB46     		mov r11, sp
 13775 662c D546     		mov sp, r10
 13776 662e 10BC     		pop {r4}
 13777 6630 EA46     		mov r10, sp
 13778 6632 2546     		mov r5, r4
 13779 6634 2404     		lsls r4, r4, # 16
 13780 6636 240C     		lsrs r4, r4, # 16
 13781 6638 2D0C     		lsrs r5, r5, # 16
 13782 663a 6043     		muls r0, r0, r4
 13783 663c 6143     		muls r1, r1, r4
 13784 663e 6A43     		muls r2, r2, r5
 13785 6640 6B43     		muls r3, r3, r5
 13786 6642 8011     		asrs r0, r0, # 6
 13787 6644 8911     		asrs r1, r1, # 6
 13788 6646 9211     		asrs r2, r2, # 6
 13789 6648 9B11     		asrs r3, r3, # 6
 13790 664a 8018     		adds r0, r0, r2         @r
 13791 664c C918     		adds r1, r1, r3         @i
 13792 664e 3618     		adds r6, r6, r0
 13793 6650 7F18     		adds r7, r7, r1
 13794              	
 13795 6652 DD46     		mov sp, r11
 13796 6654 0FBC     		pop {r0-r3}
 13797 6656 EB46     		mov r11, sp
 13798 6658 D546     		mov sp, r10
 13799 665a 10BC     		pop {r4}
 13800 665c EA46     		mov r10, sp
 13801 665e 2546     		mov r5, r4
 13802 6660 2404     		lsls r4, r4, # 16
 13803 6662 240C     		lsrs r4, r4, # 16
 13804 6664 2D0C     		lsrs r5, r5, # 16
 13805 6666 6043     		muls r0, r0, r4
 13806 6668 6143     		muls r1, r1, r4
 13807 666a 6A43     		muls r2, r2, r5
 13808 666c 6B43     		muls r3, r3, r5
 13809 666e 8011     		asrs r0, r0, # 6
 13810 6670 8911     		asrs r1, r1, # 6
 13811 6672 9211     		asrs r2, r2, # 6
 13812 6674 9B11     		asrs r3, r3, # 6
 13813 6676 8018     		adds r0, r0, r2  @r
 13814 6678 C918     		adds r1, r1, r3  @i
 13815 667a 3618     		adds r6, r6, r0
 13816 667c 7F18     		adds r7, r7, r1
 13817              	
 13818 667e DD46     		mov sp, r11
 13819 6680 0FBC     		pop {r0-r3}
 13820 6682 EB46     		mov r11, sp
 13821 6684 D546     		mov sp, r10
 13822 6686 10BC     		pop {r4}
 13823 6688 EA46     		mov r10, sp
 13824 668a 2546     		mov r5, r4
 13825 668c 2404     		lsls r4, r4, # 16
 13826 668e 240C     		lsrs r4, r4, # 16
 13827 6690 2D0C     		lsrs r5, r5, # 16
 13828 6692 6043     		muls r0, r0, r4
 13829 6694 6143     		muls r1, r1, r4
ARM GAS  1.s 			page 244


 13830 6696 6A43     		muls r2, r2, r5
 13831 6698 6B43     		muls r3, r3, r5
 13832 669a 8011     		asrs r0, r0, # 6
 13833 669c 8911     		asrs r1, r1, # 6
 13834 669e 9211     		asrs r2, r2, # 6
 13835 66a0 9B11     		asrs r3, r3, # 6
 13836 66a2 8018     		adds r0, r0, r2         @r
 13837 66a4 C918     		adds r1, r1, r3         @i
 13838 66a6 3618     		adds r6, r6, r0
 13839 66a8 7F18     		adds r7, r7, r1
 13840              	
 13841              		@3
 13842 66aa DD46     		mov sp, r11
 13843 66ac 0FBC     		pop {r0-r3}
 13844 66ae EB46     		mov r11, sp
 13845 66b0 D546     		mov sp, r10
 13846 66b2 10BC     		pop {r4}
 13847 66b4 EA46     		mov r10, sp
 13848 66b6 2546     		mov r5, r4
 13849 66b8 2404     		lsls r4, r4, # 16
 13850 66ba 240C     		lsrs r4, r4, # 16
 13851 66bc 2D0C     		lsrs r5, r5, # 16
 13852 66be 6043     		muls r0, r0, r4		@R
 13853 66c0 6143     		muls r1, r1, r4		@I
 13854 66c2 6A43     		muls r2, r2, r5		@R
 13855 66c4 6B43     		muls r3, r3, r5		@I
 13856 66c6 8011     		asrs r0, r0, # 6
 13857 66c8 8911     		asrs r1, r1, # 6
 13858 66ca 9211     		asrs r2, r2, # 6
 13859 66cc 9B11     		asrs r3, r3, # 6
 13860 66ce 8018     		adds r0, r0, r2	 @r
 13861 66d0 C918     		adds r1, r1, r3	 @i
 13862 66d2 3618     		adds r6, r6, r0
 13863 66d4 7F18     		adds r7, r7, r1
 13864              	
 13865 66d6 DD46     		mov sp, r11
 13866 66d8 0FBC     		pop {r0-r3}
 13867 66da EB46     		mov r11, sp
 13868 66dc D546     		mov sp, r10
 13869 66de 10BC     		pop {r4}
 13870 66e0 EA46     		mov r10, sp
 13871 66e2 2546     		mov r5, r4
 13872 66e4 2404     		lsls r4, r4, # 16
 13873 66e6 240C     		lsrs r4, r4, # 16
 13874 66e8 2D0C     		lsrs r5, r5, # 16
 13875 66ea 6043     		muls r0, r0, r4
 13876 66ec 6143     		muls r1, r1, r4
 13877 66ee 6A43     		muls r2, r2, r5
 13878 66f0 6B43     		muls r3, r3, r5
 13879 66f2 8011     		asrs r0, r0, # 6
 13880 66f4 8911     		asrs r1, r1, # 6
 13881 66f6 9211     		asrs r2, r2, # 6
 13882 66f8 9B11     		asrs r3, r3, # 6
 13883 66fa 8018     		adds r0, r0, r2         @r
 13884 66fc C918     		adds r1, r1, r3         @i
 13885 66fe 3618     		adds r6, r6, r0
 13886 6700 7F18     		adds r7, r7, r1
ARM GAS  1.s 			page 245


 13887              	
 13888 6702 DD46     		mov sp, r11
 13889 6704 0FBC     		pop {r0-r3}
 13890 6706 EB46     		mov r11, sp
 13891 6708 D546     		mov sp, r10
 13892 670a 10BC     		pop {r4}
 13893 670c EA46     		mov r10, sp
 13894 670e 2546     		mov r5, r4
 13895 6710 2404     		lsls r4, r4, # 16
 13896 6712 240C     		lsrs r4, r4, # 16
 13897 6714 2D0C     		lsrs r5, r5, # 16
 13898 6716 6043     		muls r0, r0, r4
 13899 6718 6143     		muls r1, r1, r4
 13900 671a 6A43     		muls r2, r2, r5
 13901 671c 6B43     		muls r3, r3, r5
 13902 671e 8011     		asrs r0, r0, # 6
 13903 6720 8911     		asrs r1, r1, # 6
 13904 6722 9211     		asrs r2, r2, # 6
 13905 6724 9B11     		asrs r3, r3, # 6
 13906 6726 8018     		adds r0, r0, r2  @r
 13907 6728 C918     		adds r1, r1, r3  @i
 13908 672a 3618     		adds r6, r6, r0
 13909 672c 7F18     		adds r7, r7, r1
 13910              	
 13911 672e DD46     		mov sp, r11
 13912 6730 0FBC     		pop {r0-r3}
 13913 6732 EB46     		mov r11, sp
 13914 6734 D546     		mov sp, r10
 13915 6736 10BC     		pop {r4}
 13916 6738 EA46     		mov r10, sp
 13917 673a 2546     		mov r5, r4
 13918 673c 2404     		lsls r4, r4, # 16
 13919 673e 240C     		lsrs r4, r4, # 16
 13920 6740 2D0C     		lsrs r5, r5, # 16
 13921 6742 6043     		muls r0, r0, r4
 13922 6744 6143     		muls r1, r1, r4
 13923 6746 6A43     		muls r2, r2, r5
 13924 6748 6B43     		muls r3, r3, r5
 13925 674a 8011     		asrs r0, r0, # 6
 13926 674c 8911     		asrs r1, r1, # 6
 13927 674e 9211     		asrs r2, r2, # 6
 13928 6750 9B11     		asrs r3, r3, # 6
 13929 6752 8018     		adds r0, r0, r2         @r
 13930 6754 C918     		adds r1, r1, r3         @i
 13931 6756 3618     		adds r6, r6, r0
 13932 6758 7F18     		adds r7, r7, r1
 13933              	
 13934              		@4
 13935 675a DD46     		mov sp, r11
 13936 675c 0FBC     		pop {r0-r3}
 13937 675e EB46     		mov r11, sp
 13938 6760 D546     		mov sp, r10
 13939 6762 10BC     		pop {r4}
 13940 6764 EA46     		mov r10, sp
 13941 6766 2546     		mov r5, r4
 13942 6768 2404     		lsls r4, r4, # 16
 13943 676a 240C     		lsrs r4, r4, # 16
ARM GAS  1.s 			page 246


 13944 676c 2D0C     		lsrs r5, r5, # 16
 13945 676e 6043     		muls r0, r0, r4		@R
 13946 6770 6143     		muls r1, r1, r4		@I
 13947 6772 6A43     		muls r2, r2, r5		@R
 13948 6774 6B43     		muls r3, r3, r5		@I
 13949 6776 8011     		asrs r0, r0, # 6
 13950 6778 8911     		asrs r1, r1, # 6
 13951 677a 9211     		asrs r2, r2, # 6
 13952 677c 9B11     		asrs r3, r3, # 6
 13953 677e 8018     		adds r0, r0, r2	 @r
 13954 6780 C918     		adds r1, r1, r3	 @i
 13955 6782 3618     		adds r6, r6, r0
 13956 6784 7F18     		adds r7, r7, r1
 13957              	
 13958 6786 DD46     		mov sp, r11
 13959 6788 0FBC     		pop {r0-r3}
 13960 678a EB46     		mov r11, sp
 13961 678c D546     		mov sp, r10
 13962 678e 10BC     		pop {r4}
 13963 6790 EA46     		mov r10, sp
 13964 6792 2546     		mov r5, r4
 13965 6794 2404     		lsls r4, r4, # 16
 13966 6796 240C     		lsrs r4, r4, # 16
 13967 6798 2D0C     		lsrs r5, r5, # 16
 13968 679a 6043     		muls r0, r0, r4
 13969 679c 6143     		muls r1, r1, r4
 13970 679e 6A43     		muls r2, r2, r5
 13971 67a0 6B43     		muls r3, r3, r5
 13972 67a2 8011     		asrs r0, r0, # 6
 13973 67a4 8911     		asrs r1, r1, # 6
 13974 67a6 9211     		asrs r2, r2, # 6
 13975 67a8 9B11     		asrs r3, r3, # 6
 13976 67aa 8018     		adds r0, r0, r2         @r
 13977 67ac C918     		adds r1, r1, r3         @i
 13978 67ae 3618     		adds r6, r6, r0
 13979 67b0 7F18     		adds r7, r7, r1
 13980              	
 13981 67b2 DD46     		mov sp, r11
 13982 67b4 0FBC     		pop {r0-r3}
 13983 67b6 EB46     		mov r11, sp
 13984 67b8 D546     		mov sp, r10
 13985 67ba 10BC     		pop {r4}
 13986 67bc EA46     		mov r10, sp
 13987 67be 2546     		mov r5, r4
 13988 67c0 2404     		lsls r4, r4, # 16
 13989 67c2 240C     		lsrs r4, r4, # 16
 13990 67c4 2D0C     		lsrs r5, r5, # 16
 13991 67c6 6043     		muls r0, r0, r4
 13992 67c8 6143     		muls r1, r1, r4
 13993 67ca 6A43     		muls r2, r2, r5
 13994 67cc 6B43     		muls r3, r3, r5
 13995 67ce 8011     		asrs r0, r0, # 6
 13996 67d0 8911     		asrs r1, r1, # 6
 13997 67d2 9211     		asrs r2, r2, # 6
 13998 67d4 9B11     		asrs r3, r3, # 6
 13999 67d6 8018     		adds r0, r0, r2  @r
 14000 67d8 C918     		adds r1, r1, r3  @i
ARM GAS  1.s 			page 247


 14001 67da 3618     		adds r6, r6, r0
 14002 67dc 7F18     		adds r7, r7, r1
 14003              	
 14004 67de DD46     		mov sp, r11
 14005 67e0 0FBC     		pop {r0-r3}
 14006 67e2 EB46     		mov r11, sp
 14007 67e4 D546     		mov sp, r10
 14008 67e6 10BC     		pop {r4}
 14009 67e8 EA46     		mov r10, sp
 14010 67ea 2546     		mov r5, r4
 14011 67ec 2404     		lsls r4, r4, # 16
 14012 67ee 240C     		lsrs r4, r4, # 16
 14013 67f0 2D0C     		lsrs r5, r5, # 16
 14014 67f2 6043     		muls r0, r0, r4
 14015 67f4 6143     		muls r1, r1, r4
 14016 67f6 6A43     		muls r2, r2, r5
 14017 67f8 6B43     		muls r3, r3, r5
 14018 67fa 8011     		asrs r0, r0, # 6
 14019 67fc 8911     		asrs r1, r1, # 6
 14020 67fe 9211     		asrs r2, r2, # 6
 14021 6800 9B11     		asrs r3, r3, # 6
 14022 6802 8018     		adds r0, r0, r2         @r
 14023 6804 C918     		adds r1, r1, r3         @i
 14024 6806 3618     		adds r6, r6, r0
 14025 6808 7F18     		adds r7, r7, r1
 14026              	
 14027              		@5
 14028 680a DD46     		mov sp, r11
 14029 680c 0FBC     		pop {r0-r3}
 14030 680e EB46     		mov r11, sp
 14031 6810 D546     		mov sp, r10
 14032 6812 10BC     		pop {r4}
 14033 6814 EA46     		mov r10, sp
 14034 6816 2546     		mov r5, r4
 14035 6818 2404     		lsls r4, r4, # 16
 14036 681a 240C     		lsrs r4, r4, # 16
 14037 681c 2D0C     		lsrs r5, r5, # 16
 14038 681e 6043     		muls r0, r0, r4		@R
 14039 6820 6143     		muls r1, r1, r4		@I
 14040 6822 6A43     		muls r2, r2, r5		@R
 14041 6824 6B43     		muls r3, r3, r5		@I
 14042 6826 8011     		asrs r0, r0, # 6
 14043 6828 8911     		asrs r1, r1, # 6
 14044 682a 9211     		asrs r2, r2, # 6
 14045 682c 9B11     		asrs r3, r3, # 6
 14046 682e 8018     		adds r0, r0, r2	 @r
 14047 6830 C918     		adds r1, r1, r3	 @i
 14048 6832 3618     		adds r6, r6, r0
 14049 6834 7F18     		adds r7, r7, r1
 14050              	
 14051 6836 DD46     		mov sp, r11
 14052 6838 0FBC     		pop {r0-r3}
 14053 683a EB46     		mov r11, sp
 14054 683c D546     		mov sp, r10
 14055 683e 10BC     		pop {r4}
 14056 6840 EA46     		mov r10, sp
 14057 6842 2546     		mov r5, r4
ARM GAS  1.s 			page 248


 14058 6844 2404     		lsls r4, r4, # 16
 14059 6846 240C     		lsrs r4, r4, # 16
 14060 6848 2D0C     		lsrs r5, r5, # 16
 14061 684a 6043     		muls r0, r0, r4
 14062 684c 6143     		muls r1, r1, r4
 14063 684e 6A43     		muls r2, r2, r5
 14064 6850 6B43     		muls r3, r3, r5
 14065 6852 8011     		asrs r0, r0, # 6
 14066 6854 8911     		asrs r1, r1, # 6
 14067 6856 9211     		asrs r2, r2, # 6
 14068 6858 9B11     		asrs r3, r3, # 6
 14069 685a 8018     		adds r0, r0, r2         @r
 14070 685c C918     		adds r1, r1, r3         @i
 14071 685e 3618     		adds r6, r6, r0
 14072 6860 7F18     		adds r7, r7, r1
 14073              	
 14074 6862 DD46     		mov sp, r11
 14075 6864 0FBC     		pop {r0-r3}
 14076 6866 EB46     		mov r11, sp
 14077 6868 D546     		mov sp, r10
 14078 686a 10BC     		pop {r4}
 14079 686c EA46     		mov r10, sp
 14080 686e 2546     		mov r5, r4
 14081 6870 2404     		lsls r4, r4, # 16
 14082 6872 240C     		lsrs r4, r4, # 16
 14083 6874 2D0C     		lsrs r5, r5, # 16
 14084 6876 6043     		muls r0, r0, r4
 14085 6878 6143     		muls r1, r1, r4
 14086 687a 6A43     		muls r2, r2, r5
 14087 687c 6B43     		muls r3, r3, r5
 14088 687e 8011     		asrs r0, r0, # 6
 14089 6880 8911     		asrs r1, r1, # 6
 14090 6882 9211     		asrs r2, r2, # 6
 14091 6884 9B11     		asrs r3, r3, # 6
 14092 6886 8018     		adds r0, r0, r2  @r
 14093 6888 C918     		adds r1, r1, r3  @i
 14094 688a 3618     		adds r6, r6, r0
 14095 688c 7F18     		adds r7, r7, r1
 14096              	
 14097 688e DD46     		mov sp, r11
 14098 6890 0FBC     		pop {r0-r3}
 14099 6892 EB46     		mov r11, sp
 14100 6894 D546     		mov sp, r10
 14101 6896 10BC     		pop {r4}
 14102 6898 EA46     		mov r10, sp
 14103 689a 2546     		mov r5, r4
 14104 689c 2404     		lsls r4, r4, # 16
 14105 689e 240C     		lsrs r4, r4, # 16
 14106 68a0 2D0C     		lsrs r5, r5, # 16
 14107 68a2 6043     		muls r0, r0, r4
 14108 68a4 6143     		muls r1, r1, r4
 14109 68a6 6A43     		muls r2, r2, r5
 14110 68a8 6B43     		muls r3, r3, r5
 14111 68aa 8011     		asrs r0, r0, # 6
 14112 68ac 8911     		asrs r1, r1, # 6
 14113 68ae 9211     		asrs r2, r2, # 6
 14114 68b0 9B11     		asrs r3, r3, # 6
ARM GAS  1.s 			page 249


 14115 68b2 8018     		adds r0, r0, r2         @r
 14116 68b4 C918     		adds r1, r1, r3         @i
 14117 68b6 3618     		adds r6, r6, r0
 14118 68b8 7F18     		adds r7, r7, r1
 14119              	
 14120              		@6
 14121 68ba DD46     		mov sp, r11
 14122 68bc 0FBC     		pop {r0-r3}
 14123 68be EB46     		mov r11, sp
 14124 68c0 D546     		mov sp, r10
 14125 68c2 10BC     		pop {r4}
 14126 68c4 EA46     		mov r10, sp
 14127 68c6 2546     		mov r5, r4
 14128 68c8 2404     		lsls r4, r4, # 16
 14129 68ca 240C     		lsrs r4, r4, # 16
 14130 68cc 2D0C     		lsrs r5, r5, # 16
 14131 68ce 6043     		muls r0, r0, r4		@R
 14132 68d0 6143     		muls r1, r1, r4		@I
 14133 68d2 6A43     		muls r2, r2, r5		@R
 14134 68d4 6B43     		muls r3, r3, r5		@I
 14135 68d6 8011     		asrs r0, r0, # 6
 14136 68d8 8911     		asrs r1, r1, # 6
 14137 68da 9211     		asrs r2, r2, # 6
 14138 68dc 9B11     		asrs r3, r3, # 6
 14139 68de 8018     		adds r0, r0, r2	 @r
 14140 68e0 C918     		adds r1, r1, r3	 @i
 14141 68e2 3618     		adds r6, r6, r0
 14142 68e4 7F18     		adds r7, r7, r1
 14143              	
 14144 68e6 DD46     		mov sp, r11
 14145 68e8 0FBC     		pop {r0-r3}
 14146 68ea EB46     		mov r11, sp
 14147 68ec D546     		mov sp, r10
 14148 68ee 10BC     		pop {r4}
 14149 68f0 EA46     		mov r10, sp
 14150 68f2 2546     		mov r5, r4
 14151 68f4 2404     		lsls r4, r4, # 16
 14152 68f6 240C     		lsrs r4, r4, # 16
 14153 68f8 2D0C     		lsrs r5, r5, # 16
 14154 68fa 6043     		muls r0, r0, r4
 14155 68fc 6143     		muls r1, r1, r4
 14156 68fe 6A43     		muls r2, r2, r5
 14157 6900 6B43     		muls r3, r3, r5
 14158 6902 8011     		asrs r0, r0, # 6
 14159 6904 8911     		asrs r1, r1, # 6
 14160 6906 9211     		asrs r2, r2, # 6
 14161 6908 9B11     		asrs r3, r3, # 6
 14162 690a 8018     		adds r0, r0, r2         @r
 14163 690c C918     		adds r1, r1, r3         @i
 14164 690e 3618     		adds r6, r6, r0
 14165 6910 7F18     		adds r7, r7, r1
 14166              	
 14167 6912 DD46     		mov sp, r11
 14168 6914 0FBC     		pop {r0-r3}
 14169 6916 EB46     		mov r11, sp
 14170 6918 D546     		mov sp, r10
 14171 691a 10BC     		pop {r4}
ARM GAS  1.s 			page 250


 14172 691c EA46     		mov r10, sp
 14173 691e 2546     		mov r5, r4
 14174 6920 2404     		lsls r4, r4, # 16
 14175 6922 240C     		lsrs r4, r4, # 16
 14176 6924 2D0C     		lsrs r5, r5, # 16
 14177 6926 6043     		muls r0, r0, r4
 14178 6928 6143     		muls r1, r1, r4
 14179 692a 6A43     		muls r2, r2, r5
 14180 692c 6B43     		muls r3, r3, r5
 14181 692e 8011     		asrs r0, r0, # 6
 14182 6930 8911     		asrs r1, r1, # 6
 14183 6932 9211     		asrs r2, r2, # 6
 14184 6934 9B11     		asrs r3, r3, # 6
 14185 6936 8018     		adds r0, r0, r2  @r
 14186 6938 C918     		adds r1, r1, r3  @i
 14187 693a 3618     		adds r6, r6, r0
 14188 693c 7F18     		adds r7, r7, r1
 14189              	
 14190 693e DD46     		mov sp, r11
 14191 6940 0FBC     		pop {r0-r3}
 14192 6942 EB46     		mov r11, sp
 14193 6944 D546     		mov sp, r10
 14194 6946 10BC     		pop {r4}
 14195 6948 EA46     		mov r10, sp
 14196 694a 2546     		mov r5, r4
 14197 694c 2404     		lsls r4, r4, # 16
 14198 694e 240C     		lsrs r4, r4, # 16
 14199 6950 2D0C     		lsrs r5, r5, # 16
 14200 6952 6043     		muls r0, r0, r4
 14201 6954 6143     		muls r1, r1, r4
 14202 6956 6A43     		muls r2, r2, r5
 14203 6958 6B43     		muls r3, r3, r5
 14204 695a 8011     		asrs r0, r0, # 6
 14205 695c 8911     		asrs r1, r1, # 6
 14206 695e 9211     		asrs r2, r2, # 6
 14207 6960 9B11     		asrs r3, r3, # 6
 14208 6962 8018     		adds r0, r0, r2         @r
 14209 6964 C918     		adds r1, r1, r3         @i
 14210 6966 3618     		adds r6, r6, r0
 14211 6968 7F18     		adds r7, r7, r1
 14212              	
 14213              		@7
 14214 696a DD46     		mov sp, r11
 14215 696c 0FBC     		pop {r0-r3}
 14216 696e EB46     		mov r11, sp
 14217 6970 D546     		mov sp, r10
 14218 6972 10BC     		pop {r4}
 14219 6974 EA46     		mov r10, sp
 14220 6976 2546     		mov r5, r4
 14221 6978 2404     		lsls r4, r4, # 16
 14222 697a 240C     		lsrs r4, r4, # 16
 14223 697c 2D0C     		lsrs r5, r5, # 16
 14224 697e 6043     		muls r0, r0, r4		@R
 14225 6980 6143     		muls r1, r1, r4		@I
 14226 6982 6A43     		muls r2, r2, r5		@R
 14227 6984 6B43     		muls r3, r3, r5		@I
 14228 6986 8011     		asrs r0, r0, # 6
ARM GAS  1.s 			page 251


 14229 6988 8911     		asrs r1, r1, # 6
 14230 698a 9211     		asrs r2, r2, # 6
 14231 698c 9B11     		asrs r3, r3, # 6
 14232 698e 8018     		adds r0, r0, r2	 @r
 14233 6990 C918     		adds r1, r1, r3	 @i
 14234 6992 3618     		adds r6, r6, r0
 14235 6994 7F18     		adds r7, r7, r1
 14236              	
 14237 6996 DD46     		mov sp, r11
 14238 6998 0FBC     		pop {r0-r3}
 14239 699a EB46     		mov r11, sp
 14240 699c D546     		mov sp, r10
 14241 699e 10BC     		pop {r4}
 14242 69a0 EA46     		mov r10, sp
 14243 69a2 2546     		mov r5, r4
 14244 69a4 2404     		lsls r4, r4, # 16
 14245 69a6 240C     		lsrs r4, r4, # 16
 14246 69a8 2D0C     		lsrs r5, r5, # 16
 14247 69aa 6043     		muls r0, r0, r4
 14248 69ac 6143     		muls r1, r1, r4
 14249 69ae 6A43     		muls r2, r2, r5
 14250 69b0 6B43     		muls r3, r3, r5
 14251 69b2 8011     		asrs r0, r0, # 6
 14252 69b4 8911     		asrs r1, r1, # 6
 14253 69b6 9211     		asrs r2, r2, # 6
 14254 69b8 9B11     		asrs r3, r3, # 6
 14255 69ba 8018     		adds r0, r0, r2         @r
 14256 69bc C918     		adds r1, r1, r3         @i
 14257 69be 3618     		adds r6, r6, r0
 14258 69c0 7F18     		adds r7, r7, r1
 14259              	
 14260 69c2 DD46     		mov sp, r11
 14261 69c4 0FBC     		pop {r0-r3}
 14262 69c6 EB46     		mov r11, sp
 14263 69c8 D546     		mov sp, r10
 14264 69ca 10BC     		pop {r4}
 14265 69cc EA46     		mov r10, sp
 14266 69ce 2546     		mov r5, r4
 14267 69d0 2404     		lsls r4, r4, # 16
 14268 69d2 240C     		lsrs r4, r4, # 16
 14269 69d4 2D0C     		lsrs r5, r5, # 16
 14270 69d6 6043     		muls r0, r0, r4
 14271 69d8 6143     		muls r1, r1, r4
 14272 69da 6A43     		muls r2, r2, r5
 14273 69dc 6B43     		muls r3, r3, r5
 14274 69de 8011     		asrs r0, r0, # 6
 14275 69e0 8911     		asrs r1, r1, # 6
 14276 69e2 9211     		asrs r2, r2, # 6
 14277 69e4 9B11     		asrs r3, r3, # 6
 14278 69e6 8018     		adds r0, r0, r2  @r
 14279 69e8 C918     		adds r1, r1, r3  @i
 14280 69ea 3618     		adds r6, r6, r0
 14281 69ec 7F18     		adds r7, r7, r1
 14282              	
 14283 69ee DD46     		mov sp, r11
 14284 69f0 0FBC     		pop {r0-r3}
 14285 69f2 EB46     		mov r11, sp
ARM GAS  1.s 			page 252


 14286 69f4 D546     		mov sp, r10
 14287 69f6 10BC     		pop {r4}
 14288 69f8 EA46     		mov r10, sp
 14289 69fa 2546     		mov r5, r4
 14290 69fc 2404     		lsls r4, r4, # 16
 14291 69fe 240C     		lsrs r4, r4, # 16
 14292 6a00 2D0C     		lsrs r5, r5, # 16
 14293 6a02 6043     		muls r0, r0, r4
 14294 6a04 6143     		muls r1, r1, r4
 14295 6a06 6A43     		muls r2, r2, r5
 14296 6a08 6B43     		muls r3, r3, r5
 14297 6a0a 8011     		asrs r0, r0, # 6
 14298 6a0c 8911     		asrs r1, r1, # 6
 14299 6a0e 9211     		asrs r2, r2, # 6
 14300 6a10 9B11     		asrs r3, r3, # 6
 14301 6a12 8018     		adds r0, r0, r2         @r
 14302 6a14 C918     		adds r1, r1, r3         @i
 14303 6a16 3618     		adds r6, r6, r0
 14304 6a18 7F18     		adds r7, r7, r1
 14305              	
 14306              		@8
 14307 6a1a DD46     		mov sp, r11
 14308 6a1c 0FBC     		pop {r0-r3}
 14309 6a1e EB46     		mov r11, sp
 14310 6a20 D546     		mov sp, r10
 14311 6a22 10BC     		pop {r4}
 14312 6a24 EA46     		mov r10, sp
 14313 6a26 2546     		mov r5, r4
 14314 6a28 2404     		lsls r4, r4, # 16
 14315 6a2a 240C     		lsrs r4, r4, # 16
 14316 6a2c 2D0C     		lsrs r5, r5, # 16
 14317 6a2e 6043     		muls r0, r0, r4		@R
 14318 6a30 6143     		muls r1, r1, r4		@I
 14319 6a32 6A43     		muls r2, r2, r5		@R
 14320 6a34 6B43     		muls r3, r3, r5		@I
 14321 6a36 8011     		asrs r0, r0, # 6
 14322 6a38 8911     		asrs r1, r1, # 6
 14323 6a3a 9211     		asrs r2, r2, # 6
 14324 6a3c 9B11     		asrs r3, r3, # 6
 14325 6a3e 8018     		adds r0, r0, r2	 @r
 14326 6a40 C918     		adds r1, r1, r3	 @i
 14327 6a42 3618     		adds r6, r6, r0
 14328 6a44 7F18     		adds r7, r7, r1
 14329              	
 14330 6a46 DD46     		mov sp, r11
 14331 6a48 0FBC     		pop {r0-r3}
 14332 6a4a EB46     		mov r11, sp
 14333 6a4c D546     		mov sp, r10
 14334 6a4e 10BC     		pop {r4}
 14335 6a50 EA46     		mov r10, sp
 14336 6a52 2546     		mov r5, r4
 14337 6a54 2404     		lsls r4, r4, # 16
 14338 6a56 240C     		lsrs r4, r4, # 16
 14339 6a58 2D0C     		lsrs r5, r5, # 16
 14340 6a5a 6043     		muls r0, r0, r4
 14341 6a5c 6143     		muls r1, r1, r4
 14342 6a5e 6A43     		muls r2, r2, r5
ARM GAS  1.s 			page 253


 14343 6a60 6B43     		muls r3, r3, r5
 14344 6a62 8011     		asrs r0, r0, # 6
 14345 6a64 8911     		asrs r1, r1, # 6
 14346 6a66 9211     		asrs r2, r2, # 6
 14347 6a68 9B11     		asrs r3, r3, # 6
 14348 6a6a 8018     		adds r0, r0, r2         @r
 14349 6a6c C918     		adds r1, r1, r3         @i
 14350 6a6e 3618     		adds r6, r6, r0
 14351 6a70 7F18     		adds r7, r7, r1
 14352              	
 14353 6a72 DD46     		mov sp, r11
 14354 6a74 0FBC     		pop {r0-r3}
 14355 6a76 EB46     		mov r11, sp
 14356 6a78 D546     		mov sp, r10
 14357 6a7a 10BC     		pop {r4}
 14358 6a7c EA46     		mov r10, sp
 14359 6a7e 2546     		mov r5, r4
 14360 6a80 2404     		lsls r4, r4, # 16
 14361 6a82 240C     		lsrs r4, r4, # 16
 14362 6a84 2D0C     		lsrs r5, r5, # 16
 14363 6a86 6043     		muls r0, r0, r4
 14364 6a88 6143     		muls r1, r1, r4
 14365 6a8a 6A43     		muls r2, r2, r5
 14366 6a8c 6B43     		muls r3, r3, r5
 14367 6a8e 8011     		asrs r0, r0, # 6
 14368 6a90 8911     		asrs r1, r1, # 6
 14369 6a92 9211     		asrs r2, r2, # 6
 14370 6a94 9B11     		asrs r3, r3, # 6
 14371 6a96 8018     		adds r0, r0, r2  @r
 14372 6a98 C918     		adds r1, r1, r3  @i
 14373 6a9a 3618     		adds r6, r6, r0
 14374 6a9c 7F18     		adds r7, r7, r1
 14375              	
 14376 6a9e DD46     		mov sp, r11
 14377 6aa0 0FBC     		pop {r0-r3}
 14378 6aa2 EB46     		mov r11, sp
 14379 6aa4 D546     		mov sp, r10
 14380 6aa6 10BC     		pop {r4}
 14381 6aa8 EA46     		mov r10, sp
 14382 6aaa 2546     		mov r5, r4
 14383 6aac 2404     		lsls r4, r4, # 16
 14384 6aae 240C     		lsrs r4, r4, # 16
 14385 6ab0 2D0C     		lsrs r5, r5, # 16
 14386 6ab2 6043     		muls r0, r0, r4
 14387 6ab4 6143     		muls r1, r1, r4
 14388 6ab6 6A43     		muls r2, r2, r5
 14389 6ab8 6B43     		muls r3, r3, r5
 14390 6aba 8011     		asrs r0, r0, # 6
 14391 6abc 8911     		asrs r1, r1, # 6
 14392 6abe 9211     		asrs r2, r2, # 6
 14393 6ac0 9B11     		asrs r3, r3, # 6
 14394 6ac2 8018     		adds r0, r0, r2         @r
 14395 6ac4 C918     		adds r1, r1, r3         @i
 14396 6ac6 3618     		adds r6, r6, r0
 14397 6ac8 7F18     		adds r7, r7, r1
 14398              	
 14399              		@9
ARM GAS  1.s 			page 254


 14400 6aca DD46     		mov sp, r11
 14401 6acc 0FBC     		pop {r0-r3}
 14402 6ace EB46     		mov r11, sp
 14403 6ad0 D546     		mov sp, r10
 14404 6ad2 10BC     		pop {r4}
 14405 6ad4 EA46     		mov r10, sp
 14406 6ad6 2546     		mov r5, r4
 14407 6ad8 2404     		lsls r4, r4, # 16
 14408 6ada 240C     		lsrs r4, r4, # 16
 14409 6adc 2D0C     		lsrs r5, r5, # 16
 14410 6ade 6043     		muls r0, r0, r4		@R
 14411 6ae0 6143     		muls r1, r1, r4		@I
 14412 6ae2 6A43     		muls r2, r2, r5		@R
 14413 6ae4 6B43     		muls r3, r3, r5		@I
 14414 6ae6 8011     		asrs r0, r0, # 6
 14415 6ae8 8911     		asrs r1, r1, # 6
 14416 6aea 9211     		asrs r2, r2, # 6
 14417 6aec 9B11     		asrs r3, r3, # 6
 14418 6aee 8018     		adds r0, r0, r2	 @r
 14419 6af0 C918     		adds r1, r1, r3	 @i
 14420 6af2 3618     		adds r6, r6, r0
 14421 6af4 7F18     		adds r7, r7, r1
 14422              	
 14423 6af6 DD46     		mov sp, r11
 14424 6af8 0FBC     		pop {r0-r3}
 14425 6afa EB46     		mov r11, sp
 14426 6afc D546     		mov sp, r10
 14427 6afe 10BC     		pop {r4}
 14428 6b00 EA46     		mov r10, sp
 14429 6b02 2546     		mov r5, r4
 14430 6b04 2404     		lsls r4, r4, # 16
 14431 6b06 240C     		lsrs r4, r4, # 16
 14432 6b08 2D0C     		lsrs r5, r5, # 16
 14433 6b0a 6043     		muls r0, r0, r4
 14434 6b0c 6143     		muls r1, r1, r4
 14435 6b0e 6A43     		muls r2, r2, r5
 14436 6b10 6B43     		muls r3, r3, r5
 14437 6b12 8011     		asrs r0, r0, # 6
 14438 6b14 8911     		asrs r1, r1, # 6
 14439 6b16 9211     		asrs r2, r2, # 6
 14440 6b18 9B11     		asrs r3, r3, # 6
 14441 6b1a 8018     		adds r0, r0, r2         @r
 14442 6b1c C918     		adds r1, r1, r3         @i
 14443 6b1e 3618     		adds r6, r6, r0
 14444 6b20 7F18     		adds r7, r7, r1
 14445              	
 14446 6b22 DD46     		mov sp, r11
 14447 6b24 0FBC     		pop {r0-r3}
 14448 6b26 EB46     		mov r11, sp
 14449 6b28 D546     		mov sp, r10
 14450 6b2a 10BC     		pop {r4}
 14451 6b2c EA46     		mov r10, sp
 14452 6b2e 2546     		mov r5, r4
 14453 6b30 2404     		lsls r4, r4, # 16
 14454 6b32 240C     		lsrs r4, r4, # 16
 14455 6b34 2D0C     		lsrs r5, r5, # 16
 14456 6b36 6043     		muls r0, r0, r4
ARM GAS  1.s 			page 255


 14457 6b38 6143     		muls r1, r1, r4
 14458 6b3a 6A43     		muls r2, r2, r5
 14459 6b3c 6B43     		muls r3, r3, r5
 14460 6b3e 8011     		asrs r0, r0, # 6
 14461 6b40 8911     		asrs r1, r1, # 6
 14462 6b42 9211     		asrs r2, r2, # 6
 14463 6b44 9B11     		asrs r3, r3, # 6
 14464 6b46 8018     		adds r0, r0, r2  @r
 14465 6b48 C918     		adds r1, r1, r3  @i
 14466 6b4a 3618     		adds r6, r6, r0
 14467 6b4c 7F18     		adds r7, r7, r1
 14468              	
 14469 6b4e DD46     		mov sp, r11
 14470 6b50 0FBC     		pop {r0-r3}
 14471 6b52 EB46     		mov r11, sp
 14472 6b54 D546     		mov sp, r10
 14473 6b56 10BC     		pop {r4}
 14474 6b58 EA46     		mov r10, sp
 14475 6b5a 2546     		mov r5, r4
 14476 6b5c 2404     		lsls r4, r4, # 16
 14477 6b5e 240C     		lsrs r4, r4, # 16
 14478 6b60 2D0C     		lsrs r5, r5, # 16
 14479 6b62 6043     		muls r0, r0, r4
 14480 6b64 6143     		muls r1, r1, r4
 14481 6b66 6A43     		muls r2, r2, r5
 14482 6b68 6B43     		muls r3, r3, r5
 14483 6b6a 8011     		asrs r0, r0, # 6
 14484 6b6c 8911     		asrs r1, r1, # 6
 14485 6b6e 9211     		asrs r2, r2, # 6
 14486 6b70 9B11     		asrs r3, r3, # 6
 14487 6b72 8018     		adds r0, r0, r2         @r
 14488 6b74 C918     		adds r1, r1, r3         @i
 14489 6b76 3618     		adds r6, r6, r0
 14490 6b78 7F18     		adds r7, r7, r1
 14491              	
 14492              		@yjm14
 14493              		@0
 14494 6b7a DD46     		mov sp, r11
 14495 6b7c 0FBC     		pop {r0-r3}
 14496 6b7e EB46     		mov r11, sp
 14497 6b80 D546     		mov sp, r10
 14498 6b82 10BC     		pop {r4}
 14499 6b84 EA46     		mov r10, sp
 14500 6b86 2546     		mov r5, r4
 14501 6b88 2404     		lsls r4, r4, # 16
 14502 6b8a 240C     		lsrs r4, r4, # 16
 14503 6b8c 2D0C     		lsrs r5, r5, # 16
 14504 6b8e 6043     		muls r0, r0, r4		@R
 14505 6b90 6143     		muls r1, r1, r4		@I
 14506 6b92 6A43     		muls r2, r2, r5		@R
 14507 6b94 6B43     		muls r3, r3, r5		@I
 14508 6b96 8011     		asrs r0, r0, # 6
 14509 6b98 8911     		asrs r1, r1, # 6
 14510 6b9a 9211     		asrs r2, r2, # 6
 14511 6b9c 9B11     		asrs r3, r3, # 6
 14512 6b9e 8018     		adds r0, r0, r2	 @r
 14513 6ba0 C918     		adds r1, r1, r3	 @i
ARM GAS  1.s 			page 256


 14514 6ba2 3618     		adds r6, r6, r0
 14515 6ba4 7F18     		adds r7, r7, r1
 14516              	
 14517 6ba6 DD46     		mov sp, r11
 14518 6ba8 0FBC     		pop {r0-r3}
 14519 6baa EB46     		mov r11, sp
 14520 6bac D546     		mov sp, r10
 14521 6bae 10BC     		pop {r4}
 14522 6bb0 EA46     		mov r10, sp
 14523 6bb2 2546     		mov r5, r4
 14524 6bb4 2404     		lsls r4, r4, # 16
 14525 6bb6 240C     		lsrs r4, r4, # 16
 14526 6bb8 2D0C     		lsrs r5, r5, # 16
 14527 6bba 6043     		muls r0, r0, r4
 14528 6bbc 6143     		muls r1, r1, r4
 14529 6bbe 6A43     		muls r2, r2, r5
 14530 6bc0 6B43     		muls r3, r3, r5
 14531 6bc2 8011     		asrs r0, r0, # 6
 14532 6bc4 8911     		asrs r1, r1, # 6
 14533 6bc6 9211     		asrs r2, r2, # 6
 14534 6bc8 9B11     		asrs r3, r3, # 6
 14535 6bca 8018     		adds r0, r0, r2         @r
 14536 6bcc C918     		adds r1, r1, r3         @i
 14537 6bce 3618     		adds r6, r6, r0
 14538 6bd0 7F18     		adds r7, r7, r1
 14539              	
 14540 6bd2 DD46     		mov sp, r11
 14541 6bd4 0FBC     		pop {r0-r3}
 14542 6bd6 EB46     		mov r11, sp
 14543 6bd8 D546     		mov sp, r10
 14544 6bda 10BC     		pop {r4}
 14545 6bdc EA46     		mov r10, sp
 14546 6bde 2546     		mov r5, r4
 14547 6be0 2404     		lsls r4, r4, # 16
 14548 6be2 240C     		lsrs r4, r4, # 16
 14549 6be4 2D0C     		lsrs r5, r5, # 16
 14550 6be6 6043     		muls r0, r0, r4
 14551 6be8 6143     		muls r1, r1, r4
 14552 6bea 6A43     		muls r2, r2, r5
 14553 6bec 6B43     		muls r3, r3, r5
 14554 6bee 8011     		asrs r0, r0, # 6
 14555 6bf0 8911     		asrs r1, r1, # 6
 14556 6bf2 9211     		asrs r2, r2, # 6
 14557 6bf4 9B11     		asrs r3, r3, # 6
 14558 6bf6 8018     		adds r0, r0, r2  @r
 14559 6bf8 C918     		adds r1, r1, r3  @i
 14560 6bfa 3618     		adds r6, r6, r0
 14561 6bfc 7F18     		adds r7, r7, r1
 14562              	
 14563 6bfe DD46     		mov sp, r11
 14564 6c00 0FBC     		pop {r0-r3}
 14565 6c02 EB46     		mov r11, sp
 14566 6c04 D546     		mov sp, r10
 14567 6c06 10BC     		pop {r4}
 14568 6c08 EA46     		mov r10, sp
 14569 6c0a 2546     		mov r5, r4
 14570 6c0c 2404     		lsls r4, r4, # 16
ARM GAS  1.s 			page 257


 14571 6c0e 240C     		lsrs r4, r4, # 16
 14572 6c10 2D0C     		lsrs r5, r5, # 16
 14573 6c12 6043     		muls r0, r0, r4
 14574 6c14 6143     		muls r1, r1, r4
 14575 6c16 6A43     		muls r2, r2, r5
 14576 6c18 6B43     		muls r3, r3, r5
 14577 6c1a 8011     		asrs r0, r0, # 6
 14578 6c1c 8911     		asrs r1, r1, # 6
 14579 6c1e 9211     		asrs r2, r2, # 6
 14580 6c20 9B11     		asrs r3, r3, # 6
 14581 6c22 8018     		adds r0, r0, r2         @r
 14582 6c24 C918     		adds r1, r1, r3         @i
 14583 6c26 3618     		adds r6, r6, r0
 14584 6c28 7F18     		adds r7, r7, r1
 14585              	
 14586              		@1
 14587 6c2a DD46     		mov sp, r11
 14588 6c2c 0FBC     		pop {r0-r3}
 14589 6c2e EB46     		mov r11, sp
 14590 6c30 D546     		mov sp, r10
 14591 6c32 10BC     		pop {r4}
 14592 6c34 EA46     		mov r10, sp
 14593 6c36 2546     		mov r5, r4
 14594 6c38 2404     		lsls r4, r4, # 16
 14595 6c3a 240C     		lsrs r4, r4, # 16
 14596 6c3c 2D0C     		lsrs r5, r5, # 16
 14597 6c3e 6043     		muls r0, r0, r4		@R
 14598 6c40 6143     		muls r1, r1, r4		@I
 14599 6c42 6A43     		muls r2, r2, r5		@R
 14600 6c44 6B43     		muls r3, r3, r5		@I
 14601 6c46 8011     		asrs r0, r0, # 6
 14602 6c48 8911     		asrs r1, r1, # 6
 14603 6c4a 9211     		asrs r2, r2, # 6
 14604 6c4c 9B11     		asrs r3, r3, # 6
 14605 6c4e 8018     		adds r0, r0, r2	 @r
 14606 6c50 C918     		adds r1, r1, r3	 @i
 14607 6c52 3618     		adds r6, r6, r0
 14608 6c54 7F18     		adds r7, r7, r1
 14609              	
 14610 6c56 DD46     		mov sp, r11
 14611 6c58 0FBC     		pop {r0-r3}
 14612 6c5a EB46     		mov r11, sp
 14613 6c5c D546     		mov sp, r10
 14614 6c5e 10BC     		pop {r4}
 14615 6c60 EA46     		mov r10, sp
 14616 6c62 2546     		mov r5, r4
 14617 6c64 2404     		lsls r4, r4, # 16
 14618 6c66 240C     		lsrs r4, r4, # 16
 14619 6c68 2D0C     		lsrs r5, r5, # 16
 14620 6c6a 6043     		muls r0, r0, r4
 14621 6c6c 6143     		muls r1, r1, r4
 14622 6c6e 6A43     		muls r2, r2, r5
 14623 6c70 6B43     		muls r3, r3, r5
 14624 6c72 8011     		asrs r0, r0, # 6
 14625 6c74 8911     		asrs r1, r1, # 6
 14626 6c76 9211     		asrs r2, r2, # 6
 14627 6c78 9B11     		asrs r3, r3, # 6
ARM GAS  1.s 			page 258


 14628 6c7a 8018     		adds r0, r0, r2         @r
 14629 6c7c C918     		adds r1, r1, r3         @i
 14630 6c7e 3618     		adds r6, r6, r0
 14631 6c80 7F18     		adds r7, r7, r1
 14632              	
 14633 6c82 DD46     		mov sp, r11
 14634 6c84 0FBC     		pop {r0-r3}
 14635 6c86 EB46     		mov r11, sp
 14636 6c88 D546     		mov sp, r10
 14637 6c8a 10BC     		pop {r4}
 14638 6c8c EA46     		mov r10, sp
 14639 6c8e 2546     		mov r5, r4
 14640 6c90 2404     		lsls r4, r4, # 16
 14641 6c92 240C     		lsrs r4, r4, # 16
 14642 6c94 2D0C     		lsrs r5, r5, # 16
 14643 6c96 6043     		muls r0, r0, r4
 14644 6c98 6143     		muls r1, r1, r4
 14645 6c9a 6A43     		muls r2, r2, r5
 14646 6c9c 6B43     		muls r3, r3, r5
 14647 6c9e 8011     		asrs r0, r0, # 6
 14648 6ca0 8911     		asrs r1, r1, # 6
 14649 6ca2 9211     		asrs r2, r2, # 6
 14650 6ca4 9B11     		asrs r3, r3, # 6
 14651 6ca6 8018     		adds r0, r0, r2  @r
 14652 6ca8 C918     		adds r1, r1, r3  @i
 14653 6caa 3618     		adds r6, r6, r0
 14654 6cac 7F18     		adds r7, r7, r1
 14655              	
 14656 6cae DD46     		mov sp, r11
 14657 6cb0 0FBC     		pop {r0-r3}
 14658 6cb2 EB46     		mov r11, sp
 14659 6cb4 D546     		mov sp, r10
 14660 6cb6 10BC     		pop {r4}
 14661 6cb8 EA46     		mov r10, sp
 14662 6cba 2546     		mov r5, r4
 14663 6cbc 2404     		lsls r4, r4, # 16
 14664 6cbe 240C     		lsrs r4, r4, # 16
 14665 6cc0 2D0C     		lsrs r5, r5, # 16
 14666 6cc2 6043     		muls r0, r0, r4
 14667 6cc4 6143     		muls r1, r1, r4
 14668 6cc6 6A43     		muls r2, r2, r5
 14669 6cc8 6B43     		muls r3, r3, r5
 14670 6cca 8011     		asrs r0, r0, # 6
 14671 6ccc 8911     		asrs r1, r1, # 6
 14672 6cce 9211     		asrs r2, r2, # 6
 14673 6cd0 9B11     		asrs r3, r3, # 6
 14674 6cd2 8018     		adds r0, r0, r2         @r
 14675 6cd4 C918     		adds r1, r1, r3         @i
 14676 6cd6 3618     		adds r6, r6, r0
 14677 6cd8 7F18     		adds r7, r7, r1
 14678              	
 14679              		@2
 14680 6cda DD46     		mov sp, r11
 14681 6cdc 0FBC     		pop {r0-r3}
 14682 6cde EB46     		mov r11, sp
 14683 6ce0 D546     		mov sp, r10
 14684 6ce2 10BC     		pop {r4}
ARM GAS  1.s 			page 259


 14685 6ce4 EA46     		mov r10, sp
 14686 6ce6 2546     		mov r5, r4
 14687 6ce8 2404     		lsls r4, r4, # 16
 14688 6cea 240C     		lsrs r4, r4, # 16
 14689 6cec 2D0C     		lsrs r5, r5, # 16
 14690 6cee 6043     		muls r0, r0, r4		@R
 14691 6cf0 6143     		muls r1, r1, r4		@I
 14692 6cf2 6A43     		muls r2, r2, r5		@R
 14693 6cf4 6B43     		muls r3, r3, r5		@I
 14694 6cf6 8011     		asrs r0, r0, # 6
 14695 6cf8 8911     		asrs r1, r1, # 6
 14696 6cfa 9211     		asrs r2, r2, # 6
 14697 6cfc 9B11     		asrs r3, r3, # 6
 14698 6cfe 8018     		adds r0, r0, r2	 @r
 14699 6d00 C918     		adds r1, r1, r3	 @i
 14700 6d02 3618     		adds r6, r6, r0
 14701 6d04 7F18     		adds r7, r7, r1
 14702              	
 14703 6d06 DD46     		mov sp, r11
 14704 6d08 0FBC     		pop {r0-r3}
 14705 6d0a EB46     		mov r11, sp
 14706 6d0c D546     		mov sp, r10
 14707 6d0e 10BC     		pop {r4}
 14708 6d10 EA46     		mov r10, sp
 14709 6d12 2546     		mov r5, r4
 14710 6d14 2404     		lsls r4, r4, # 16
 14711 6d16 240C     		lsrs r4, r4, # 16
 14712 6d18 2D0C     		lsrs r5, r5, # 16
 14713 6d1a 6043     		muls r0, r0, r4
 14714 6d1c 6143     		muls r1, r1, r4
 14715 6d1e 6A43     		muls r2, r2, r5
 14716 6d20 6B43     		muls r3, r3, r5
 14717 6d22 8011     		asrs r0, r0, # 6
 14718 6d24 8911     		asrs r1, r1, # 6
 14719 6d26 9211     		asrs r2, r2, # 6
 14720 6d28 9B11     		asrs r3, r3, # 6
 14721 6d2a 8018     		adds r0, r0, r2         @r
 14722 6d2c C918     		adds r1, r1, r3         @i
 14723 6d2e 3618     		adds r6, r6, r0
 14724 6d30 7F18     		adds r7, r7, r1
 14725              	
 14726 6d32 DD46     		mov sp, r11
 14727 6d34 0FBC     		pop {r0-r3}
 14728 6d36 EB46     		mov r11, sp
 14729 6d38 D546     		mov sp, r10
 14730 6d3a 10BC     		pop {r4}
 14731 6d3c EA46     		mov r10, sp
 14732 6d3e 2546     		mov r5, r4
 14733 6d40 2404     		lsls r4, r4, # 16
 14734 6d42 240C     		lsrs r4, r4, # 16
 14735 6d44 2D0C     		lsrs r5, r5, # 16
 14736 6d46 6043     		muls r0, r0, r4
 14737 6d48 6143     		muls r1, r1, r4
 14738 6d4a 6A43     		muls r2, r2, r5
 14739 6d4c 6B43     		muls r3, r3, r5
 14740 6d4e 8011     		asrs r0, r0, # 6
 14741 6d50 8911     		asrs r1, r1, # 6
ARM GAS  1.s 			page 260


 14742 6d52 9211     		asrs r2, r2, # 6
 14743 6d54 9B11     		asrs r3, r3, # 6
 14744 6d56 8018     		adds r0, r0, r2  @r
 14745 6d58 C918     		adds r1, r1, r3  @i
 14746 6d5a 3618     		adds r6, r6, r0
 14747 6d5c 7F18     		adds r7, r7, r1
 14748              	
 14749 6d5e DD46     		mov sp, r11
 14750 6d60 0FBC     		pop {r0-r3}
 14751 6d62 EB46     		mov r11, sp
 14752 6d64 D546     		mov sp, r10
 14753 6d66 10BC     		pop {r4}
 14754 6d68 EA46     		mov r10, sp
 14755 6d6a 2546     		mov r5, r4
 14756 6d6c 2404     		lsls r4, r4, # 16
 14757 6d6e 240C     		lsrs r4, r4, # 16
 14758 6d70 2D0C     		lsrs r5, r5, # 16
 14759 6d72 6043     		muls r0, r0, r4
 14760 6d74 6143     		muls r1, r1, r4
 14761 6d76 6A43     		muls r2, r2, r5
 14762 6d78 6B43     		muls r3, r3, r5
 14763 6d7a 8011     		asrs r0, r0, # 6
 14764 6d7c 8911     		asrs r1, r1, # 6
 14765 6d7e 9211     		asrs r2, r2, # 6
 14766 6d80 9B11     		asrs r3, r3, # 6
 14767 6d82 8018     		adds r0, r0, r2         @r
 14768 6d84 C918     		adds r1, r1, r3         @i
 14769 6d86 3618     		adds r6, r6, r0
 14770 6d88 7F18     		adds r7, r7, r1
 14771              	
 14772              		@3
 14773 6d8a DD46     		mov sp, r11
 14774 6d8c 0FBC     		pop {r0-r3}
 14775 6d8e EB46     		mov r11, sp
 14776 6d90 D546     		mov sp, r10
 14777 6d92 10BC     		pop {r4}
 14778 6d94 EA46     		mov r10, sp
 14779 6d96 2546     		mov r5, r4
 14780 6d98 2404     		lsls r4, r4, # 16
 14781 6d9a 240C     		lsrs r4, r4, # 16
 14782 6d9c 2D0C     		lsrs r5, r5, # 16
 14783 6d9e 6043     		muls r0, r0, r4		@R
 14784 6da0 6143     		muls r1, r1, r4		@I
 14785 6da2 6A43     		muls r2, r2, r5		@R
 14786 6da4 6B43     		muls r3, r3, r5		@I
 14787 6da6 8011     		asrs r0, r0, # 6
 14788 6da8 8911     		asrs r1, r1, # 6
 14789 6daa 9211     		asrs r2, r2, # 6
 14790 6dac 9B11     		asrs r3, r3, # 6
 14791 6dae 8018     		adds r0, r0, r2	 @r
 14792 6db0 C918     		adds r1, r1, r3	 @i
 14793 6db2 3618     		adds r6, r6, r0
 14794 6db4 7F18     		adds r7, r7, r1
 14795              	
 14796 6db6 DD46     		mov sp, r11
 14797 6db8 0FBC     		pop {r0-r3}
 14798 6dba EB46     		mov r11, sp
ARM GAS  1.s 			page 261


 14799 6dbc D546     		mov sp, r10
 14800 6dbe 10BC     		pop {r4}
 14801 6dc0 EA46     		mov r10, sp
 14802 6dc2 2546     		mov r5, r4
 14803 6dc4 2404     		lsls r4, r4, # 16
 14804 6dc6 240C     		lsrs r4, r4, # 16
 14805 6dc8 2D0C     		lsrs r5, r5, # 16
 14806 6dca 6043     		muls r0, r0, r4
 14807 6dcc 6143     		muls r1, r1, r4
 14808 6dce 6A43     		muls r2, r2, r5
 14809 6dd0 6B43     		muls r3, r3, r5
 14810 6dd2 8011     		asrs r0, r0, # 6
 14811 6dd4 8911     		asrs r1, r1, # 6
 14812 6dd6 9211     		asrs r2, r2, # 6
 14813 6dd8 9B11     		asrs r3, r3, # 6
 14814 6dda 8018     		adds r0, r0, r2         @r
 14815 6ddc C918     		adds r1, r1, r3         @i
 14816 6dde 3618     		adds r6, r6, r0
 14817 6de0 7F18     		adds r7, r7, r1
 14818              	
 14819 6de2 DD46     		mov sp, r11
 14820 6de4 0FBC     		pop {r0-r3}
 14821 6de6 EB46     		mov r11, sp
 14822 6de8 D546     		mov sp, r10
 14823 6dea 10BC     		pop {r4}
 14824 6dec EA46     		mov r10, sp
 14825 6dee 2546     		mov r5, r4
 14826 6df0 2404     		lsls r4, r4, # 16
 14827 6df2 240C     		lsrs r4, r4, # 16
 14828 6df4 2D0C     		lsrs r5, r5, # 16
 14829 6df6 6043     		muls r0, r0, r4
 14830 6df8 6143     		muls r1, r1, r4
 14831 6dfa 6A43     		muls r2, r2, r5
 14832 6dfc 6B43     		muls r3, r3, r5
 14833 6dfe 8011     		asrs r0, r0, # 6
 14834 6e00 8911     		asrs r1, r1, # 6
 14835 6e02 9211     		asrs r2, r2, # 6
 14836 6e04 9B11     		asrs r3, r3, # 6
 14837 6e06 8018     		adds r0, r0, r2  @r
 14838 6e08 C918     		adds r1, r1, r3  @i
 14839 6e0a 3618     		adds r6, r6, r0
 14840 6e0c 7F18     		adds r7, r7, r1
 14841              	
 14842 6e0e DD46     		mov sp, r11
 14843 6e10 0FBC     		pop {r0-r3}
 14844 6e12 EB46     		mov r11, sp
 14845 6e14 D546     		mov sp, r10
 14846 6e16 10BC     		pop {r4}
 14847 6e18 EA46     		mov r10, sp
 14848 6e1a 2546     		mov r5, r4
 14849 6e1c 2404     		lsls r4, r4, # 16
 14850 6e1e 240C     		lsrs r4, r4, # 16
 14851 6e20 2D0C     		lsrs r5, r5, # 16
 14852 6e22 6043     		muls r0, r0, r4
 14853 6e24 6143     		muls r1, r1, r4
 14854 6e26 6A43     		muls r2, r2, r5
 14855 6e28 6B43     		muls r3, r3, r5
ARM GAS  1.s 			page 262


 14856 6e2a 8011     		asrs r0, r0, # 6
 14857 6e2c 8911     		asrs r1, r1, # 6
 14858 6e2e 9211     		asrs r2, r2, # 6
 14859 6e30 9B11     		asrs r3, r3, # 6
 14860 6e32 8018     		adds r0, r0, r2         @r
 14861 6e34 C918     		adds r1, r1, r3         @i
 14862 6e36 3618     		adds r6, r6, r0
 14863 6e38 7F18     		adds r7, r7, r1
 14864              	
 14865              		@4
 14866 6e3a DD46     		mov sp, r11
 14867 6e3c 0FBC     		pop {r0-r3}
 14868 6e3e EB46     		mov r11, sp
 14869 6e40 D546     		mov sp, r10
 14870 6e42 10BC     		pop {r4}
 14871 6e44 EA46     		mov r10, sp
 14872 6e46 2546     		mov r5, r4
 14873 6e48 2404     		lsls r4, r4, # 16
 14874 6e4a 240C     		lsrs r4, r4, # 16
 14875 6e4c 2D0C     		lsrs r5, r5, # 16
 14876 6e4e 6043     		muls r0, r0, r4		@R
 14877 6e50 6143     		muls r1, r1, r4		@I
 14878 6e52 6A43     		muls r2, r2, r5		@R
 14879 6e54 6B43     		muls r3, r3, r5		@I
 14880 6e56 8011     		asrs r0, r0, # 6
 14881 6e58 8911     		asrs r1, r1, # 6
 14882 6e5a 9211     		asrs r2, r2, # 6
 14883 6e5c 9B11     		asrs r3, r3, # 6
 14884 6e5e 8018     		adds r0, r0, r2	 @r
 14885 6e60 C918     		adds r1, r1, r3	 @i
 14886 6e62 3618     		adds r6, r6, r0
 14887 6e64 7F18     		adds r7, r7, r1
 14888              	
 14889 6e66 DD46     		mov sp, r11
 14890 6e68 0FBC     		pop {r0-r3}
 14891 6e6a EB46     		mov r11, sp
 14892 6e6c D546     		mov sp, r10
 14893 6e6e 10BC     		pop {r4}
 14894 6e70 EA46     		mov r10, sp
 14895 6e72 2546     		mov r5, r4
 14896 6e74 2404     		lsls r4, r4, # 16
 14897 6e76 240C     		lsrs r4, r4, # 16
 14898 6e78 2D0C     		lsrs r5, r5, # 16
 14899 6e7a 6043     		muls r0, r0, r4
 14900 6e7c 6143     		muls r1, r1, r4
 14901 6e7e 6A43     		muls r2, r2, r5
 14902 6e80 6B43     		muls r3, r3, r5
 14903 6e82 8011     		asrs r0, r0, # 6
 14904 6e84 8911     		asrs r1, r1, # 6
 14905 6e86 9211     		asrs r2, r2, # 6
 14906 6e88 9B11     		asrs r3, r3, # 6
 14907 6e8a 8018     		adds r0, r0, r2         @r
 14908 6e8c C918     		adds r1, r1, r3         @i
 14909 6e8e 3618     		adds r6, r6, r0
 14910 6e90 7F18     		adds r7, r7, r1
 14911              	
 14912 6e92 DD46     		mov sp, r11
ARM GAS  1.s 			page 263


 14913 6e94 0FBC     		pop {r0-r3}
 14914 6e96 EB46     		mov r11, sp
 14915 6e98 D546     		mov sp, r10
 14916 6e9a 10BC     		pop {r4}
 14917 6e9c EA46     		mov r10, sp
 14918 6e9e 2546     		mov r5, r4
 14919 6ea0 2404     		lsls r4, r4, # 16
 14920 6ea2 240C     		lsrs r4, r4, # 16
 14921 6ea4 2D0C     		lsrs r5, r5, # 16
 14922 6ea6 6043     		muls r0, r0, r4
 14923 6ea8 6143     		muls r1, r1, r4
 14924 6eaa 6A43     		muls r2, r2, r5
 14925 6eac 6B43     		muls r3, r3, r5
 14926 6eae 8011     		asrs r0, r0, # 6
 14927 6eb0 8911     		asrs r1, r1, # 6
 14928 6eb2 9211     		asrs r2, r2, # 6
 14929 6eb4 9B11     		asrs r3, r3, # 6
 14930 6eb6 8018     		adds r0, r0, r2  @r
 14931 6eb8 C918     		adds r1, r1, r3  @i
 14932 6eba 3618     		adds r6, r6, r0
 14933 6ebc 7F18     		adds r7, r7, r1
 14934              	
 14935 6ebe DD46     		mov sp, r11
 14936 6ec0 0FBC     		pop {r0-r3}
 14937 6ec2 EB46     		mov r11, sp
 14938 6ec4 D546     		mov sp, r10
 14939 6ec6 10BC     		pop {r4}
 14940 6ec8 EA46     		mov r10, sp
 14941 6eca 2546     		mov r5, r4
 14942 6ecc 2404     		lsls r4, r4, # 16
 14943 6ece 240C     		lsrs r4, r4, # 16
 14944 6ed0 2D0C     		lsrs r5, r5, # 16
 14945 6ed2 6043     		muls r0, r0, r4
 14946 6ed4 6143     		muls r1, r1, r4
 14947 6ed6 6A43     		muls r2, r2, r5
 14948 6ed8 6B43     		muls r3, r3, r5
 14949 6eda 8011     		asrs r0, r0, # 6
 14950 6edc 8911     		asrs r1, r1, # 6
 14951 6ede 9211     		asrs r2, r2, # 6
 14952 6ee0 9B11     		asrs r3, r3, # 6
 14953 6ee2 8018     		adds r0, r0, r2         @r
 14954 6ee4 C918     		adds r1, r1, r3         @i
 14955 6ee6 3618     		adds r6, r6, r0
 14956 6ee8 7F18     		adds r7, r7, r1
 14957              	
 14958              		@5
 14959 6eea DD46     		mov sp, r11
 14960 6eec 0FBC     		pop {r0-r3}
 14961 6eee EB46     		mov r11, sp
 14962 6ef0 D546     		mov sp, r10
 14963 6ef2 10BC     		pop {r4}
 14964 6ef4 EA46     		mov r10, sp
 14965 6ef6 2546     		mov r5, r4
 14966 6ef8 2404     		lsls r4, r4, # 16
 14967 6efa 240C     		lsrs r4, r4, # 16
 14968 6efc 2D0C     		lsrs r5, r5, # 16
 14969 6efe 6043     		muls r0, r0, r4		@R
ARM GAS  1.s 			page 264


 14970 6f00 6143     		muls r1, r1, r4		@I
 14971 6f02 6A43     		muls r2, r2, r5		@R
 14972 6f04 6B43     		muls r3, r3, r5		@I
 14973 6f06 8011     		asrs r0, r0, # 6
 14974 6f08 8911     		asrs r1, r1, # 6
 14975 6f0a 9211     		asrs r2, r2, # 6
 14976 6f0c 9B11     		asrs r3, r3, # 6
 14977 6f0e 8018     		adds r0, r0, r2	 @r
 14978 6f10 C918     		adds r1, r1, r3	 @i
 14979 6f12 3618     		adds r6, r6, r0
 14980 6f14 7F18     		adds r7, r7, r1
 14981              	
 14982 6f16 DD46     		mov sp, r11
 14983 6f18 0FBC     		pop {r0-r3}
 14984 6f1a EB46     		mov r11, sp
 14985 6f1c D546     		mov sp, r10
 14986 6f1e 10BC     		pop {r4}
 14987 6f20 EA46     		mov r10, sp
 14988 6f22 2546     		mov r5, r4
 14989 6f24 2404     		lsls r4, r4, # 16
 14990 6f26 240C     		lsrs r4, r4, # 16
 14991 6f28 2D0C     		lsrs r5, r5, # 16
 14992 6f2a 6043     		muls r0, r0, r4
 14993 6f2c 6143     		muls r1, r1, r4
 14994 6f2e 6A43     		muls r2, r2, r5
 14995 6f30 6B43     		muls r3, r3, r5
 14996 6f32 8011     		asrs r0, r0, # 6
 14997 6f34 8911     		asrs r1, r1, # 6
 14998 6f36 9211     		asrs r2, r2, # 6
 14999 6f38 9B11     		asrs r3, r3, # 6
 15000 6f3a 8018     		adds r0, r0, r2         @r
 15001 6f3c C918     		adds r1, r1, r3         @i
 15002 6f3e 3618     		adds r6, r6, r0
 15003 6f40 7F18     		adds r7, r7, r1
 15004              	
 15005 6f42 DD46     		mov sp, r11
 15006 6f44 0FBC     		pop {r0-r3}
 15007 6f46 EB46     		mov r11, sp
 15008 6f48 D546     		mov sp, r10
 15009 6f4a 10BC     		pop {r4}
 15010 6f4c EA46     		mov r10, sp
 15011 6f4e 2546     		mov r5, r4
 15012 6f50 2404     		lsls r4, r4, # 16
 15013 6f52 240C     		lsrs r4, r4, # 16
 15014 6f54 2D0C     		lsrs r5, r5, # 16
 15015 6f56 6043     		muls r0, r0, r4
 15016 6f58 6143     		muls r1, r1, r4
 15017 6f5a 6A43     		muls r2, r2, r5
 15018 6f5c 6B43     		muls r3, r3, r5
 15019 6f5e 8011     		asrs r0, r0, # 6
 15020 6f60 8911     		asrs r1, r1, # 6
 15021 6f62 9211     		asrs r2, r2, # 6
 15022 6f64 9B11     		asrs r3, r3, # 6
 15023 6f66 8018     		adds r0, r0, r2  @r
 15024 6f68 C918     		adds r1, r1, r3  @i
 15025 6f6a 3618     		adds r6, r6, r0
 15026 6f6c 7F18     		adds r7, r7, r1
ARM GAS  1.s 			page 265


 15027              	
 15028 6f6e DD46     		mov sp, r11
 15029 6f70 0FBC     		pop {r0-r3}
 15030 6f72 EB46     		mov r11, sp
 15031 6f74 D546     		mov sp, r10
 15032 6f76 10BC     		pop {r4}
 15033 6f78 EA46     		mov r10, sp
 15034 6f7a 2546     		mov r5, r4
 15035 6f7c 2404     		lsls r4, r4, # 16
 15036 6f7e 240C     		lsrs r4, r4, # 16
 15037 6f80 2D0C     		lsrs r5, r5, # 16
 15038 6f82 6043     		muls r0, r0, r4
 15039 6f84 6143     		muls r1, r1, r4
 15040 6f86 6A43     		muls r2, r2, r5
 15041 6f88 6B43     		muls r3, r3, r5
 15042 6f8a 8011     		asrs r0, r0, # 6
 15043 6f8c 8911     		asrs r1, r1, # 6
 15044 6f8e 9211     		asrs r2, r2, # 6
 15045 6f90 9B11     		asrs r3, r3, # 6
 15046 6f92 8018     		adds r0, r0, r2         @r
 15047 6f94 C918     		adds r1, r1, r3         @i
 15048 6f96 3618     		adds r6, r6, r0
 15049 6f98 7F18     		adds r7, r7, r1
 15050              	
 15051              		@6
 15052 6f9a DD46     		mov sp, r11
 15053 6f9c 0FBC     		pop {r0-r3}
 15054 6f9e EB46     		mov r11, sp
 15055 6fa0 D546     		mov sp, r10
 15056 6fa2 10BC     		pop {r4}
 15057 6fa4 EA46     		mov r10, sp
 15058 6fa6 2546     		mov r5, r4
 15059 6fa8 2404     		lsls r4, r4, # 16
 15060 6faa 240C     		lsrs r4, r4, # 16
 15061 6fac 2D0C     		lsrs r5, r5, # 16
 15062 6fae 6043     		muls r0, r0, r4		@R
 15063 6fb0 6143     		muls r1, r1, r4		@I
 15064 6fb2 6A43     		muls r2, r2, r5		@R
 15065 6fb4 6B43     		muls r3, r3, r5		@I
 15066 6fb6 8011     		asrs r0, r0, # 6
 15067 6fb8 8911     		asrs r1, r1, # 6
 15068 6fba 9211     		asrs r2, r2, # 6
 15069 6fbc 9B11     		asrs r3, r3, # 6
 15070 6fbe 8018     		adds r0, r0, r2	 @r
 15071 6fc0 C918     		adds r1, r1, r3	 @i
 15072 6fc2 3618     		adds r6, r6, r0
 15073 6fc4 7F18     		adds r7, r7, r1
 15074              	
 15075 6fc6 DD46     		mov sp, r11
 15076 6fc8 0FBC     		pop {r0-r3}
 15077 6fca EB46     		mov r11, sp
 15078 6fcc D546     		mov sp, r10
 15079 6fce 10BC     		pop {r4}
 15080 6fd0 EA46     		mov r10, sp
 15081 6fd2 2546     		mov r5, r4
 15082 6fd4 2404     		lsls r4, r4, # 16
 15083 6fd6 240C     		lsrs r4, r4, # 16
ARM GAS  1.s 			page 266


 15084 6fd8 2D0C     		lsrs r5, r5, # 16
 15085 6fda 6043     		muls r0, r0, r4
 15086 6fdc 6143     		muls r1, r1, r4
 15087 6fde 6A43     		muls r2, r2, r5
 15088 6fe0 6B43     		muls r3, r3, r5
 15089 6fe2 8011     		asrs r0, r0, # 6
 15090 6fe4 8911     		asrs r1, r1, # 6
 15091 6fe6 9211     		asrs r2, r2, # 6
 15092 6fe8 9B11     		asrs r3, r3, # 6
 15093 6fea 8018     		adds r0, r0, r2         @r
 15094 6fec C918     		adds r1, r1, r3         @i
 15095 6fee 3618     		adds r6, r6, r0
 15096 6ff0 7F18     		adds r7, r7, r1
 15097              	
 15098 6ff2 DD46     		mov sp, r11
 15099 6ff4 0FBC     		pop {r0-r3}
 15100 6ff6 EB46     		mov r11, sp
 15101 6ff8 D546     		mov sp, r10
 15102 6ffa 10BC     		pop {r4}
 15103 6ffc EA46     		mov r10, sp
 15104 6ffe 2546     		mov r5, r4
 15105 7000 2404     		lsls r4, r4, # 16
 15106 7002 240C     		lsrs r4, r4, # 16
 15107 7004 2D0C     		lsrs r5, r5, # 16
 15108 7006 6043     		muls r0, r0, r4
 15109 7008 6143     		muls r1, r1, r4
 15110 700a 6A43     		muls r2, r2, r5
 15111 700c 6B43     		muls r3, r3, r5
 15112 700e 8011     		asrs r0, r0, # 6
 15113 7010 8911     		asrs r1, r1, # 6
 15114 7012 9211     		asrs r2, r2, # 6
 15115 7014 9B11     		asrs r3, r3, # 6
 15116 7016 8018     		adds r0, r0, r2  @r
 15117 7018 C918     		adds r1, r1, r3  @i
 15118 701a 3618     		adds r6, r6, r0
 15119 701c 7F18     		adds r7, r7, r1
 15120              	
 15121 701e DD46     		mov sp, r11
 15122 7020 0FBC     		pop {r0-r3}
 15123 7022 EB46     		mov r11, sp
 15124 7024 D546     		mov sp, r10
 15125 7026 10BC     		pop {r4}
 15126 7028 EA46     		mov r10, sp
 15127 702a 2546     		mov r5, r4
 15128 702c 2404     		lsls r4, r4, # 16
 15129 702e 240C     		lsrs r4, r4, # 16
 15130 7030 2D0C     		lsrs r5, r5, # 16
 15131 7032 6043     		muls r0, r0, r4
 15132 7034 6143     		muls r1, r1, r4
 15133 7036 6A43     		muls r2, r2, r5
 15134 7038 6B43     		muls r3, r3, r5
 15135 703a 8011     		asrs r0, r0, # 6
 15136 703c 8911     		asrs r1, r1, # 6
 15137 703e 9211     		asrs r2, r2, # 6
 15138 7040 9B11     		asrs r3, r3, # 6
 15139 7042 8018     		adds r0, r0, r2         @r
 15140 7044 C918     		adds r1, r1, r3         @i
ARM GAS  1.s 			page 267


 15141 7046 3618     		adds r6, r6, r0
 15142 7048 7F18     		adds r7, r7, r1
 15143              	
 15144              		@7
 15145 704a DD46     		mov sp, r11
 15146 704c 0FBC     		pop {r0-r3}
 15147 704e EB46     		mov r11, sp
 15148 7050 D546     		mov sp, r10
 15149 7052 10BC     		pop {r4}
 15150 7054 EA46     		mov r10, sp
 15151 7056 2546     		mov r5, r4
 15152 7058 2404     		lsls r4, r4, # 16
 15153 705a 240C     		lsrs r4, r4, # 16
 15154 705c 2D0C     		lsrs r5, r5, # 16
 15155 705e 6043     		muls r0, r0, r4		@R
 15156 7060 6143     		muls r1, r1, r4		@I
 15157 7062 6A43     		muls r2, r2, r5		@R
 15158 7064 6B43     		muls r3, r3, r5		@I
 15159 7066 8011     		asrs r0, r0, # 6
 15160 7068 8911     		asrs r1, r1, # 6
 15161 706a 9211     		asrs r2, r2, # 6
 15162 706c 9B11     		asrs r3, r3, # 6
 15163 706e 8018     		adds r0, r0, r2	 @r
 15164 7070 C918     		adds r1, r1, r3	 @i
 15165 7072 3618     		adds r6, r6, r0
 15166 7074 7F18     		adds r7, r7, r1
 15167              	
 15168 7076 DD46     		mov sp, r11
 15169 7078 0FBC     		pop {r0-r3}
 15170 707a EB46     		mov r11, sp
 15171 707c D546     		mov sp, r10
 15172 707e 10BC     		pop {r4}
 15173 7080 EA46     		mov r10, sp
 15174 7082 2546     		mov r5, r4
 15175 7084 2404     		lsls r4, r4, # 16
 15176 7086 240C     		lsrs r4, r4, # 16
 15177 7088 2D0C     		lsrs r5, r5, # 16
 15178 708a 6043     		muls r0, r0, r4
 15179 708c 6143     		muls r1, r1, r4
 15180 708e 6A43     		muls r2, r2, r5
 15181 7090 6B43     		muls r3, r3, r5
 15182 7092 8011     		asrs r0, r0, # 6
 15183 7094 8911     		asrs r1, r1, # 6
 15184 7096 9211     		asrs r2, r2, # 6
 15185 7098 9B11     		asrs r3, r3, # 6
 15186 709a 8018     		adds r0, r0, r2         @r
 15187 709c C918     		adds r1, r1, r3         @i
 15188 709e 3618     		adds r6, r6, r0
 15189 70a0 7F18     		adds r7, r7, r1
 15190              	
 15191 70a2 DD46     		mov sp, r11
 15192 70a4 0FBC     		pop {r0-r3}
 15193 70a6 EB46     		mov r11, sp
 15194 70a8 D546     		mov sp, r10
 15195 70aa 10BC     		pop {r4}
 15196 70ac EA46     		mov r10, sp
 15197 70ae 2546     		mov r5, r4
ARM GAS  1.s 			page 268


 15198 70b0 2404     		lsls r4, r4, # 16
 15199 70b2 240C     		lsrs r4, r4, # 16
 15200 70b4 2D0C     		lsrs r5, r5, # 16
 15201 70b6 6043     		muls r0, r0, r4
 15202 70b8 6143     		muls r1, r1, r4
 15203 70ba 6A43     		muls r2, r2, r5
 15204 70bc 6B43     		muls r3, r3, r5
 15205 70be 8011     		asrs r0, r0, # 6
 15206 70c0 8911     		asrs r1, r1, # 6
 15207 70c2 9211     		asrs r2, r2, # 6
 15208 70c4 9B11     		asrs r3, r3, # 6
 15209 70c6 8018     		adds r0, r0, r2  @r
 15210 70c8 C918     		adds r1, r1, r3  @i
 15211 70ca 3618     		adds r6, r6, r0
 15212 70cc 7F18     		adds r7, r7, r1
 15213              	
 15214 70ce DD46     		mov sp, r11
 15215 70d0 0FBC     		pop {r0-r3}
 15216 70d2 EB46     		mov r11, sp
 15217 70d4 D546     		mov sp, r10
 15218 70d6 10BC     		pop {r4}
 15219 70d8 EA46     		mov r10, sp
 15220 70da 2546     		mov r5, r4
 15221 70dc 2404     		lsls r4, r4, # 16
 15222 70de 240C     		lsrs r4, r4, # 16
 15223 70e0 2D0C     		lsrs r5, r5, # 16
 15224 70e2 6043     		muls r0, r0, r4
 15225 70e4 6143     		muls r1, r1, r4
 15226 70e6 6A43     		muls r2, r2, r5
 15227 70e8 6B43     		muls r3, r3, r5
 15228 70ea 8011     		asrs r0, r0, # 6
 15229 70ec 8911     		asrs r1, r1, # 6
 15230 70ee 9211     		asrs r2, r2, # 6
 15231 70f0 9B11     		asrs r3, r3, # 6
 15232 70f2 8018     		adds r0, r0, r2         @r
 15233 70f4 C918     		adds r1, r1, r3         @i
 15234 70f6 3618     		adds r6, r6, r0
 15235 70f8 7F18     		adds r7, r7, r1
 15236              	
 15237              		@8
 15238 70fa DD46     		mov sp, r11
 15239 70fc 0FBC     		pop {r0-r3}
 15240 70fe EB46     		mov r11, sp
 15241 7100 D546     		mov sp, r10
 15242 7102 10BC     		pop {r4}
 15243 7104 EA46     		mov r10, sp
 15244 7106 2546     		mov r5, r4
 15245 7108 2404     		lsls r4, r4, # 16
 15246 710a 240C     		lsrs r4, r4, # 16
 15247 710c 2D0C     		lsrs r5, r5, # 16
 15248 710e 6043     		muls r0, r0, r4		@R
 15249 7110 6143     		muls r1, r1, r4		@I
 15250 7112 6A43     		muls r2, r2, r5		@R
 15251 7114 6B43     		muls r3, r3, r5		@I
 15252 7116 8011     		asrs r0, r0, # 6
 15253 7118 8911     		asrs r1, r1, # 6
 15254 711a 9211     		asrs r2, r2, # 6
ARM GAS  1.s 			page 269


 15255 711c 9B11     		asrs r3, r3, # 6
 15256 711e 8018     		adds r0, r0, r2	 @r
 15257 7120 C918     		adds r1, r1, r3	 @i
 15258 7122 3618     		adds r6, r6, r0
 15259 7124 7F18     		adds r7, r7, r1
 15260              	
 15261 7126 DD46     		mov sp, r11
 15262 7128 0FBC     		pop {r0-r3}
 15263 712a EB46     		mov r11, sp
 15264 712c D546     		mov sp, r10
 15265 712e 10BC     		pop {r4}
 15266 7130 EA46     		mov r10, sp
 15267 7132 2546     		mov r5, r4
 15268 7134 2404     		lsls r4, r4, # 16
 15269 7136 240C     		lsrs r4, r4, # 16
 15270 7138 2D0C     		lsrs r5, r5, # 16
 15271 713a 6043     		muls r0, r0, r4
 15272 713c 6143     		muls r1, r1, r4
 15273 713e 6A43     		muls r2, r2, r5
 15274 7140 6B43     		muls r3, r3, r5
 15275 7142 8011     		asrs r0, r0, # 6
 15276 7144 8911     		asrs r1, r1, # 6
 15277 7146 9211     		asrs r2, r2, # 6
 15278 7148 9B11     		asrs r3, r3, # 6
 15279 714a 8018     		adds r0, r0, r2         @r
 15280 714c C918     		adds r1, r1, r3         @i
 15281 714e 3618     		adds r6, r6, r0
 15282 7150 7F18     		adds r7, r7, r1
 15283              	
 15284 7152 DD46     		mov sp, r11
 15285 7154 0FBC     		pop {r0-r3}
 15286 7156 EB46     		mov r11, sp
 15287 7158 D546     		mov sp, r10
 15288 715a 10BC     		pop {r4}
 15289 715c EA46     		mov r10, sp
 15290 715e 2546     		mov r5, r4
 15291 7160 2404     		lsls r4, r4, # 16
 15292 7162 240C     		lsrs r4, r4, # 16
 15293 7164 2D0C     		lsrs r5, r5, # 16
 15294 7166 6043     		muls r0, r0, r4
 15295 7168 6143     		muls r1, r1, r4
 15296 716a 6A43     		muls r2, r2, r5
 15297 716c 6B43     		muls r3, r3, r5
 15298 716e 8011     		asrs r0, r0, # 6
 15299 7170 8911     		asrs r1, r1, # 6
 15300 7172 9211     		asrs r2, r2, # 6
 15301 7174 9B11     		asrs r3, r3, # 6
 15302 7176 8018     		adds r0, r0, r2  @r
 15303 7178 C918     		adds r1, r1, r3  @i
 15304 717a 3618     		adds r6, r6, r0
 15305 717c 7F18     		adds r7, r7, r1
 15306              	
 15307 717e DD46     		mov sp, r11
 15308 7180 0FBC     		pop {r0-r3}
 15309 7182 EB46     		mov r11, sp
 15310 7184 D546     		mov sp, r10
 15311 7186 10BC     		pop {r4}
ARM GAS  1.s 			page 270


 15312 7188 EA46     		mov r10, sp
 15313 718a 2546     		mov r5, r4
 15314 718c 2404     		lsls r4, r4, # 16
 15315 718e 240C     		lsrs r4, r4, # 16
 15316 7190 2D0C     		lsrs r5, r5, # 16
 15317 7192 6043     		muls r0, r0, r4
 15318 7194 6143     		muls r1, r1, r4
 15319 7196 6A43     		muls r2, r2, r5
 15320 7198 6B43     		muls r3, r3, r5
 15321 719a 8011     		asrs r0, r0, # 6
 15322 719c 8911     		asrs r1, r1, # 6
 15323 719e 9211     		asrs r2, r2, # 6
 15324 71a0 9B11     		asrs r3, r3, # 6
 15325 71a2 8018     		adds r0, r0, r2         @r
 15326 71a4 C918     		adds r1, r1, r3         @i
 15327 71a6 3618     		adds r6, r6, r0
 15328 71a8 7F18     		adds r7, r7, r1
 15329              	
 15330              		@9
 15331 71aa DD46     		mov sp, r11
 15332 71ac 0FBC     		pop {r0-r3}
 15333 71ae EB46     		mov r11, sp
 15334 71b0 D546     		mov sp, r10
 15335 71b2 10BC     		pop {r4}
 15336 71b4 EA46     		mov r10, sp
 15337 71b6 2546     		mov r5, r4
 15338 71b8 2404     		lsls r4, r4, # 16
 15339 71ba 240C     		lsrs r4, r4, # 16
 15340 71bc 2D0C     		lsrs r5, r5, # 16
 15341 71be 6043     		muls r0, r0, r4		@R
 15342 71c0 6143     		muls r1, r1, r4		@I
 15343 71c2 6A43     		muls r2, r2, r5		@R
 15344 71c4 6B43     		muls r3, r3, r5		@I
 15345 71c6 8011     		asrs r0, r0, # 6
 15346 71c8 8911     		asrs r1, r1, # 6
 15347 71ca 9211     		asrs r2, r2, # 6
 15348 71cc 9B11     		asrs r3, r3, # 6
 15349 71ce 8018     		adds r0, r0, r2	 @r
 15350 71d0 C918     		adds r1, r1, r3	 @i
 15351 71d2 3618     		adds r6, r6, r0
 15352 71d4 7F18     		adds r7, r7, r1
 15353              	
 15354 71d6 DD46     		mov sp, r11
 15355 71d8 0FBC     		pop {r0-r3}
 15356 71da EB46     		mov r11, sp
 15357 71dc D546     		mov sp, r10
 15358 71de 10BC     		pop {r4}
 15359 71e0 EA46     		mov r10, sp
 15360 71e2 2546     		mov r5, r4
 15361 71e4 2404     		lsls r4, r4, # 16
 15362 71e6 240C     		lsrs r4, r4, # 16
 15363 71e8 2D0C     		lsrs r5, r5, # 16
 15364 71ea 6043     		muls r0, r0, r4
 15365 71ec 6143     		muls r1, r1, r4
 15366 71ee 6A43     		muls r2, r2, r5
 15367 71f0 6B43     		muls r3, r3, r5
 15368 71f2 8011     		asrs r0, r0, # 6
ARM GAS  1.s 			page 271


 15369 71f4 8911     		asrs r1, r1, # 6
 15370 71f6 9211     		asrs r2, r2, # 6
 15371 71f8 9B11     		asrs r3, r3, # 6
 15372 71fa 8018     		adds r0, r0, r2         @r
 15373 71fc C918     		adds r1, r1, r3         @i
 15374 71fe 3618     		adds r6, r6, r0
 15375 7200 7F18     		adds r7, r7, r1
 15376              	
 15377 7202 DD46     		mov sp, r11
 15378 7204 0FBC     		pop {r0-r3}
 15379 7206 EB46     		mov r11, sp
 15380 7208 D546     		mov sp, r10
 15381 720a 10BC     		pop {r4}
 15382 720c EA46     		mov r10, sp
 15383 720e 2546     		mov r5, r4
 15384 7210 2404     		lsls r4, r4, # 16
 15385 7212 240C     		lsrs r4, r4, # 16
 15386 7214 2D0C     		lsrs r5, r5, # 16
 15387 7216 6043     		muls r0, r0, r4
 15388 7218 6143     		muls r1, r1, r4
 15389 721a 6A43     		muls r2, r2, r5
 15390 721c 6B43     		muls r3, r3, r5
 15391 721e 8011     		asrs r0, r0, # 6
 15392 7220 8911     		asrs r1, r1, # 6
 15393 7222 9211     		asrs r2, r2, # 6
 15394 7224 9B11     		asrs r3, r3, # 6
 15395 7226 8018     		adds r0, r0, r2  @r
 15396 7228 C918     		adds r1, r1, r3  @i
 15397 722a 3618     		adds r6, r6, r0
 15398 722c 7F18     		adds r7, r7, r1
 15399              	
 15400 722e DD46     		mov sp, r11
 15401 7230 0FBC     		pop {r0-r3}
 15402 7232 EB46     		mov r11, sp
 15403 7234 D546     		mov sp, r10
 15404 7236 10BC     		pop {r4}
 15405 7238 EA46     		mov r10, sp
 15406 723a 2546     		mov r5, r4
 15407 723c 2404     		lsls r4, r4, # 16
 15408 723e 240C     		lsrs r4, r4, # 16
 15409 7240 2D0C     		lsrs r5, r5, # 16
 15410 7242 6043     		muls r0, r0, r4
 15411 7244 6143     		muls r1, r1, r4
 15412 7246 6A43     		muls r2, r2, r5
 15413 7248 6B43     		muls r3, r3, r5
 15414 724a 8011     		asrs r0, r0, # 6
 15415 724c 8911     		asrs r1, r1, # 6
 15416 724e 9211     		asrs r2, r2, # 6
 15417 7250 9B11     		asrs r3, r3, # 6
 15418 7252 8018     		adds r0, r0, r2         @r
 15419 7254 C918     		adds r1, r1, r3         @i
 15420 7256 3618     		adds r6, r6, r0
 15421 7258 7F18     		adds r7, r7, r1
 15422              	
 15423              		@yjm15
 15424              		@0
 15425 725a DD46     		mov sp, r11
ARM GAS  1.s 			page 272


 15426 725c 0FBC     		pop {r0-r3}
 15427 725e EB46     		mov r11, sp
 15428 7260 D546     		mov sp, r10
 15429 7262 10BC     		pop {r4}
 15430 7264 EA46     		mov r10, sp
 15431 7266 2546     		mov r5, r4
 15432 7268 2404     		lsls r4, r4, # 16
 15433 726a 240C     		lsrs r4, r4, # 16
 15434 726c 2D0C     		lsrs r5, r5, # 16
 15435 726e 6043     		muls r0, r0, r4		@R
 15436 7270 6143     		muls r1, r1, r4		@I
 15437 7272 6A43     		muls r2, r2, r5		@R
 15438 7274 6B43     		muls r3, r3, r5		@I
 15439 7276 8011     		asrs r0, r0, # 6
 15440 7278 8911     		asrs r1, r1, # 6
 15441 727a 9211     		asrs r2, r2, # 6
 15442 727c 9B11     		asrs r3, r3, # 6
 15443 727e 8018     		adds r0, r0, r2	 @r
 15444 7280 C918     		adds r1, r1, r3	 @i
 15445 7282 3618     		adds r6, r6, r0
 15446 7284 7F18     		adds r7, r7, r1
 15447              	
 15448 7286 DD46     		mov sp, r11
 15449 7288 0FBC     		pop {r0-r3}
 15450 728a EB46     		mov r11, sp
 15451 728c D546     		mov sp, r10
 15452 728e 10BC     		pop {r4}
 15453 7290 EA46     		mov r10, sp
 15454 7292 2546     		mov r5, r4
 15455 7294 2404     		lsls r4, r4, # 16
 15456 7296 240C     		lsrs r4, r4, # 16
 15457 7298 2D0C     		lsrs r5, r5, # 16
 15458 729a 6043     		muls r0, r0, r4
 15459 729c 6143     		muls r1, r1, r4
 15460 729e 6A43     		muls r2, r2, r5
 15461 72a0 6B43     		muls r3, r3, r5
 15462 72a2 8011     		asrs r0, r0, # 6
 15463 72a4 8911     		asrs r1, r1, # 6
 15464 72a6 9211     		asrs r2, r2, # 6
 15465 72a8 9B11     		asrs r3, r3, # 6
 15466 72aa 8018     		adds r0, r0, r2         @r
 15467 72ac C918     		adds r1, r1, r3         @i
 15468 72ae 3618     		adds r6, r6, r0
 15469 72b0 7F18     		adds r7, r7, r1
 15470              	
 15471 72b2 DD46     		mov sp, r11
 15472 72b4 0FBC     		pop {r0-r3}
 15473 72b6 EB46     		mov r11, sp
 15474 72b8 D546     		mov sp, r10
 15475 72ba 10BC     		pop {r4}
 15476 72bc EA46     		mov r10, sp
 15477 72be 2546     		mov r5, r4
 15478 72c0 2404     		lsls r4, r4, # 16
 15479 72c2 240C     		lsrs r4, r4, # 16
 15480 72c4 2D0C     		lsrs r5, r5, # 16
 15481 72c6 6043     		muls r0, r0, r4
 15482 72c8 6143     		muls r1, r1, r4
ARM GAS  1.s 			page 273


 15483 72ca 6A43     		muls r2, r2, r5
 15484 72cc 6B43     		muls r3, r3, r5
 15485 72ce 8011     		asrs r0, r0, # 6
 15486 72d0 8911     		asrs r1, r1, # 6
 15487 72d2 9211     		asrs r2, r2, # 6
 15488 72d4 9B11     		asrs r3, r3, # 6
 15489 72d6 8018     		adds r0, r0, r2  @r
 15490 72d8 C918     		adds r1, r1, r3  @i
 15491 72da 3618     		adds r6, r6, r0
 15492 72dc 7F18     		adds r7, r7, r1
 15493              	
 15494 72de DD46     		mov sp, r11
 15495 72e0 0FBC     		pop {r0-r3}
 15496 72e2 EB46     		mov r11, sp
 15497 72e4 D546     		mov sp, r10
 15498 72e6 10BC     		pop {r4}
 15499 72e8 EA46     		mov r10, sp
 15500 72ea 2546     		mov r5, r4
 15501 72ec 2404     		lsls r4, r4, # 16
 15502 72ee 240C     		lsrs r4, r4, # 16
 15503 72f0 2D0C     		lsrs r5, r5, # 16
 15504 72f2 6043     		muls r0, r0, r4
 15505 72f4 6143     		muls r1, r1, r4
 15506 72f6 6A43     		muls r2, r2, r5
 15507 72f8 6B43     		muls r3, r3, r5
 15508 72fa 8011     		asrs r0, r0, # 6
 15509 72fc 8911     		asrs r1, r1, # 6
 15510 72fe 9211     		asrs r2, r2, # 6
 15511 7300 9B11     		asrs r3, r3, # 6
 15512 7302 8018     		adds r0, r0, r2         @r
 15513 7304 C918     		adds r1, r1, r3         @i
 15514 7306 3618     		adds r6, r6, r0
 15515 7308 7F18     		adds r7, r7, r1
 15516              	
 15517              		@1
 15518 730a DD46     		mov sp, r11
 15519 730c 0FBC     		pop {r0-r3}
 15520 730e EB46     		mov r11, sp
 15521 7310 D546     		mov sp, r10
 15522 7312 10BC     		pop {r4}
 15523 7314 EA46     		mov r10, sp
 15524 7316 2546     		mov r5, r4
 15525 7318 2404     		lsls r4, r4, # 16
 15526 731a 240C     		lsrs r4, r4, # 16
 15527 731c 2D0C     		lsrs r5, r5, # 16
 15528 731e 6043     		muls r0, r0, r4		@R
 15529 7320 6143     		muls r1, r1, r4		@I
 15530 7322 6A43     		muls r2, r2, r5		@R
 15531 7324 6B43     		muls r3, r3, r5		@I
 15532 7326 8011     		asrs r0, r0, # 6
 15533 7328 8911     		asrs r1, r1, # 6
 15534 732a 9211     		asrs r2, r2, # 6
 15535 732c 9B11     		asrs r3, r3, # 6
 15536 732e 8018     		adds r0, r0, r2	 @r
 15537 7330 C918     		adds r1, r1, r3	 @i
 15538 7332 3618     		adds r6, r6, r0
 15539 7334 7F18     		adds r7, r7, r1
ARM GAS  1.s 			page 274


 15540              	
 15541 7336 DD46     		mov sp, r11
 15542 7338 0FBC     		pop {r0-r3}
 15543 733a EB46     		mov r11, sp
 15544 733c D546     		mov sp, r10
 15545 733e 10BC     		pop {r4}
 15546 7340 EA46     		mov r10, sp
 15547 7342 2546     		mov r5, r4
 15548 7344 2404     		lsls r4, r4, # 16
 15549 7346 240C     		lsrs r4, r4, # 16
 15550 7348 2D0C     		lsrs r5, r5, # 16
 15551 734a 6043     		muls r0, r0, r4
 15552 734c 6143     		muls r1, r1, r4
 15553 734e 6A43     		muls r2, r2, r5
 15554 7350 6B43     		muls r3, r3, r5
 15555 7352 8011     		asrs r0, r0, # 6
 15556 7354 8911     		asrs r1, r1, # 6
 15557 7356 9211     		asrs r2, r2, # 6
 15558 7358 9B11     		asrs r3, r3, # 6
 15559 735a 8018     		adds r0, r0, r2         @r
 15560 735c C918     		adds r1, r1, r3         @i
 15561 735e 3618     		adds r6, r6, r0
 15562 7360 7F18     		adds r7, r7, r1
 15563              	
 15564 7362 DD46     		mov sp, r11
 15565 7364 0FBC     		pop {r0-r3}
 15566 7366 EB46     		mov r11, sp
 15567 7368 D546     		mov sp, r10
 15568 736a 10BC     		pop {r4}
 15569 736c EA46     		mov r10, sp
 15570 736e 2546     		mov r5, r4
 15571 7370 2404     		lsls r4, r4, # 16
 15572 7372 240C     		lsrs r4, r4, # 16
 15573 7374 2D0C     		lsrs r5, r5, # 16
 15574 7376 6043     		muls r0, r0, r4
 15575 7378 6143     		muls r1, r1, r4
 15576 737a 6A43     		muls r2, r2, r5
 15577 737c 6B43     		muls r3, r3, r5
 15578 737e 8011     		asrs r0, r0, # 6
 15579 7380 8911     		asrs r1, r1, # 6
 15580 7382 9211     		asrs r2, r2, # 6
 15581 7384 9B11     		asrs r3, r3, # 6
 15582 7386 8018     		adds r0, r0, r2  @r
 15583 7388 C918     		adds r1, r1, r3  @i
 15584 738a 3618     		adds r6, r6, r0
 15585 738c 7F18     		adds r7, r7, r1
 15586              	
 15587 738e DD46     		mov sp, r11
 15588 7390 0FBC     		pop {r0-r3}
 15589 7392 EB46     		mov r11, sp
 15590 7394 D546     		mov sp, r10
 15591 7396 10BC     		pop {r4}
 15592 7398 EA46     		mov r10, sp
 15593 739a 2546     		mov r5, r4
 15594 739c 2404     		lsls r4, r4, # 16
 15595 739e 240C     		lsrs r4, r4, # 16
 15596 73a0 2D0C     		lsrs r5, r5, # 16
ARM GAS  1.s 			page 275


 15597 73a2 6043     		muls r0, r0, r4
 15598 73a4 6143     		muls r1, r1, r4
 15599 73a6 6A43     		muls r2, r2, r5
 15600 73a8 6B43     		muls r3, r3, r5
 15601 73aa 8011     		asrs r0, r0, # 6
 15602 73ac 8911     		asrs r1, r1, # 6
 15603 73ae 9211     		asrs r2, r2, # 6
 15604 73b0 9B11     		asrs r3, r3, # 6
 15605 73b2 8018     		adds r0, r0, r2         @r
 15606 73b4 C918     		adds r1, r1, r3         @i
 15607 73b6 3618     		adds r6, r6, r0
 15608 73b8 7F18     		adds r7, r7, r1
 15609              	
 15610              		@2
 15611 73ba DD46     		mov sp, r11
 15612 73bc 0FBC     		pop {r0-r3}
 15613 73be EB46     		mov r11, sp
 15614 73c0 D546     		mov sp, r10
 15615 73c2 10BC     		pop {r4}
 15616 73c4 EA46     		mov r10, sp
 15617 73c6 2546     		mov r5, r4
 15618 73c8 2404     		lsls r4, r4, # 16
 15619 73ca 240C     		lsrs r4, r4, # 16
 15620 73cc 2D0C     		lsrs r5, r5, # 16
 15621 73ce 6043     		muls r0, r0, r4		@R
 15622 73d0 6143     		muls r1, r1, r4		@I
 15623 73d2 6A43     		muls r2, r2, r5		@R
 15624 73d4 6B43     		muls r3, r3, r5		@I
 15625 73d6 8011     		asrs r0, r0, # 6
 15626 73d8 8911     		asrs r1, r1, # 6
 15627 73da 9211     		asrs r2, r2, # 6
 15628 73dc 9B11     		asrs r3, r3, # 6
 15629 73de 8018     		adds r0, r0, r2	 @r
 15630 73e0 C918     		adds r1, r1, r3	 @i
 15631 73e2 3618     		adds r6, r6, r0
 15632 73e4 7F18     		adds r7, r7, r1
 15633              	
 15634 73e6 DD46     		mov sp, r11
 15635 73e8 0FBC     		pop {r0-r3}
 15636 73ea EB46     		mov r11, sp
 15637 73ec D546     		mov sp, r10
 15638 73ee 10BC     		pop {r4}
 15639 73f0 EA46     		mov r10, sp
 15640 73f2 2546     		mov r5, r4
 15641 73f4 2404     		lsls r4, r4, # 16
 15642 73f6 240C     		lsrs r4, r4, # 16
 15643 73f8 2D0C     		lsrs r5, r5, # 16
 15644 73fa 6043     		muls r0, r0, r4
 15645 73fc 6143     		muls r1, r1, r4
 15646 73fe 6A43     		muls r2, r2, r5
 15647 7400 6B43     		muls r3, r3, r5
 15648 7402 8011     		asrs r0, r0, # 6
 15649 7404 8911     		asrs r1, r1, # 6
 15650 7406 9211     		asrs r2, r2, # 6
 15651 7408 9B11     		asrs r3, r3, # 6
 15652 740a 8018     		adds r0, r0, r2         @r
 15653 740c C918     		adds r1, r1, r3         @i
ARM GAS  1.s 			page 276


 15654 740e 3618     		adds r6, r6, r0
 15655 7410 7F18     		adds r7, r7, r1
 15656              	
 15657 7412 DD46     		mov sp, r11
 15658 7414 0FBC     		pop {r0-r3}
 15659 7416 EB46     		mov r11, sp
 15660 7418 D546     		mov sp, r10
 15661 741a 10BC     		pop {r4}
 15662 741c EA46     		mov r10, sp
 15663 741e 2546     		mov r5, r4
 15664 7420 2404     		lsls r4, r4, # 16
 15665 7422 240C     		lsrs r4, r4, # 16
 15666 7424 2D0C     		lsrs r5, r5, # 16
 15667 7426 6043     		muls r0, r0, r4
 15668 7428 6143     		muls r1, r1, r4
 15669 742a 6A43     		muls r2, r2, r5
 15670 742c 6B43     		muls r3, r3, r5
 15671 742e 8011     		asrs r0, r0, # 6
 15672 7430 8911     		asrs r1, r1, # 6
 15673 7432 9211     		asrs r2, r2, # 6
 15674 7434 9B11     		asrs r3, r3, # 6
 15675 7436 8018     		adds r0, r0, r2  @r
 15676 7438 C918     		adds r1, r1, r3  @i
 15677 743a 3618     		adds r6, r6, r0
 15678 743c 7F18     		adds r7, r7, r1
 15679              	
 15680 743e DD46     		mov sp, r11
 15681 7440 0FBC     		pop {r0-r3}
 15682 7442 EB46     		mov r11, sp
 15683 7444 D546     		mov sp, r10
 15684 7446 10BC     		pop {r4}
 15685 7448 EA46     		mov r10, sp
 15686 744a 2546     		mov r5, r4
 15687 744c 2404     		lsls r4, r4, # 16
 15688 744e 240C     		lsrs r4, r4, # 16
 15689 7450 2D0C     		lsrs r5, r5, # 16
 15690 7452 6043     		muls r0, r0, r4
 15691 7454 6143     		muls r1, r1, r4
 15692 7456 6A43     		muls r2, r2, r5
 15693 7458 6B43     		muls r3, r3, r5
 15694 745a 8011     		asrs r0, r0, # 6
 15695 745c 8911     		asrs r1, r1, # 6
 15696 745e 9211     		asrs r2, r2, # 6
 15697 7460 9B11     		asrs r3, r3, # 6
 15698 7462 8018     		adds r0, r0, r2         @r
 15699 7464 C918     		adds r1, r1, r3         @i
 15700 7466 3618     		adds r6, r6, r0
 15701 7468 7F18     		adds r7, r7, r1
 15702              	
 15703              		@3
 15704 746a DD46     		mov sp, r11
 15705 746c 0FBC     		pop {r0-r3}
 15706 746e EB46     		mov r11, sp
 15707 7470 D546     		mov sp, r10
 15708 7472 10BC     		pop {r4}
 15709 7474 EA46     		mov r10, sp
 15710 7476 2546     		mov r5, r4
ARM GAS  1.s 			page 277


 15711 7478 2404     		lsls r4, r4, # 16
 15712 747a 240C     		lsrs r4, r4, # 16
 15713 747c 2D0C     		lsrs r5, r5, # 16
 15714 747e 6043     		muls r0, r0, r4		@R
 15715 7480 6143     		muls r1, r1, r4		@I
 15716 7482 6A43     		muls r2, r2, r5		@R
 15717 7484 6B43     		muls r3, r3, r5		@I
 15718 7486 8011     		asrs r0, r0, # 6
 15719 7488 8911     		asrs r1, r1, # 6
 15720 748a 9211     		asrs r2, r2, # 6
 15721 748c 9B11     		asrs r3, r3, # 6
 15722 748e 8018     		adds r0, r0, r2	 @r
 15723 7490 C918     		adds r1, r1, r3	 @i
 15724 7492 3618     		adds r6, r6, r0
 15725 7494 7F18     		adds r7, r7, r1
 15726              	
 15727 7496 DD46     		mov sp, r11
 15728 7498 0FBC     		pop {r0-r3}
 15729 749a EB46     		mov r11, sp
 15730 749c D546     		mov sp, r10
 15731 749e 10BC     		pop {r4}
 15732 74a0 EA46     		mov r10, sp
 15733 74a2 2546     		mov r5, r4
 15734 74a4 2404     		lsls r4, r4, # 16
 15735 74a6 240C     		lsrs r4, r4, # 16
 15736 74a8 2D0C     		lsrs r5, r5, # 16
 15737 74aa 6043     		muls r0, r0, r4
 15738 74ac 6143     		muls r1, r1, r4
 15739 74ae 6A43     		muls r2, r2, r5
 15740 74b0 6B43     		muls r3, r3, r5
 15741 74b2 8011     		asrs r0, r0, # 6
 15742 74b4 8911     		asrs r1, r1, # 6
 15743 74b6 9211     		asrs r2, r2, # 6
 15744 74b8 9B11     		asrs r3, r3, # 6
 15745 74ba 8018     		adds r0, r0, r2         @r
 15746 74bc C918     		adds r1, r1, r3         @i
 15747 74be 3618     		adds r6, r6, r0
 15748 74c0 7F18     		adds r7, r7, r1
 15749              	
 15750 74c2 DD46     		mov sp, r11
 15751 74c4 0FBC     		pop {r0-r3}
 15752 74c6 EB46     		mov r11, sp
 15753 74c8 D546     		mov sp, r10
 15754 74ca 10BC     		pop {r4}
 15755 74cc EA46     		mov r10, sp
 15756 74ce 2546     		mov r5, r4
 15757 74d0 2404     		lsls r4, r4, # 16
 15758 74d2 240C     		lsrs r4, r4, # 16
 15759 74d4 2D0C     		lsrs r5, r5, # 16
 15760 74d6 6043     		muls r0, r0, r4
 15761 74d8 6143     		muls r1, r1, r4
 15762 74da 6A43     		muls r2, r2, r5
 15763 74dc 6B43     		muls r3, r3, r5
 15764 74de 8011     		asrs r0, r0, # 6
 15765 74e0 8911     		asrs r1, r1, # 6
 15766 74e2 9211     		asrs r2, r2, # 6
 15767 74e4 9B11     		asrs r3, r3, # 6
ARM GAS  1.s 			page 278


 15768 74e6 8018     		adds r0, r0, r2  @r
 15769 74e8 C918     		adds r1, r1, r3  @i
 15770 74ea 3618     		adds r6, r6, r0
 15771 74ec 7F18     		adds r7, r7, r1
 15772              	
 15773 74ee DD46     		mov sp, r11
 15774 74f0 0FBC     		pop {r0-r3}
 15775 74f2 EB46     		mov r11, sp
 15776 74f4 D546     		mov sp, r10
 15777 74f6 10BC     		pop {r4}
 15778 74f8 EA46     		mov r10, sp
 15779 74fa 2546     		mov r5, r4
 15780 74fc 2404     		lsls r4, r4, # 16
 15781 74fe 240C     		lsrs r4, r4, # 16
 15782 7500 2D0C     		lsrs r5, r5, # 16
 15783 7502 6043     		muls r0, r0, r4
 15784 7504 6143     		muls r1, r1, r4
 15785 7506 6A43     		muls r2, r2, r5
 15786 7508 6B43     		muls r3, r3, r5
 15787 750a 8011     		asrs r0, r0, # 6
 15788 750c 8911     		asrs r1, r1, # 6
 15789 750e 9211     		asrs r2, r2, # 6
 15790 7510 9B11     		asrs r3, r3, # 6
 15791 7512 8018     		adds r0, r0, r2         @r
 15792 7514 C918     		adds r1, r1, r3         @i
 15793 7516 3618     		adds r6, r6, r0
 15794 7518 7F18     		adds r7, r7, r1
 15795              	
 15796              		@4
 15797 751a DD46     		mov sp, r11
 15798 751c 0FBC     		pop {r0-r3}
 15799 751e EB46     		mov r11, sp
 15800 7520 D546     		mov sp, r10
 15801 7522 10BC     		pop {r4}
 15802 7524 EA46     		mov r10, sp
 15803 7526 2546     		mov r5, r4
 15804 7528 2404     		lsls r4, r4, # 16
 15805 752a 240C     		lsrs r4, r4, # 16
 15806 752c 2D0C     		lsrs r5, r5, # 16
 15807 752e 6043     		muls r0, r0, r4		@R
 15808 7530 6143     		muls r1, r1, r4		@I
 15809 7532 6A43     		muls r2, r2, r5		@R
 15810 7534 6B43     		muls r3, r3, r5		@I
 15811 7536 8011     		asrs r0, r0, # 6
 15812 7538 8911     		asrs r1, r1, # 6
 15813 753a 9211     		asrs r2, r2, # 6
 15814 753c 9B11     		asrs r3, r3, # 6
 15815 753e 8018     		adds r0, r0, r2	 @r
 15816 7540 C918     		adds r1, r1, r3	 @i
 15817 7542 3618     		adds r6, r6, r0
 15818 7544 7F18     		adds r7, r7, r1
 15819              	
 15820 7546 DD46     		mov sp, r11
 15821 7548 0FBC     		pop {r0-r3}
 15822 754a EB46     		mov r11, sp
 15823 754c D546     		mov sp, r10
 15824 754e 10BC     		pop {r4}
ARM GAS  1.s 			page 279


 15825 7550 EA46     		mov r10, sp
 15826 7552 2546     		mov r5, r4
 15827 7554 2404     		lsls r4, r4, # 16
 15828 7556 240C     		lsrs r4, r4, # 16
 15829 7558 2D0C     		lsrs r5, r5, # 16
 15830 755a 6043     		muls r0, r0, r4
 15831 755c 6143     		muls r1, r1, r4
 15832 755e 6A43     		muls r2, r2, r5
 15833 7560 6B43     		muls r3, r3, r5
 15834 7562 8011     		asrs r0, r0, # 6
 15835 7564 8911     		asrs r1, r1, # 6
 15836 7566 9211     		asrs r2, r2, # 6
 15837 7568 9B11     		asrs r3, r3, # 6
 15838 756a 8018     		adds r0, r0, r2         @r
 15839 756c C918     		adds r1, r1, r3         @i
 15840 756e 3618     		adds r6, r6, r0
 15841 7570 7F18     		adds r7, r7, r1
 15842              	
 15843 7572 DD46     		mov sp, r11
 15844 7574 0FBC     		pop {r0-r3}
 15845 7576 EB46     		mov r11, sp
 15846 7578 D546     		mov sp, r10
 15847 757a 10BC     		pop {r4}
 15848 757c EA46     		mov r10, sp
 15849 757e 2546     		mov r5, r4
 15850 7580 2404     		lsls r4, r4, # 16
 15851 7582 240C     		lsrs r4, r4, # 16
 15852 7584 2D0C     		lsrs r5, r5, # 16
 15853 7586 6043     		muls r0, r0, r4
 15854 7588 6143     		muls r1, r1, r4
 15855 758a 6A43     		muls r2, r2, r5
 15856 758c 6B43     		muls r3, r3, r5
 15857 758e 8011     		asrs r0, r0, # 6
 15858 7590 8911     		asrs r1, r1, # 6
 15859 7592 9211     		asrs r2, r2, # 6
 15860 7594 9B11     		asrs r3, r3, # 6
 15861 7596 8018     		adds r0, r0, r2  @r
 15862 7598 C918     		adds r1, r1, r3  @i
 15863 759a 3618     		adds r6, r6, r0
 15864 759c 7F18     		adds r7, r7, r1
 15865              	
 15866 759e DD46     		mov sp, r11
 15867 75a0 0FBC     		pop {r0-r3}
 15868 75a2 EB46     		mov r11, sp
 15869 75a4 D546     		mov sp, r10
 15870 75a6 10BC     		pop {r4}
 15871 75a8 EA46     		mov r10, sp
 15872 75aa 2546     		mov r5, r4
 15873 75ac 2404     		lsls r4, r4, # 16
 15874 75ae 240C     		lsrs r4, r4, # 16
 15875 75b0 2D0C     		lsrs r5, r5, # 16
 15876 75b2 6043     		muls r0, r0, r4
 15877 75b4 6143     		muls r1, r1, r4
 15878 75b6 6A43     		muls r2, r2, r5
 15879 75b8 6B43     		muls r3, r3, r5
 15880 75ba 8011     		asrs r0, r0, # 6
 15881 75bc 8911     		asrs r1, r1, # 6
ARM GAS  1.s 			page 280


 15882 75be 9211     		asrs r2, r2, # 6
 15883 75c0 9B11     		asrs r3, r3, # 6
 15884 75c2 8018     		adds r0, r0, r2         @r
 15885 75c4 C918     		adds r1, r1, r3         @i
 15886 75c6 3618     		adds r6, r6, r0
 15887 75c8 7F18     		adds r7, r7, r1
 15888              	
 15889              		@5
 15890 75ca DD46     		mov sp, r11
 15891 75cc 0FBC     		pop {r0-r3}
 15892 75ce EB46     		mov r11, sp
 15893 75d0 D546     		mov sp, r10
 15894 75d2 10BC     		pop {r4}
 15895 75d4 EA46     		mov r10, sp
 15896 75d6 2546     		mov r5, r4
 15897 75d8 2404     		lsls r4, r4, # 16
 15898 75da 240C     		lsrs r4, r4, # 16
 15899 75dc 2D0C     		lsrs r5, r5, # 16
 15900 75de 6043     		muls r0, r0, r4		@R
 15901 75e0 6143     		muls r1, r1, r4		@I
 15902 75e2 6A43     		muls r2, r2, r5		@R
 15903 75e4 6B43     		muls r3, r3, r5		@I
 15904 75e6 8011     		asrs r0, r0, # 6
 15905 75e8 8911     		asrs r1, r1, # 6
 15906 75ea 9211     		asrs r2, r2, # 6
 15907 75ec 9B11     		asrs r3, r3, # 6
 15908 75ee 8018     		adds r0, r0, r2	 @r
 15909 75f0 C918     		adds r1, r1, r3	 @i
 15910 75f2 3618     		adds r6, r6, r0
 15911 75f4 7F18     		adds r7, r7, r1
 15912              	
 15913 75f6 DD46     		mov sp, r11
 15914 75f8 0FBC     		pop {r0-r3}
 15915 75fa EB46     		mov r11, sp
 15916 75fc D546     		mov sp, r10
 15917 75fe 10BC     		pop {r4}
 15918 7600 EA46     		mov r10, sp
 15919 7602 2546     		mov r5, r4
 15920 7604 2404     		lsls r4, r4, # 16
 15921 7606 240C     		lsrs r4, r4, # 16
 15922 7608 2D0C     		lsrs r5, r5, # 16
 15923 760a 6043     		muls r0, r0, r4
 15924 760c 6143     		muls r1, r1, r4
 15925 760e 6A43     		muls r2, r2, r5
 15926 7610 6B43     		muls r3, r3, r5
 15927 7612 8011     		asrs r0, r0, # 6
 15928 7614 8911     		asrs r1, r1, # 6
 15929 7616 9211     		asrs r2, r2, # 6
 15930 7618 9B11     		asrs r3, r3, # 6
 15931 761a 8018     		adds r0, r0, r2         @r
 15932 761c C918     		adds r1, r1, r3         @i
 15933 761e 3618     		adds r6, r6, r0
 15934 7620 7F18     		adds r7, r7, r1
 15935              	
 15936 7622 DD46     		mov sp, r11
 15937 7624 0FBC     		pop {r0-r3}
 15938 7626 EB46     		mov r11, sp
ARM GAS  1.s 			page 281


 15939 7628 D546     		mov sp, r10
 15940 762a 10BC     		pop {r4}
 15941 762c EA46     		mov r10, sp
 15942 762e 2546     		mov r5, r4
 15943 7630 2404     		lsls r4, r4, # 16
 15944 7632 240C     		lsrs r4, r4, # 16
 15945 7634 2D0C     		lsrs r5, r5, # 16
 15946 7636 6043     		muls r0, r0, r4
 15947 7638 6143     		muls r1, r1, r4
 15948 763a 6A43     		muls r2, r2, r5
 15949 763c 6B43     		muls r3, r3, r5
 15950 763e 8011     		asrs r0, r0, # 6
 15951 7640 8911     		asrs r1, r1, # 6
 15952 7642 9211     		asrs r2, r2, # 6
 15953 7644 9B11     		asrs r3, r3, # 6
 15954 7646 8018     		adds r0, r0, r2  @r
 15955 7648 C918     		adds r1, r1, r3  @i
 15956 764a 3618     		adds r6, r6, r0
 15957 764c 7F18     		adds r7, r7, r1
 15958              	
 15959 764e DD46     		mov sp, r11
 15960 7650 0FBC     		pop {r0-r3}
 15961 7652 EB46     		mov r11, sp
 15962 7654 D546     		mov sp, r10
 15963 7656 10BC     		pop {r4}
 15964 7658 EA46     		mov r10, sp
 15965 765a 2546     		mov r5, r4
 15966 765c 2404     		lsls r4, r4, # 16
 15967 765e 240C     		lsrs r4, r4, # 16
 15968 7660 2D0C     		lsrs r5, r5, # 16
 15969 7662 6043     		muls r0, r0, r4
 15970 7664 6143     		muls r1, r1, r4
 15971 7666 6A43     		muls r2, r2, r5
 15972 7668 6B43     		muls r3, r3, r5
 15973 766a 8011     		asrs r0, r0, # 6
 15974 766c 8911     		asrs r1, r1, # 6
 15975 766e 9211     		asrs r2, r2, # 6
 15976 7670 9B11     		asrs r3, r3, # 6
 15977 7672 8018     		adds r0, r0, r2         @r
 15978 7674 C918     		adds r1, r1, r3         @i
 15979 7676 3618     		adds r6, r6, r0
 15980 7678 7F18     		adds r7, r7, r1
 15981              	
 15982              		@6
 15983 767a DD46     		mov sp, r11
 15984 767c 0FBC     		pop {r0-r3}
 15985 767e EB46     		mov r11, sp
 15986 7680 D546     		mov sp, r10
 15987 7682 10BC     		pop {r4}
 15988 7684 EA46     		mov r10, sp
 15989 7686 2546     		mov r5, r4
 15990 7688 2404     		lsls r4, r4, # 16
 15991 768a 240C     		lsrs r4, r4, # 16
 15992 768c 2D0C     		lsrs r5, r5, # 16
 15993 768e 6043     		muls r0, r0, r4		@R
 15994 7690 6143     		muls r1, r1, r4		@I
 15995 7692 6A43     		muls r2, r2, r5		@R
ARM GAS  1.s 			page 282


 15996 7694 6B43     		muls r3, r3, r5		@I
 15997 7696 8011     		asrs r0, r0, # 6
 15998 7698 8911     		asrs r1, r1, # 6
 15999 769a 9211     		asrs r2, r2, # 6
 16000 769c 9B11     		asrs r3, r3, # 6
 16001 769e 8018     		adds r0, r0, r2	 @r
 16002 76a0 C918     		adds r1, r1, r3	 @i
 16003 76a2 3618     		adds r6, r6, r0
 16004 76a4 7F18     		adds r7, r7, r1
 16005              	
 16006 76a6 DD46     		mov sp, r11
 16007 76a8 0FBC     		pop {r0-r3}
 16008 76aa EB46     		mov r11, sp
 16009 76ac D546     		mov sp, r10
 16010 76ae 10BC     		pop {r4}
 16011 76b0 EA46     		mov r10, sp
 16012 76b2 2546     		mov r5, r4
 16013 76b4 2404     		lsls r4, r4, # 16
 16014 76b6 240C     		lsrs r4, r4, # 16
 16015 76b8 2D0C     		lsrs r5, r5, # 16
 16016 76ba 6043     		muls r0, r0, r4
 16017 76bc 6143     		muls r1, r1, r4
 16018 76be 6A43     		muls r2, r2, r5
 16019 76c0 6B43     		muls r3, r3, r5
 16020 76c2 8011     		asrs r0, r0, # 6
 16021 76c4 8911     		asrs r1, r1, # 6
 16022 76c6 9211     		asrs r2, r2, # 6
 16023 76c8 9B11     		asrs r3, r3, # 6
 16024 76ca 8018     		adds r0, r0, r2         @r
 16025 76cc C918     		adds r1, r1, r3         @i
 16026 76ce 3618     		adds r6, r6, r0
 16027 76d0 7F18     		adds r7, r7, r1
 16028              	
 16029 76d2 DD46     		mov sp, r11
 16030 76d4 0FBC     		pop {r0-r3}
 16031 76d6 EB46     		mov r11, sp
 16032 76d8 D546     		mov sp, r10
 16033 76da 10BC     		pop {r4}
 16034 76dc EA46     		mov r10, sp
 16035 76de 2546     		mov r5, r4
 16036 76e0 2404     		lsls r4, r4, # 16
 16037 76e2 240C     		lsrs r4, r4, # 16
 16038 76e4 2D0C     		lsrs r5, r5, # 16
 16039 76e6 6043     		muls r0, r0, r4
 16040 76e8 6143     		muls r1, r1, r4
 16041 76ea 6A43     		muls r2, r2, r5
 16042 76ec 6B43     		muls r3, r3, r5
 16043 76ee 8011     		asrs r0, r0, # 6
 16044 76f0 8911     		asrs r1, r1, # 6
 16045 76f2 9211     		asrs r2, r2, # 6
 16046 76f4 9B11     		asrs r3, r3, # 6
 16047 76f6 8018     		adds r0, r0, r2  @r
 16048 76f8 C918     		adds r1, r1, r3  @i
 16049 76fa 3618     		adds r6, r6, r0
 16050 76fc 7F18     		adds r7, r7, r1
 16051              	
 16052 76fe DD46     		mov sp, r11
ARM GAS  1.s 			page 283


 16053 7700 0FBC     		pop {r0-r3}
 16054 7702 EB46     		mov r11, sp
 16055 7704 D546     		mov sp, r10
 16056 7706 10BC     		pop {r4}
 16057 7708 EA46     		mov r10, sp
 16058 770a 2546     		mov r5, r4
 16059 770c 2404     		lsls r4, r4, # 16
 16060 770e 240C     		lsrs r4, r4, # 16
 16061 7710 2D0C     		lsrs r5, r5, # 16
 16062 7712 6043     		muls r0, r0, r4
 16063 7714 6143     		muls r1, r1, r4
 16064 7716 6A43     		muls r2, r2, r5
 16065 7718 6B43     		muls r3, r3, r5
 16066 771a 8011     		asrs r0, r0, # 6
 16067 771c 8911     		asrs r1, r1, # 6
 16068 771e 9211     		asrs r2, r2, # 6
 16069 7720 9B11     		asrs r3, r3, # 6
 16070 7722 8018     		adds r0, r0, r2         @r
 16071 7724 C918     		adds r1, r1, r3         @i
 16072 7726 3618     		adds r6, r6, r0
 16073 7728 7F18     		adds r7, r7, r1
 16074              	
 16075              		@7
 16076 772a DD46     		mov sp, r11
 16077 772c 0FBC     		pop {r0-r3}
 16078 772e EB46     		mov r11, sp
 16079 7730 D546     		mov sp, r10
 16080 7732 10BC     		pop {r4}
 16081 7734 EA46     		mov r10, sp
 16082 7736 2546     		mov r5, r4
 16083 7738 2404     		lsls r4, r4, # 16
 16084 773a 240C     		lsrs r4, r4, # 16
 16085 773c 2D0C     		lsrs r5, r5, # 16
 16086 773e 6043     		muls r0, r0, r4		@R
 16087 7740 6143     		muls r1, r1, r4		@I
 16088 7742 6A43     		muls r2, r2, r5		@R
 16089 7744 6B43     		muls r3, r3, r5		@I
 16090 7746 8011     		asrs r0, r0, # 6
 16091 7748 8911     		asrs r1, r1, # 6
 16092 774a 9211     		asrs r2, r2, # 6
 16093 774c 9B11     		asrs r3, r3, # 6
 16094 774e 8018     		adds r0, r0, r2	 @r
 16095 7750 C918     		adds r1, r1, r3	 @i
 16096 7752 3618     		adds r6, r6, r0
 16097 7754 7F18     		adds r7, r7, r1
 16098              	
 16099 7756 DD46     		mov sp, r11
 16100 7758 0FBC     		pop {r0-r3}
 16101 775a EB46     		mov r11, sp
 16102 775c D546     		mov sp, r10
 16103 775e 10BC     		pop {r4}
 16104 7760 EA46     		mov r10, sp
 16105 7762 2546     		mov r5, r4
 16106 7764 2404     		lsls r4, r4, # 16
 16107 7766 240C     		lsrs r4, r4, # 16
 16108 7768 2D0C     		lsrs r5, r5, # 16
 16109 776a 6043     		muls r0, r0, r4
ARM GAS  1.s 			page 284


 16110 776c 6143     		muls r1, r1, r4
 16111 776e 6A43     		muls r2, r2, r5
 16112 7770 6B43     		muls r3, r3, r5
 16113 7772 8011     		asrs r0, r0, # 6
 16114 7774 8911     		asrs r1, r1, # 6
 16115 7776 9211     		asrs r2, r2, # 6
 16116 7778 9B11     		asrs r3, r3, # 6
 16117 777a 8018     		adds r0, r0, r2         @r
 16118 777c C918     		adds r1, r1, r3         @i
 16119 777e 3618     		adds r6, r6, r0
 16120 7780 7F18     		adds r7, r7, r1
 16121              	
 16122 7782 DD46     		mov sp, r11
 16123 7784 0FBC     		pop {r0-r3}
 16124 7786 EB46     		mov r11, sp
 16125 7788 D546     		mov sp, r10
 16126 778a 10BC     		pop {r4}
 16127 778c EA46     		mov r10, sp
 16128 778e 2546     		mov r5, r4
 16129 7790 2404     		lsls r4, r4, # 16
 16130 7792 240C     		lsrs r4, r4, # 16
 16131 7794 2D0C     		lsrs r5, r5, # 16
 16132 7796 6043     		muls r0, r0, r4
 16133 7798 6143     		muls r1, r1, r4
 16134 779a 6A43     		muls r2, r2, r5
 16135 779c 6B43     		muls r3, r3, r5
 16136 779e 8011     		asrs r0, r0, # 6
 16137 77a0 8911     		asrs r1, r1, # 6
 16138 77a2 9211     		asrs r2, r2, # 6
 16139 77a4 9B11     		asrs r3, r3, # 6
 16140 77a6 8018     		adds r0, r0, r2  @r
 16141 77a8 C918     		adds r1, r1, r3  @i
 16142 77aa 3618     		adds r6, r6, r0
 16143 77ac 7F18     		adds r7, r7, r1
 16144              	
 16145 77ae DD46     		mov sp, r11
 16146 77b0 0FBC     		pop {r0-r3}
 16147 77b2 EB46     		mov r11, sp
 16148 77b4 D546     		mov sp, r10
 16149 77b6 10BC     		pop {r4}
 16150 77b8 EA46     		mov r10, sp
 16151 77ba 2546     		mov r5, r4
 16152 77bc 2404     		lsls r4, r4, # 16
 16153 77be 240C     		lsrs r4, r4, # 16
 16154 77c0 2D0C     		lsrs r5, r5, # 16
 16155 77c2 6043     		muls r0, r0, r4
 16156 77c4 6143     		muls r1, r1, r4
 16157 77c6 6A43     		muls r2, r2, r5
 16158 77c8 6B43     		muls r3, r3, r5
 16159 77ca 8011     		asrs r0, r0, # 6
 16160 77cc 8911     		asrs r1, r1, # 6
 16161 77ce 9211     		asrs r2, r2, # 6
 16162 77d0 9B11     		asrs r3, r3, # 6
 16163 77d2 8018     		adds r0, r0, r2         @r
 16164 77d4 C918     		adds r1, r1, r3         @i
 16165 77d6 3618     		adds r6, r6, r0
 16166 77d8 7F18     		adds r7, r7, r1
ARM GAS  1.s 			page 285


 16167              	
 16168              		@8
 16169 77da DD46     		mov sp, r11
 16170 77dc 0FBC     		pop {r0-r3}
 16171 77de EB46     		mov r11, sp
 16172 77e0 D546     		mov sp, r10
 16173 77e2 10BC     		pop {r4}
 16174 77e4 EA46     		mov r10, sp
 16175 77e6 2546     		mov r5, r4
 16176 77e8 2404     		lsls r4, r4, # 16
 16177 77ea 240C     		lsrs r4, r4, # 16
 16178 77ec 2D0C     		lsrs r5, r5, # 16
 16179 77ee 6043     		muls r0, r0, r4		@R
 16180 77f0 6143     		muls r1, r1, r4		@I
 16181 77f2 6A43     		muls r2, r2, r5		@R
 16182 77f4 6B43     		muls r3, r3, r5		@I
 16183 77f6 8011     		asrs r0, r0, # 6
 16184 77f8 8911     		asrs r1, r1, # 6
 16185 77fa 9211     		asrs r2, r2, # 6
 16186 77fc 9B11     		asrs r3, r3, # 6
 16187 77fe 8018     		adds r0, r0, r2	 @r
 16188 7800 C918     		adds r1, r1, r3	 @i
 16189 7802 3618     		adds r6, r6, r0
 16190 7804 7F18     		adds r7, r7, r1
 16191              	
 16192 7806 DD46     		mov sp, r11
 16193 7808 0FBC     		pop {r0-r3}
 16194 780a EB46     		mov r11, sp
 16195 780c D546     		mov sp, r10
 16196 780e 10BC     		pop {r4}
 16197 7810 EA46     		mov r10, sp
 16198 7812 2546     		mov r5, r4
 16199 7814 2404     		lsls r4, r4, # 16
 16200 7816 240C     		lsrs r4, r4, # 16
 16201 7818 2D0C     		lsrs r5, r5, # 16
 16202 781a 6043     		muls r0, r0, r4
 16203 781c 6143     		muls r1, r1, r4
 16204 781e 6A43     		muls r2, r2, r5
 16205 7820 6B43     		muls r3, r3, r5
 16206 7822 8011     		asrs r0, r0, # 6
 16207 7824 8911     		asrs r1, r1, # 6
 16208 7826 9211     		asrs r2, r2, # 6
 16209 7828 9B11     		asrs r3, r3, # 6
 16210 782a 8018     		adds r0, r0, r2         @r
 16211 782c C918     		adds r1, r1, r3         @i
 16212 782e 3618     		adds r6, r6, r0
 16213 7830 7F18     		adds r7, r7, r1
 16214              	
 16215 7832 DD46     		mov sp, r11
 16216 7834 0FBC     		pop {r0-r3}
 16217 7836 EB46     		mov r11, sp
 16218 7838 D546     		mov sp, r10
 16219 783a 10BC     		pop {r4}
 16220 783c EA46     		mov r10, sp
 16221 783e 2546     		mov r5, r4
 16222 7840 2404     		lsls r4, r4, # 16
 16223 7842 240C     		lsrs r4, r4, # 16
ARM GAS  1.s 			page 286


 16224 7844 2D0C     		lsrs r5, r5, # 16
 16225 7846 6043     		muls r0, r0, r4
 16226 7848 6143     		muls r1, r1, r4
 16227 784a 6A43     		muls r2, r2, r5
 16228 784c 6B43     		muls r3, r3, r5
 16229 784e 8011     		asrs r0, r0, # 6
 16230 7850 8911     		asrs r1, r1, # 6
 16231 7852 9211     		asrs r2, r2, # 6
 16232 7854 9B11     		asrs r3, r3, # 6
 16233 7856 8018     		adds r0, r0, r2  @r
 16234 7858 C918     		adds r1, r1, r3  @i
 16235 785a 3618     		adds r6, r6, r0
 16236 785c 7F18     		adds r7, r7, r1
 16237              	
 16238 785e DD46     		mov sp, r11
 16239 7860 0FBC     		pop {r0-r3}
 16240 7862 EB46     		mov r11, sp
 16241 7864 D546     		mov sp, r10
 16242 7866 10BC     		pop {r4}
 16243 7868 EA46     		mov r10, sp
 16244 786a 2546     		mov r5, r4
 16245 786c 2404     		lsls r4, r4, # 16
 16246 786e 240C     		lsrs r4, r4, # 16
 16247 7870 2D0C     		lsrs r5, r5, # 16
 16248 7872 6043     		muls r0, r0, r4
 16249 7874 6143     		muls r1, r1, r4
 16250 7876 6A43     		muls r2, r2, r5
 16251 7878 6B43     		muls r3, r3, r5
 16252 787a 8011     		asrs r0, r0, # 6
 16253 787c 8911     		asrs r1, r1, # 6
 16254 787e 9211     		asrs r2, r2, # 6
 16255 7880 9B11     		asrs r3, r3, # 6
 16256 7882 8018     		adds r0, r0, r2         @r
 16257 7884 C918     		adds r1, r1, r3         @i
 16258 7886 3618     		adds r6, r6, r0
 16259 7888 7F18     		adds r7, r7, r1
 16260              	
 16261              		@9
 16262 788a DD46     		mov sp, r11
 16263 788c 0FBC     		pop {r0-r3}
 16264 788e EB46     		mov r11, sp
 16265 7890 D546     		mov sp, r10
 16266 7892 10BC     		pop {r4}
 16267 7894 EA46     		mov r10, sp
 16268 7896 2546     		mov r5, r4
 16269 7898 2404     		lsls r4, r4, # 16
 16270 789a 240C     		lsrs r4, r4, # 16
 16271 789c 2D0C     		lsrs r5, r5, # 16
 16272 789e 6043     		muls r0, r0, r4		@R
 16273 78a0 6143     		muls r1, r1, r4		@I
 16274 78a2 6A43     		muls r2, r2, r5		@R
 16275 78a4 6B43     		muls r3, r3, r5		@I
 16276 78a6 8011     		asrs r0, r0, # 6
 16277 78a8 8911     		asrs r1, r1, # 6
 16278 78aa 9211     		asrs r2, r2, # 6
 16279 78ac 9B11     		asrs r3, r3, # 6
 16280 78ae 8018     		adds r0, r0, r2	 @r
ARM GAS  1.s 			page 287


 16281 78b0 C918     		adds r1, r1, r3	 @i
 16282 78b2 3618     		adds r6, r6, r0
 16283 78b4 7F18     		adds r7, r7, r1
 16284              	
 16285 78b6 DD46     		mov sp, r11
 16286 78b8 0FBC     		pop {r0-r3}
 16287 78ba EB46     		mov r11, sp
 16288 78bc D546     		mov sp, r10
 16289 78be 10BC     		pop {r4}
 16290 78c0 EA46     		mov r10, sp
 16291 78c2 2546     		mov r5, r4
 16292 78c4 2404     		lsls r4, r4, # 16
 16293 78c6 240C     		lsrs r4, r4, # 16
 16294 78c8 2D0C     		lsrs r5, r5, # 16
 16295 78ca 6043     		muls r0, r0, r4
 16296 78cc 6143     		muls r1, r1, r4
 16297 78ce 6A43     		muls r2, r2, r5
 16298 78d0 6B43     		muls r3, r3, r5
 16299 78d2 8011     		asrs r0, r0, # 6
 16300 78d4 8911     		asrs r1, r1, # 6
 16301 78d6 9211     		asrs r2, r2, # 6
 16302 78d8 9B11     		asrs r3, r3, # 6
 16303 78da 8018     		adds r0, r0, r2         @r
 16304 78dc C918     		adds r1, r1, r3         @i
 16305 78de 3618     		adds r6, r6, r0
 16306 78e0 7F18     		adds r7, r7, r1
 16307              	
 16308 78e2 DD46     		mov sp, r11
 16309 78e4 0FBC     		pop {r0-r3}
 16310 78e6 EB46     		mov r11, sp
 16311 78e8 D546     		mov sp, r10
 16312 78ea 10BC     		pop {r4}
 16313 78ec EA46     		mov r10, sp
 16314 78ee 2546     		mov r5, r4
 16315 78f0 2404     		lsls r4, r4, # 16
 16316 78f2 240C     		lsrs r4, r4, # 16
 16317 78f4 2D0C     		lsrs r5, r5, # 16
 16318 78f6 6043     		muls r0, r0, r4
 16319 78f8 6143     		muls r1, r1, r4
 16320 78fa 6A43     		muls r2, r2, r5
 16321 78fc 6B43     		muls r3, r3, r5
 16322 78fe 8011     		asrs r0, r0, # 6
 16323 7900 8911     		asrs r1, r1, # 6
 16324 7902 9211     		asrs r2, r2, # 6
 16325 7904 9B11     		asrs r3, r3, # 6
 16326 7906 8018     		adds r0, r0, r2  @r
 16327 7908 C918     		adds r1, r1, r3  @i
 16328 790a 3618     		adds r6, r6, r0
 16329 790c 7F18     		adds r7, r7, r1
 16330              	
 16331 790e DD46     		mov sp, r11
 16332 7910 0FBC     		pop {r0-r3}
 16333 7912 EB46     		mov r11, sp
 16334 7914 D546     		mov sp, r10
 16335 7916 10BC     		pop {r4}
 16336 7918 EA46     		mov r10, sp
 16337 791a 2546     		mov r5, r4
ARM GAS  1.s 			page 288


 16338 791c 2404     		lsls r4, r4, # 16
 16339 791e 240C     		lsrs r4, r4, # 16
 16340 7920 2D0C     		lsrs r5, r5, # 16
 16341 7922 6043     		muls r0, r0, r4
 16342 7924 6143     		muls r1, r1, r4
 16343 7926 6A43     		muls r2, r2, r5
 16344 7928 6B43     		muls r3, r3, r5
 16345 792a 8011     		asrs r0, r0, # 6
 16346 792c 8911     		asrs r1, r1, # 6
 16347 792e 9211     		asrs r2, r2, # 6
 16348 7930 9B11     		asrs r3, r3, # 6
 16349 7932 8018     		adds r0, r0, r2         @r
 16350 7934 C918     		adds r1, r1, r3         @i
 16351 7936 3618     		adds r6, r6, r0
 16352 7938 7F18     		adds r7, r7, r1
 16353              	
 16354              		@yjm16
 16355              		@0
 16356 793a DD46     		mov sp, r11
 16357 793c 0FBC     		pop {r0-r3}
 16358 793e EB46     		mov r11, sp
 16359 7940 D546     		mov sp, r10
 16360 7942 10BC     		pop {r4}
 16361 7944 EA46     		mov r10, sp
 16362 7946 2546     		mov r5, r4
 16363 7948 2404     		lsls r4, r4, # 16
 16364 794a 240C     		lsrs r4, r4, # 16
 16365 794c 2D0C     		lsrs r5, r5, # 16
 16366 794e 6043     		muls r0, r0, r4		@R
 16367 7950 6143     		muls r1, r1, r4		@I
 16368 7952 6A43     		muls r2, r2, r5		@R
 16369 7954 6B43     		muls r3, r3, r5		@I
 16370 7956 8011     		asrs r0, r0, # 6
 16371 7958 8911     		asrs r1, r1, # 6
 16372 795a 9211     		asrs r2, r2, # 6
 16373 795c 9B11     		asrs r3, r3, # 6
 16374 795e 8018     		adds r0, r0, r2	 @r
 16375 7960 C918     		adds r1, r1, r3	 @i
 16376 7962 3618     		adds r6, r6, r0
 16377 7964 7F18     		adds r7, r7, r1
 16378              	
 16379 7966 DD46     		mov sp, r11
 16380 7968 0FBC     		pop {r0-r3}
 16381 796a EB46     		mov r11, sp
 16382 796c D546     		mov sp, r10
 16383 796e 10BC     		pop {r4}
 16384 7970 EA46     		mov r10, sp
 16385 7972 2546     		mov r5, r4
 16386 7974 2404     		lsls r4, r4, # 16
 16387 7976 240C     		lsrs r4, r4, # 16
 16388 7978 2D0C     		lsrs r5, r5, # 16
 16389 797a 6043     		muls r0, r0, r4
 16390 797c 6143     		muls r1, r1, r4
 16391 797e 6A43     		muls r2, r2, r5
 16392 7980 6B43     		muls r3, r3, r5
 16393 7982 8011     		asrs r0, r0, # 6
 16394 7984 8911     		asrs r1, r1, # 6
ARM GAS  1.s 			page 289


 16395 7986 9211     		asrs r2, r2, # 6
 16396 7988 9B11     		asrs r3, r3, # 6
 16397 798a 8018     		adds r0, r0, r2         @r
 16398 798c C918     		adds r1, r1, r3         @i
 16399 798e 3618     		adds r6, r6, r0
 16400 7990 7F18     		adds r7, r7, r1
 16401              	
 16402 7992 DD46     		mov sp, r11
 16403 7994 0FBC     		pop {r0-r3}
 16404 7996 EB46     		mov r11, sp
 16405 7998 D546     		mov sp, r10
 16406 799a 10BC     		pop {r4}
 16407 799c EA46     		mov r10, sp
 16408 799e 2546     		mov r5, r4
 16409 79a0 2404     		lsls r4, r4, # 16
 16410 79a2 240C     		lsrs r4, r4, # 16
 16411 79a4 2D0C     		lsrs r5, r5, # 16
 16412 79a6 6043     		muls r0, r0, r4
 16413 79a8 6143     		muls r1, r1, r4
 16414 79aa 6A43     		muls r2, r2, r5
 16415 79ac 6B43     		muls r3, r3, r5
 16416 79ae 8011     		asrs r0, r0, # 6
 16417 79b0 8911     		asrs r1, r1, # 6
 16418 79b2 9211     		asrs r2, r2, # 6
 16419 79b4 9B11     		asrs r3, r3, # 6
 16420 79b6 8018     		adds r0, r0, r2  @r
 16421 79b8 C918     		adds r1, r1, r3  @i
 16422 79ba 3618     		adds r6, r6, r0
 16423 79bc 7F18     		adds r7, r7, r1
 16424              	
 16425 79be DD46     		mov sp, r11
 16426 79c0 0FBC     		pop {r0-r3}
 16427 79c2 EB46     		mov r11, sp
 16428 79c4 D546     		mov sp, r10
 16429 79c6 10BC     		pop {r4}
 16430 79c8 EA46     		mov r10, sp
 16431 79ca 2546     		mov r5, r4
 16432 79cc 2404     		lsls r4, r4, # 16
 16433 79ce 240C     		lsrs r4, r4, # 16
 16434 79d0 2D0C     		lsrs r5, r5, # 16
 16435 79d2 6043     		muls r0, r0, r4
 16436 79d4 6143     		muls r1, r1, r4
 16437 79d6 6A43     		muls r2, r2, r5
 16438 79d8 6B43     		muls r3, r3, r5
 16439 79da 8011     		asrs r0, r0, # 6
 16440 79dc 8911     		asrs r1, r1, # 6
 16441 79de 9211     		asrs r2, r2, # 6
 16442 79e0 9B11     		asrs r3, r3, # 6
 16443 79e2 8018     		adds r0, r0, r2         @r
 16444 79e4 C918     		adds r1, r1, r3         @i
 16445 79e6 3618     		adds r6, r6, r0
 16446 79e8 7F18     		adds r7, r7, r1
 16447              	
 16448              		@1
 16449 79ea DD46     		mov sp, r11
 16450 79ec 0FBC     		pop {r0-r3}
 16451 79ee EB46     		mov r11, sp
ARM GAS  1.s 			page 290


 16452 79f0 D546     		mov sp, r10
 16453 79f2 10BC     		pop {r4}
 16454 79f4 EA46     		mov r10, sp
 16455 79f6 2546     		mov r5, r4
 16456 79f8 2404     		lsls r4, r4, # 16
 16457 79fa 240C     		lsrs r4, r4, # 16
 16458 79fc 2D0C     		lsrs r5, r5, # 16
 16459 79fe 6043     		muls r0, r0, r4		@R
 16460 7a00 6143     		muls r1, r1, r4		@I
 16461 7a02 6A43     		muls r2, r2, r5		@R
 16462 7a04 6B43     		muls r3, r3, r5		@I
 16463 7a06 8011     		asrs r0, r0, # 6
 16464 7a08 8911     		asrs r1, r1, # 6
 16465 7a0a 9211     		asrs r2, r2, # 6
 16466 7a0c 9B11     		asrs r3, r3, # 6
 16467 7a0e 8018     		adds r0, r0, r2	 @r
 16468 7a10 C918     		adds r1, r1, r3	 @i
 16469 7a12 3618     		adds r6, r6, r0
 16470 7a14 7F18     		adds r7, r7, r1
 16471              	
 16472 7a16 DD46     		mov sp, r11
 16473 7a18 0FBC     		pop {r0-r3}
 16474 7a1a EB46     		mov r11, sp
 16475 7a1c D546     		mov sp, r10
 16476 7a1e 10BC     		pop {r4}
 16477 7a20 EA46     		mov r10, sp
 16478 7a22 2546     		mov r5, r4
 16479 7a24 2404     		lsls r4, r4, # 16
 16480 7a26 240C     		lsrs r4, r4, # 16
 16481 7a28 2D0C     		lsrs r5, r5, # 16
 16482 7a2a 6043     		muls r0, r0, r4
 16483 7a2c 6143     		muls r1, r1, r4
 16484 7a2e 6A43     		muls r2, r2, r5
 16485 7a30 6B43     		muls r3, r3, r5
 16486 7a32 8011     		asrs r0, r0, # 6
 16487 7a34 8911     		asrs r1, r1, # 6
 16488 7a36 9211     		asrs r2, r2, # 6
 16489 7a38 9B11     		asrs r3, r3, # 6
 16490 7a3a 8018     		adds r0, r0, r2         @r
 16491 7a3c C918     		adds r1, r1, r3         @i
 16492 7a3e 3618     		adds r6, r6, r0
 16493 7a40 7F18     		adds r7, r7, r1
 16494              	
 16495 7a42 DD46     		mov sp, r11
 16496 7a44 0FBC     		pop {r0-r3}
 16497 7a46 EB46     		mov r11, sp
 16498 7a48 D546     		mov sp, r10
 16499 7a4a 10BC     		pop {r4}
 16500 7a4c EA46     		mov r10, sp
 16501 7a4e 2546     		mov r5, r4
 16502 7a50 2404     		lsls r4, r4, # 16
 16503 7a52 240C     		lsrs r4, r4, # 16
 16504 7a54 2D0C     		lsrs r5, r5, # 16
 16505 7a56 6043     		muls r0, r0, r4
 16506 7a58 6143     		muls r1, r1, r4
 16507 7a5a 6A43     		muls r2, r2, r5
 16508 7a5c 6B43     		muls r3, r3, r5
ARM GAS  1.s 			page 291


 16509 7a5e 8011     		asrs r0, r0, # 6
 16510 7a60 8911     		asrs r1, r1, # 6
 16511 7a62 9211     		asrs r2, r2, # 6
 16512 7a64 9B11     		asrs r3, r3, # 6
 16513 7a66 8018     		adds r0, r0, r2  @r
 16514 7a68 C918     		adds r1, r1, r3  @i
 16515 7a6a 3618     		adds r6, r6, r0
 16516 7a6c 7F18     		adds r7, r7, r1
 16517              	
 16518 7a6e DD46     		mov sp, r11
 16519 7a70 0FBC     		pop {r0-r3}
 16520 7a72 EB46     		mov r11, sp
 16521 7a74 D546     		mov sp, r10
 16522 7a76 10BC     		pop {r4}
 16523 7a78 EA46     		mov r10, sp
 16524 7a7a 2546     		mov r5, r4
 16525 7a7c 2404     		lsls r4, r4, # 16
 16526 7a7e 240C     		lsrs r4, r4, # 16
 16527 7a80 2D0C     		lsrs r5, r5, # 16
 16528 7a82 6043     		muls r0, r0, r4
 16529 7a84 6143     		muls r1, r1, r4
 16530 7a86 6A43     		muls r2, r2, r5
 16531 7a88 6B43     		muls r3, r3, r5
 16532 7a8a 8011     		asrs r0, r0, # 6
 16533 7a8c 8911     		asrs r1, r1, # 6
 16534 7a8e 9211     		asrs r2, r2, # 6
 16535 7a90 9B11     		asrs r3, r3, # 6
 16536 7a92 8018     		adds r0, r0, r2         @r
 16537 7a94 C918     		adds r1, r1, r3         @i
 16538 7a96 3618     		adds r6, r6, r0
 16539 7a98 7F18     		adds r7, r7, r1
 16540              	
 16541              		@2
 16542 7a9a DD46     		mov sp, r11
 16543 7a9c 0FBC     		pop {r0-r3}
 16544 7a9e EB46     		mov r11, sp
 16545 7aa0 D546     		mov sp, r10
 16546 7aa2 10BC     		pop {r4}
 16547 7aa4 EA46     		mov r10, sp
 16548 7aa6 2546     		mov r5, r4
 16549 7aa8 2404     		lsls r4, r4, # 16
 16550 7aaa 240C     		lsrs r4, r4, # 16
 16551 7aac 2D0C     		lsrs r5, r5, # 16
 16552 7aae 6043     		muls r0, r0, r4		@R
 16553 7ab0 6143     		muls r1, r1, r4		@I
 16554 7ab2 6A43     		muls r2, r2, r5		@R
 16555 7ab4 6B43     		muls r3, r3, r5		@I
 16556 7ab6 8011     		asrs r0, r0, # 6
 16557 7ab8 8911     		asrs r1, r1, # 6
 16558 7aba 9211     		asrs r2, r2, # 6
 16559 7abc 9B11     		asrs r3, r3, # 6
 16560 7abe 8018     		adds r0, r0, r2	 @r
 16561 7ac0 C918     		adds r1, r1, r3	 @i
 16562 7ac2 3618     		adds r6, r6, r0
 16563 7ac4 7F18     		adds r7, r7, r1
 16564              	
 16565 7ac6 DD46     		mov sp, r11
ARM GAS  1.s 			page 292


 16566 7ac8 0FBC     		pop {r0-r3}
 16567 7aca EB46     		mov r11, sp
 16568 7acc D546     		mov sp, r10
 16569 7ace 10BC     		pop {r4}
 16570 7ad0 EA46     		mov r10, sp
 16571 7ad2 2546     		mov r5, r4
 16572 7ad4 2404     		lsls r4, r4, # 16
 16573 7ad6 240C     		lsrs r4, r4, # 16
 16574 7ad8 2D0C     		lsrs r5, r5, # 16
 16575 7ada 6043     		muls r0, r0, r4
 16576 7adc 6143     		muls r1, r1, r4
 16577 7ade 6A43     		muls r2, r2, r5
 16578 7ae0 6B43     		muls r3, r3, r5
 16579 7ae2 8011     		asrs r0, r0, # 6
 16580 7ae4 8911     		asrs r1, r1, # 6
 16581 7ae6 9211     		asrs r2, r2, # 6
 16582 7ae8 9B11     		asrs r3, r3, # 6
 16583 7aea 8018     		adds r0, r0, r2         @r
 16584 7aec C918     		adds r1, r1, r3         @i
 16585 7aee 3618     		adds r6, r6, r0
 16586 7af0 7F18     		adds r7, r7, r1
 16587              	
 16588 7af2 DD46     		mov sp, r11
 16589 7af4 0FBC     		pop {r0-r3}
 16590 7af6 EB46     		mov r11, sp
 16591 7af8 D546     		mov sp, r10
 16592 7afa 10BC     		pop {r4}
 16593 7afc EA46     		mov r10, sp
 16594 7afe 2546     		mov r5, r4
 16595 7b00 2404     		lsls r4, r4, # 16
 16596 7b02 240C     		lsrs r4, r4, # 16
 16597 7b04 2D0C     		lsrs r5, r5, # 16
 16598 7b06 6043     		muls r0, r0, r4
 16599 7b08 6143     		muls r1, r1, r4
 16600 7b0a 6A43     		muls r2, r2, r5
 16601 7b0c 6B43     		muls r3, r3, r5
 16602 7b0e 8011     		asrs r0, r0, # 6
 16603 7b10 8911     		asrs r1, r1, # 6
 16604 7b12 9211     		asrs r2, r2, # 6
 16605 7b14 9B11     		asrs r3, r3, # 6
 16606 7b16 8018     		adds r0, r0, r2  @r
 16607 7b18 C918     		adds r1, r1, r3  @i
 16608 7b1a 3618     		adds r6, r6, r0
 16609 7b1c 7F18     		adds r7, r7, r1
 16610              	
 16611 7b1e DD46     		mov sp, r11
 16612 7b20 0FBC     		pop {r0-r3}
 16613 7b22 EB46     		mov r11, sp
 16614 7b24 D546     		mov sp, r10
 16615 7b26 10BC     		pop {r4}
 16616 7b28 EA46     		mov r10, sp
 16617 7b2a 2546     		mov r5, r4
 16618 7b2c 2404     		lsls r4, r4, # 16
 16619 7b2e 240C     		lsrs r4, r4, # 16
 16620 7b30 2D0C     		lsrs r5, r5, # 16
 16621 7b32 6043     		muls r0, r0, r4
 16622 7b34 6143     		muls r1, r1, r4
ARM GAS  1.s 			page 293


 16623 7b36 6A43     		muls r2, r2, r5
 16624 7b38 6B43     		muls r3, r3, r5
 16625 7b3a 8011     		asrs r0, r0, # 6
 16626 7b3c 8911     		asrs r1, r1, # 6
 16627 7b3e 9211     		asrs r2, r2, # 6
 16628 7b40 9B11     		asrs r3, r3, # 6
 16629 7b42 8018     		adds r0, r0, r2         @r
 16630 7b44 C918     		adds r1, r1, r3         @i
 16631 7b46 3618     		adds r6, r6, r0
 16632 7b48 7F18     		adds r7, r7, r1
 16633              	
 16634              		@3
 16635 7b4a DD46     		mov sp, r11
 16636 7b4c 0FBC     		pop {r0-r3}
 16637 7b4e EB46     		mov r11, sp
 16638 7b50 D546     		mov sp, r10
 16639 7b52 10BC     		pop {r4}
 16640 7b54 EA46     		mov r10, sp
 16641 7b56 2546     		mov r5, r4
 16642 7b58 2404     		lsls r4, r4, # 16
 16643 7b5a 240C     		lsrs r4, r4, # 16
 16644 7b5c 2D0C     		lsrs r5, r5, # 16
 16645 7b5e 6043     		muls r0, r0, r4		@R
 16646 7b60 6143     		muls r1, r1, r4		@I
 16647 7b62 6A43     		muls r2, r2, r5		@R
 16648 7b64 6B43     		muls r3, r3, r5		@I
 16649 7b66 8011     		asrs r0, r0, # 6
 16650 7b68 8911     		asrs r1, r1, # 6
 16651 7b6a 9211     		asrs r2, r2, # 6
 16652 7b6c 9B11     		asrs r3, r3, # 6
 16653 7b6e 8018     		adds r0, r0, r2	 @r
 16654 7b70 C918     		adds r1, r1, r3	 @i
 16655 7b72 3618     		adds r6, r6, r0
 16656 7b74 7F18     		adds r7, r7, r1
 16657              	
 16658 7b76 DD46     		mov sp, r11
 16659 7b78 0FBC     		pop {r0-r3}
 16660 7b7a EB46     		mov r11, sp
 16661 7b7c D546     		mov sp, r10
 16662 7b7e 10BC     		pop {r4}
 16663 7b80 EA46     		mov r10, sp
 16664 7b82 2546     		mov r5, r4
 16665 7b84 2404     		lsls r4, r4, # 16
 16666 7b86 240C     		lsrs r4, r4, # 16
 16667 7b88 2D0C     		lsrs r5, r5, # 16
 16668 7b8a 6043     		muls r0, r0, r4
 16669 7b8c 6143     		muls r1, r1, r4
 16670 7b8e 6A43     		muls r2, r2, r5
 16671 7b90 6B43     		muls r3, r3, r5
 16672 7b92 8011     		asrs r0, r0, # 6
 16673 7b94 8911     		asrs r1, r1, # 6
 16674 7b96 9211     		asrs r2, r2, # 6
 16675 7b98 9B11     		asrs r3, r3, # 6
 16676 7b9a 8018     		adds r0, r0, r2         @r
 16677 7b9c C918     		adds r1, r1, r3         @i
 16678 7b9e 3618     		adds r6, r6, r0
 16679 7ba0 7F18     		adds r7, r7, r1
ARM GAS  1.s 			page 294


 16680              	
 16681 7ba2 DD46     		mov sp, r11
 16682 7ba4 0FBC     		pop {r0-r3}
 16683 7ba6 EB46     		mov r11, sp
 16684 7ba8 D546     		mov sp, r10
 16685 7baa 10BC     		pop {r4}
 16686 7bac EA46     		mov r10, sp
 16687 7bae 2546     		mov r5, r4
 16688 7bb0 2404     		lsls r4, r4, # 16
 16689 7bb2 240C     		lsrs r4, r4, # 16
 16690 7bb4 2D0C     		lsrs r5, r5, # 16
 16691 7bb6 6043     		muls r0, r0, r4
 16692 7bb8 6143     		muls r1, r1, r4
 16693 7bba 6A43     		muls r2, r2, r5
 16694 7bbc 6B43     		muls r3, r3, r5
 16695 7bbe 8011     		asrs r0, r0, # 6
 16696 7bc0 8911     		asrs r1, r1, # 6
 16697 7bc2 9211     		asrs r2, r2, # 6
 16698 7bc4 9B11     		asrs r3, r3, # 6
 16699 7bc6 8018     		adds r0, r0, r2  @r
 16700 7bc8 C918     		adds r1, r1, r3  @i
 16701 7bca 3618     		adds r6, r6, r0
 16702 7bcc 7F18     		adds r7, r7, r1
 16703              	
 16704 7bce DD46     		mov sp, r11
 16705 7bd0 0FBC     		pop {r0-r3}
 16706 7bd2 EB46     		mov r11, sp
 16707 7bd4 D546     		mov sp, r10
 16708 7bd6 10BC     		pop {r4}
 16709 7bd8 EA46     		mov r10, sp
 16710 7bda 2546     		mov r5, r4
 16711 7bdc 2404     		lsls r4, r4, # 16
 16712 7bde 240C     		lsrs r4, r4, # 16
 16713 7be0 2D0C     		lsrs r5, r5, # 16
 16714 7be2 6043     		muls r0, r0, r4
 16715 7be4 6143     		muls r1, r1, r4
 16716 7be6 6A43     		muls r2, r2, r5
 16717 7be8 6B43     		muls r3, r3, r5
 16718 7bea 8011     		asrs r0, r0, # 6
 16719 7bec 8911     		asrs r1, r1, # 6
 16720 7bee 9211     		asrs r2, r2, # 6
 16721 7bf0 9B11     		asrs r3, r3, # 6
 16722 7bf2 8018     		adds r0, r0, r2         @r
 16723 7bf4 C918     		adds r1, r1, r3         @i
 16724 7bf6 3618     		adds r6, r6, r0
 16725 7bf8 7F18     		adds r7, r7, r1
 16726              	
 16727              		@4
 16728 7bfa DD46     		mov sp, r11
 16729 7bfc 0FBC     		pop {r0-r3}
 16730 7bfe EB46     		mov r11, sp
 16731 7c00 D546     		mov sp, r10
 16732 7c02 10BC     		pop {r4}
 16733 7c04 EA46     		mov r10, sp
 16734 7c06 2546     		mov r5, r4
 16735 7c08 2404     		lsls r4, r4, # 16
 16736 7c0a 240C     		lsrs r4, r4, # 16
ARM GAS  1.s 			page 295


 16737 7c0c 2D0C     		lsrs r5, r5, # 16
 16738 7c0e 6043     		muls r0, r0, r4		@R
 16739 7c10 6143     		muls r1, r1, r4		@I
 16740 7c12 6A43     		muls r2, r2, r5		@R
 16741 7c14 6B43     		muls r3, r3, r5		@I
 16742 7c16 8011     		asrs r0, r0, # 6
 16743 7c18 8911     		asrs r1, r1, # 6
 16744 7c1a 9211     		asrs r2, r2, # 6
 16745 7c1c 9B11     		asrs r3, r3, # 6
 16746 7c1e 8018     		adds r0, r0, r2	 @r
 16747 7c20 C918     		adds r1, r1, r3	 @i
 16748 7c22 3618     		adds r6, r6, r0
 16749 7c24 7F18     		adds r7, r7, r1
 16750              	
 16751 7c26 DD46     		mov sp, r11
 16752 7c28 0FBC     		pop {r0-r3}
 16753 7c2a EB46     		mov r11, sp
 16754 7c2c D546     		mov sp, r10
 16755 7c2e 10BC     		pop {r4}
 16756 7c30 EA46     		mov r10, sp
 16757 7c32 2546     		mov r5, r4
 16758 7c34 2404     		lsls r4, r4, # 16
 16759 7c36 240C     		lsrs r4, r4, # 16
 16760 7c38 2D0C     		lsrs r5, r5, # 16
 16761 7c3a 6043     		muls r0, r0, r4
 16762 7c3c 6143     		muls r1, r1, r4
 16763 7c3e 6A43     		muls r2, r2, r5
 16764 7c40 6B43     		muls r3, r3, r5
 16765 7c42 8011     		asrs r0, r0, # 6
 16766 7c44 8911     		asrs r1, r1, # 6
 16767 7c46 9211     		asrs r2, r2, # 6
 16768 7c48 9B11     		asrs r3, r3, # 6
 16769 7c4a 8018     		adds r0, r0, r2         @r
 16770 7c4c C918     		adds r1, r1, r3         @i
 16771 7c4e 3618     		adds r6, r6, r0
 16772 7c50 7F18     		adds r7, r7, r1
 16773              	
 16774 7c52 DD46     		mov sp, r11
 16775 7c54 0FBC     		pop {r0-r3}
 16776 7c56 EB46     		mov r11, sp
 16777 7c58 D546     		mov sp, r10
 16778 7c5a 10BC     		pop {r4}
 16779 7c5c EA46     		mov r10, sp
 16780 7c5e 2546     		mov r5, r4
 16781 7c60 2404     		lsls r4, r4, # 16
 16782 7c62 240C     		lsrs r4, r4, # 16
 16783 7c64 2D0C     		lsrs r5, r5, # 16
 16784 7c66 6043     		muls r0, r0, r4
 16785 7c68 6143     		muls r1, r1, r4
 16786 7c6a 6A43     		muls r2, r2, r5
 16787 7c6c 6B43     		muls r3, r3, r5
 16788 7c6e 8011     		asrs r0, r0, # 6
 16789 7c70 8911     		asrs r1, r1, # 6
 16790 7c72 9211     		asrs r2, r2, # 6
 16791 7c74 9B11     		asrs r3, r3, # 6
 16792 7c76 8018     		adds r0, r0, r2  @r
 16793 7c78 C918     		adds r1, r1, r3  @i
ARM GAS  1.s 			page 296


 16794 7c7a 3618     		adds r6, r6, r0
 16795 7c7c 7F18     		adds r7, r7, r1
 16796              	
 16797 7c7e DD46     		mov sp, r11
 16798 7c80 0FBC     		pop {r0-r3}
 16799 7c82 EB46     		mov r11, sp
 16800 7c84 D546     		mov sp, r10
 16801 7c86 10BC     		pop {r4}
 16802 7c88 EA46     		mov r10, sp
 16803 7c8a 2546     		mov r5, r4
 16804 7c8c 2404     		lsls r4, r4, # 16
 16805 7c8e 240C     		lsrs r4, r4, # 16
 16806 7c90 2D0C     		lsrs r5, r5, # 16
 16807 7c92 6043     		muls r0, r0, r4
 16808 7c94 6143     		muls r1, r1, r4
 16809 7c96 6A43     		muls r2, r2, r5
 16810 7c98 6B43     		muls r3, r3, r5
 16811 7c9a 8011     		asrs r0, r0, # 6
 16812 7c9c 8911     		asrs r1, r1, # 6
 16813 7c9e 9211     		asrs r2, r2, # 6
 16814 7ca0 9B11     		asrs r3, r3, # 6
 16815 7ca2 8018     		adds r0, r0, r2         @r
 16816 7ca4 C918     		adds r1, r1, r3         @i
 16817 7ca6 3618     		adds r6, r6, r0
 16818 7ca8 7F18     		adds r7, r7, r1
 16819              	
 16820              		@5
 16821 7caa DD46     		mov sp, r11
 16822 7cac 0FBC     		pop {r0-r3}
 16823 7cae EB46     		mov r11, sp
 16824 7cb0 D546     		mov sp, r10
 16825 7cb2 10BC     		pop {r4}
 16826 7cb4 EA46     		mov r10, sp
 16827 7cb6 2546     		mov r5, r4
 16828 7cb8 2404     		lsls r4, r4, # 16
 16829 7cba 240C     		lsrs r4, r4, # 16
 16830 7cbc 2D0C     		lsrs r5, r5, # 16
 16831 7cbe 6043     		muls r0, r0, r4		@R
 16832 7cc0 6143     		muls r1, r1, r4		@I
 16833 7cc2 6A43     		muls r2, r2, r5		@R
 16834 7cc4 6B43     		muls r3, r3, r5		@I
 16835 7cc6 8011     		asrs r0, r0, # 6
 16836 7cc8 8911     		asrs r1, r1, # 6
 16837 7cca 9211     		asrs r2, r2, # 6
 16838 7ccc 9B11     		asrs r3, r3, # 6
 16839 7cce 8018     		adds r0, r0, r2	 @r
 16840 7cd0 C918     		adds r1, r1, r3	 @i
 16841 7cd2 3618     		adds r6, r6, r0
 16842 7cd4 7F18     		adds r7, r7, r1
 16843              	
 16844 7cd6 DD46     		mov sp, r11
 16845 7cd8 0FBC     		pop {r0-r3}
 16846 7cda EB46     		mov r11, sp
 16847 7cdc D546     		mov sp, r10
 16848 7cde 10BC     		pop {r4}
 16849 7ce0 EA46     		mov r10, sp
 16850 7ce2 2546     		mov r5, r4
ARM GAS  1.s 			page 297


 16851 7ce4 2404     		lsls r4, r4, # 16
 16852 7ce6 240C     		lsrs r4, r4, # 16
 16853 7ce8 2D0C     		lsrs r5, r5, # 16
 16854 7cea 6043     		muls r0, r0, r4
 16855 7cec 6143     		muls r1, r1, r4
 16856 7cee 6A43     		muls r2, r2, r5
 16857 7cf0 6B43     		muls r3, r3, r5
 16858 7cf2 8011     		asrs r0, r0, # 6
 16859 7cf4 8911     		asrs r1, r1, # 6
 16860 7cf6 9211     		asrs r2, r2, # 6
 16861 7cf8 9B11     		asrs r3, r3, # 6
 16862 7cfa 8018     		adds r0, r0, r2         @r
 16863 7cfc C918     		adds r1, r1, r3         @i
 16864 7cfe 3618     		adds r6, r6, r0
 16865 7d00 7F18     		adds r7, r7, r1
 16866              	
 16867 7d02 DD46     		mov sp, r11
 16868 7d04 0FBC     		pop {r0-r3}
 16869 7d06 EB46     		mov r11, sp
 16870 7d08 D546     		mov sp, r10
 16871 7d0a 10BC     		pop {r4}
 16872 7d0c EA46     		mov r10, sp
 16873 7d0e 2546     		mov r5, r4
 16874 7d10 2404     		lsls r4, r4, # 16
 16875 7d12 240C     		lsrs r4, r4, # 16
 16876 7d14 2D0C     		lsrs r5, r5, # 16
 16877 7d16 6043     		muls r0, r0, r4
 16878 7d18 6143     		muls r1, r1, r4
 16879 7d1a 6A43     		muls r2, r2, r5
 16880 7d1c 6B43     		muls r3, r3, r5
 16881 7d1e 8011     		asrs r0, r0, # 6
 16882 7d20 8911     		asrs r1, r1, # 6
 16883 7d22 9211     		asrs r2, r2, # 6
 16884 7d24 9B11     		asrs r3, r3, # 6
 16885 7d26 8018     		adds r0, r0, r2  @r
 16886 7d28 C918     		adds r1, r1, r3  @i
 16887 7d2a 3618     		adds r6, r6, r0
 16888 7d2c 7F18     		adds r7, r7, r1
 16889              	
 16890 7d2e DD46     		mov sp, r11
 16891 7d30 0FBC     		pop {r0-r3}
 16892 7d32 EB46     		mov r11, sp
 16893 7d34 D546     		mov sp, r10
 16894 7d36 10BC     		pop {r4}
 16895 7d38 EA46     		mov r10, sp
 16896 7d3a 2546     		mov r5, r4
 16897 7d3c 2404     		lsls r4, r4, # 16
 16898 7d3e 240C     		lsrs r4, r4, # 16
 16899 7d40 2D0C     		lsrs r5, r5, # 16
 16900 7d42 6043     		muls r0, r0, r4
 16901 7d44 6143     		muls r1, r1, r4
 16902 7d46 6A43     		muls r2, r2, r5
 16903 7d48 6B43     		muls r3, r3, r5
 16904 7d4a 8011     		asrs r0, r0, # 6
 16905 7d4c 8911     		asrs r1, r1, # 6
 16906 7d4e 9211     		asrs r2, r2, # 6
 16907 7d50 9B11     		asrs r3, r3, # 6
ARM GAS  1.s 			page 298


 16908 7d52 8018     		adds r0, r0, r2         @r
 16909 7d54 C918     		adds r1, r1, r3         @i
 16910 7d56 3618     		adds r6, r6, r0
 16911 7d58 7F18     		adds r7, r7, r1
 16912              	
 16913              		@6
 16914 7d5a DD46     		mov sp, r11
 16915 7d5c 0FBC     		pop {r0-r3}
 16916 7d5e EB46     		mov r11, sp
 16917 7d60 D546     		mov sp, r10
 16918 7d62 10BC     		pop {r4}
 16919 7d64 EA46     		mov r10, sp
 16920 7d66 2546     		mov r5, r4
 16921 7d68 2404     		lsls r4, r4, # 16
 16922 7d6a 240C     		lsrs r4, r4, # 16
 16923 7d6c 2D0C     		lsrs r5, r5, # 16
 16924 7d6e 6043     		muls r0, r0, r4		@R
 16925 7d70 6143     		muls r1, r1, r4		@I
 16926 7d72 6A43     		muls r2, r2, r5		@R
 16927 7d74 6B43     		muls r3, r3, r5		@I
 16928 7d76 8011     		asrs r0, r0, # 6
 16929 7d78 8911     		asrs r1, r1, # 6
 16930 7d7a 9211     		asrs r2, r2, # 6
 16931 7d7c 9B11     		asrs r3, r3, # 6
 16932 7d7e 8018     		adds r0, r0, r2	 @r
 16933 7d80 C918     		adds r1, r1, r3	 @i
 16934 7d82 3618     		adds r6, r6, r0
 16935 7d84 7F18     		adds r7, r7, r1
 16936              	
 16937 7d86 DD46     		mov sp, r11
 16938 7d88 0FBC     		pop {r0-r3}
 16939 7d8a EB46     		mov r11, sp
 16940 7d8c D546     		mov sp, r10
 16941 7d8e 10BC     		pop {r4}
 16942 7d90 EA46     		mov r10, sp
 16943 7d92 2546     		mov r5, r4
 16944 7d94 2404     		lsls r4, r4, # 16
 16945 7d96 240C     		lsrs r4, r4, # 16
 16946 7d98 2D0C     		lsrs r5, r5, # 16
 16947 7d9a 6043     		muls r0, r0, r4
 16948 7d9c 6143     		muls r1, r1, r4
 16949 7d9e 6A43     		muls r2, r2, r5
 16950 7da0 6B43     		muls r3, r3, r5
 16951 7da2 8011     		asrs r0, r0, # 6
 16952 7da4 8911     		asrs r1, r1, # 6
 16953 7da6 9211     		asrs r2, r2, # 6
 16954 7da8 9B11     		asrs r3, r3, # 6
 16955 7daa 8018     		adds r0, r0, r2         @r
 16956 7dac C918     		adds r1, r1, r3         @i
 16957 7dae 3618     		adds r6, r6, r0
 16958 7db0 7F18     		adds r7, r7, r1
 16959              	
 16960 7db2 DD46     		mov sp, r11
 16961 7db4 0FBC     		pop {r0-r3}
 16962 7db6 EB46     		mov r11, sp
 16963 7db8 D546     		mov sp, r10
 16964 7dba 10BC     		pop {r4}
ARM GAS  1.s 			page 299


 16965 7dbc EA46     		mov r10, sp
 16966 7dbe 2546     		mov r5, r4
 16967 7dc0 2404     		lsls r4, r4, # 16
 16968 7dc2 240C     		lsrs r4, r4, # 16
 16969 7dc4 2D0C     		lsrs r5, r5, # 16
 16970 7dc6 6043     		muls r0, r0, r4
 16971 7dc8 6143     		muls r1, r1, r4
 16972 7dca 6A43     		muls r2, r2, r5
 16973 7dcc 6B43     		muls r3, r3, r5
 16974 7dce 8011     		asrs r0, r0, # 6
 16975 7dd0 8911     		asrs r1, r1, # 6
 16976 7dd2 9211     		asrs r2, r2, # 6
 16977 7dd4 9B11     		asrs r3, r3, # 6
 16978 7dd6 8018     		adds r0, r0, r2  @r
 16979 7dd8 C918     		adds r1, r1, r3  @i
 16980 7dda 3618     		adds r6, r6, r0
 16981 7ddc 7F18     		adds r7, r7, r1
 16982              	
 16983 7dde DD46     		mov sp, r11
 16984 7de0 0FBC     		pop {r0-r3}
 16985 7de2 EB46     		mov r11, sp
 16986 7de4 D546     		mov sp, r10
 16987 7de6 10BC     		pop {r4}
 16988 7de8 EA46     		mov r10, sp
 16989 7dea 2546     		mov r5, r4
 16990 7dec 2404     		lsls r4, r4, # 16
 16991 7dee 240C     		lsrs r4, r4, # 16
 16992 7df0 2D0C     		lsrs r5, r5, # 16
 16993 7df2 6043     		muls r0, r0, r4
 16994 7df4 6143     		muls r1, r1, r4
 16995 7df6 6A43     		muls r2, r2, r5
 16996 7df8 6B43     		muls r3, r3, r5
 16997 7dfa 8011     		asrs r0, r0, # 6
 16998 7dfc 8911     		asrs r1, r1, # 6
 16999 7dfe 9211     		asrs r2, r2, # 6
 17000 7e00 9B11     		asrs r3, r3, # 6
 17001 7e02 8018     		adds r0, r0, r2         @r
 17002 7e04 C918     		adds r1, r1, r3         @i
 17003 7e06 3618     		adds r6, r6, r0
 17004 7e08 7F18     		adds r7, r7, r1
 17005              	
 17006              		@7
 17007 7e0a DD46     		mov sp, r11
 17008 7e0c 0FBC     		pop {r0-r3}
 17009 7e0e EB46     		mov r11, sp
 17010 7e10 D546     		mov sp, r10
 17011 7e12 10BC     		pop {r4}
 17012 7e14 EA46     		mov r10, sp
 17013 7e16 2546     		mov r5, r4
 17014 7e18 2404     		lsls r4, r4, # 16
 17015 7e1a 240C     		lsrs r4, r4, # 16
 17016 7e1c 2D0C     		lsrs r5, r5, # 16
 17017 7e1e 6043     		muls r0, r0, r4		@R
 17018 7e20 6143     		muls r1, r1, r4		@I
 17019 7e22 6A43     		muls r2, r2, r5		@R
 17020 7e24 6B43     		muls r3, r3, r5		@I
 17021 7e26 8011     		asrs r0, r0, # 6
ARM GAS  1.s 			page 300


 17022 7e28 8911     		asrs r1, r1, # 6
 17023 7e2a 9211     		asrs r2, r2, # 6
 17024 7e2c 9B11     		asrs r3, r3, # 6
 17025 7e2e 8018     		adds r0, r0, r2	 @r
 17026 7e30 C918     		adds r1, r1, r3	 @i
 17027 7e32 3618     		adds r6, r6, r0
 17028 7e34 7F18     		adds r7, r7, r1
 17029              	
 17030 7e36 DD46     		mov sp, r11
 17031 7e38 0FBC     		pop {r0-r3}
 17032 7e3a EB46     		mov r11, sp
 17033 7e3c D546     		mov sp, r10
 17034 7e3e 10BC     		pop {r4}
 17035 7e40 EA46     		mov r10, sp
 17036 7e42 2546     		mov r5, r4
 17037 7e44 2404     		lsls r4, r4, # 16
 17038 7e46 240C     		lsrs r4, r4, # 16
 17039 7e48 2D0C     		lsrs r5, r5, # 16
 17040 7e4a 6043     		muls r0, r0, r4
 17041 7e4c 6143     		muls r1, r1, r4
 17042 7e4e 6A43     		muls r2, r2, r5
 17043 7e50 6B43     		muls r3, r3, r5
 17044 7e52 8011     		asrs r0, r0, # 6
 17045 7e54 8911     		asrs r1, r1, # 6
 17046 7e56 9211     		asrs r2, r2, # 6
 17047 7e58 9B11     		asrs r3, r3, # 6
 17048 7e5a 8018     		adds r0, r0, r2         @r
 17049 7e5c C918     		adds r1, r1, r3         @i
 17050 7e5e 3618     		adds r6, r6, r0
 17051 7e60 7F18     		adds r7, r7, r1
 17052              	
 17053 7e62 DD46     		mov sp, r11
 17054 7e64 0FBC     		pop {r0-r3}
 17055 7e66 EB46     		mov r11, sp
 17056 7e68 D546     		mov sp, r10
 17057 7e6a 10BC     		pop {r4}
 17058 7e6c EA46     		mov r10, sp
 17059 7e6e 2546     		mov r5, r4
 17060 7e70 2404     		lsls r4, r4, # 16
 17061 7e72 240C     		lsrs r4, r4, # 16
 17062 7e74 2D0C     		lsrs r5, r5, # 16
 17063 7e76 6043     		muls r0, r0, r4
 17064 7e78 6143     		muls r1, r1, r4
 17065 7e7a 6A43     		muls r2, r2, r5
 17066 7e7c 6B43     		muls r3, r3, r5
 17067 7e7e 8011     		asrs r0, r0, # 6
 17068 7e80 8911     		asrs r1, r1, # 6
 17069 7e82 9211     		asrs r2, r2, # 6
 17070 7e84 9B11     		asrs r3, r3, # 6
 17071 7e86 8018     		adds r0, r0, r2  @r
 17072 7e88 C918     		adds r1, r1, r3  @i
 17073 7e8a 3618     		adds r6, r6, r0
 17074 7e8c 7F18     		adds r7, r7, r1
 17075              	
 17076 7e8e DD46     		mov sp, r11
 17077 7e90 0FBC     		pop {r0-r3}
 17078 7e92 EB46     		mov r11, sp
ARM GAS  1.s 			page 301


 17079 7e94 D546     		mov sp, r10
 17080 7e96 10BC     		pop {r4}
 17081 7e98 EA46     		mov r10, sp
 17082 7e9a 2546     		mov r5, r4
 17083 7e9c 2404     		lsls r4, r4, # 16
 17084 7e9e 240C     		lsrs r4, r4, # 16
 17085 7ea0 2D0C     		lsrs r5, r5, # 16
 17086 7ea2 6043     		muls r0, r0, r4
 17087 7ea4 6143     		muls r1, r1, r4
 17088 7ea6 6A43     		muls r2, r2, r5
 17089 7ea8 6B43     		muls r3, r3, r5
 17090 7eaa 8011     		asrs r0, r0, # 6
 17091 7eac 8911     		asrs r1, r1, # 6
 17092 7eae 9211     		asrs r2, r2, # 6
 17093 7eb0 9B11     		asrs r3, r3, # 6
 17094 7eb2 8018     		adds r0, r0, r2         @r
 17095 7eb4 C918     		adds r1, r1, r3         @i
 17096 7eb6 3618     		adds r6, r6, r0
 17097 7eb8 7F18     		adds r7, r7, r1
 17098              	
 17099              		@8
 17100 7eba DD46     		mov sp, r11
 17101 7ebc 0FBC     		pop {r0-r3}
 17102 7ebe EB46     		mov r11, sp
 17103 7ec0 D546     		mov sp, r10
 17104 7ec2 10BC     		pop {r4}
 17105 7ec4 EA46     		mov r10, sp
 17106 7ec6 2546     		mov r5, r4
 17107 7ec8 2404     		lsls r4, r4, # 16
 17108 7eca 240C     		lsrs r4, r4, # 16
 17109 7ecc 2D0C     		lsrs r5, r5, # 16
 17110 7ece 6043     		muls r0, r0, r4		@R
 17111 7ed0 6143     		muls r1, r1, r4		@I
 17112 7ed2 6A43     		muls r2, r2, r5		@R
 17113 7ed4 6B43     		muls r3, r3, r5		@I
 17114 7ed6 8011     		asrs r0, r0, # 6
 17115 7ed8 8911     		asrs r1, r1, # 6
 17116 7eda 9211     		asrs r2, r2, # 6
 17117 7edc 9B11     		asrs r3, r3, # 6
 17118 7ede 8018     		adds r0, r0, r2	 @r
 17119 7ee0 C918     		adds r1, r1, r3	 @i
 17120 7ee2 3618     		adds r6, r6, r0
 17121 7ee4 7F18     		adds r7, r7, r1
 17122              	
 17123 7ee6 DD46     		mov sp, r11
 17124 7ee8 0FBC     		pop {r0-r3}
 17125 7eea EB46     		mov r11, sp
 17126 7eec D546     		mov sp, r10
 17127 7eee 10BC     		pop {r4}
 17128 7ef0 EA46     		mov r10, sp
 17129 7ef2 2546     		mov r5, r4
 17130 7ef4 2404     		lsls r4, r4, # 16
 17131 7ef6 240C     		lsrs r4, r4, # 16
 17132 7ef8 2D0C     		lsrs r5, r5, # 16
 17133 7efa 6043     		muls r0, r0, r4
 17134 7efc 6143     		muls r1, r1, r4
 17135 7efe 6A43     		muls r2, r2, r5
ARM GAS  1.s 			page 302


 17136 7f00 6B43     		muls r3, r3, r5
 17137 7f02 8011     		asrs r0, r0, # 6
 17138 7f04 8911     		asrs r1, r1, # 6
 17139 7f06 9211     		asrs r2, r2, # 6
 17140 7f08 9B11     		asrs r3, r3, # 6
 17141 7f0a 8018     		adds r0, r0, r2         @r
 17142 7f0c C918     		adds r1, r1, r3         @i
 17143 7f0e 3618     		adds r6, r6, r0
 17144 7f10 7F18     		adds r7, r7, r1
 17145              	
 17146 7f12 DD46     		mov sp, r11
 17147 7f14 0FBC     		pop {r0-r3}
 17148 7f16 EB46     		mov r11, sp
 17149 7f18 D546     		mov sp, r10
 17150 7f1a 10BC     		pop {r4}
 17151 7f1c EA46     		mov r10, sp
 17152 7f1e 2546     		mov r5, r4
 17153 7f20 2404     		lsls r4, r4, # 16
 17154 7f22 240C     		lsrs r4, r4, # 16
 17155 7f24 2D0C     		lsrs r5, r5, # 16
 17156 7f26 6043     		muls r0, r0, r4
 17157 7f28 6143     		muls r1, r1, r4
 17158 7f2a 6A43     		muls r2, r2, r5
 17159 7f2c 6B43     		muls r3, r3, r5
 17160 7f2e 8011     		asrs r0, r0, # 6
 17161 7f30 8911     		asrs r1, r1, # 6
 17162 7f32 9211     		asrs r2, r2, # 6
 17163 7f34 9B11     		asrs r3, r3, # 6
 17164 7f36 8018     		adds r0, r0, r2  @r
 17165 7f38 C918     		adds r1, r1, r3  @i
 17166 7f3a 3618     		adds r6, r6, r0
 17167 7f3c 7F18     		adds r7, r7, r1
 17168              	
 17169 7f3e DD46     		mov sp, r11
 17170 7f40 0FBC     		pop {r0-r3}
 17171 7f42 EB46     		mov r11, sp
 17172 7f44 D546     		mov sp, r10
 17173 7f46 10BC     		pop {r4}
 17174 7f48 EA46     		mov r10, sp
 17175 7f4a 2546     		mov r5, r4
 17176 7f4c 2404     		lsls r4, r4, # 16
 17177 7f4e 240C     		lsrs r4, r4, # 16
 17178 7f50 2D0C     		lsrs r5, r5, # 16
 17179 7f52 6043     		muls r0, r0, r4
 17180 7f54 6143     		muls r1, r1, r4
 17181 7f56 6A43     		muls r2, r2, r5
 17182 7f58 6B43     		muls r3, r3, r5
 17183 7f5a 8011     		asrs r0, r0, # 6
 17184 7f5c 8911     		asrs r1, r1, # 6
 17185 7f5e 9211     		asrs r2, r2, # 6
 17186 7f60 9B11     		asrs r3, r3, # 6
 17187 7f62 8018     		adds r0, r0, r2         @r
 17188 7f64 C918     		adds r1, r1, r3         @i
 17189 7f66 3618     		adds r6, r6, r0
 17190 7f68 7F18     		adds r7, r7, r1
 17191              	
 17192              		@9
ARM GAS  1.s 			page 303


 17193 7f6a DD46     		mov sp, r11
 17194 7f6c 0FBC     		pop {r0-r3}
 17195 7f6e EB46     		mov r11, sp
 17196 7f70 D546     		mov sp, r10
 17197 7f72 10BC     		pop {r4}
 17198 7f74 EA46     		mov r10, sp
 17199 7f76 2546     		mov r5, r4
 17200 7f78 2404     		lsls r4, r4, # 16
 17201 7f7a 240C     		lsrs r4, r4, # 16
 17202 7f7c 2D0C     		lsrs r5, r5, # 16
 17203 7f7e 6043     		muls r0, r0, r4		@R
 17204 7f80 6143     		muls r1, r1, r4		@I
 17205 7f82 6A43     		muls r2, r2, r5		@R
 17206 7f84 6B43     		muls r3, r3, r5		@I
 17207 7f86 8011     		asrs r0, r0, # 6
 17208 7f88 8911     		asrs r1, r1, # 6
 17209 7f8a 9211     		asrs r2, r2, # 6
 17210 7f8c 9B11     		asrs r3, r3, # 6
 17211 7f8e 8018     		adds r0, r0, r2	 @r
 17212 7f90 C918     		adds r1, r1, r3	 @i
 17213 7f92 3618     		adds r6, r6, r0
 17214 7f94 7F18     		adds r7, r7, r1
 17215              	
 17216 7f96 DD46     		mov sp, r11
 17217 7f98 0FBC     		pop {r0-r3}
 17218 7f9a EB46     		mov r11, sp
 17219 7f9c D546     		mov sp, r10
 17220 7f9e 10BC     		pop {r4}
 17221 7fa0 EA46     		mov r10, sp
 17222 7fa2 2546     		mov r5, r4
 17223 7fa4 2404     		lsls r4, r4, # 16
 17224 7fa6 240C     		lsrs r4, r4, # 16
 17225 7fa8 2D0C     		lsrs r5, r5, # 16
 17226 7faa 6043     		muls r0, r0, r4
 17227 7fac 6143     		muls r1, r1, r4
 17228 7fae 6A43     		muls r2, r2, r5
 17229 7fb0 6B43     		muls r3, r3, r5
 17230 7fb2 8011     		asrs r0, r0, # 6
 17231 7fb4 8911     		asrs r1, r1, # 6
 17232 7fb6 9211     		asrs r2, r2, # 6
 17233 7fb8 9B11     		asrs r3, r3, # 6
 17234 7fba 8018     		adds r0, r0, r2         @r
 17235 7fbc C918     		adds r1, r1, r3         @i
 17236 7fbe 3618     		adds r6, r6, r0
 17237 7fc0 7F18     		adds r7, r7, r1
 17238              	
 17239 7fc2 DD46     		mov sp, r11
 17240 7fc4 0FBC     		pop {r0-r3}
 17241 7fc6 EB46     		mov r11, sp
 17242 7fc8 D546     		mov sp, r10
 17243 7fca 10BC     		pop {r4}
 17244 7fcc EA46     		mov r10, sp
 17245 7fce 2546     		mov r5, r4
 17246 7fd0 2404     		lsls r4, r4, # 16
 17247 7fd2 240C     		lsrs r4, r4, # 16
 17248 7fd4 2D0C     		lsrs r5, r5, # 16
 17249 7fd6 6043     		muls r0, r0, r4
ARM GAS  1.s 			page 304


 17250 7fd8 6143     		muls r1, r1, r4
 17251 7fda 6A43     		muls r2, r2, r5
 17252 7fdc 6B43     		muls r3, r3, r5
 17253 7fde 8011     		asrs r0, r0, # 6
 17254 7fe0 8911     		asrs r1, r1, # 6
 17255 7fe2 9211     		asrs r2, r2, # 6
 17256 7fe4 9B11     		asrs r3, r3, # 6
 17257 7fe6 8018     		adds r0, r0, r2  @r
 17258 7fe8 C918     		adds r1, r1, r3  @i
 17259 7fea 3618     		adds r6, r6, r0
 17260 7fec 7F18     		adds r7, r7, r1
 17261              	
 17262 7fee DD46     		mov sp, r11
 17263 7ff0 0FBC     		pop {r0-r3}
 17264 7ff2 EB46     		mov r11, sp
 17265 7ff4 D546     		mov sp, r10
 17266 7ff6 10BC     		pop {r4}
 17267 7ff8 EA46     		mov r10, sp
 17268 7ffa 2546     		mov r5, r4
 17269 7ffc 2404     		lsls r4, r4, # 16
 17270 7ffe 240C     		lsrs r4, r4, # 16
 17271 8000 2D0C     		lsrs r5, r5, # 16
 17272 8002 6043     		muls r0, r0, r4
 17273 8004 6143     		muls r1, r1, r4
 17274 8006 6A43     		muls r2, r2, r5
 17275 8008 6B43     		muls r3, r3, r5
 17276 800a 8011     		asrs r0, r0, # 6
 17277 800c 8911     		asrs r1, r1, # 6
 17278 800e 9211     		asrs r2, r2, # 6
 17279 8010 9B11     		asrs r3, r3, # 6
 17280 8012 8018     		adds r0, r0, r2         @r
 17281 8014 C918     		adds r1, r1, r3         @i
 17282 8016 3618     		adds r6, r6, r0
 17283 8018 7F18     		adds r7, r7, r1
 17284              		@yjm17
 17285              		@0
 17286 801a DD46     		mov sp, r11
 17287 801c 0FBC     		pop {r0-r3}
 17288 801e EB46     		mov r11, sp
 17289 8020 D546     		mov sp, r10
 17290 8022 10BC     		pop {r4}
 17291 8024 EA46     		mov r10, sp
 17292 8026 2546     		mov r5, r4
 17293 8028 2404     		lsls r4, r4, # 16
 17294 802a 240C     		lsrs r4, r4, # 16
 17295 802c 2D0C     		lsrs r5, r5, # 16
 17296 802e 6043     		muls r0, r0, r4		@R
 17297 8030 6143     		muls r1, r1, r4		@I
 17298 8032 6A43     		muls r2, r2, r5		@R
 17299 8034 6B43     		muls r3, r3, r5		@I
 17300 8036 8011     		asrs r0, r0, # 6
 17301 8038 8911     		asrs r1, r1, # 6
 17302 803a 9211     		asrs r2, r2, # 6
 17303 803c 9B11     		asrs r3, r3, # 6
 17304 803e 8018     		adds r0, r0, r2	 @r
 17305 8040 C918     		adds r1, r1, r3	 @i
 17306 8042 3618     		adds r6, r6, r0
ARM GAS  1.s 			page 305


 17307 8044 7F18     		adds r7, r7, r1
 17308              	
 17309 8046 DD46     		mov sp, r11
 17310 8048 0FBC     		pop {r0-r3}
 17311 804a EB46     		mov r11, sp
 17312 804c D546     		mov sp, r10
 17313 804e 10BC     		pop {r4}
 17314 8050 EA46     		mov r10, sp
 17315 8052 2546     		mov r5, r4
 17316 8054 2404     		lsls r4, r4, # 16
 17317 8056 240C     		lsrs r4, r4, # 16
 17318 8058 2D0C     		lsrs r5, r5, # 16
 17319 805a 6043     		muls r0, r0, r4
 17320 805c 6143     		muls r1, r1, r4
 17321 805e 6A43     		muls r2, r2, r5
 17322 8060 6B43     		muls r3, r3, r5
 17323 8062 8011     		asrs r0, r0, # 6
 17324 8064 8911     		asrs r1, r1, # 6
 17325 8066 9211     		asrs r2, r2, # 6
 17326 8068 9B11     		asrs r3, r3, # 6
 17327 806a 8018     		adds r0, r0, r2         @r
 17328 806c C918     		adds r1, r1, r3         @i
 17329 806e 3618     		adds r6, r6, r0
 17330 8070 7F18     		adds r7, r7, r1
 17331              	
 17332 8072 DD46     		mov sp, r11
 17333 8074 0FBC     		pop {r0-r3}
 17334 8076 EB46     		mov r11, sp
 17335 8078 D546     		mov sp, r10
 17336 807a 10BC     		pop {r4}
 17337 807c EA46     		mov r10, sp
 17338 807e 2546     		mov r5, r4
 17339 8080 2404     		lsls r4, r4, # 16
 17340 8082 240C     		lsrs r4, r4, # 16
 17341 8084 2D0C     		lsrs r5, r5, # 16
 17342 8086 6043     		muls r0, r0, r4
 17343 8088 6143     		muls r1, r1, r4
 17344 808a 6A43     		muls r2, r2, r5
 17345 808c 6B43     		muls r3, r3, r5
 17346 808e 8011     		asrs r0, r0, # 6
 17347 8090 8911     		asrs r1, r1, # 6
 17348 8092 9211     		asrs r2, r2, # 6
 17349 8094 9B11     		asrs r3, r3, # 6
 17350 8096 8018     		adds r0, r0, r2  @r
 17351 8098 C918     		adds r1, r1, r3  @i
 17352 809a 3618     		adds r6, r6, r0
 17353 809c 7F18     		adds r7, r7, r1
 17354              	
 17355 809e DD46     		mov sp, r11
 17356 80a0 0FBC     		pop {r0-r3}
 17357 80a2 EB46     		mov r11, sp
 17358 80a4 D546     		mov sp, r10
 17359 80a6 10BC     		pop {r4}
 17360 80a8 EA46     		mov r10, sp
 17361 80aa 2546     		mov r5, r4
 17362 80ac 2404     		lsls r4, r4, # 16
 17363 80ae 240C     		lsrs r4, r4, # 16
ARM GAS  1.s 			page 306


 17364 80b0 2D0C     		lsrs r5, r5, # 16
 17365 80b2 6043     		muls r0, r0, r4
 17366 80b4 6143     		muls r1, r1, r4
 17367 80b6 6A43     		muls r2, r2, r5
 17368 80b8 6B43     		muls r3, r3, r5
 17369 80ba 8011     		asrs r0, r0, # 6
 17370 80bc 8911     		asrs r1, r1, # 6
 17371 80be 9211     		asrs r2, r2, # 6
 17372 80c0 9B11     		asrs r3, r3, # 6
 17373 80c2 8018     		adds r0, r0, r2         @r
 17374 80c4 C918     		adds r1, r1, r3         @i
 17375 80c6 3618     		adds r6, r6, r0
 17376 80c8 7F18     		adds r7, r7, r1
 17377              	
 17378              		@1
 17379 80ca DD46     		mov sp, r11
 17380 80cc 0FBC     		pop {r0-r3}
 17381 80ce EB46     		mov r11, sp
 17382 80d0 D546     		mov sp, r10
 17383 80d2 10BC     		pop {r4}
 17384 80d4 EA46     		mov r10, sp
 17385 80d6 2546     		mov r5, r4
 17386 80d8 2404     		lsls r4, r4, # 16
 17387 80da 240C     		lsrs r4, r4, # 16
 17388 80dc 2D0C     		lsrs r5, r5, # 16
 17389 80de 6043     		muls r0, r0, r4		@R
 17390 80e0 6143     		muls r1, r1, r4		@I
 17391 80e2 6A43     		muls r2, r2, r5		@R
 17392 80e4 6B43     		muls r3, r3, r5		@I
 17393 80e6 8011     		asrs r0, r0, # 6
 17394 80e8 8911     		asrs r1, r1, # 6
 17395 80ea 9211     		asrs r2, r2, # 6
 17396 80ec 9B11     		asrs r3, r3, # 6
 17397 80ee 8018     		adds r0, r0, r2	 @r
 17398 80f0 C918     		adds r1, r1, r3	 @i
 17399 80f2 3618     		adds r6, r6, r0
 17400 80f4 7F18     		adds r7, r7, r1
 17401              	
 17402 80f6 DD46     		mov sp, r11
 17403 80f8 0FBC     		pop {r0-r3}
 17404 80fa EB46     		mov r11, sp
 17405 80fc D546     		mov sp, r10
 17406 80fe 10BC     		pop {r4}
 17407 8100 EA46     		mov r10, sp
 17408 8102 2546     		mov r5, r4
 17409 8104 2404     		lsls r4, r4, # 16
 17410 8106 240C     		lsrs r4, r4, # 16
 17411 8108 2D0C     		lsrs r5, r5, # 16
 17412 810a 6043     		muls r0, r0, r4
 17413 810c 6143     		muls r1, r1, r4
 17414 810e 6A43     		muls r2, r2, r5
 17415 8110 6B43     		muls r3, r3, r5
 17416 8112 8011     		asrs r0, r0, # 6
 17417 8114 8911     		asrs r1, r1, # 6
 17418 8116 9211     		asrs r2, r2, # 6
 17419 8118 9B11     		asrs r3, r3, # 6
 17420 811a 8018     		adds r0, r0, r2         @r
ARM GAS  1.s 			page 307


 17421 811c C918     		adds r1, r1, r3         @i
 17422 811e 3618     		adds r6, r6, r0
 17423 8120 7F18     		adds r7, r7, r1
 17424              	
 17425 8122 DD46     		mov sp, r11
 17426 8124 0FBC     		pop {r0-r3}
 17427 8126 EB46     		mov r11, sp
 17428 8128 D546     		mov sp, r10
 17429 812a 10BC     		pop {r4}
 17430 812c EA46     		mov r10, sp
 17431 812e 2546     		mov r5, r4
 17432 8130 2404     		lsls r4, r4, # 16
 17433 8132 240C     		lsrs r4, r4, # 16
 17434 8134 2D0C     		lsrs r5, r5, # 16
 17435 8136 6043     		muls r0, r0, r4
 17436 8138 6143     		muls r1, r1, r4
 17437 813a 6A43     		muls r2, r2, r5
 17438 813c 6B43     		muls r3, r3, r5
 17439 813e 8011     		asrs r0, r0, # 6
 17440 8140 8911     		asrs r1, r1, # 6
 17441 8142 9211     		asrs r2, r2, # 6
 17442 8144 9B11     		asrs r3, r3, # 6
 17443 8146 8018     		adds r0, r0, r2  @r
 17444 8148 C918     		adds r1, r1, r3  @i
 17445 814a 3618     		adds r6, r6, r0
 17446 814c 7F18     		adds r7, r7, r1
 17447              	
 17448 814e DD46     		mov sp, r11
 17449 8150 0FBC     		pop {r0-r3}
 17450 8152 EB46     		mov r11, sp
 17451 8154 D546     		mov sp, r10
 17452 8156 10BC     		pop {r4}
 17453 8158 EA46     		mov r10, sp
 17454 815a 2546     		mov r5, r4
 17455 815c 2404     		lsls r4, r4, # 16
 17456 815e 240C     		lsrs r4, r4, # 16
 17457 8160 2D0C     		lsrs r5, r5, # 16
 17458 8162 6043     		muls r0, r0, r4
 17459 8164 6143     		muls r1, r1, r4
 17460 8166 6A43     		muls r2, r2, r5
 17461 8168 6B43     		muls r3, r3, r5
 17462 816a 8011     		asrs r0, r0, # 6
 17463 816c 8911     		asrs r1, r1, # 6
 17464 816e 9211     		asrs r2, r2, # 6
 17465 8170 9B11     		asrs r3, r3, # 6
 17466 8172 8018     		adds r0, r0, r2         @r
 17467 8174 C918     		adds r1, r1, r3         @i
 17468 8176 3618     		adds r6, r6, r0
 17469 8178 7F18     		adds r7, r7, r1
 17470              	
 17471              		@2
 17472 817a DD46     		mov sp, r11
 17473 817c 0FBC     		pop {r0-r3}
 17474 817e EB46     		mov r11, sp
 17475 8180 D546     		mov sp, r10
 17476 8182 10BC     		pop {r4}
 17477 8184 EA46     		mov r10, sp
ARM GAS  1.s 			page 308


 17478 8186 2546     		mov r5, r4
 17479 8188 2404     		lsls r4, r4, # 16
 17480 818a 240C     		lsrs r4, r4, # 16
 17481 818c 2D0C     		lsrs r5, r5, # 16
 17482 818e 6043     		muls r0, r0, r4		@R
 17483 8190 6143     		muls r1, r1, r4		@I
 17484 8192 6A43     		muls r2, r2, r5		@R
 17485 8194 6B43     		muls r3, r3, r5		@I
 17486 8196 8011     		asrs r0, r0, # 6
 17487 8198 8911     		asrs r1, r1, # 6
 17488 819a 9211     		asrs r2, r2, # 6
 17489 819c 9B11     		asrs r3, r3, # 6
 17490 819e 8018     		adds r0, r0, r2	 @r
 17491 81a0 C918     		adds r1, r1, r3	 @i
 17492 81a2 3618     		adds r6, r6, r0
 17493 81a4 7F18     		adds r7, r7, r1
 17494              	
 17495 81a6 DD46     		mov sp, r11
 17496 81a8 0FBC     		pop {r0-r3}
 17497 81aa EB46     		mov r11, sp
 17498 81ac D546     		mov sp, r10
 17499 81ae 10BC     		pop {r4}
 17500 81b0 EA46     		mov r10, sp
 17501 81b2 2546     		mov r5, r4
 17502 81b4 2404     		lsls r4, r4, # 16
 17503 81b6 240C     		lsrs r4, r4, # 16
 17504 81b8 2D0C     		lsrs r5, r5, # 16
 17505 81ba 6043     		muls r0, r0, r4
 17506 81bc 6143     		muls r1, r1, r4
 17507 81be 6A43     		muls r2, r2, r5
 17508 81c0 6B43     		muls r3, r3, r5
 17509 81c2 8011     		asrs r0, r0, # 6
 17510 81c4 8911     		asrs r1, r1, # 6
 17511 81c6 9211     		asrs r2, r2, # 6
 17512 81c8 9B11     		asrs r3, r3, # 6
 17513 81ca 8018     		adds r0, r0, r2         @r
 17514 81cc C918     		adds r1, r1, r3         @i
 17515 81ce 3618     		adds r6, r6, r0
 17516 81d0 7F18     		adds r7, r7, r1
 17517              	
 17518 81d2 DD46     		mov sp, r11
 17519 81d4 0FBC     		pop {r0-r3}
 17520 81d6 EB46     		mov r11, sp
 17521 81d8 D546     		mov sp, r10
 17522 81da 10BC     		pop {r4}
 17523 81dc EA46     		mov r10, sp
 17524 81de 2546     		mov r5, r4
 17525 81e0 2404     		lsls r4, r4, # 16
 17526 81e2 240C     		lsrs r4, r4, # 16
 17527 81e4 2D0C     		lsrs r5, r5, # 16
 17528 81e6 6043     		muls r0, r0, r4
 17529 81e8 6143     		muls r1, r1, r4
 17530 81ea 6A43     		muls r2, r2, r5
 17531 81ec 6B43     		muls r3, r3, r5
 17532 81ee 8011     		asrs r0, r0, # 6
 17533 81f0 8911     		asrs r1, r1, # 6
 17534 81f2 9211     		asrs r2, r2, # 6
ARM GAS  1.s 			page 309


 17535 81f4 9B11     		asrs r3, r3, # 6
 17536 81f6 8018     		adds r0, r0, r2  @r
 17537 81f8 C918     		adds r1, r1, r3  @i
 17538 81fa 3618     		adds r6, r6, r0
 17539 81fc 7F18     		adds r7, r7, r1
 17540              	
 17541 81fe DD46     		mov sp, r11
 17542 8200 0FBC     		pop {r0-r3}
 17543 8202 EB46     		mov r11, sp
 17544 8204 D546     		mov sp, r10
 17545 8206 10BC     		pop {r4}
 17546 8208 EA46     		mov r10, sp
 17547 820a 2546     		mov r5, r4
 17548 820c 2404     		lsls r4, r4, # 16
 17549 820e 240C     		lsrs r4, r4, # 16
 17550 8210 2D0C     		lsrs r5, r5, # 16
 17551 8212 6043     		muls r0, r0, r4
 17552 8214 6143     		muls r1, r1, r4
 17553 8216 6A43     		muls r2, r2, r5
 17554 8218 6B43     		muls r3, r3, r5
 17555 821a 8011     		asrs r0, r0, # 6
 17556 821c 8911     		asrs r1, r1, # 6
 17557 821e 9211     		asrs r2, r2, # 6
 17558 8220 9B11     		asrs r3, r3, # 6
 17559 8222 8018     		adds r0, r0, r2         @r
 17560 8224 C918     		adds r1, r1, r3         @i
 17561 8226 3618     		adds r6, r6, r0
 17562 8228 7F18     		adds r7, r7, r1
 17563              	
 17564              		@3
 17565 822a DD46     		mov sp, r11
 17566 822c 0FBC     		pop {r0-r3}
 17567 822e EB46     		mov r11, sp
 17568 8230 D546     		mov sp, r10
 17569 8232 10BC     		pop {r4}
 17570 8234 EA46     		mov r10, sp
 17571 8236 2546     		mov r5, r4
 17572 8238 2404     		lsls r4, r4, # 16
 17573 823a 240C     		lsrs r4, r4, # 16
 17574 823c 2D0C     		lsrs r5, r5, # 16
 17575 823e 6043     		muls r0, r0, r4		@R
 17576 8240 6143     		muls r1, r1, r4		@I
 17577 8242 6A43     		muls r2, r2, r5		@R
 17578 8244 6B43     		muls r3, r3, r5		@I
 17579 8246 8011     		asrs r0, r0, # 6
 17580 8248 8911     		asrs r1, r1, # 6
 17581 824a 9211     		asrs r2, r2, # 6
 17582 824c 9B11     		asrs r3, r3, # 6
 17583 824e 8018     		adds r0, r0, r2	 @r
 17584 8250 C918     		adds r1, r1, r3	 @i
 17585 8252 3618     		adds r6, r6, r0
 17586 8254 7F18     		adds r7, r7, r1
 17587              	
 17588 8256 DD46     		mov sp, r11
 17589 8258 0FBC     		pop {r0-r3}
 17590 825a EB46     		mov r11, sp
 17591 825c D546     		mov sp, r10
ARM GAS  1.s 			page 310


 17592 825e 10BC     		pop {r4}
 17593 8260 EA46     		mov r10, sp
 17594 8262 2546     		mov r5, r4
 17595 8264 2404     		lsls r4, r4, # 16
 17596 8266 240C     		lsrs r4, r4, # 16
 17597 8268 2D0C     		lsrs r5, r5, # 16
 17598 826a 6043     		muls r0, r0, r4
 17599 826c 6143     		muls r1, r1, r4
 17600 826e 6A43     		muls r2, r2, r5
 17601 8270 6B43     		muls r3, r3, r5
 17602 8272 8011     		asrs r0, r0, # 6
 17603 8274 8911     		asrs r1, r1, # 6
 17604 8276 9211     		asrs r2, r2, # 6
 17605 8278 9B11     		asrs r3, r3, # 6
 17606 827a 8018     		adds r0, r0, r2         @r
 17607 827c C918     		adds r1, r1, r3         @i
 17608 827e 3618     		adds r6, r6, r0
 17609 8280 7F18     		adds r7, r7, r1
 17610              	
 17611 8282 DD46     		mov sp, r11
 17612 8284 0FBC     		pop {r0-r3}
 17613 8286 EB46     		mov r11, sp
 17614 8288 D546     		mov sp, r10
 17615 828a 10BC     		pop {r4}
 17616 828c EA46     		mov r10, sp
 17617 828e 2546     		mov r5, r4
 17618 8290 2404     		lsls r4, r4, # 16
 17619 8292 240C     		lsrs r4, r4, # 16
 17620 8294 2D0C     		lsrs r5, r5, # 16
 17621 8296 6043     		muls r0, r0, r4
 17622 8298 6143     		muls r1, r1, r4
 17623 829a 6A43     		muls r2, r2, r5
 17624 829c 6B43     		muls r3, r3, r5
 17625 829e 8011     		asrs r0, r0, # 6
 17626 82a0 8911     		asrs r1, r1, # 6
 17627 82a2 9211     		asrs r2, r2, # 6
 17628 82a4 9B11     		asrs r3, r3, # 6
 17629 82a6 8018     		adds r0, r0, r2  @r
 17630 82a8 C918     		adds r1, r1, r3  @i
 17631 82aa 3618     		adds r6, r6, r0
 17632 82ac 7F18     		adds r7, r7, r1
 17633              	
 17634 82ae DD46     		mov sp, r11
 17635 82b0 0FBC     		pop {r0-r3}
 17636 82b2 EB46     		mov r11, sp
 17637 82b4 D546     		mov sp, r10
 17638 82b6 10BC     		pop {r4}
 17639 82b8 EA46     		mov r10, sp
 17640 82ba 2546     		mov r5, r4
 17641 82bc 2404     		lsls r4, r4, # 16
 17642 82be 240C     		lsrs r4, r4, # 16
 17643 82c0 2D0C     		lsrs r5, r5, # 16
 17644 82c2 6043     		muls r0, r0, r4
 17645 82c4 6143     		muls r1, r1, r4
 17646 82c6 6A43     		muls r2, r2, r5
 17647 82c8 6B43     		muls r3, r3, r5
 17648 82ca 8011     		asrs r0, r0, # 6
ARM GAS  1.s 			page 311


 17649 82cc 8911     		asrs r1, r1, # 6
 17650 82ce 9211     		asrs r2, r2, # 6
 17651 82d0 9B11     		asrs r3, r3, # 6
 17652 82d2 8018     		adds r0, r0, r2         @r
 17653 82d4 C918     		adds r1, r1, r3         @i
 17654 82d6 3618     		adds r6, r6, r0
 17655 82d8 7F18     		adds r7, r7, r1
 17656              	
 17657              		@4
 17658 82da DD46     		mov sp, r11
 17659 82dc 0FBC     		pop {r0-r3}
 17660 82de EB46     		mov r11, sp
 17661 82e0 D546     		mov sp, r10
 17662 82e2 10BC     		pop {r4}
 17663 82e4 EA46     		mov r10, sp
 17664 82e6 2546     		mov r5, r4
 17665 82e8 2404     		lsls r4, r4, # 16
 17666 82ea 240C     		lsrs r4, r4, # 16
 17667 82ec 2D0C     		lsrs r5, r5, # 16
 17668 82ee 6043     		muls r0, r0, r4		@R
 17669 82f0 6143     		muls r1, r1, r4		@I
 17670 82f2 6A43     		muls r2, r2, r5		@R
 17671 82f4 6B43     		muls r3, r3, r5		@I
 17672 82f6 8011     		asrs r0, r0, # 6
 17673 82f8 8911     		asrs r1, r1, # 6
 17674 82fa 9211     		asrs r2, r2, # 6
 17675 82fc 9B11     		asrs r3, r3, # 6
 17676 82fe 8018     		adds r0, r0, r2	 @r
 17677 8300 C918     		adds r1, r1, r3	 @i
 17678 8302 3618     		adds r6, r6, r0
 17679 8304 7F18     		adds r7, r7, r1
 17680              	
 17681 8306 DD46     		mov sp, r11
 17682 8308 0FBC     		pop {r0-r3}
 17683 830a EB46     		mov r11, sp
 17684 830c D546     		mov sp, r10
 17685 830e 10BC     		pop {r4}
 17686 8310 EA46     		mov r10, sp
 17687 8312 2546     		mov r5, r4
 17688 8314 2404     		lsls r4, r4, # 16
 17689 8316 240C     		lsrs r4, r4, # 16
 17690 8318 2D0C     		lsrs r5, r5, # 16
 17691 831a 6043     		muls r0, r0, r4
 17692 831c 6143     		muls r1, r1, r4
 17693 831e 6A43     		muls r2, r2, r5
 17694 8320 6B43     		muls r3, r3, r5
 17695 8322 8011     		asrs r0, r0, # 6
 17696 8324 8911     		asrs r1, r1, # 6
 17697 8326 9211     		asrs r2, r2, # 6
 17698 8328 9B11     		asrs r3, r3, # 6
 17699 832a 8018     		adds r0, r0, r2         @r
 17700 832c C918     		adds r1, r1, r3         @i
 17701 832e 3618     		adds r6, r6, r0
 17702 8330 7F18     		adds r7, r7, r1
 17703              	
 17704 8332 DD46     		mov sp, r11
 17705 8334 0FBC     		pop {r0-r3}
ARM GAS  1.s 			page 312


 17706 8336 EB46     		mov r11, sp
 17707 8338 D546     		mov sp, r10
 17708 833a 10BC     		pop {r4}
 17709 833c EA46     		mov r10, sp
 17710 833e 2546     		mov r5, r4
 17711 8340 2404     		lsls r4, r4, # 16
 17712 8342 240C     		lsrs r4, r4, # 16
 17713 8344 2D0C     		lsrs r5, r5, # 16
 17714 8346 6043     		muls r0, r0, r4
 17715 8348 6143     		muls r1, r1, r4
 17716 834a 6A43     		muls r2, r2, r5
 17717 834c 6B43     		muls r3, r3, r5
 17718 834e 8011     		asrs r0, r0, # 6
 17719 8350 8911     		asrs r1, r1, # 6
 17720 8352 9211     		asrs r2, r2, # 6
 17721 8354 9B11     		asrs r3, r3, # 6
 17722 8356 8018     		adds r0, r0, r2  @r
 17723 8358 C918     		adds r1, r1, r3  @i
 17724 835a 3618     		adds r6, r6, r0
 17725 835c 7F18     		adds r7, r7, r1
 17726              	
 17727 835e DD46     		mov sp, r11
 17728 8360 0FBC     		pop {r0-r3}
 17729 8362 EB46     		mov r11, sp
 17730 8364 D546     		mov sp, r10
 17731 8366 10BC     		pop {r4}
 17732 8368 EA46     		mov r10, sp
 17733 836a 2546     		mov r5, r4
 17734 836c 2404     		lsls r4, r4, # 16
 17735 836e 240C     		lsrs r4, r4, # 16
 17736 8370 2D0C     		lsrs r5, r5, # 16
 17737 8372 6043     		muls r0, r0, r4
 17738 8374 6143     		muls r1, r1, r4
 17739 8376 6A43     		muls r2, r2, r5
 17740 8378 6B43     		muls r3, r3, r5
 17741 837a 8011     		asrs r0, r0, # 6
 17742 837c 8911     		asrs r1, r1, # 6
 17743 837e 9211     		asrs r2, r2, # 6
 17744 8380 9B11     		asrs r3, r3, # 6
 17745 8382 8018     		adds r0, r0, r2         @r
 17746 8384 C918     		adds r1, r1, r3         @i
 17747 8386 3618     		adds r6, r6, r0
 17748 8388 7F18     		adds r7, r7, r1
 17749              	
 17750              		@5
 17751 838a DD46     		mov sp, r11
 17752 838c 0FBC     		pop {r0-r3}
 17753 838e EB46     		mov r11, sp
 17754 8390 D546     		mov sp, r10
 17755 8392 10BC     		pop {r4}
 17756 8394 EA46     		mov r10, sp
 17757 8396 2546     		mov r5, r4
 17758 8398 2404     		lsls r4, r4, # 16
 17759 839a 240C     		lsrs r4, r4, # 16
 17760 839c 2D0C     		lsrs r5, r5, # 16
 17761 839e 6043     		muls r0, r0, r4		@R
 17762 83a0 6143     		muls r1, r1, r4		@I
ARM GAS  1.s 			page 313


 17763 83a2 6A43     		muls r2, r2, r5		@R
 17764 83a4 6B43     		muls r3, r3, r5		@I
 17765 83a6 8011     		asrs r0, r0, # 6
 17766 83a8 8911     		asrs r1, r1, # 6
 17767 83aa 9211     		asrs r2, r2, # 6
 17768 83ac 9B11     		asrs r3, r3, # 6
 17769 83ae 8018     		adds r0, r0, r2	 @r
 17770 83b0 C918     		adds r1, r1, r3	 @i
 17771 83b2 3618     		adds r6, r6, r0
 17772 83b4 7F18     		adds r7, r7, r1
 17773              	
 17774 83b6 DD46     		mov sp, r11
 17775 83b8 0FBC     		pop {r0-r3}
 17776 83ba EB46     		mov r11, sp
 17777 83bc D546     		mov sp, r10
 17778 83be 10BC     		pop {r4}
 17779 83c0 EA46     		mov r10, sp
 17780 83c2 2546     		mov r5, r4
 17781 83c4 2404     		lsls r4, r4, # 16
 17782 83c6 240C     		lsrs r4, r4, # 16
 17783 83c8 2D0C     		lsrs r5, r5, # 16
 17784 83ca 6043     		muls r0, r0, r4
 17785 83cc 6143     		muls r1, r1, r4
 17786 83ce 6A43     		muls r2, r2, r5
 17787 83d0 6B43     		muls r3, r3, r5
 17788 83d2 8011     		asrs r0, r0, # 6
 17789 83d4 8911     		asrs r1, r1, # 6
 17790 83d6 9211     		asrs r2, r2, # 6
 17791 83d8 9B11     		asrs r3, r3, # 6
 17792 83da 8018     		adds r0, r0, r2         @r
 17793 83dc C918     		adds r1, r1, r3         @i
 17794 83de 3618     		adds r6, r6, r0
 17795 83e0 7F18     		adds r7, r7, r1
 17796              	
 17797 83e2 DD46     		mov sp, r11
 17798 83e4 0FBC     		pop {r0-r3}
 17799 83e6 EB46     		mov r11, sp
 17800 83e8 D546     		mov sp, r10
 17801 83ea 10BC     		pop {r4}
 17802 83ec EA46     		mov r10, sp
 17803 83ee 2546     		mov r5, r4
 17804 83f0 2404     		lsls r4, r4, # 16
 17805 83f2 240C     		lsrs r4, r4, # 16
 17806 83f4 2D0C     		lsrs r5, r5, # 16
 17807 83f6 6043     		muls r0, r0, r4
 17808 83f8 6143     		muls r1, r1, r4
 17809 83fa 6A43     		muls r2, r2, r5
 17810 83fc 6B43     		muls r3, r3, r5
 17811 83fe 8011     		asrs r0, r0, # 6
 17812 8400 8911     		asrs r1, r1, # 6
 17813 8402 9211     		asrs r2, r2, # 6
 17814 8404 9B11     		asrs r3, r3, # 6
 17815 8406 8018     		adds r0, r0, r2  @r
 17816 8408 C918     		adds r1, r1, r3  @i
 17817 840a 3618     		adds r6, r6, r0
 17818 840c 7F18     		adds r7, r7, r1
 17819              	
ARM GAS  1.s 			page 314


 17820 840e DD46     		mov sp, r11
 17821 8410 0FBC     		pop {r0-r3}
 17822 8412 EB46     		mov r11, sp
 17823 8414 D546     		mov sp, r10
 17824 8416 10BC     		pop {r4}
 17825 8418 EA46     		mov r10, sp
 17826 841a 2546     		mov r5, r4
 17827 841c 2404     		lsls r4, r4, # 16
 17828 841e 240C     		lsrs r4, r4, # 16
 17829 8420 2D0C     		lsrs r5, r5, # 16
 17830 8422 6043     		muls r0, r0, r4
 17831 8424 6143     		muls r1, r1, r4
 17832 8426 6A43     		muls r2, r2, r5
 17833 8428 6B43     		muls r3, r3, r5
 17834 842a 8011     		asrs r0, r0, # 6
 17835 842c 8911     		asrs r1, r1, # 6
 17836 842e 9211     		asrs r2, r2, # 6
 17837 8430 9B11     		asrs r3, r3, # 6
 17838 8432 8018     		adds r0, r0, r2         @r
 17839 8434 C918     		adds r1, r1, r3         @i
 17840 8436 3618     		adds r6, r6, r0
 17841 8438 7F18     		adds r7, r7, r1
 17842              	
 17843              		@6
 17844 843a DD46     		mov sp, r11
 17845 843c 0FBC     		pop {r0-r3}
 17846 843e EB46     		mov r11, sp
 17847 8440 D546     		mov sp, r10
 17848 8442 10BC     		pop {r4}
 17849 8444 EA46     		mov r10, sp
 17850 8446 2546     		mov r5, r4
 17851 8448 2404     		lsls r4, r4, # 16
 17852 844a 240C     		lsrs r4, r4, # 16
 17853 844c 2D0C     		lsrs r5, r5, # 16
 17854 844e 6043     		muls r0, r0, r4		@R
 17855 8450 6143     		muls r1, r1, r4		@I
 17856 8452 6A43     		muls r2, r2, r5		@R
 17857 8454 6B43     		muls r3, r3, r5		@I
 17858 8456 8011     		asrs r0, r0, # 6
 17859 8458 8911     		asrs r1, r1, # 6
 17860 845a 9211     		asrs r2, r2, # 6
 17861 845c 9B11     		asrs r3, r3, # 6
 17862 845e 8018     		adds r0, r0, r2	 @r
 17863 8460 C918     		adds r1, r1, r3	 @i
 17864 8462 3618     		adds r6, r6, r0
 17865 8464 7F18     		adds r7, r7, r1
 17866              	
 17867 8466 DD46     		mov sp, r11
 17868 8468 0FBC     		pop {r0-r3}
 17869 846a EB46     		mov r11, sp
 17870 846c D546     		mov sp, r10
 17871 846e 10BC     		pop {r4}
 17872 8470 EA46     		mov r10, sp
 17873 8472 2546     		mov r5, r4
 17874 8474 2404     		lsls r4, r4, # 16
 17875 8476 240C     		lsrs r4, r4, # 16
 17876 8478 2D0C     		lsrs r5, r5, # 16
ARM GAS  1.s 			page 315


 17877 847a 6043     		muls r0, r0, r4
 17878 847c 6143     		muls r1, r1, r4
 17879 847e 6A43     		muls r2, r2, r5
 17880 8480 6B43     		muls r3, r3, r5
 17881 8482 8011     		asrs r0, r0, # 6
 17882 8484 8911     		asrs r1, r1, # 6
 17883 8486 9211     		asrs r2, r2, # 6
 17884 8488 9B11     		asrs r3, r3, # 6
 17885 848a 8018     		adds r0, r0, r2         @r
 17886 848c C918     		adds r1, r1, r3         @i
 17887 848e 3618     		adds r6, r6, r0
 17888 8490 7F18     		adds r7, r7, r1
 17889              	
 17890 8492 DD46     		mov sp, r11
 17891 8494 0FBC     		pop {r0-r3}
 17892 8496 EB46     		mov r11, sp
 17893 8498 D546     		mov sp, r10
 17894 849a 10BC     		pop {r4}
 17895 849c EA46     		mov r10, sp
 17896 849e 2546     		mov r5, r4
 17897 84a0 2404     		lsls r4, r4, # 16
 17898 84a2 240C     		lsrs r4, r4, # 16
 17899 84a4 2D0C     		lsrs r5, r5, # 16
 17900 84a6 6043     		muls r0, r0, r4
 17901 84a8 6143     		muls r1, r1, r4
 17902 84aa 6A43     		muls r2, r2, r5
 17903 84ac 6B43     		muls r3, r3, r5
 17904 84ae 8011     		asrs r0, r0, # 6
 17905 84b0 8911     		asrs r1, r1, # 6
 17906 84b2 9211     		asrs r2, r2, # 6
 17907 84b4 9B11     		asrs r3, r3, # 6
 17908 84b6 8018     		adds r0, r0, r2  @r
 17909 84b8 C918     		adds r1, r1, r3  @i
 17910 84ba 3618     		adds r6, r6, r0
 17911 84bc 7F18     		adds r7, r7, r1
 17912              	
 17913 84be DD46     		mov sp, r11
 17914 84c0 0FBC     		pop {r0-r3}
 17915 84c2 EB46     		mov r11, sp
 17916 84c4 D546     		mov sp, r10
 17917 84c6 10BC     		pop {r4}
 17918 84c8 EA46     		mov r10, sp
 17919 84ca 2546     		mov r5, r4
 17920 84cc 2404     		lsls r4, r4, # 16
 17921 84ce 240C     		lsrs r4, r4, # 16
 17922 84d0 2D0C     		lsrs r5, r5, # 16
 17923 84d2 6043     		muls r0, r0, r4
 17924 84d4 6143     		muls r1, r1, r4
 17925 84d6 6A43     		muls r2, r2, r5
 17926 84d8 6B43     		muls r3, r3, r5
 17927 84da 8011     		asrs r0, r0, # 6
 17928 84dc 8911     		asrs r1, r1, # 6
 17929 84de 9211     		asrs r2, r2, # 6
 17930 84e0 9B11     		asrs r3, r3, # 6
 17931 84e2 8018     		adds r0, r0, r2         @r
 17932 84e4 C918     		adds r1, r1, r3         @i
 17933 84e6 3618     		adds r6, r6, r0
ARM GAS  1.s 			page 316


 17934 84e8 7F18     		adds r7, r7, r1
 17935              	
 17936              		@7
 17937 84ea DD46     		mov sp, r11
 17938 84ec 0FBC     		pop {r0-r3}
 17939 84ee EB46     		mov r11, sp
 17940 84f0 D546     		mov sp, r10
 17941 84f2 10BC     		pop {r4}
 17942 84f4 EA46     		mov r10, sp
 17943 84f6 2546     		mov r5, r4
 17944 84f8 2404     		lsls r4, r4, # 16
 17945 84fa 240C     		lsrs r4, r4, # 16
 17946 84fc 2D0C     		lsrs r5, r5, # 16
 17947 84fe 6043     		muls r0, r0, r4		@R
 17948 8500 6143     		muls r1, r1, r4		@I
 17949 8502 6A43     		muls r2, r2, r5		@R
 17950 8504 6B43     		muls r3, r3, r5		@I
 17951 8506 8011     		asrs r0, r0, # 6
 17952 8508 8911     		asrs r1, r1, # 6
 17953 850a 9211     		asrs r2, r2, # 6
 17954 850c 9B11     		asrs r3, r3, # 6
 17955 850e 8018     		adds r0, r0, r2	 @r
 17956 8510 C918     		adds r1, r1, r3	 @i
 17957 8512 3618     		adds r6, r6, r0
 17958 8514 7F18     		adds r7, r7, r1
 17959              	
 17960 8516 DD46     		mov sp, r11
 17961 8518 0FBC     		pop {r0-r3}
 17962 851a EB46     		mov r11, sp
 17963 851c D546     		mov sp, r10
 17964 851e 10BC     		pop {r4}
 17965 8520 EA46     		mov r10, sp
 17966 8522 2546     		mov r5, r4
 17967 8524 2404     		lsls r4, r4, # 16
 17968 8526 240C     		lsrs r4, r4, # 16
 17969 8528 2D0C     		lsrs r5, r5, # 16
 17970 852a 6043     		muls r0, r0, r4
 17971 852c 6143     		muls r1, r1, r4
 17972 852e 6A43     		muls r2, r2, r5
 17973 8530 6B43     		muls r3, r3, r5
 17974 8532 8011     		asrs r0, r0, # 6
 17975 8534 8911     		asrs r1, r1, # 6
 17976 8536 9211     		asrs r2, r2, # 6
 17977 8538 9B11     		asrs r3, r3, # 6
 17978 853a 8018     		adds r0, r0, r2         @r
 17979 853c C918     		adds r1, r1, r3         @i
 17980 853e 3618     		adds r6, r6, r0
 17981 8540 7F18     		adds r7, r7, r1
 17982              	
 17983 8542 DD46     		mov sp, r11
 17984 8544 0FBC     		pop {r0-r3}
 17985 8546 EB46     		mov r11, sp
 17986 8548 D546     		mov sp, r10
 17987 854a 10BC     		pop {r4}
 17988 854c EA46     		mov r10, sp
 17989 854e 2546     		mov r5, r4
 17990 8550 2404     		lsls r4, r4, # 16
ARM GAS  1.s 			page 317


 17991 8552 240C     		lsrs r4, r4, # 16
 17992 8554 2D0C     		lsrs r5, r5, # 16
 17993 8556 6043     		muls r0, r0, r4
 17994 8558 6143     		muls r1, r1, r4
 17995 855a 6A43     		muls r2, r2, r5
 17996 855c 6B43     		muls r3, r3, r5
 17997 855e 8011     		asrs r0, r0, # 6
 17998 8560 8911     		asrs r1, r1, # 6
 17999 8562 9211     		asrs r2, r2, # 6
 18000 8564 9B11     		asrs r3, r3, # 6
 18001 8566 8018     		adds r0, r0, r2  @r
 18002 8568 C918     		adds r1, r1, r3  @i
 18003 856a 3618     		adds r6, r6, r0
 18004 856c 7F18     		adds r7, r7, r1
 18005              	
 18006 856e DD46     		mov sp, r11
 18007 8570 0FBC     		pop {r0-r3}
 18008 8572 EB46     		mov r11, sp
 18009 8574 D546     		mov sp, r10
 18010 8576 10BC     		pop {r4}
 18011 8578 EA46     		mov r10, sp
 18012 857a 2546     		mov r5, r4
 18013 857c 2404     		lsls r4, r4, # 16
 18014 857e 240C     		lsrs r4, r4, # 16
 18015 8580 2D0C     		lsrs r5, r5, # 16
 18016 8582 6043     		muls r0, r0, r4
 18017 8584 6143     		muls r1, r1, r4
 18018 8586 6A43     		muls r2, r2, r5
 18019 8588 6B43     		muls r3, r3, r5
 18020 858a 8011     		asrs r0, r0, # 6
 18021 858c 8911     		asrs r1, r1, # 6
 18022 858e 9211     		asrs r2, r2, # 6
 18023 8590 9B11     		asrs r3, r3, # 6
 18024 8592 8018     		adds r0, r0, r2         @r
 18025 8594 C918     		adds r1, r1, r3         @i
 18026 8596 3618     		adds r6, r6, r0
 18027 8598 7F18     		adds r7, r7, r1
 18028              	
 18029              		@8
 18030 859a DD46     		mov sp, r11
 18031 859c 0FBC     		pop {r0-r3}
 18032 859e EB46     		mov r11, sp
 18033 85a0 D546     		mov sp, r10
 18034 85a2 10BC     		pop {r4}
 18035 85a4 EA46     		mov r10, sp
 18036 85a6 2546     		mov r5, r4
 18037 85a8 2404     		lsls r4, r4, # 16
 18038 85aa 240C     		lsrs r4, r4, # 16
 18039 85ac 2D0C     		lsrs r5, r5, # 16
 18040 85ae 6043     		muls r0, r0, r4		@R
 18041 85b0 6143     		muls r1, r1, r4		@I
 18042 85b2 6A43     		muls r2, r2, r5		@R
 18043 85b4 6B43     		muls r3, r3, r5		@I
 18044 85b6 8011     		asrs r0, r0, # 6
 18045 85b8 8911     		asrs r1, r1, # 6
 18046 85ba 9211     		asrs r2, r2, # 6
 18047 85bc 9B11     		asrs r3, r3, # 6
ARM GAS  1.s 			page 318


 18048 85be 8018     		adds r0, r0, r2	 @r
 18049 85c0 C918     		adds r1, r1, r3	 @i
 18050 85c2 3618     		adds r6, r6, r0
 18051 85c4 7F18     		adds r7, r7, r1
 18052              	
 18053 85c6 DD46     		mov sp, r11
 18054 85c8 0FBC     		pop {r0-r3}
 18055 85ca EB46     		mov r11, sp
 18056 85cc D546     		mov sp, r10
 18057 85ce 10BC     		pop {r4}
 18058 85d0 EA46     		mov r10, sp
 18059 85d2 2546     		mov r5, r4
 18060 85d4 2404     		lsls r4, r4, # 16
 18061 85d6 240C     		lsrs r4, r4, # 16
 18062 85d8 2D0C     		lsrs r5, r5, # 16
 18063 85da 6043     		muls r0, r0, r4
 18064 85dc 6143     		muls r1, r1, r4
 18065 85de 6A43     		muls r2, r2, r5
 18066 85e0 6B43     		muls r3, r3, r5
 18067 85e2 8011     		asrs r0, r0, # 6
 18068 85e4 8911     		asrs r1, r1, # 6
 18069 85e6 9211     		asrs r2, r2, # 6
 18070 85e8 9B11     		asrs r3, r3, # 6
 18071 85ea 8018     		adds r0, r0, r2         @r
 18072 85ec C918     		adds r1, r1, r3         @i
 18073 85ee 3618     		adds r6, r6, r0
 18074 85f0 7F18     		adds r7, r7, r1
 18075              	
 18076 85f2 DD46     		mov sp, r11
 18077 85f4 0FBC     		pop {r0-r3}
 18078 85f6 EB46     		mov r11, sp
 18079 85f8 D546     		mov sp, r10
 18080 85fa 10BC     		pop {r4}
 18081 85fc EA46     		mov r10, sp
 18082 85fe 2546     		mov r5, r4
 18083 8600 2404     		lsls r4, r4, # 16
 18084 8602 240C     		lsrs r4, r4, # 16
 18085 8604 2D0C     		lsrs r5, r5, # 16
 18086 8606 6043     		muls r0, r0, r4
 18087 8608 6143     		muls r1, r1, r4
 18088 860a 6A43     		muls r2, r2, r5
 18089 860c 6B43     		muls r3, r3, r5
 18090 860e 8011     		asrs r0, r0, # 6
 18091 8610 8911     		asrs r1, r1, # 6
 18092 8612 9211     		asrs r2, r2, # 6
 18093 8614 9B11     		asrs r3, r3, # 6
 18094 8616 8018     		adds r0, r0, r2  @r
 18095 8618 C918     		adds r1, r1, r3  @i
 18096 861a 3618     		adds r6, r6, r0
 18097 861c 7F18     		adds r7, r7, r1
 18098              	
 18099 861e DD46     		mov sp, r11
 18100 8620 0FBC     		pop {r0-r3}
 18101 8622 EB46     		mov r11, sp
 18102 8624 D546     		mov sp, r10
 18103 8626 10BC     		pop {r4}
 18104 8628 EA46     		mov r10, sp
ARM GAS  1.s 			page 319


 18105 862a 2546     		mov r5, r4
 18106 862c 2404     		lsls r4, r4, # 16
 18107 862e 240C     		lsrs r4, r4, # 16
 18108 8630 2D0C     		lsrs r5, r5, # 16
 18109 8632 6043     		muls r0, r0, r4
 18110 8634 6143     		muls r1, r1, r4
 18111 8636 6A43     		muls r2, r2, r5
 18112 8638 6B43     		muls r3, r3, r5
 18113 863a 8011     		asrs r0, r0, # 6
 18114 863c 8911     		asrs r1, r1, # 6
 18115 863e 9211     		asrs r2, r2, # 6
 18116 8640 9B11     		asrs r3, r3, # 6
 18117 8642 8018     		adds r0, r0, r2         @r
 18118 8644 C918     		adds r1, r1, r3         @i
 18119 8646 3618     		adds r6, r6, r0
 18120 8648 7F18     		adds r7, r7, r1
 18121              	
 18122              		@9
 18123 864a DD46     		mov sp, r11
 18124 864c 0FBC     		pop {r0-r3}
 18125 864e EB46     		mov r11, sp
 18126 8650 D546     		mov sp, r10
 18127 8652 10BC     		pop {r4}
 18128 8654 EA46     		mov r10, sp
 18129 8656 2546     		mov r5, r4
 18130 8658 2404     		lsls r4, r4, # 16
 18131 865a 240C     		lsrs r4, r4, # 16
 18132 865c 2D0C     		lsrs r5, r5, # 16
 18133 865e 6043     		muls r0, r0, r4		@R
 18134 8660 6143     		muls r1, r1, r4		@I
 18135 8662 6A43     		muls r2, r2, r5		@R
 18136 8664 6B43     		muls r3, r3, r5		@I
 18137 8666 8011     		asrs r0, r0, # 6
 18138 8668 8911     		asrs r1, r1, # 6
 18139 866a 9211     		asrs r2, r2, # 6
 18140 866c 9B11     		asrs r3, r3, # 6
 18141 866e 8018     		adds r0, r0, r2	 @r
 18142 8670 C918     		adds r1, r1, r3	 @i
 18143 8672 3618     		adds r6, r6, r0
 18144 8674 7F18     		adds r7, r7, r1
 18145              	
 18146 8676 DD46     		mov sp, r11
 18147 8678 0FBC     		pop {r0-r3}
 18148 867a EB46     		mov r11, sp
 18149 867c D546     		mov sp, r10
 18150 867e 10BC     		pop {r4}
 18151 8680 EA46     		mov r10, sp
 18152 8682 2546     		mov r5, r4
 18153 8684 2404     		lsls r4, r4, # 16
 18154 8686 240C     		lsrs r4, r4, # 16
 18155 8688 2D0C     		lsrs r5, r5, # 16
 18156 868a 6043     		muls r0, r0, r4
 18157 868c 6143     		muls r1, r1, r4
 18158 868e 6A43     		muls r2, r2, r5
 18159 8690 6B43     		muls r3, r3, r5
 18160 8692 8011     		asrs r0, r0, # 6
 18161 8694 8911     		asrs r1, r1, # 6
ARM GAS  1.s 			page 320


 18162 8696 9211     		asrs r2, r2, # 6
 18163 8698 9B11     		asrs r3, r3, # 6
 18164 869a 8018     		adds r0, r0, r2         @r
 18165 869c C918     		adds r1, r1, r3         @i
 18166 869e 3618     		adds r6, r6, r0
 18167 86a0 7F18     		adds r7, r7, r1
 18168              	
 18169 86a2 DD46     		mov sp, r11
 18170 86a4 0FBC     		pop {r0-r3}
 18171 86a6 EB46     		mov r11, sp
 18172 86a8 D546     		mov sp, r10
 18173 86aa 10BC     		pop {r4}
 18174 86ac EA46     		mov r10, sp
 18175 86ae 2546     		mov r5, r4
 18176 86b0 2404     		lsls r4, r4, # 16
 18177 86b2 240C     		lsrs r4, r4, # 16
 18178 86b4 2D0C     		lsrs r5, r5, # 16
 18179 86b6 6043     		muls r0, r0, r4
 18180 86b8 6143     		muls r1, r1, r4
 18181 86ba 6A43     		muls r2, r2, r5
 18182 86bc 6B43     		muls r3, r3, r5
 18183 86be 8011     		asrs r0, r0, # 6
 18184 86c0 8911     		asrs r1, r1, # 6
 18185 86c2 9211     		asrs r2, r2, # 6
 18186 86c4 9B11     		asrs r3, r3, # 6
 18187 86c6 8018     		adds r0, r0, r2  @r
 18188 86c8 C918     		adds r1, r1, r3  @i
 18189 86ca 3618     		adds r6, r6, r0
 18190 86cc 7F18     		adds r7, r7, r1
 18191              	
 18192 86ce DD46     		mov sp, r11
 18193 86d0 0FBC     		pop {r0-r3}
 18194 86d2 EB46     		mov r11, sp
 18195 86d4 D546     		mov sp, r10
 18196 86d6 10BC     		pop {r4}
 18197 86d8 EA46     		mov r10, sp
 18198 86da 2546     		mov r5, r4
 18199 86dc 2404     		lsls r4, r4, # 16
 18200 86de 240C     		lsrs r4, r4, # 16
 18201 86e0 2D0C     		lsrs r5, r5, # 16
 18202 86e2 6043     		muls r0, r0, r4
 18203 86e4 6143     		muls r1, r1, r4
 18204 86e6 6A43     		muls r2, r2, r5
 18205 86e8 6B43     		muls r3, r3, r5
 18206 86ea 8011     		asrs r0, r0, # 6
 18207 86ec 8911     		asrs r1, r1, # 6
 18208 86ee 9211     		asrs r2, r2, # 6
 18209 86f0 9B11     		asrs r3, r3, # 6
 18210 86f2 8018     		adds r0, r0, r2         @r
 18211 86f4 C918     		adds r1, r1, r3         @i
 18212 86f6 3618     		adds r6, r6, r0
 18213 86f8 7F18     		adds r7, r7, r1
 18214              	
 18215              		@yjm18
 18216              		@0
 18217 86fa DD46     		mov sp, r11
 18218 86fc 0FBC     		pop {r0-r3}
ARM GAS  1.s 			page 321


 18219 86fe EB46     		mov r11, sp
 18220 8700 D546     		mov sp, r10
 18221 8702 10BC     		pop {r4}
 18222 8704 EA46     		mov r10, sp
 18223 8706 2546     		mov r5, r4
 18224 8708 2404     		lsls r4, r4, # 16
 18225 870a 240C     		lsrs r4, r4, # 16
 18226 870c 2D0C     		lsrs r5, r5, # 16
 18227 870e 6043     		muls r0, r0, r4		@R
 18228 8710 6143     		muls r1, r1, r4		@I
 18229 8712 6A43     		muls r2, r2, r5		@R
 18230 8714 6B43     		muls r3, r3, r5		@I
 18231 8716 8011     		asrs r0, r0, # 6
 18232 8718 8911     		asrs r1, r1, # 6
 18233 871a 9211     		asrs r2, r2, # 6
 18234 871c 9B11     		asrs r3, r3, # 6
 18235 871e 8018     		adds r0, r0, r2	 @r
 18236 8720 C918     		adds r1, r1, r3	 @i
 18237 8722 3618     		adds r6, r6, r0
 18238 8724 7F18     		adds r7, r7, r1
 18239              	
 18240 8726 DD46     		mov sp, r11
 18241 8728 0FBC     		pop {r0-r3}
 18242 872a EB46     		mov r11, sp
 18243 872c D546     		mov sp, r10
 18244 872e 10BC     		pop {r4}
 18245 8730 EA46     		mov r10, sp
 18246 8732 2546     		mov r5, r4
 18247 8734 2404     		lsls r4, r4, # 16
 18248 8736 240C     		lsrs r4, r4, # 16
 18249 8738 2D0C     		lsrs r5, r5, # 16
 18250 873a 6043     		muls r0, r0, r4
 18251 873c 6143     		muls r1, r1, r4
 18252 873e 6A43     		muls r2, r2, r5
 18253 8740 6B43     		muls r3, r3, r5
 18254 8742 8011     		asrs r0, r0, # 6
 18255 8744 8911     		asrs r1, r1, # 6
 18256 8746 9211     		asrs r2, r2, # 6
 18257 8748 9B11     		asrs r3, r3, # 6
 18258 874a 8018     		adds r0, r0, r2         @r
 18259 874c C918     		adds r1, r1, r3         @i
 18260 874e 3618     		adds r6, r6, r0
 18261 8750 7F18     		adds r7, r7, r1
 18262              	
 18263 8752 DD46     		mov sp, r11
 18264 8754 0FBC     		pop {r0-r3}
 18265 8756 EB46     		mov r11, sp
 18266 8758 D546     		mov sp, r10
 18267 875a 10BC     		pop {r4}
 18268 875c EA46     		mov r10, sp
 18269 875e 2546     		mov r5, r4
 18270 8760 2404     		lsls r4, r4, # 16
 18271 8762 240C     		lsrs r4, r4, # 16
 18272 8764 2D0C     		lsrs r5, r5, # 16
 18273 8766 6043     		muls r0, r0, r4
 18274 8768 6143     		muls r1, r1, r4
 18275 876a 6A43     		muls r2, r2, r5
ARM GAS  1.s 			page 322


 18276 876c 6B43     		muls r3, r3, r5
 18277 876e 8011     		asrs r0, r0, # 6
 18278 8770 8911     		asrs r1, r1, # 6
 18279 8772 9211     		asrs r2, r2, # 6
 18280 8774 9B11     		asrs r3, r3, # 6
 18281 8776 8018     		adds r0, r0, r2  @r
 18282 8778 C918     		adds r1, r1, r3  @i
 18283 877a 3618     		adds r6, r6, r0
 18284 877c 7F18     		adds r7, r7, r1
 18285              	
 18286 877e DD46     		mov sp, r11
 18287 8780 0FBC     		pop {r0-r3}
 18288 8782 EB46     		mov r11, sp
 18289 8784 D546     		mov sp, r10
 18290 8786 10BC     		pop {r4}
 18291 8788 EA46     		mov r10, sp
 18292 878a 2546     		mov r5, r4
 18293 878c 2404     		lsls r4, r4, # 16
 18294 878e 240C     		lsrs r4, r4, # 16
 18295 8790 2D0C     		lsrs r5, r5, # 16
 18296 8792 6043     		muls r0, r0, r4
 18297 8794 6143     		muls r1, r1, r4
 18298 8796 6A43     		muls r2, r2, r5
 18299 8798 6B43     		muls r3, r3, r5
 18300 879a 8011     		asrs r0, r0, # 6
 18301 879c 8911     		asrs r1, r1, # 6
 18302 879e 9211     		asrs r2, r2, # 6
 18303 87a0 9B11     		asrs r3, r3, # 6
 18304 87a2 8018     		adds r0, r0, r2         @r
 18305 87a4 C918     		adds r1, r1, r3         @i
 18306 87a6 3618     		adds r6, r6, r0
 18307 87a8 7F18     		adds r7, r7, r1
 18308              	
 18309              		@1
 18310 87aa DD46     		mov sp, r11
 18311 87ac 0FBC     		pop {r0-r3}
 18312 87ae EB46     		mov r11, sp
 18313 87b0 D546     		mov sp, r10
 18314 87b2 10BC     		pop {r4}
 18315 87b4 EA46     		mov r10, sp
 18316 87b6 2546     		mov r5, r4
 18317 87b8 2404     		lsls r4, r4, # 16
 18318 87ba 240C     		lsrs r4, r4, # 16
 18319 87bc 2D0C     		lsrs r5, r5, # 16
 18320 87be 6043     		muls r0, r0, r4		@R
 18321 87c0 6143     		muls r1, r1, r4		@I
 18322 87c2 6A43     		muls r2, r2, r5		@R
 18323 87c4 6B43     		muls r3, r3, r5		@I
 18324 87c6 8011     		asrs r0, r0, # 6
 18325 87c8 8911     		asrs r1, r1, # 6
 18326 87ca 9211     		asrs r2, r2, # 6
 18327 87cc 9B11     		asrs r3, r3, # 6
 18328 87ce 8018     		adds r0, r0, r2	 @r
 18329 87d0 C918     		adds r1, r1, r3	 @i
 18330 87d2 3618     		adds r6, r6, r0
 18331 87d4 7F18     		adds r7, r7, r1
 18332              	
ARM GAS  1.s 			page 323


 18333 87d6 DD46     		mov sp, r11
 18334 87d8 0FBC     		pop {r0-r3}
 18335 87da EB46     		mov r11, sp
 18336 87dc D546     		mov sp, r10
 18337 87de 10BC     		pop {r4}
 18338 87e0 EA46     		mov r10, sp
 18339 87e2 2546     		mov r5, r4
 18340 87e4 2404     		lsls r4, r4, # 16
 18341 87e6 240C     		lsrs r4, r4, # 16
 18342 87e8 2D0C     		lsrs r5, r5, # 16
 18343 87ea 6043     		muls r0, r0, r4
 18344 87ec 6143     		muls r1, r1, r4
 18345 87ee 6A43     		muls r2, r2, r5
 18346 87f0 6B43     		muls r3, r3, r5
 18347 87f2 8011     		asrs r0, r0, # 6
 18348 87f4 8911     		asrs r1, r1, # 6
 18349 87f6 9211     		asrs r2, r2, # 6
 18350 87f8 9B11     		asrs r3, r3, # 6
 18351 87fa 8018     		adds r0, r0, r2         @r
 18352 87fc C918     		adds r1, r1, r3         @i
 18353 87fe 3618     		adds r6, r6, r0
 18354 8800 7F18     		adds r7, r7, r1
 18355              	
 18356 8802 DD46     		mov sp, r11
 18357 8804 0FBC     		pop {r0-r3}
 18358 8806 EB46     		mov r11, sp
 18359 8808 D546     		mov sp, r10
 18360 880a 10BC     		pop {r4}
 18361 880c EA46     		mov r10, sp
 18362 880e 2546     		mov r5, r4
 18363 8810 2404     		lsls r4, r4, # 16
 18364 8812 240C     		lsrs r4, r4, # 16
 18365 8814 2D0C     		lsrs r5, r5, # 16
 18366 8816 6043     		muls r0, r0, r4
 18367 8818 6143     		muls r1, r1, r4
 18368 881a 6A43     		muls r2, r2, r5
 18369 881c 6B43     		muls r3, r3, r5
 18370 881e 8011     		asrs r0, r0, # 6
 18371 8820 8911     		asrs r1, r1, # 6
 18372 8822 9211     		asrs r2, r2, # 6
 18373 8824 9B11     		asrs r3, r3, # 6
 18374 8826 8018     		adds r0, r0, r2  @r
 18375 8828 C918     		adds r1, r1, r3  @i
 18376 882a 3618     		adds r6, r6, r0
 18377 882c 7F18     		adds r7, r7, r1
 18378              	
 18379 882e DD46     		mov sp, r11
 18380 8830 0FBC     		pop {r0-r3}
 18381 8832 EB46     		mov r11, sp
 18382 8834 D546     		mov sp, r10
 18383 8836 10BC     		pop {r4}
 18384 8838 EA46     		mov r10, sp
 18385 883a 2546     		mov r5, r4
 18386 883c 2404     		lsls r4, r4, # 16
 18387 883e 240C     		lsrs r4, r4, # 16
 18388 8840 2D0C     		lsrs r5, r5, # 16
 18389 8842 6043     		muls r0, r0, r4
ARM GAS  1.s 			page 324


 18390 8844 6143     		muls r1, r1, r4
 18391 8846 6A43     		muls r2, r2, r5
 18392 8848 6B43     		muls r3, r3, r5
 18393 884a 8011     		asrs r0, r0, # 6
 18394 884c 8911     		asrs r1, r1, # 6
 18395 884e 9211     		asrs r2, r2, # 6
 18396 8850 9B11     		asrs r3, r3, # 6
 18397 8852 8018     		adds r0, r0, r2         @r
 18398 8854 C918     		adds r1, r1, r3         @i
 18399 8856 3618     		adds r6, r6, r0
 18400 8858 7F18     		adds r7, r7, r1
 18401              	
 18402              		@2
 18403 885a DD46     		mov sp, r11
 18404 885c 0FBC     		pop {r0-r3}
 18405 885e EB46     		mov r11, sp
 18406 8860 D546     		mov sp, r10
 18407 8862 10BC     		pop {r4}
 18408 8864 EA46     		mov r10, sp
 18409 8866 2546     		mov r5, r4
 18410 8868 2404     		lsls r4, r4, # 16
 18411 886a 240C     		lsrs r4, r4, # 16
 18412 886c 2D0C     		lsrs r5, r5, # 16
 18413 886e 6043     		muls r0, r0, r4		@R
 18414 8870 6143     		muls r1, r1, r4		@I
 18415 8872 6A43     		muls r2, r2, r5		@R
 18416 8874 6B43     		muls r3, r3, r5		@I
 18417 8876 8011     		asrs r0, r0, # 6
 18418 8878 8911     		asrs r1, r1, # 6
 18419 887a 9211     		asrs r2, r2, # 6
 18420 887c 9B11     		asrs r3, r3, # 6
 18421 887e 8018     		adds r0, r0, r2	 @r
 18422 8880 C918     		adds r1, r1, r3	 @i
 18423 8882 3618     		adds r6, r6, r0
 18424 8884 7F18     		adds r7, r7, r1
 18425              	
 18426 8886 DD46     		mov sp, r11
 18427 8888 0FBC     		pop {r0-r3}
 18428 888a EB46     		mov r11, sp
 18429 888c D546     		mov sp, r10
 18430 888e 10BC     		pop {r4}
 18431 8890 EA46     		mov r10, sp
 18432 8892 2546     		mov r5, r4
 18433 8894 2404     		lsls r4, r4, # 16
 18434 8896 240C     		lsrs r4, r4, # 16
 18435 8898 2D0C     		lsrs r5, r5, # 16
 18436 889a 6043     		muls r0, r0, r4
 18437 889c 6143     		muls r1, r1, r4
 18438 889e 6A43     		muls r2, r2, r5
 18439 88a0 6B43     		muls r3, r3, r5
 18440 88a2 8011     		asrs r0, r0, # 6
 18441 88a4 8911     		asrs r1, r1, # 6
 18442 88a6 9211     		asrs r2, r2, # 6
 18443 88a8 9B11     		asrs r3, r3, # 6
 18444 88aa 8018     		adds r0, r0, r2         @r
 18445 88ac C918     		adds r1, r1, r3         @i
 18446 88ae 3618     		adds r6, r6, r0
ARM GAS  1.s 			page 325


 18447 88b0 7F18     		adds r7, r7, r1
 18448              	
 18449 88b2 DD46     		mov sp, r11
 18450 88b4 0FBC     		pop {r0-r3}
 18451 88b6 EB46     		mov r11, sp
 18452 88b8 D546     		mov sp, r10
 18453 88ba 10BC     		pop {r4}
 18454 88bc EA46     		mov r10, sp
 18455 88be 2546     		mov r5, r4
 18456 88c0 2404     		lsls r4, r4, # 16
 18457 88c2 240C     		lsrs r4, r4, # 16
 18458 88c4 2D0C     		lsrs r5, r5, # 16
 18459 88c6 6043     		muls r0, r0, r4
 18460 88c8 6143     		muls r1, r1, r4
 18461 88ca 6A43     		muls r2, r2, r5
 18462 88cc 6B43     		muls r3, r3, r5
 18463 88ce 8011     		asrs r0, r0, # 6
 18464 88d0 8911     		asrs r1, r1, # 6
 18465 88d2 9211     		asrs r2, r2, # 6
 18466 88d4 9B11     		asrs r3, r3, # 6
 18467 88d6 8018     		adds r0, r0, r2  @r
 18468 88d8 C918     		adds r1, r1, r3  @i
 18469 88da 3618     		adds r6, r6, r0
 18470 88dc 7F18     		adds r7, r7, r1
 18471              	
 18472 88de DD46     		mov sp, r11
 18473 88e0 0FBC     		pop {r0-r3}
 18474 88e2 EB46     		mov r11, sp
 18475 88e4 D546     		mov sp, r10
 18476 88e6 10BC     		pop {r4}
 18477 88e8 EA46     		mov r10, sp
 18478 88ea 2546     		mov r5, r4
 18479 88ec 2404     		lsls r4, r4, # 16
 18480 88ee 240C     		lsrs r4, r4, # 16
 18481 88f0 2D0C     		lsrs r5, r5, # 16
 18482 88f2 6043     		muls r0, r0, r4
 18483 88f4 6143     		muls r1, r1, r4
 18484 88f6 6A43     		muls r2, r2, r5
 18485 88f8 6B43     		muls r3, r3, r5
 18486 88fa 8011     		asrs r0, r0, # 6
 18487 88fc 8911     		asrs r1, r1, # 6
 18488 88fe 9211     		asrs r2, r2, # 6
 18489 8900 9B11     		asrs r3, r3, # 6
 18490 8902 8018     		adds r0, r0, r2         @r
 18491 8904 C918     		adds r1, r1, r3         @i
 18492 8906 3618     		adds r6, r6, r0
 18493 8908 7F18     		adds r7, r7, r1
 18494              	
 18495              		@3
 18496 890a DD46     		mov sp, r11
 18497 890c 0FBC     		pop {r0-r3}
 18498 890e EB46     		mov r11, sp
 18499 8910 D546     		mov sp, r10
 18500 8912 10BC     		pop {r4}
 18501 8914 EA46     		mov r10, sp
 18502 8916 2546     		mov r5, r4
 18503 8918 2404     		lsls r4, r4, # 16
ARM GAS  1.s 			page 326


 18504 891a 240C     		lsrs r4, r4, # 16
 18505 891c 2D0C     		lsrs r5, r5, # 16
 18506 891e 6043     		muls r0, r0, r4		@R
 18507 8920 6143     		muls r1, r1, r4		@I
 18508 8922 6A43     		muls r2, r2, r5		@R
 18509 8924 6B43     		muls r3, r3, r5		@I
 18510 8926 8011     		asrs r0, r0, # 6
 18511 8928 8911     		asrs r1, r1, # 6
 18512 892a 9211     		asrs r2, r2, # 6
 18513 892c 9B11     		asrs r3, r3, # 6
 18514 892e 8018     		adds r0, r0, r2	 @r
 18515 8930 C918     		adds r1, r1, r3	 @i
 18516 8932 3618     		adds r6, r6, r0
 18517 8934 7F18     		adds r7, r7, r1
 18518              	
 18519 8936 DD46     		mov sp, r11
 18520 8938 0FBC     		pop {r0-r3}
 18521 893a EB46     		mov r11, sp
 18522 893c D546     		mov sp, r10
 18523 893e 10BC     		pop {r4}
 18524 8940 EA46     		mov r10, sp
 18525 8942 2546     		mov r5, r4
 18526 8944 2404     		lsls r4, r4, # 16
 18527 8946 240C     		lsrs r4, r4, # 16
 18528 8948 2D0C     		lsrs r5, r5, # 16
 18529 894a 6043     		muls r0, r0, r4
 18530 894c 6143     		muls r1, r1, r4
 18531 894e 6A43     		muls r2, r2, r5
 18532 8950 6B43     		muls r3, r3, r5
 18533 8952 8011     		asrs r0, r0, # 6
 18534 8954 8911     		asrs r1, r1, # 6
 18535 8956 9211     		asrs r2, r2, # 6
 18536 8958 9B11     		asrs r3, r3, # 6
 18537 895a 8018     		adds r0, r0, r2         @r
 18538 895c C918     		adds r1, r1, r3         @i
 18539 895e 3618     		adds r6, r6, r0
 18540 8960 7F18     		adds r7, r7, r1
 18541              	
 18542 8962 DD46     		mov sp, r11
 18543 8964 0FBC     		pop {r0-r3}
 18544 8966 EB46     		mov r11, sp
 18545 8968 D546     		mov sp, r10
 18546 896a 10BC     		pop {r4}
 18547 896c EA46     		mov r10, sp
 18548 896e 2546     		mov r5, r4
 18549 8970 2404     		lsls r4, r4, # 16
 18550 8972 240C     		lsrs r4, r4, # 16
 18551 8974 2D0C     		lsrs r5, r5, # 16
 18552 8976 6043     		muls r0, r0, r4
 18553 8978 6143     		muls r1, r1, r4
 18554 897a 6A43     		muls r2, r2, r5
 18555 897c 6B43     		muls r3, r3, r5
 18556 897e 8011     		asrs r0, r0, # 6
 18557 8980 8911     		asrs r1, r1, # 6
 18558 8982 9211     		asrs r2, r2, # 6
 18559 8984 9B11     		asrs r3, r3, # 6
 18560 8986 8018     		adds r0, r0, r2  @r
ARM GAS  1.s 			page 327


 18561 8988 C918     		adds r1, r1, r3  @i
 18562 898a 3618     		adds r6, r6, r0
 18563 898c 7F18     		adds r7, r7, r1
 18564              	
 18565 898e DD46     		mov sp, r11
 18566 8990 0FBC     		pop {r0-r3}
 18567 8992 EB46     		mov r11, sp
 18568 8994 D546     		mov sp, r10
 18569 8996 10BC     		pop {r4}
 18570 8998 EA46     		mov r10, sp
 18571 899a 2546     		mov r5, r4
 18572 899c 2404     		lsls r4, r4, # 16
 18573 899e 240C     		lsrs r4, r4, # 16
 18574 89a0 2D0C     		lsrs r5, r5, # 16
 18575 89a2 6043     		muls r0, r0, r4
 18576 89a4 6143     		muls r1, r1, r4
 18577 89a6 6A43     		muls r2, r2, r5
 18578 89a8 6B43     		muls r3, r3, r5
 18579 89aa 8011     		asrs r0, r0, # 6
 18580 89ac 8911     		asrs r1, r1, # 6
 18581 89ae 9211     		asrs r2, r2, # 6
 18582 89b0 9B11     		asrs r3, r3, # 6
 18583 89b2 8018     		adds r0, r0, r2         @r
 18584 89b4 C918     		adds r1, r1, r3         @i
 18585 89b6 3618     		adds r6, r6, r0
 18586 89b8 7F18     		adds r7, r7, r1
 18587              	
 18588              		@4
 18589 89ba DD46     		mov sp, r11
 18590 89bc 0FBC     		pop {r0-r3}
 18591 89be EB46     		mov r11, sp
 18592 89c0 D546     		mov sp, r10
 18593 89c2 10BC     		pop {r4}
 18594 89c4 EA46     		mov r10, sp
 18595 89c6 2546     		mov r5, r4
 18596 89c8 2404     		lsls r4, r4, # 16
 18597 89ca 240C     		lsrs r4, r4, # 16
 18598 89cc 2D0C     		lsrs r5, r5, # 16
 18599 89ce 6043     		muls r0, r0, r4		@R
 18600 89d0 6143     		muls r1, r1, r4		@I
 18601 89d2 6A43     		muls r2, r2, r5		@R
 18602 89d4 6B43     		muls r3, r3, r5		@I
 18603 89d6 8011     		asrs r0, r0, # 6
 18604 89d8 8911     		asrs r1, r1, # 6
 18605 89da 9211     		asrs r2, r2, # 6
 18606 89dc 9B11     		asrs r3, r3, # 6
 18607 89de 8018     		adds r0, r0, r2	 @r
 18608 89e0 C918     		adds r1, r1, r3	 @i
 18609 89e2 3618     		adds r6, r6, r0
 18610 89e4 7F18     		adds r7, r7, r1
 18611              	
 18612 89e6 DD46     		mov sp, r11
 18613 89e8 0FBC     		pop {r0-r3}
 18614 89ea EB46     		mov r11, sp
 18615 89ec D546     		mov sp, r10
 18616 89ee 10BC     		pop {r4}
 18617 89f0 EA46     		mov r10, sp
ARM GAS  1.s 			page 328


 18618 89f2 2546     		mov r5, r4
 18619 89f4 2404     		lsls r4, r4, # 16
 18620 89f6 240C     		lsrs r4, r4, # 16
 18621 89f8 2D0C     		lsrs r5, r5, # 16
 18622 89fa 6043     		muls r0, r0, r4
 18623 89fc 6143     		muls r1, r1, r4
 18624 89fe 6A43     		muls r2, r2, r5
 18625 8a00 6B43     		muls r3, r3, r5
 18626 8a02 8011     		asrs r0, r0, # 6
 18627 8a04 8911     		asrs r1, r1, # 6
 18628 8a06 9211     		asrs r2, r2, # 6
 18629 8a08 9B11     		asrs r3, r3, # 6
 18630 8a0a 8018     		adds r0, r0, r2         @r
 18631 8a0c C918     		adds r1, r1, r3         @i
 18632 8a0e 3618     		adds r6, r6, r0
 18633 8a10 7F18     		adds r7, r7, r1
 18634              	
 18635 8a12 DD46     		mov sp, r11
 18636 8a14 0FBC     		pop {r0-r3}
 18637 8a16 EB46     		mov r11, sp
 18638 8a18 D546     		mov sp, r10
 18639 8a1a 10BC     		pop {r4}
 18640 8a1c EA46     		mov r10, sp
 18641 8a1e 2546     		mov r5, r4
 18642 8a20 2404     		lsls r4, r4, # 16
 18643 8a22 240C     		lsrs r4, r4, # 16
 18644 8a24 2D0C     		lsrs r5, r5, # 16
 18645 8a26 6043     		muls r0, r0, r4
 18646 8a28 6143     		muls r1, r1, r4
 18647 8a2a 6A43     		muls r2, r2, r5
 18648 8a2c 6B43     		muls r3, r3, r5
 18649 8a2e 8011     		asrs r0, r0, # 6
 18650 8a30 8911     		asrs r1, r1, # 6
 18651 8a32 9211     		asrs r2, r2, # 6
 18652 8a34 9B11     		asrs r3, r3, # 6
 18653 8a36 8018     		adds r0, r0, r2  @r
 18654 8a38 C918     		adds r1, r1, r3  @i
 18655 8a3a 3618     		adds r6, r6, r0
 18656 8a3c 7F18     		adds r7, r7, r1
 18657              	
 18658 8a3e DD46     		mov sp, r11
 18659 8a40 0FBC     		pop {r0-r3}
 18660 8a42 EB46     		mov r11, sp
 18661 8a44 D546     		mov sp, r10
 18662 8a46 10BC     		pop {r4}
 18663 8a48 EA46     		mov r10, sp
 18664 8a4a 2546     		mov r5, r4
 18665 8a4c 2404     		lsls r4, r4, # 16
 18666 8a4e 240C     		lsrs r4, r4, # 16
 18667 8a50 2D0C     		lsrs r5, r5, # 16
 18668 8a52 6043     		muls r0, r0, r4
 18669 8a54 6143     		muls r1, r1, r4
 18670 8a56 6A43     		muls r2, r2, r5
 18671 8a58 6B43     		muls r3, r3, r5
 18672 8a5a 8011     		asrs r0, r0, # 6
 18673 8a5c 8911     		asrs r1, r1, # 6
 18674 8a5e 9211     		asrs r2, r2, # 6
ARM GAS  1.s 			page 329


 18675 8a60 9B11     		asrs r3, r3, # 6
 18676 8a62 8018     		adds r0, r0, r2         @r
 18677 8a64 C918     		adds r1, r1, r3         @i
 18678 8a66 3618     		adds r6, r6, r0
 18679 8a68 7F18     		adds r7, r7, r1
 18680              	
 18681              		@5
 18682 8a6a DD46     		mov sp, r11
 18683 8a6c 0FBC     		pop {r0-r3}
 18684 8a6e EB46     		mov r11, sp
 18685 8a70 D546     		mov sp, r10
 18686 8a72 10BC     		pop {r4}
 18687 8a74 EA46     		mov r10, sp
 18688 8a76 2546     		mov r5, r4
 18689 8a78 2404     		lsls r4, r4, # 16
 18690 8a7a 240C     		lsrs r4, r4, # 16
 18691 8a7c 2D0C     		lsrs r5, r5, # 16
 18692 8a7e 6043     		muls r0, r0, r4		@R
 18693 8a80 6143     		muls r1, r1, r4		@I
 18694 8a82 6A43     		muls r2, r2, r5		@R
 18695 8a84 6B43     		muls r3, r3, r5		@I
 18696 8a86 8011     		asrs r0, r0, # 6
 18697 8a88 8911     		asrs r1, r1, # 6
 18698 8a8a 9211     		asrs r2, r2, # 6
 18699 8a8c 9B11     		asrs r3, r3, # 6
 18700 8a8e 8018     		adds r0, r0, r2	 @r
 18701 8a90 C918     		adds r1, r1, r3	 @i
 18702 8a92 3618     		adds r6, r6, r0
 18703 8a94 7F18     		adds r7, r7, r1
 18704              	
 18705 8a96 DD46     		mov sp, r11
 18706 8a98 0FBC     		pop {r0-r3}
 18707 8a9a EB46     		mov r11, sp
 18708 8a9c D546     		mov sp, r10
 18709 8a9e 10BC     		pop {r4}
 18710 8aa0 EA46     		mov r10, sp
 18711 8aa2 2546     		mov r5, r4
 18712 8aa4 2404     		lsls r4, r4, # 16
 18713 8aa6 240C     		lsrs r4, r4, # 16
 18714 8aa8 2D0C     		lsrs r5, r5, # 16
 18715 8aaa 6043     		muls r0, r0, r4
 18716 8aac 6143     		muls r1, r1, r4
 18717 8aae 6A43     		muls r2, r2, r5
 18718 8ab0 6B43     		muls r3, r3, r5
 18719 8ab2 8011     		asrs r0, r0, # 6
 18720 8ab4 8911     		asrs r1, r1, # 6
 18721 8ab6 9211     		asrs r2, r2, # 6
 18722 8ab8 9B11     		asrs r3, r3, # 6
 18723 8aba 8018     		adds r0, r0, r2         @r
 18724 8abc C918     		adds r1, r1, r3         @i
 18725 8abe 3618     		adds r6, r6, r0
 18726 8ac0 7F18     		adds r7, r7, r1
 18727              	
 18728 8ac2 DD46     		mov sp, r11
 18729 8ac4 0FBC     		pop {r0-r3}
 18730 8ac6 EB46     		mov r11, sp
 18731 8ac8 D546     		mov sp, r10
ARM GAS  1.s 			page 330


 18732 8aca 10BC     		pop {r4}
 18733 8acc EA46     		mov r10, sp
 18734 8ace 2546     		mov r5, r4
 18735 8ad0 2404     		lsls r4, r4, # 16
 18736 8ad2 240C     		lsrs r4, r4, # 16
 18737 8ad4 2D0C     		lsrs r5, r5, # 16
 18738 8ad6 6043     		muls r0, r0, r4
 18739 8ad8 6143     		muls r1, r1, r4
 18740 8ada 6A43     		muls r2, r2, r5
 18741 8adc 6B43     		muls r3, r3, r5
 18742 8ade 8011     		asrs r0, r0, # 6
 18743 8ae0 8911     		asrs r1, r1, # 6
 18744 8ae2 9211     		asrs r2, r2, # 6
 18745 8ae4 9B11     		asrs r3, r3, # 6
 18746 8ae6 8018     		adds r0, r0, r2  @r
 18747 8ae8 C918     		adds r1, r1, r3  @i
 18748 8aea 3618     		adds r6, r6, r0
 18749 8aec 7F18     		adds r7, r7, r1
 18750              	
 18751 8aee DD46     		mov sp, r11
 18752 8af0 0FBC     		pop {r0-r3}
 18753 8af2 EB46     		mov r11, sp
 18754 8af4 D546     		mov sp, r10
 18755 8af6 10BC     		pop {r4}
 18756 8af8 EA46     		mov r10, sp
 18757 8afa 2546     		mov r5, r4
 18758 8afc 2404     		lsls r4, r4, # 16
 18759 8afe 240C     		lsrs r4, r4, # 16
 18760 8b00 2D0C     		lsrs r5, r5, # 16
 18761 8b02 6043     		muls r0, r0, r4
 18762 8b04 6143     		muls r1, r1, r4
 18763 8b06 6A43     		muls r2, r2, r5
 18764 8b08 6B43     		muls r3, r3, r5
 18765 8b0a 8011     		asrs r0, r0, # 6
 18766 8b0c 8911     		asrs r1, r1, # 6
 18767 8b0e 9211     		asrs r2, r2, # 6
 18768 8b10 9B11     		asrs r3, r3, # 6
 18769 8b12 8018     		adds r0, r0, r2         @r
 18770 8b14 C918     		adds r1, r1, r3         @i
 18771 8b16 3618     		adds r6, r6, r0
 18772 8b18 7F18     		adds r7, r7, r1
 18773              	
 18774              		@6
 18775 8b1a DD46     		mov sp, r11
 18776 8b1c 0FBC     		pop {r0-r3}
 18777 8b1e EB46     		mov r11, sp
 18778 8b20 D546     		mov sp, r10
 18779 8b22 10BC     		pop {r4}
 18780 8b24 EA46     		mov r10, sp
 18781 8b26 2546     		mov r5, r4
 18782 8b28 2404     		lsls r4, r4, # 16
 18783 8b2a 240C     		lsrs r4, r4, # 16
 18784 8b2c 2D0C     		lsrs r5, r5, # 16
 18785 8b2e 6043     		muls r0, r0, r4		@R
 18786 8b30 6143     		muls r1, r1, r4		@I
 18787 8b32 6A43     		muls r2, r2, r5		@R
 18788 8b34 6B43     		muls r3, r3, r5		@I
ARM GAS  1.s 			page 331


 18789 8b36 8011     		asrs r0, r0, # 6
 18790 8b38 8911     		asrs r1, r1, # 6
 18791 8b3a 9211     		asrs r2, r2, # 6
 18792 8b3c 9B11     		asrs r3, r3, # 6
 18793 8b3e 8018     		adds r0, r0, r2	 @r
 18794 8b40 C918     		adds r1, r1, r3	 @i
 18795 8b42 3618     		adds r6, r6, r0
 18796 8b44 7F18     		adds r7, r7, r1
 18797              	
 18798 8b46 DD46     		mov sp, r11
 18799 8b48 0FBC     		pop {r0-r3}
 18800 8b4a EB46     		mov r11, sp
 18801 8b4c D546     		mov sp, r10
 18802 8b4e 10BC     		pop {r4}
 18803 8b50 EA46     		mov r10, sp
 18804 8b52 2546     		mov r5, r4
 18805 8b54 2404     		lsls r4, r4, # 16
 18806 8b56 240C     		lsrs r4, r4, # 16
 18807 8b58 2D0C     		lsrs r5, r5, # 16
 18808 8b5a 6043     		muls r0, r0, r4
 18809 8b5c 6143     		muls r1, r1, r4
 18810 8b5e 6A43     		muls r2, r2, r5
 18811 8b60 6B43     		muls r3, r3, r5
 18812 8b62 8011     		asrs r0, r0, # 6
 18813 8b64 8911     		asrs r1, r1, # 6
 18814 8b66 9211     		asrs r2, r2, # 6
 18815 8b68 9B11     		asrs r3, r3, # 6
 18816 8b6a 8018     		adds r0, r0, r2         @r
 18817 8b6c C918     		adds r1, r1, r3         @i
 18818 8b6e 3618     		adds r6, r6, r0
 18819 8b70 7F18     		adds r7, r7, r1
 18820              	
 18821 8b72 DD46     		mov sp, r11
 18822 8b74 0FBC     		pop {r0-r3}
 18823 8b76 EB46     		mov r11, sp
 18824 8b78 D546     		mov sp, r10
 18825 8b7a 10BC     		pop {r4}
 18826 8b7c EA46     		mov r10, sp
 18827 8b7e 2546     		mov r5, r4
 18828 8b80 2404     		lsls r4, r4, # 16
 18829 8b82 240C     		lsrs r4, r4, # 16
 18830 8b84 2D0C     		lsrs r5, r5, # 16
 18831 8b86 6043     		muls r0, r0, r4
 18832 8b88 6143     		muls r1, r1, r4
 18833 8b8a 6A43     		muls r2, r2, r5
 18834 8b8c 6B43     		muls r3, r3, r5
 18835 8b8e 8011     		asrs r0, r0, # 6
 18836 8b90 8911     		asrs r1, r1, # 6
 18837 8b92 9211     		asrs r2, r2, # 6
 18838 8b94 9B11     		asrs r3, r3, # 6
 18839 8b96 8018     		adds r0, r0, r2  @r
 18840 8b98 C918     		adds r1, r1, r3  @i
 18841 8b9a 3618     		adds r6, r6, r0
 18842 8b9c 7F18     		adds r7, r7, r1
 18843              	
 18844 8b9e DD46     		mov sp, r11
 18845 8ba0 0FBC     		pop {r0-r3}
ARM GAS  1.s 			page 332


 18846 8ba2 EB46     		mov r11, sp
 18847 8ba4 D546     		mov sp, r10
 18848 8ba6 10BC     		pop {r4}
 18849 8ba8 EA46     		mov r10, sp
 18850 8baa 2546     		mov r5, r4
 18851 8bac 2404     		lsls r4, r4, # 16
 18852 8bae 240C     		lsrs r4, r4, # 16
 18853 8bb0 2D0C     		lsrs r5, r5, # 16
 18854 8bb2 6043     		muls r0, r0, r4
 18855 8bb4 6143     		muls r1, r1, r4
 18856 8bb6 6A43     		muls r2, r2, r5
 18857 8bb8 6B43     		muls r3, r3, r5
 18858 8bba 8011     		asrs r0, r0, # 6
 18859 8bbc 8911     		asrs r1, r1, # 6
 18860 8bbe 9211     		asrs r2, r2, # 6
 18861 8bc0 9B11     		asrs r3, r3, # 6
 18862 8bc2 8018     		adds r0, r0, r2         @r
 18863 8bc4 C918     		adds r1, r1, r3         @i
 18864 8bc6 3618     		adds r6, r6, r0
 18865 8bc8 7F18     		adds r7, r7, r1
 18866              	
 18867              		@7
 18868 8bca DD46     		mov sp, r11
 18869 8bcc 0FBC     		pop {r0-r3}
 18870 8bce EB46     		mov r11, sp
 18871 8bd0 D546     		mov sp, r10
 18872 8bd2 10BC     		pop {r4}
 18873 8bd4 EA46     		mov r10, sp
 18874 8bd6 2546     		mov r5, r4
 18875 8bd8 2404     		lsls r4, r4, # 16
 18876 8bda 240C     		lsrs r4, r4, # 16
 18877 8bdc 2D0C     		lsrs r5, r5, # 16
 18878 8bde 6043     		muls r0, r0, r4		@R
 18879 8be0 6143     		muls r1, r1, r4		@I
 18880 8be2 6A43     		muls r2, r2, r5		@R
 18881 8be4 6B43     		muls r3, r3, r5		@I
 18882 8be6 8011     		asrs r0, r0, # 6
 18883 8be8 8911     		asrs r1, r1, # 6
 18884 8bea 9211     		asrs r2, r2, # 6
 18885 8bec 9B11     		asrs r3, r3, # 6
 18886 8bee 8018     		adds r0, r0, r2	 @r
 18887 8bf0 C918     		adds r1, r1, r3	 @i
 18888 8bf2 3618     		adds r6, r6, r0
 18889 8bf4 7F18     		adds r7, r7, r1
 18890              	
 18891 8bf6 DD46     		mov sp, r11
 18892 8bf8 0FBC     		pop {r0-r3}
 18893 8bfa EB46     		mov r11, sp
 18894 8bfc D546     		mov sp, r10
 18895 8bfe 10BC     		pop {r4}
 18896 8c00 EA46     		mov r10, sp
 18897 8c02 2546     		mov r5, r4
 18898 8c04 2404     		lsls r4, r4, # 16
 18899 8c06 240C     		lsrs r4, r4, # 16
 18900 8c08 2D0C     		lsrs r5, r5, # 16
 18901 8c0a 6043     		muls r0, r0, r4
 18902 8c0c 6143     		muls r1, r1, r4
ARM GAS  1.s 			page 333


 18903 8c0e 6A43     		muls r2, r2, r5
 18904 8c10 6B43     		muls r3, r3, r5
 18905 8c12 8011     		asrs r0, r0, # 6
 18906 8c14 8911     		asrs r1, r1, # 6
 18907 8c16 9211     		asrs r2, r2, # 6
 18908 8c18 9B11     		asrs r3, r3, # 6
 18909 8c1a 8018     		adds r0, r0, r2         @r
 18910 8c1c C918     		adds r1, r1, r3         @i
 18911 8c1e 3618     		adds r6, r6, r0
 18912 8c20 7F18     		adds r7, r7, r1
 18913              	
 18914 8c22 DD46     		mov sp, r11
 18915 8c24 0FBC     		pop {r0-r3}
 18916 8c26 EB46     		mov r11, sp
 18917 8c28 D546     		mov sp, r10
 18918 8c2a 10BC     		pop {r4}
 18919 8c2c EA46     		mov r10, sp
 18920 8c2e 2546     		mov r5, r4
 18921 8c30 2404     		lsls r4, r4, # 16
 18922 8c32 240C     		lsrs r4, r4, # 16
 18923 8c34 2D0C     		lsrs r5, r5, # 16
 18924 8c36 6043     		muls r0, r0, r4
 18925 8c38 6143     		muls r1, r1, r4
 18926 8c3a 6A43     		muls r2, r2, r5
 18927 8c3c 6B43     		muls r3, r3, r5
 18928 8c3e 8011     		asrs r0, r0, # 6
 18929 8c40 8911     		asrs r1, r1, # 6
 18930 8c42 9211     		asrs r2, r2, # 6
 18931 8c44 9B11     		asrs r3, r3, # 6
 18932 8c46 8018     		adds r0, r0, r2  @r
 18933 8c48 C918     		adds r1, r1, r3  @i
 18934 8c4a 3618     		adds r6, r6, r0
 18935 8c4c 7F18     		adds r7, r7, r1
 18936              	
 18937 8c4e DD46     		mov sp, r11
 18938 8c50 0FBC     		pop {r0-r3}
 18939 8c52 EB46     		mov r11, sp
 18940 8c54 D546     		mov sp, r10
 18941 8c56 10BC     		pop {r4}
 18942 8c58 EA46     		mov r10, sp
 18943 8c5a 2546     		mov r5, r4
 18944 8c5c 2404     		lsls r4, r4, # 16
 18945 8c5e 240C     		lsrs r4, r4, # 16
 18946 8c60 2D0C     		lsrs r5, r5, # 16
 18947 8c62 6043     		muls r0, r0, r4
 18948 8c64 6143     		muls r1, r1, r4
 18949 8c66 6A43     		muls r2, r2, r5
 18950 8c68 6B43     		muls r3, r3, r5
 18951 8c6a 8011     		asrs r0, r0, # 6
 18952 8c6c 8911     		asrs r1, r1, # 6
 18953 8c6e 9211     		asrs r2, r2, # 6
 18954 8c70 9B11     		asrs r3, r3, # 6
 18955 8c72 8018     		adds r0, r0, r2         @r
 18956 8c74 C918     		adds r1, r1, r3         @i
 18957 8c76 3618     		adds r6, r6, r0
 18958 8c78 7F18     		adds r7, r7, r1
 18959              	
ARM GAS  1.s 			page 334


 18960              		@8
 18961 8c7a DD46     		mov sp, r11
 18962 8c7c 0FBC     		pop {r0-r3}
 18963 8c7e EB46     		mov r11, sp
 18964 8c80 D546     		mov sp, r10
 18965 8c82 10BC     		pop {r4}
 18966 8c84 EA46     		mov r10, sp
 18967 8c86 2546     		mov r5, r4
 18968 8c88 2404     		lsls r4, r4, # 16
 18969 8c8a 240C     		lsrs r4, r4, # 16
 18970 8c8c 2D0C     		lsrs r5, r5, # 16
 18971 8c8e 6043     		muls r0, r0, r4		@R
 18972 8c90 6143     		muls r1, r1, r4		@I
 18973 8c92 6A43     		muls r2, r2, r5		@R
 18974 8c94 6B43     		muls r3, r3, r5		@I
 18975 8c96 8011     		asrs r0, r0, # 6
 18976 8c98 8911     		asrs r1, r1, # 6
 18977 8c9a 9211     		asrs r2, r2, # 6
 18978 8c9c 9B11     		asrs r3, r3, # 6
 18979 8c9e 8018     		adds r0, r0, r2	 @r
 18980 8ca0 C918     		adds r1, r1, r3	 @i
 18981 8ca2 3618     		adds r6, r6, r0
 18982 8ca4 7F18     		adds r7, r7, r1
 18983              	
 18984 8ca6 DD46     		mov sp, r11
 18985 8ca8 0FBC     		pop {r0-r3}
 18986 8caa EB46     		mov r11, sp
 18987 8cac D546     		mov sp, r10
 18988 8cae 10BC     		pop {r4}
 18989 8cb0 EA46     		mov r10, sp
 18990 8cb2 2546     		mov r5, r4
 18991 8cb4 2404     		lsls r4, r4, # 16
 18992 8cb6 240C     		lsrs r4, r4, # 16
 18993 8cb8 2D0C     		lsrs r5, r5, # 16
 18994 8cba 6043     		muls r0, r0, r4
 18995 8cbc 6143     		muls r1, r1, r4
 18996 8cbe 6A43     		muls r2, r2, r5
 18997 8cc0 6B43     		muls r3, r3, r5
 18998 8cc2 8011     		asrs r0, r0, # 6
 18999 8cc4 8911     		asrs r1, r1, # 6
 19000 8cc6 9211     		asrs r2, r2, # 6
 19001 8cc8 9B11     		asrs r3, r3, # 6
 19002 8cca 8018     		adds r0, r0, r2         @r
 19003 8ccc C918     		adds r1, r1, r3         @i
 19004 8cce 3618     		adds r6, r6, r0
 19005 8cd0 7F18     		adds r7, r7, r1
 19006              	
 19007 8cd2 DD46     		mov sp, r11
 19008 8cd4 0FBC     		pop {r0-r3}
 19009 8cd6 EB46     		mov r11, sp
 19010 8cd8 D546     		mov sp, r10
 19011 8cda 10BC     		pop {r4}
 19012 8cdc EA46     		mov r10, sp
 19013 8cde 2546     		mov r5, r4
 19014 8ce0 2404     		lsls r4, r4, # 16
 19015 8ce2 240C     		lsrs r4, r4, # 16
 19016 8ce4 2D0C     		lsrs r5, r5, # 16
ARM GAS  1.s 			page 335


 19017 8ce6 6043     		muls r0, r0, r4
 19018 8ce8 6143     		muls r1, r1, r4
 19019 8cea 6A43     		muls r2, r2, r5
 19020 8cec 6B43     		muls r3, r3, r5
 19021 8cee 8011     		asrs r0, r0, # 6
 19022 8cf0 8911     		asrs r1, r1, # 6
 19023 8cf2 9211     		asrs r2, r2, # 6
 19024 8cf4 9B11     		asrs r3, r3, # 6
 19025 8cf6 8018     		adds r0, r0, r2  @r
 19026 8cf8 C918     		adds r1, r1, r3  @i
 19027 8cfa 3618     		adds r6, r6, r0
 19028 8cfc 7F18     		adds r7, r7, r1
 19029              	
 19030 8cfe DD46     		mov sp, r11
 19031 8d00 0FBC     		pop {r0-r3}
 19032 8d02 EB46     		mov r11, sp
 19033 8d04 D546     		mov sp, r10
 19034 8d06 10BC     		pop {r4}
 19035 8d08 EA46     		mov r10, sp
 19036 8d0a 2546     		mov r5, r4
 19037 8d0c 2404     		lsls r4, r4, # 16
 19038 8d0e 240C     		lsrs r4, r4, # 16
 19039 8d10 2D0C     		lsrs r5, r5, # 16
 19040 8d12 6043     		muls r0, r0, r4
 19041 8d14 6143     		muls r1, r1, r4
 19042 8d16 6A43     		muls r2, r2, r5
 19043 8d18 6B43     		muls r3, r3, r5
 19044 8d1a 8011     		asrs r0, r0, # 6
 19045 8d1c 8911     		asrs r1, r1, # 6
 19046 8d1e 9211     		asrs r2, r2, # 6
 19047 8d20 9B11     		asrs r3, r3, # 6
 19048 8d22 8018     		adds r0, r0, r2         @r
 19049 8d24 C918     		adds r1, r1, r3         @i
 19050 8d26 3618     		adds r6, r6, r0
 19051 8d28 7F18     		adds r7, r7, r1
 19052              	
 19053              		@9
 19054 8d2a DD46     		mov sp, r11
 19055 8d2c 0FBC     		pop {r0-r3}
 19056 8d2e EB46     		mov r11, sp
 19057 8d30 D546     		mov sp, r10
 19058 8d32 10BC     		pop {r4}
 19059 8d34 EA46     		mov r10, sp
 19060 8d36 2546     		mov r5, r4
 19061 8d38 2404     		lsls r4, r4, # 16
 19062 8d3a 240C     		lsrs r4, r4, # 16
 19063 8d3c 2D0C     		lsrs r5, r5, # 16
 19064 8d3e 6043     		muls r0, r0, r4		@R
 19065 8d40 6143     		muls r1, r1, r4		@I
 19066 8d42 6A43     		muls r2, r2, r5		@R
 19067 8d44 6B43     		muls r3, r3, r5		@I
 19068 8d46 8011     		asrs r0, r0, # 6
 19069 8d48 8911     		asrs r1, r1, # 6
 19070 8d4a 9211     		asrs r2, r2, # 6
 19071 8d4c 9B11     		asrs r3, r3, # 6
 19072 8d4e 8018     		adds r0, r0, r2	 @r
 19073 8d50 C918     		adds r1, r1, r3	 @i
ARM GAS  1.s 			page 336


 19074 8d52 3618     		adds r6, r6, r0
 19075 8d54 7F18     		adds r7, r7, r1
 19076              	
 19077 8d56 DD46     		mov sp, r11
 19078 8d58 0FBC     		pop {r0-r3}
 19079 8d5a EB46     		mov r11, sp
 19080 8d5c D546     		mov sp, r10
 19081 8d5e 10BC     		pop {r4}
 19082 8d60 EA46     		mov r10, sp
 19083 8d62 2546     		mov r5, r4
 19084 8d64 2404     		lsls r4, r4, # 16
 19085 8d66 240C     		lsrs r4, r4, # 16
 19086 8d68 2D0C     		lsrs r5, r5, # 16
 19087 8d6a 6043     		muls r0, r0, r4
 19088 8d6c 6143     		muls r1, r1, r4
 19089 8d6e 6A43     		muls r2, r2, r5
 19090 8d70 6B43     		muls r3, r3, r5
 19091 8d72 8011     		asrs r0, r0, # 6
 19092 8d74 8911     		asrs r1, r1, # 6
 19093 8d76 9211     		asrs r2, r2, # 6
 19094 8d78 9B11     		asrs r3, r3, # 6
 19095 8d7a 8018     		adds r0, r0, r2         @r
 19096 8d7c C918     		adds r1, r1, r3         @i
 19097 8d7e 3618     		adds r6, r6, r0
 19098 8d80 7F18     		adds r7, r7, r1
 19099              	
 19100 8d82 DD46     		mov sp, r11
 19101 8d84 0FBC     		pop {r0-r3}
 19102 8d86 EB46     		mov r11, sp
 19103 8d88 D546     		mov sp, r10
 19104 8d8a 10BC     		pop {r4}
 19105 8d8c EA46     		mov r10, sp
 19106 8d8e 2546     		mov r5, r4
 19107 8d90 2404     		lsls r4, r4, # 16
 19108 8d92 240C     		lsrs r4, r4, # 16
 19109 8d94 2D0C     		lsrs r5, r5, # 16
 19110 8d96 6043     		muls r0, r0, r4
 19111 8d98 6143     		muls r1, r1, r4
 19112 8d9a 6A43     		muls r2, r2, r5
 19113 8d9c 6B43     		muls r3, r3, r5
 19114 8d9e 8011     		asrs r0, r0, # 6
 19115 8da0 8911     		asrs r1, r1, # 6
 19116 8da2 9211     		asrs r2, r2, # 6
 19117 8da4 9B11     		asrs r3, r3, # 6
 19118 8da6 8018     		adds r0, r0, r2  @r
 19119 8da8 C918     		adds r1, r1, r3  @i
 19120 8daa 3618     		adds r6, r6, r0
 19121 8dac 7F18     		adds r7, r7, r1
 19122              	
 19123 8dae DD46     		mov sp, r11
 19124 8db0 0FBC     		pop {r0-r3}
 19125 8db2 EB46     		mov r11, sp
 19126 8db4 D546     		mov sp, r10
 19127 8db6 10BC     		pop {r4}
 19128 8db8 EA46     		mov r10, sp
 19129 8dba 2546     		mov r5, r4
 19130 8dbc 2404     		lsls r4, r4, # 16
ARM GAS  1.s 			page 337


 19131 8dbe 240C     		lsrs r4, r4, # 16
 19132 8dc0 2D0C     		lsrs r5, r5, # 16
 19133 8dc2 6043     		muls r0, r0, r4
 19134 8dc4 6143     		muls r1, r1, r4
 19135 8dc6 6A43     		muls r2, r2, r5
 19136 8dc8 6B43     		muls r3, r3, r5
 19137 8dca 8011     		asrs r0, r0, # 6
 19138 8dcc 8911     		asrs r1, r1, # 6
 19139 8dce 9211     		asrs r2, r2, # 6
 19140 8dd0 9B11     		asrs r3, r3, # 6
 19141 8dd2 8018     		adds r0, r0, r2         @r
 19142 8dd4 C918     		adds r1, r1, r3         @i
 19143 8dd6 3618     		adds r6, r6, r0
 19144 8dd8 7F18     		adds r7, r7, r1
 19145              	
 19146              		@yjm19
 19147              		@0
 19148 8dda DD46     		mov sp, r11
 19149 8ddc 0FBC     		pop {r0-r3}
 19150 8dde EB46     		mov r11, sp
 19151 8de0 D546     		mov sp, r10
 19152 8de2 10BC     		pop {r4}
 19153 8de4 EA46     		mov r10, sp
 19154 8de6 2546     		mov r5, r4
 19155 8de8 2404     		lsls r4, r4, # 16
 19156 8dea 240C     		lsrs r4, r4, # 16
 19157 8dec 2D0C     		lsrs r5, r5, # 16
 19158 8dee 6043     		muls r0, r0, r4		@R
 19159 8df0 6143     		muls r1, r1, r4		@I
 19160 8df2 6A43     		muls r2, r2, r5		@R
 19161 8df4 6B43     		muls r3, r3, r5		@I
 19162 8df6 8011     		asrs r0, r0, # 6
 19163 8df8 8911     		asrs r1, r1, # 6
 19164 8dfa 9211     		asrs r2, r2, # 6
 19165 8dfc 9B11     		asrs r3, r3, # 6
 19166 8dfe 8018     		adds r0, r0, r2	 @r
 19167 8e00 C918     		adds r1, r1, r3	 @i
 19168 8e02 3618     		adds r6, r6, r0
 19169 8e04 7F18     		adds r7, r7, r1
 19170              	
 19171 8e06 DD46     		mov sp, r11
 19172 8e08 0FBC     		pop {r0-r3}
 19173 8e0a EB46     		mov r11, sp
 19174 8e0c D546     		mov sp, r10
 19175 8e0e 10BC     		pop {r4}
 19176 8e10 EA46     		mov r10, sp
 19177 8e12 2546     		mov r5, r4
 19178 8e14 2404     		lsls r4, r4, # 16
 19179 8e16 240C     		lsrs r4, r4, # 16
 19180 8e18 2D0C     		lsrs r5, r5, # 16
 19181 8e1a 6043     		muls r0, r0, r4
 19182 8e1c 6143     		muls r1, r1, r4
 19183 8e1e 6A43     		muls r2, r2, r5
 19184 8e20 6B43     		muls r3, r3, r5
 19185 8e22 8011     		asrs r0, r0, # 6
 19186 8e24 8911     		asrs r1, r1, # 6
 19187 8e26 9211     		asrs r2, r2, # 6
ARM GAS  1.s 			page 338


 19188 8e28 9B11     		asrs r3, r3, # 6
 19189 8e2a 8018     		adds r0, r0, r2         @r
 19190 8e2c C918     		adds r1, r1, r3         @i
 19191 8e2e 3618     		adds r6, r6, r0
 19192 8e30 7F18     		adds r7, r7, r1
 19193              	
 19194 8e32 DD46     		mov sp, r11
 19195 8e34 0FBC     		pop {r0-r3}
 19196 8e36 EB46     		mov r11, sp
 19197 8e38 D546     		mov sp, r10
 19198 8e3a 10BC     		pop {r4}
 19199 8e3c EA46     		mov r10, sp
 19200 8e3e 2546     		mov r5, r4
 19201 8e40 2404     		lsls r4, r4, # 16
 19202 8e42 240C     		lsrs r4, r4, # 16
 19203 8e44 2D0C     		lsrs r5, r5, # 16
 19204 8e46 6043     		muls r0, r0, r4
 19205 8e48 6143     		muls r1, r1, r4
 19206 8e4a 6A43     		muls r2, r2, r5
 19207 8e4c 6B43     		muls r3, r3, r5
 19208 8e4e 8011     		asrs r0, r0, # 6
 19209 8e50 8911     		asrs r1, r1, # 6
 19210 8e52 9211     		asrs r2, r2, # 6
 19211 8e54 9B11     		asrs r3, r3, # 6
 19212 8e56 8018     		adds r0, r0, r2  @r
 19213 8e58 C918     		adds r1, r1, r3  @i
 19214 8e5a 3618     		adds r6, r6, r0
 19215 8e5c 7F18     		adds r7, r7, r1
 19216              	
 19217 8e5e DD46     		mov sp, r11
 19218 8e60 0FBC     		pop {r0-r3}
 19219 8e62 EB46     		mov r11, sp
 19220 8e64 D546     		mov sp, r10
 19221 8e66 10BC     		pop {r4}
 19222 8e68 EA46     		mov r10, sp
 19223 8e6a 2546     		mov r5, r4
 19224 8e6c 2404     		lsls r4, r4, # 16
 19225 8e6e 240C     		lsrs r4, r4, # 16
 19226 8e70 2D0C     		lsrs r5, r5, # 16
 19227 8e72 6043     		muls r0, r0, r4
 19228 8e74 6143     		muls r1, r1, r4
 19229 8e76 6A43     		muls r2, r2, r5
 19230 8e78 6B43     		muls r3, r3, r5
 19231 8e7a 8011     		asrs r0, r0, # 6
 19232 8e7c 8911     		asrs r1, r1, # 6
 19233 8e7e 9211     		asrs r2, r2, # 6
 19234 8e80 9B11     		asrs r3, r3, # 6
 19235 8e82 8018     		adds r0, r0, r2         @r
 19236 8e84 C918     		adds r1, r1, r3         @i
 19237 8e86 3618     		adds r6, r6, r0
 19238 8e88 7F18     		adds r7, r7, r1
 19239              	
 19240              		@1
 19241 8e8a DD46     		mov sp, r11
 19242 8e8c 0FBC     		pop {r0-r3}
 19243 8e8e EB46     		mov r11, sp
 19244 8e90 D546     		mov sp, r10
ARM GAS  1.s 			page 339


 19245 8e92 10BC     		pop {r4}
 19246 8e94 EA46     		mov r10, sp
 19247 8e96 2546     		mov r5, r4
 19248 8e98 2404     		lsls r4, r4, # 16
 19249 8e9a 240C     		lsrs r4, r4, # 16
 19250 8e9c 2D0C     		lsrs r5, r5, # 16
 19251 8e9e 6043     		muls r0, r0, r4		@R
 19252 8ea0 6143     		muls r1, r1, r4		@I
 19253 8ea2 6A43     		muls r2, r2, r5		@R
 19254 8ea4 6B43     		muls r3, r3, r5		@I
 19255 8ea6 8011     		asrs r0, r0, # 6
 19256 8ea8 8911     		asrs r1, r1, # 6
 19257 8eaa 9211     		asrs r2, r2, # 6
 19258 8eac 9B11     		asrs r3, r3, # 6
 19259 8eae 8018     		adds r0, r0, r2	 @r
 19260 8eb0 C918     		adds r1, r1, r3	 @i
 19261 8eb2 3618     		adds r6, r6, r0
 19262 8eb4 7F18     		adds r7, r7, r1
 19263              	
 19264 8eb6 DD46     		mov sp, r11
 19265 8eb8 0FBC     		pop {r0-r3}
 19266 8eba EB46     		mov r11, sp
 19267 8ebc D546     		mov sp, r10
 19268 8ebe 10BC     		pop {r4}
 19269 8ec0 EA46     		mov r10, sp
 19270 8ec2 2546     		mov r5, r4
 19271 8ec4 2404     		lsls r4, r4, # 16
 19272 8ec6 240C     		lsrs r4, r4, # 16
 19273 8ec8 2D0C     		lsrs r5, r5, # 16
 19274 8eca 6043     		muls r0, r0, r4
 19275 8ecc 6143     		muls r1, r1, r4
 19276 8ece 6A43     		muls r2, r2, r5
 19277 8ed0 6B43     		muls r3, r3, r5
 19278 8ed2 8011     		asrs r0, r0, # 6
 19279 8ed4 8911     		asrs r1, r1, # 6
 19280 8ed6 9211     		asrs r2, r2, # 6
 19281 8ed8 9B11     		asrs r3, r3, # 6
 19282 8eda 8018     		adds r0, r0, r2         @r
 19283 8edc C918     		adds r1, r1, r3         @i
 19284 8ede 3618     		adds r6, r6, r0
 19285 8ee0 7F18     		adds r7, r7, r1
 19286              	
 19287 8ee2 DD46     		mov sp, r11
 19288 8ee4 0FBC     		pop {r0-r3}
 19289 8ee6 EB46     		mov r11, sp
 19290 8ee8 D546     		mov sp, r10
 19291 8eea 10BC     		pop {r4}
 19292 8eec EA46     		mov r10, sp
 19293 8eee 2546     		mov r5, r4
 19294 8ef0 2404     		lsls r4, r4, # 16
 19295 8ef2 240C     		lsrs r4, r4, # 16
 19296 8ef4 2D0C     		lsrs r5, r5, # 16
 19297 8ef6 6043     		muls r0, r0, r4
 19298 8ef8 6143     		muls r1, r1, r4
 19299 8efa 6A43     		muls r2, r2, r5
 19300 8efc 6B43     		muls r3, r3, r5
 19301 8efe 8011     		asrs r0, r0, # 6
ARM GAS  1.s 			page 340


 19302 8f00 8911     		asrs r1, r1, # 6
 19303 8f02 9211     		asrs r2, r2, # 6
 19304 8f04 9B11     		asrs r3, r3, # 6
 19305 8f06 8018     		adds r0, r0, r2  @r
 19306 8f08 C918     		adds r1, r1, r3  @i
 19307 8f0a 3618     		adds r6, r6, r0
 19308 8f0c 7F18     		adds r7, r7, r1
 19309              	
 19310 8f0e DD46     		mov sp, r11
 19311 8f10 0FBC     		pop {r0-r3}
 19312 8f12 EB46     		mov r11, sp
 19313 8f14 D546     		mov sp, r10
 19314 8f16 10BC     		pop {r4}
 19315 8f18 EA46     		mov r10, sp
 19316 8f1a 2546     		mov r5, r4
 19317 8f1c 2404     		lsls r4, r4, # 16
 19318 8f1e 240C     		lsrs r4, r4, # 16
 19319 8f20 2D0C     		lsrs r5, r5, # 16
 19320 8f22 6043     		muls r0, r0, r4
 19321 8f24 6143     		muls r1, r1, r4
 19322 8f26 6A43     		muls r2, r2, r5
 19323 8f28 6B43     		muls r3, r3, r5
 19324 8f2a 8011     		asrs r0, r0, # 6
 19325 8f2c 8911     		asrs r1, r1, # 6
 19326 8f2e 9211     		asrs r2, r2, # 6
 19327 8f30 9B11     		asrs r3, r3, # 6
 19328 8f32 8018     		adds r0, r0, r2         @r
 19329 8f34 C918     		adds r1, r1, r3         @i
 19330 8f36 3618     		adds r6, r6, r0
 19331 8f38 7F18     		adds r7, r7, r1
 19332              	
 19333              		@2
 19334 8f3a DD46     		mov sp, r11
 19335 8f3c 0FBC     		pop {r0-r3}
 19336 8f3e EB46     		mov r11, sp
 19337 8f40 D546     		mov sp, r10
 19338 8f42 10BC     		pop {r4}
 19339 8f44 EA46     		mov r10, sp
 19340 8f46 2546     		mov r5, r4
 19341 8f48 2404     		lsls r4, r4, # 16
 19342 8f4a 240C     		lsrs r4, r4, # 16
 19343 8f4c 2D0C     		lsrs r5, r5, # 16
 19344 8f4e 6043     		muls r0, r0, r4		@R
 19345 8f50 6143     		muls r1, r1, r4		@I
 19346 8f52 6A43     		muls r2, r2, r5		@R
 19347 8f54 6B43     		muls r3, r3, r5		@I
 19348 8f56 8011     		asrs r0, r0, # 6
 19349 8f58 8911     		asrs r1, r1, # 6
 19350 8f5a 9211     		asrs r2, r2, # 6
 19351 8f5c 9B11     		asrs r3, r3, # 6
 19352 8f5e 8018     		adds r0, r0, r2	 @r
 19353 8f60 C918     		adds r1, r1, r3	 @i
 19354 8f62 3618     		adds r6, r6, r0
 19355 8f64 7F18     		adds r7, r7, r1
 19356              	
 19357 8f66 DD46     		mov sp, r11
 19358 8f68 0FBC     		pop {r0-r3}
ARM GAS  1.s 			page 341


 19359 8f6a EB46     		mov r11, sp
 19360 8f6c D546     		mov sp, r10
 19361 8f6e 10BC     		pop {r4}
 19362 8f70 EA46     		mov r10, sp
 19363 8f72 2546     		mov r5, r4
 19364 8f74 2404     		lsls r4, r4, # 16
 19365 8f76 240C     		lsrs r4, r4, # 16
 19366 8f78 2D0C     		lsrs r5, r5, # 16
 19367 8f7a 6043     		muls r0, r0, r4
 19368 8f7c 6143     		muls r1, r1, r4
 19369 8f7e 6A43     		muls r2, r2, r5
 19370 8f80 6B43     		muls r3, r3, r5
 19371 8f82 8011     		asrs r0, r0, # 6
 19372 8f84 8911     		asrs r1, r1, # 6
 19373 8f86 9211     		asrs r2, r2, # 6
 19374 8f88 9B11     		asrs r3, r3, # 6
 19375 8f8a 8018     		adds r0, r0, r2         @r
 19376 8f8c C918     		adds r1, r1, r3         @i
 19377 8f8e 3618     		adds r6, r6, r0
 19378 8f90 7F18     		adds r7, r7, r1
 19379              	
 19380 8f92 DD46     		mov sp, r11
 19381 8f94 0FBC     		pop {r0-r3}
 19382 8f96 EB46     		mov r11, sp
 19383 8f98 D546     		mov sp, r10
 19384 8f9a 10BC     		pop {r4}
 19385 8f9c EA46     		mov r10, sp
 19386 8f9e 2546     		mov r5, r4
 19387 8fa0 2404     		lsls r4, r4, # 16
 19388 8fa2 240C     		lsrs r4, r4, # 16
 19389 8fa4 2D0C     		lsrs r5, r5, # 16
 19390 8fa6 6043     		muls r0, r0, r4
 19391 8fa8 6143     		muls r1, r1, r4
 19392 8faa 6A43     		muls r2, r2, r5
 19393 8fac 6B43     		muls r3, r3, r5
 19394 8fae 8011     		asrs r0, r0, # 6
 19395 8fb0 8911     		asrs r1, r1, # 6
 19396 8fb2 9211     		asrs r2, r2, # 6
 19397 8fb4 9B11     		asrs r3, r3, # 6
 19398 8fb6 8018     		adds r0, r0, r2  @r
 19399 8fb8 C918     		adds r1, r1, r3  @i
 19400 8fba 3618     		adds r6, r6, r0
 19401 8fbc 7F18     		adds r7, r7, r1
 19402              	
 19403 8fbe DD46     		mov sp, r11
 19404 8fc0 0FBC     		pop {r0-r3}
 19405 8fc2 EB46     		mov r11, sp
 19406 8fc4 D546     		mov sp, r10
 19407 8fc6 10BC     		pop {r4}
 19408 8fc8 EA46     		mov r10, sp
 19409 8fca 2546     		mov r5, r4
 19410 8fcc 2404     		lsls r4, r4, # 16
 19411 8fce 240C     		lsrs r4, r4, # 16
 19412 8fd0 2D0C     		lsrs r5, r5, # 16
 19413 8fd2 6043     		muls r0, r0, r4
 19414 8fd4 6143     		muls r1, r1, r4
 19415 8fd6 6A43     		muls r2, r2, r5
ARM GAS  1.s 			page 342


 19416 8fd8 6B43     		muls r3, r3, r5
 19417 8fda 8011     		asrs r0, r0, # 6
 19418 8fdc 8911     		asrs r1, r1, # 6
 19419 8fde 9211     		asrs r2, r2, # 6
 19420 8fe0 9B11     		asrs r3, r3, # 6
 19421 8fe2 8018     		adds r0, r0, r2         @r
 19422 8fe4 C918     		adds r1, r1, r3         @i
 19423 8fe6 3618     		adds r6, r6, r0
 19424 8fe8 7F18     		adds r7, r7, r1
 19425              	
 19426              		@3
 19427 8fea DD46     		mov sp, r11
 19428 8fec 0FBC     		pop {r0-r3}
 19429 8fee EB46     		mov r11, sp
 19430 8ff0 D546     		mov sp, r10
 19431 8ff2 10BC     		pop {r4}
 19432 8ff4 EA46     		mov r10, sp
 19433 8ff6 2546     		mov r5, r4
 19434 8ff8 2404     		lsls r4, r4, # 16
 19435 8ffa 240C     		lsrs r4, r4, # 16
 19436 8ffc 2D0C     		lsrs r5, r5, # 16
 19437 8ffe 6043     		muls r0, r0, r4		@R
 19438 9000 6143     		muls r1, r1, r4		@I
 19439 9002 6A43     		muls r2, r2, r5		@R
 19440 9004 6B43     		muls r3, r3, r5		@I
 19441 9006 8011     		asrs r0, r0, # 6
 19442 9008 8911     		asrs r1, r1, # 6
 19443 900a 9211     		asrs r2, r2, # 6
 19444 900c 9B11     		asrs r3, r3, # 6
 19445 900e 8018     		adds r0, r0, r2	 @r
 19446 9010 C918     		adds r1, r1, r3	 @i
 19447 9012 3618     		adds r6, r6, r0
 19448 9014 7F18     		adds r7, r7, r1
 19449              	
 19450 9016 DD46     		mov sp, r11
 19451 9018 0FBC     		pop {r0-r3}
 19452 901a EB46     		mov r11, sp
 19453 901c D546     		mov sp, r10
 19454 901e 10BC     		pop {r4}
 19455 9020 EA46     		mov r10, sp
 19456 9022 2546     		mov r5, r4
 19457 9024 2404     		lsls r4, r4, # 16
 19458 9026 240C     		lsrs r4, r4, # 16
 19459 9028 2D0C     		lsrs r5, r5, # 16
 19460 902a 6043     		muls r0, r0, r4
 19461 902c 6143     		muls r1, r1, r4
 19462 902e 6A43     		muls r2, r2, r5
 19463 9030 6B43     		muls r3, r3, r5
 19464 9032 8011     		asrs r0, r0, # 6
 19465 9034 8911     		asrs r1, r1, # 6
 19466 9036 9211     		asrs r2, r2, # 6
 19467 9038 9B11     		asrs r3, r3, # 6
 19468 903a 8018     		adds r0, r0, r2         @r
 19469 903c C918     		adds r1, r1, r3         @i
 19470 903e 3618     		adds r6, r6, r0
 19471 9040 7F18     		adds r7, r7, r1
 19472              	
ARM GAS  1.s 			page 343


 19473 9042 DD46     		mov sp, r11
 19474 9044 0FBC     		pop {r0-r3}
 19475 9046 EB46     		mov r11, sp
 19476 9048 D546     		mov sp, r10
 19477 904a 10BC     		pop {r4}
 19478 904c EA46     		mov r10, sp
 19479 904e 2546     		mov r5, r4
 19480 9050 2404     		lsls r4, r4, # 16
 19481 9052 240C     		lsrs r4, r4, # 16
 19482 9054 2D0C     		lsrs r5, r5, # 16
 19483 9056 6043     		muls r0, r0, r4
 19484 9058 6143     		muls r1, r1, r4
 19485 905a 6A43     		muls r2, r2, r5
 19486 905c 6B43     		muls r3, r3, r5
 19487 905e 8011     		asrs r0, r0, # 6
 19488 9060 8911     		asrs r1, r1, # 6
 19489 9062 9211     		asrs r2, r2, # 6
 19490 9064 9B11     		asrs r3, r3, # 6
 19491 9066 8018     		adds r0, r0, r2  @r
 19492 9068 C918     		adds r1, r1, r3  @i
 19493 906a 3618     		adds r6, r6, r0
 19494 906c 7F18     		adds r7, r7, r1
 19495              	
 19496 906e DD46     		mov sp, r11
 19497 9070 0FBC     		pop {r0-r3}
 19498 9072 EB46     		mov r11, sp
 19499 9074 D546     		mov sp, r10
 19500 9076 10BC     		pop {r4}
 19501 9078 EA46     		mov r10, sp
 19502 907a 2546     		mov r5, r4
 19503 907c 2404     		lsls r4, r4, # 16
 19504 907e 240C     		lsrs r4, r4, # 16
 19505 9080 2D0C     		lsrs r5, r5, # 16
 19506 9082 6043     		muls r0, r0, r4
 19507 9084 6143     		muls r1, r1, r4
 19508 9086 6A43     		muls r2, r2, r5
 19509 9088 6B43     		muls r3, r3, r5
 19510 908a 8011     		asrs r0, r0, # 6
 19511 908c 8911     		asrs r1, r1, # 6
 19512 908e 9211     		asrs r2, r2, # 6
 19513 9090 9B11     		asrs r3, r3, # 6
 19514 9092 8018     		adds r0, r0, r2         @r
 19515 9094 C918     		adds r1, r1, r3         @i
 19516 9096 3618     		adds r6, r6, r0
 19517 9098 7F18     		adds r7, r7, r1
 19518              	
 19519              		@4
 19520 909a DD46     		mov sp, r11
 19521 909c 0FBC     		pop {r0-r3}
 19522 909e EB46     		mov r11, sp
 19523 90a0 D546     		mov sp, r10
 19524 90a2 10BC     		pop {r4}
 19525 90a4 EA46     		mov r10, sp
 19526 90a6 2546     		mov r5, r4
 19527 90a8 2404     		lsls r4, r4, # 16
 19528 90aa 240C     		lsrs r4, r4, # 16
 19529 90ac 2D0C     		lsrs r5, r5, # 16
ARM GAS  1.s 			page 344


 19530 90ae 6043     		muls r0, r0, r4		@R
 19531 90b0 6143     		muls r1, r1, r4		@I
 19532 90b2 6A43     		muls r2, r2, r5		@R
 19533 90b4 6B43     		muls r3, r3, r5		@I
 19534 90b6 8011     		asrs r0, r0, # 6
 19535 90b8 8911     		asrs r1, r1, # 6
 19536 90ba 9211     		asrs r2, r2, # 6
 19537 90bc 9B11     		asrs r3, r3, # 6
 19538 90be 8018     		adds r0, r0, r2	 @r
 19539 90c0 C918     		adds r1, r1, r3	 @i
 19540 90c2 3618     		adds r6, r6, r0
 19541 90c4 7F18     		adds r7, r7, r1
 19542              	
 19543 90c6 DD46     		mov sp, r11
 19544 90c8 0FBC     		pop {r0-r3}
 19545 90ca EB46     		mov r11, sp
 19546 90cc D546     		mov sp, r10
 19547 90ce 10BC     		pop {r4}
 19548 90d0 EA46     		mov r10, sp
 19549 90d2 2546     		mov r5, r4
 19550 90d4 2404     		lsls r4, r4, # 16
 19551 90d6 240C     		lsrs r4, r4, # 16
 19552 90d8 2D0C     		lsrs r5, r5, # 16
 19553 90da 6043     		muls r0, r0, r4
 19554 90dc 6143     		muls r1, r1, r4
 19555 90de 6A43     		muls r2, r2, r5
 19556 90e0 6B43     		muls r3, r3, r5
 19557 90e2 8011     		asrs r0, r0, # 6
 19558 90e4 8911     		asrs r1, r1, # 6
 19559 90e6 9211     		asrs r2, r2, # 6
 19560 90e8 9B11     		asrs r3, r3, # 6
 19561 90ea 8018     		adds r0, r0, r2         @r
 19562 90ec C918     		adds r1, r1, r3         @i
 19563 90ee 3618     		adds r6, r6, r0
 19564 90f0 7F18     		adds r7, r7, r1
 19565              	
 19566 90f2 DD46     		mov sp, r11
 19567 90f4 0FBC     		pop {r0-r3}
 19568 90f6 EB46     		mov r11, sp
 19569 90f8 D546     		mov sp, r10
 19570 90fa 10BC     		pop {r4}
 19571 90fc EA46     		mov r10, sp
 19572 90fe 2546     		mov r5, r4
 19573 9100 2404     		lsls r4, r4, # 16
 19574 9102 240C     		lsrs r4, r4, # 16
 19575 9104 2D0C     		lsrs r5, r5, # 16
 19576 9106 6043     		muls r0, r0, r4
 19577 9108 6143     		muls r1, r1, r4
 19578 910a 6A43     		muls r2, r2, r5
 19579 910c 6B43     		muls r3, r3, r5
 19580 910e 8011     		asrs r0, r0, # 6
 19581 9110 8911     		asrs r1, r1, # 6
 19582 9112 9211     		asrs r2, r2, # 6
 19583 9114 9B11     		asrs r3, r3, # 6
 19584 9116 8018     		adds r0, r0, r2  @r
 19585 9118 C918     		adds r1, r1, r3  @i
 19586 911a 3618     		adds r6, r6, r0
ARM GAS  1.s 			page 345


 19587 911c 7F18     		adds r7, r7, r1
 19588              	
 19589 911e DD46     		mov sp, r11
 19590 9120 0FBC     		pop {r0-r3}
 19591 9122 EB46     		mov r11, sp
 19592 9124 D546     		mov sp, r10
 19593 9126 10BC     		pop {r4}
 19594 9128 EA46     		mov r10, sp
 19595 912a 2546     		mov r5, r4
 19596 912c 2404     		lsls r4, r4, # 16
 19597 912e 240C     		lsrs r4, r4, # 16
 19598 9130 2D0C     		lsrs r5, r5, # 16
 19599 9132 6043     		muls r0, r0, r4
 19600 9134 6143     		muls r1, r1, r4
 19601 9136 6A43     		muls r2, r2, r5
 19602 9138 6B43     		muls r3, r3, r5
 19603 913a 8011     		asrs r0, r0, # 6
 19604 913c 8911     		asrs r1, r1, # 6
 19605 913e 9211     		asrs r2, r2, # 6
 19606 9140 9B11     		asrs r3, r3, # 6
 19607 9142 8018     		adds r0, r0, r2         @r
 19608 9144 C918     		adds r1, r1, r3         @i
 19609 9146 3618     		adds r6, r6, r0
 19610 9148 7F18     		adds r7, r7, r1
 19611              	
 19612              		@5
 19613 914a DD46     		mov sp, r11
 19614 914c 0FBC     		pop {r0-r3}
 19615 914e EB46     		mov r11, sp
 19616 9150 D546     		mov sp, r10
 19617 9152 10BC     		pop {r4}
 19618 9154 EA46     		mov r10, sp
 19619 9156 2546     		mov r5, r4
 19620 9158 2404     		lsls r4, r4, # 16
 19621 915a 240C     		lsrs r4, r4, # 16
 19622 915c 2D0C     		lsrs r5, r5, # 16
 19623 915e 6043     		muls r0, r0, r4		@R
 19624 9160 6143     		muls r1, r1, r4		@I
 19625 9162 6A43     		muls r2, r2, r5		@R
 19626 9164 6B43     		muls r3, r3, r5		@I
 19627 9166 8011     		asrs r0, r0, # 6
 19628 9168 8911     		asrs r1, r1, # 6
 19629 916a 9211     		asrs r2, r2, # 6
 19630 916c 9B11     		asrs r3, r3, # 6
 19631 916e 8018     		adds r0, r0, r2	 @r
 19632 9170 C918     		adds r1, r1, r3	 @i
 19633 9172 3618     		adds r6, r6, r0
 19634 9174 7F18     		adds r7, r7, r1
 19635              	
 19636 9176 DD46     		mov sp, r11
 19637 9178 0FBC     		pop {r0-r3}
 19638 917a EB46     		mov r11, sp
 19639 917c D546     		mov sp, r10
 19640 917e 10BC     		pop {r4}
 19641 9180 EA46     		mov r10, sp
 19642 9182 2546     		mov r5, r4
 19643 9184 2404     		lsls r4, r4, # 16
ARM GAS  1.s 			page 346


 19644 9186 240C     		lsrs r4, r4, # 16
 19645 9188 2D0C     		lsrs r5, r5, # 16
 19646 918a 6043     		muls r0, r0, r4
 19647 918c 6143     		muls r1, r1, r4
 19648 918e 6A43     		muls r2, r2, r5
 19649 9190 6B43     		muls r3, r3, r5
 19650 9192 8011     		asrs r0, r0, # 6
 19651 9194 8911     		asrs r1, r1, # 6
 19652 9196 9211     		asrs r2, r2, # 6
 19653 9198 9B11     		asrs r3, r3, # 6
 19654 919a 8018     		adds r0, r0, r2         @r
 19655 919c C918     		adds r1, r1, r3         @i
 19656 919e 3618     		adds r6, r6, r0
 19657 91a0 7F18     		adds r7, r7, r1
 19658              	
 19659 91a2 DD46     		mov sp, r11
 19660 91a4 0FBC     		pop {r0-r3}
 19661 91a6 EB46     		mov r11, sp
 19662 91a8 D546     		mov sp, r10
 19663 91aa 10BC     		pop {r4}
 19664 91ac EA46     		mov r10, sp
 19665 91ae 2546     		mov r5, r4
 19666 91b0 2404     		lsls r4, r4, # 16
 19667 91b2 240C     		lsrs r4, r4, # 16
 19668 91b4 2D0C     		lsrs r5, r5, # 16
 19669 91b6 6043     		muls r0, r0, r4
 19670 91b8 6143     		muls r1, r1, r4
 19671 91ba 6A43     		muls r2, r2, r5
 19672 91bc 6B43     		muls r3, r3, r5
 19673 91be 8011     		asrs r0, r0, # 6
 19674 91c0 8911     		asrs r1, r1, # 6
 19675 91c2 9211     		asrs r2, r2, # 6
 19676 91c4 9B11     		asrs r3, r3, # 6
 19677 91c6 8018     		adds r0, r0, r2  @r
 19678 91c8 C918     		adds r1, r1, r3  @i
 19679 91ca 3618     		adds r6, r6, r0
 19680 91cc 7F18     		adds r7, r7, r1
 19681              	
 19682 91ce DD46     		mov sp, r11
 19683 91d0 0FBC     		pop {r0-r3}
 19684 91d2 EB46     		mov r11, sp
 19685 91d4 D546     		mov sp, r10
 19686 91d6 10BC     		pop {r4}
 19687 91d8 EA46     		mov r10, sp
 19688 91da 2546     		mov r5, r4
 19689 91dc 2404     		lsls r4, r4, # 16
 19690 91de 240C     		lsrs r4, r4, # 16
 19691 91e0 2D0C     		lsrs r5, r5, # 16
 19692 91e2 6043     		muls r0, r0, r4
 19693 91e4 6143     		muls r1, r1, r4
 19694 91e6 6A43     		muls r2, r2, r5
 19695 91e8 6B43     		muls r3, r3, r5
 19696 91ea 8011     		asrs r0, r0, # 6
 19697 91ec 8911     		asrs r1, r1, # 6
 19698 91ee 9211     		asrs r2, r2, # 6
 19699 91f0 9B11     		asrs r3, r3, # 6
 19700 91f2 8018     		adds r0, r0, r2         @r
ARM GAS  1.s 			page 347


 19701 91f4 C918     		adds r1, r1, r3         @i
 19702 91f6 3618     		adds r6, r6, r0
 19703 91f8 7F18     		adds r7, r7, r1
 19704              	
 19705              		@6
 19706 91fa DD46     		mov sp, r11
 19707 91fc 0FBC     		pop {r0-r3}
 19708 91fe EB46     		mov r11, sp
 19709 9200 D546     		mov sp, r10
 19710 9202 10BC     		pop {r4}
 19711 9204 EA46     		mov r10, sp
 19712 9206 2546     		mov r5, r4
 19713 9208 2404     		lsls r4, r4, # 16
 19714 920a 240C     		lsrs r4, r4, # 16
 19715 920c 2D0C     		lsrs r5, r5, # 16
 19716 920e 6043     		muls r0, r0, r4		@R
 19717 9210 6143     		muls r1, r1, r4		@I
 19718 9212 6A43     		muls r2, r2, r5		@R
 19719 9214 6B43     		muls r3, r3, r5		@I
 19720 9216 8011     		asrs r0, r0, # 6
 19721 9218 8911     		asrs r1, r1, # 6
 19722 921a 9211     		asrs r2, r2, # 6
 19723 921c 9B11     		asrs r3, r3, # 6
 19724 921e 8018     		adds r0, r0, r2	 @r
 19725 9220 C918     		adds r1, r1, r3	 @i
 19726 9222 3618     		adds r6, r6, r0
 19727 9224 7F18     		adds r7, r7, r1
 19728              	
 19729 9226 DD46     		mov sp, r11
 19730 9228 0FBC     		pop {r0-r3}
 19731 922a EB46     		mov r11, sp
 19732 922c D546     		mov sp, r10
 19733 922e 10BC     		pop {r4}
 19734 9230 EA46     		mov r10, sp
 19735 9232 2546     		mov r5, r4
 19736 9234 2404     		lsls r4, r4, # 16
 19737 9236 240C     		lsrs r4, r4, # 16
 19738 9238 2D0C     		lsrs r5, r5, # 16
 19739 923a 6043     		muls r0, r0, r4
 19740 923c 6143     		muls r1, r1, r4
 19741 923e 6A43     		muls r2, r2, r5
 19742 9240 6B43     		muls r3, r3, r5
 19743 9242 8011     		asrs r0, r0, # 6
 19744 9244 8911     		asrs r1, r1, # 6
 19745 9246 9211     		asrs r2, r2, # 6
 19746 9248 9B11     		asrs r3, r3, # 6
 19747 924a 8018     		adds r0, r0, r2         @r
 19748 924c C918     		adds r1, r1, r3         @i
 19749 924e 3618     		adds r6, r6, r0
 19750 9250 7F18     		adds r7, r7, r1
 19751              	
 19752 9252 DD46     		mov sp, r11
 19753 9254 0FBC     		pop {r0-r3}
 19754 9256 EB46     		mov r11, sp
 19755 9258 D546     		mov sp, r10
 19756 925a 10BC     		pop {r4}
 19757 925c EA46     		mov r10, sp
ARM GAS  1.s 			page 348


 19758 925e 2546     		mov r5, r4
 19759 9260 2404     		lsls r4, r4, # 16
 19760 9262 240C     		lsrs r4, r4, # 16
 19761 9264 2D0C     		lsrs r5, r5, # 16
 19762 9266 6043     		muls r0, r0, r4
 19763 9268 6143     		muls r1, r1, r4
 19764 926a 6A43     		muls r2, r2, r5
 19765 926c 6B43     		muls r3, r3, r5
 19766 926e 8011     		asrs r0, r0, # 6
 19767 9270 8911     		asrs r1, r1, # 6
 19768 9272 9211     		asrs r2, r2, # 6
 19769 9274 9B11     		asrs r3, r3, # 6
 19770 9276 8018     		adds r0, r0, r2  @r
 19771 9278 C918     		adds r1, r1, r3  @i
 19772 927a 3618     		adds r6, r6, r0
 19773 927c 7F18     		adds r7, r7, r1
 19774              	
 19775 927e DD46     		mov sp, r11
 19776 9280 0FBC     		pop {r0-r3}
 19777 9282 EB46     		mov r11, sp
 19778 9284 D546     		mov sp, r10
 19779 9286 10BC     		pop {r4}
 19780 9288 EA46     		mov r10, sp
 19781 928a 2546     		mov r5, r4
 19782 928c 2404     		lsls r4, r4, # 16
 19783 928e 240C     		lsrs r4, r4, # 16
 19784 9290 2D0C     		lsrs r5, r5, # 16
 19785 9292 6043     		muls r0, r0, r4
 19786 9294 6143     		muls r1, r1, r4
 19787 9296 6A43     		muls r2, r2, r5
 19788 9298 6B43     		muls r3, r3, r5
 19789 929a 8011     		asrs r0, r0, # 6
 19790 929c 8911     		asrs r1, r1, # 6
 19791 929e 9211     		asrs r2, r2, # 6
 19792 92a0 9B11     		asrs r3, r3, # 6
 19793 92a2 8018     		adds r0, r0, r2         @r
 19794 92a4 C918     		adds r1, r1, r3         @i
 19795 92a6 3618     		adds r6, r6, r0
 19796 92a8 7F18     		adds r7, r7, r1
 19797              	
 19798              		@7
 19799 92aa DD46     		mov sp, r11
 19800 92ac 0FBC     		pop {r0-r3}
 19801 92ae EB46     		mov r11, sp
 19802 92b0 D546     		mov sp, r10
 19803 92b2 10BC     		pop {r4}
 19804 92b4 EA46     		mov r10, sp
 19805 92b6 2546     		mov r5, r4
 19806 92b8 2404     		lsls r4, r4, # 16
 19807 92ba 240C     		lsrs r4, r4, # 16
 19808 92bc 2D0C     		lsrs r5, r5, # 16
 19809 92be 6043     		muls r0, r0, r4		@R
 19810 92c0 6143     		muls r1, r1, r4		@I
 19811 92c2 6A43     		muls r2, r2, r5		@R
 19812 92c4 6B43     		muls r3, r3, r5		@I
 19813 92c6 8011     		asrs r0, r0, # 6
 19814 92c8 8911     		asrs r1, r1, # 6
ARM GAS  1.s 			page 349


 19815 92ca 9211     		asrs r2, r2, # 6
 19816 92cc 9B11     		asrs r3, r3, # 6
 19817 92ce 8018     		adds r0, r0, r2	 @r
 19818 92d0 C918     		adds r1, r1, r3	 @i
 19819 92d2 3618     		adds r6, r6, r0
 19820 92d4 7F18     		adds r7, r7, r1
 19821              	
 19822 92d6 DD46     		mov sp, r11
 19823 92d8 0FBC     		pop {r0-r3}
 19824 92da EB46     		mov r11, sp
 19825 92dc D546     		mov sp, r10
 19826 92de 10BC     		pop {r4}
 19827 92e0 EA46     		mov r10, sp
 19828 92e2 2546     		mov r5, r4
 19829 92e4 2404     		lsls r4, r4, # 16
 19830 92e6 240C     		lsrs r4, r4, # 16
 19831 92e8 2D0C     		lsrs r5, r5, # 16
 19832 92ea 6043     		muls r0, r0, r4
 19833 92ec 6143     		muls r1, r1, r4
 19834 92ee 6A43     		muls r2, r2, r5
 19835 92f0 6B43     		muls r3, r3, r5
 19836 92f2 8011     		asrs r0, r0, # 6
 19837 92f4 8911     		asrs r1, r1, # 6
 19838 92f6 9211     		asrs r2, r2, # 6
 19839 92f8 9B11     		asrs r3, r3, # 6
 19840 92fa 8018     		adds r0, r0, r2         @r
 19841 92fc C918     		adds r1, r1, r3         @i
 19842 92fe 3618     		adds r6, r6, r0
 19843 9300 7F18     		adds r7, r7, r1
 19844              	
 19845 9302 DD46     		mov sp, r11
 19846 9304 0FBC     		pop {r0-r3}
 19847 9306 EB46     		mov r11, sp
 19848 9308 D546     		mov sp, r10
 19849 930a 10BC     		pop {r4}
 19850 930c EA46     		mov r10, sp
 19851 930e 2546     		mov r5, r4
 19852 9310 2404     		lsls r4, r4, # 16
 19853 9312 240C     		lsrs r4, r4, # 16
 19854 9314 2D0C     		lsrs r5, r5, # 16
 19855 9316 6043     		muls r0, r0, r4
 19856 9318 6143     		muls r1, r1, r4
 19857 931a 6A43     		muls r2, r2, r5
 19858 931c 6B43     		muls r3, r3, r5
 19859 931e 8011     		asrs r0, r0, # 6
 19860 9320 8911     		asrs r1, r1, # 6
 19861 9322 9211     		asrs r2, r2, # 6
 19862 9324 9B11     		asrs r3, r3, # 6
 19863 9326 8018     		adds r0, r0, r2  @r
 19864 9328 C918     		adds r1, r1, r3  @i
 19865 932a 3618     		adds r6, r6, r0
 19866 932c 7F18     		adds r7, r7, r1
 19867              	
 19868 932e DD46     		mov sp, r11
 19869 9330 0FBC     		pop {r0-r3}
 19870 9332 EB46     		mov r11, sp
 19871 9334 D546     		mov sp, r10
ARM GAS  1.s 			page 350


 19872 9336 10BC     		pop {r4}
 19873 9338 EA46     		mov r10, sp
 19874 933a 2546     		mov r5, r4
 19875 933c 2404     		lsls r4, r4, # 16
 19876 933e 240C     		lsrs r4, r4, # 16
 19877 9340 2D0C     		lsrs r5, r5, # 16
 19878 9342 6043     		muls r0, r0, r4
 19879 9344 6143     		muls r1, r1, r4
 19880 9346 6A43     		muls r2, r2, r5
 19881 9348 6B43     		muls r3, r3, r5
 19882 934a 8011     		asrs r0, r0, # 6
 19883 934c 8911     		asrs r1, r1, # 6
 19884 934e 9211     		asrs r2, r2, # 6
 19885 9350 9B11     		asrs r3, r3, # 6
 19886 9352 8018     		adds r0, r0, r2         @r
 19887 9354 C918     		adds r1, r1, r3         @i
 19888 9356 3618     		adds r6, r6, r0
 19889 9358 7F18     		adds r7, r7, r1
 19890              	
 19891              		@8
 19892 935a DD46     		mov sp, r11
 19893 935c 0FBC     		pop {r0-r3}
 19894 935e EB46     		mov r11, sp
 19895 9360 D546     		mov sp, r10
 19896 9362 10BC     		pop {r4}
 19897 9364 EA46     		mov r10, sp
 19898 9366 2546     		mov r5, r4
 19899 9368 2404     		lsls r4, r4, # 16
 19900 936a 240C     		lsrs r4, r4, # 16
 19901 936c 2D0C     		lsrs r5, r5, # 16
 19902 936e 6043     		muls r0, r0, r4		@R
 19903 9370 6143     		muls r1, r1, r4		@I
 19904 9372 6A43     		muls r2, r2, r5		@R
 19905 9374 6B43     		muls r3, r3, r5		@I
 19906 9376 8011     		asrs r0, r0, # 6
 19907 9378 8911     		asrs r1, r1, # 6
 19908 937a 9211     		asrs r2, r2, # 6
 19909 937c 9B11     		asrs r3, r3, # 6
 19910 937e 8018     		adds r0, r0, r2	 @r
 19911 9380 C918     		adds r1, r1, r3	 @i
 19912 9382 3618     		adds r6, r6, r0
 19913 9384 7F18     		adds r7, r7, r1
 19914              	
 19915 9386 DD46     		mov sp, r11
 19916 9388 0FBC     		pop {r0-r3}
 19917 938a EB46     		mov r11, sp
 19918 938c D546     		mov sp, r10
 19919 938e 10BC     		pop {r4}
 19920 9390 EA46     		mov r10, sp
 19921 9392 2546     		mov r5, r4
 19922 9394 2404     		lsls r4, r4, # 16
 19923 9396 240C     		lsrs r4, r4, # 16
 19924 9398 2D0C     		lsrs r5, r5, # 16
 19925 939a 6043     		muls r0, r0, r4
 19926 939c 6143     		muls r1, r1, r4
 19927 939e 6A43     		muls r2, r2, r5
 19928 93a0 6B43     		muls r3, r3, r5
ARM GAS  1.s 			page 351


 19929 93a2 8011     		asrs r0, r0, # 6
 19930 93a4 8911     		asrs r1, r1, # 6
 19931 93a6 9211     		asrs r2, r2, # 6
 19932 93a8 9B11     		asrs r3, r3, # 6
 19933 93aa 8018     		adds r0, r0, r2         @r
 19934 93ac C918     		adds r1, r1, r3         @i
 19935 93ae 3618     		adds r6, r6, r0
 19936 93b0 7F18     		adds r7, r7, r1
 19937              	
 19938 93b2 DD46     		mov sp, r11
 19939 93b4 0FBC     		pop {r0-r3}
 19940 93b6 EB46     		mov r11, sp
 19941 93b8 D546     		mov sp, r10
 19942 93ba 10BC     		pop {r4}
 19943 93bc EA46     		mov r10, sp
 19944 93be 2546     		mov r5, r4
 19945 93c0 2404     		lsls r4, r4, # 16
 19946 93c2 240C     		lsrs r4, r4, # 16
 19947 93c4 2D0C     		lsrs r5, r5, # 16
 19948 93c6 6043     		muls r0, r0, r4
 19949 93c8 6143     		muls r1, r1, r4
 19950 93ca 6A43     		muls r2, r2, r5
 19951 93cc 6B43     		muls r3, r3, r5
 19952 93ce 8011     		asrs r0, r0, # 6
 19953 93d0 8911     		asrs r1, r1, # 6
 19954 93d2 9211     		asrs r2, r2, # 6
 19955 93d4 9B11     		asrs r3, r3, # 6
 19956 93d6 8018     		adds r0, r0, r2  @r
 19957 93d8 C918     		adds r1, r1, r3  @i
 19958 93da 3618     		adds r6, r6, r0
 19959 93dc 7F18     		adds r7, r7, r1
 19960              	
 19961 93de DD46     		mov sp, r11
 19962 93e0 0FBC     		pop {r0-r3}
 19963 93e2 EB46     		mov r11, sp
 19964 93e4 D546     		mov sp, r10
 19965 93e6 10BC     		pop {r4}
 19966 93e8 EA46     		mov r10, sp
 19967 93ea 2546     		mov r5, r4
 19968 93ec 2404     		lsls r4, r4, # 16
 19969 93ee 240C     		lsrs r4, r4, # 16
 19970 93f0 2D0C     		lsrs r5, r5, # 16
 19971 93f2 6043     		muls r0, r0, r4
 19972 93f4 6143     		muls r1, r1, r4
 19973 93f6 6A43     		muls r2, r2, r5
 19974 93f8 6B43     		muls r3, r3, r5
 19975 93fa 8011     		asrs r0, r0, # 6
 19976 93fc 8911     		asrs r1, r1, # 6
 19977 93fe 9211     		asrs r2, r2, # 6
 19978 9400 9B11     		asrs r3, r3, # 6
 19979 9402 8018     		adds r0, r0, r2         @r
 19980 9404 C918     		adds r1, r1, r3         @i
 19981 9406 3618     		adds r6, r6, r0
 19982 9408 7F18     		adds r7, r7, r1
 19983              	
 19984              		@9
 19985 940a DD46     		mov sp, r11
ARM GAS  1.s 			page 352


 19986 940c 0FBC     		pop {r0-r3}
 19987 940e EB46     		mov r11, sp
 19988 9410 D546     		mov sp, r10
 19989 9412 10BC     		pop {r4}
 19990 9414 EA46     		mov r10, sp
 19991 9416 2546     		mov r5, r4
 19992 9418 2404     		lsls r4, r4, # 16
 19993 941a 240C     		lsrs r4, r4, # 16
 19994 941c 2D0C     		lsrs r5, r5, # 16
 19995 941e 6043     		muls r0, r0, r4		@R
 19996 9420 6143     		muls r1, r1, r4		@I
 19997 9422 6A43     		muls r2, r2, r5		@R
 19998 9424 6B43     		muls r3, r3, r5		@I
 19999 9426 8011     		asrs r0, r0, # 6
 20000 9428 8911     		asrs r1, r1, # 6
 20001 942a 9211     		asrs r2, r2, # 6
 20002 942c 9B11     		asrs r3, r3, # 6
 20003 942e 8018     		adds r0, r0, r2	 @r
 20004 9430 C918     		adds r1, r1, r3	 @i
 20005 9432 3618     		adds r6, r6, r0
 20006 9434 7F18     		adds r7, r7, r1
 20007              	
 20008 9436 DD46     		mov sp, r11
 20009 9438 0FBC     		pop {r0-r3}
 20010 943a EB46     		mov r11, sp
 20011 943c D546     		mov sp, r10
 20012 943e 10BC     		pop {r4}
 20013 9440 EA46     		mov r10, sp
 20014 9442 2546     		mov r5, r4
 20015 9444 2404     		lsls r4, r4, # 16
 20016 9446 240C     		lsrs r4, r4, # 16
 20017 9448 2D0C     		lsrs r5, r5, # 16
 20018 944a 6043     		muls r0, r0, r4
 20019 944c 6143     		muls r1, r1, r4
 20020 944e 6A43     		muls r2, r2, r5
 20021 9450 6B43     		muls r3, r3, r5
 20022 9452 8011     		asrs r0, r0, # 6
 20023 9454 8911     		asrs r1, r1, # 6
 20024 9456 9211     		asrs r2, r2, # 6
 20025 9458 9B11     		asrs r3, r3, # 6
 20026 945a 8018     		adds r0, r0, r2         @r
 20027 945c C918     		adds r1, r1, r3         @i
 20028 945e 3618     		adds r6, r6, r0
 20029 9460 7F18     		adds r7, r7, r1
 20030              	
 20031 9462 DD46     		mov sp, r11
 20032 9464 0FBC     		pop {r0-r3}
 20033 9466 EB46     		mov r11, sp
 20034 9468 D546     		mov sp, r10
 20035 946a 10BC     		pop {r4}
 20036 946c EA46     		mov r10, sp
 20037 946e 2546     		mov r5, r4
 20038 9470 2404     		lsls r4, r4, # 16
 20039 9472 240C     		lsrs r4, r4, # 16
 20040 9474 2D0C     		lsrs r5, r5, # 16
 20041 9476 6043     		muls r0, r0, r4
 20042 9478 6143     		muls r1, r1, r4
ARM GAS  1.s 			page 353


 20043 947a 6A43     		muls r2, r2, r5
 20044 947c 6B43     		muls r3, r3, r5
 20045 947e 8011     		asrs r0, r0, # 6
 20046 9480 8911     		asrs r1, r1, # 6
 20047 9482 9211     		asrs r2, r2, # 6
 20048 9484 9B11     		asrs r3, r3, # 6
 20049 9486 8018     		adds r0, r0, r2  @r
 20050 9488 C918     		adds r1, r1, r3  @i
 20051 948a 3618     		adds r6, r6, r0
 20052 948c 7F18     		adds r7, r7, r1
 20053              	
 20054 948e DD46     		mov sp, r11
 20055 9490 0FBC     		pop {r0-r3}
 20056 9492 EB46     		mov r11, sp
 20057 9494 D546     		mov sp, r10
 20058 9496 10BC     		pop {r4}
 20059 9498 EA46     		mov r10, sp
 20060 949a 2546     		mov r5, r4
 20061 949c 2404     		lsls r4, r4, # 16
 20062 949e 240C     		lsrs r4, r4, # 16
 20063 94a0 2D0C     		lsrs r5, r5, # 16
 20064 94a2 6043     		muls r0, r0, r4
 20065 94a4 6143     		muls r1, r1, r4
 20066 94a6 6A43     		muls r2, r2, r5
 20067 94a8 6B43     		muls r3, r3, r5
 20068 94aa 8011     		asrs r0, r0, # 6
 20069 94ac 8911     		asrs r1, r1, # 6
 20070 94ae 9211     		asrs r2, r2, # 6
 20071 94b0 9B11     		asrs r3, r3, # 6
 20072 94b2 8018     		adds r0, r0, r2         @r
 20073 94b4 C918     		adds r1, r1, r3         @i
 20074 94b6 3618     		adds r6, r6, r0
 20075 94b8 7F18     		adds r7, r7, r1
 20076              		@yjm20
 20077              		@0
 20078 94ba DD46     		mov sp, r11
 20079 94bc 0FBC     		pop {r0-r3}
 20080 94be EB46     		mov r11, sp
 20081 94c0 D546     		mov sp, r10
 20082 94c2 10BC     		pop {r4}
 20083 94c4 EA46     		mov r10, sp
 20084 94c6 2546     		mov r5, r4
 20085 94c8 2404     		lsls r4, r4, # 16
 20086 94ca 240C     		lsrs r4, r4, # 16
 20087 94cc 2D0C     		lsrs r5, r5, # 16
 20088 94ce 6043     		muls r0, r0, r4		@R
 20089 94d0 6143     		muls r1, r1, r4		@I
 20090 94d2 6A43     		muls r2, r2, r5		@R
 20091 94d4 6B43     		muls r3, r3, r5		@I
 20092 94d6 8011     		asrs r0, r0, # 6
 20093 94d8 8911     		asrs r1, r1, # 6
 20094 94da 9211     		asrs r2, r2, # 6
 20095 94dc 9B11     		asrs r3, r3, # 6
 20096 94de 8018     		adds r0, r0, r2	 @r
 20097 94e0 C918     		adds r1, r1, r3	 @i
 20098 94e2 3618     		adds r6, r6, r0
 20099 94e4 7F18     		adds r7, r7, r1
ARM GAS  1.s 			page 354


 20100              	
 20101 94e6 DD46     		mov sp, r11
 20102 94e8 0FBC     		pop {r0-r3}
 20103 94ea EB46     		mov r11, sp
 20104 94ec D546     		mov sp, r10
 20105 94ee 10BC     		pop {r4}
 20106 94f0 EA46     		mov r10, sp
 20107 94f2 2546     		mov r5, r4
 20108 94f4 2404     		lsls r4, r4, # 16
 20109 94f6 240C     		lsrs r4, r4, # 16
 20110 94f8 2D0C     		lsrs r5, r5, # 16
 20111 94fa 6043     		muls r0, r0, r4
 20112 94fc 6143     		muls r1, r1, r4
 20113 94fe 6A43     		muls r2, r2, r5
 20114 9500 6B43     		muls r3, r3, r5
 20115 9502 8011     		asrs r0, r0, # 6
 20116 9504 8911     		asrs r1, r1, # 6
 20117 9506 9211     		asrs r2, r2, # 6
 20118 9508 9B11     		asrs r3, r3, # 6
 20119 950a 8018     		adds r0, r0, r2         @r
 20120 950c C918     		adds r1, r1, r3         @i
 20121 950e 3618     		adds r6, r6, r0
 20122 9510 7F18     		adds r7, r7, r1
 20123              	
 20124 9512 DD46     		mov sp, r11
 20125 9514 0FBC     		pop {r0-r3}
 20126 9516 EB46     		mov r11, sp
 20127 9518 D546     		mov sp, r10
 20128 951a 10BC     		pop {r4}
 20129 951c EA46     		mov r10, sp
 20130 951e 2546     		mov r5, r4
 20131 9520 2404     		lsls r4, r4, # 16
 20132 9522 240C     		lsrs r4, r4, # 16
 20133 9524 2D0C     		lsrs r5, r5, # 16
 20134 9526 6043     		muls r0, r0, r4
 20135 9528 6143     		muls r1, r1, r4
 20136 952a 6A43     		muls r2, r2, r5
 20137 952c 6B43     		muls r3, r3, r5
 20138 952e 8011     		asrs r0, r0, # 6
 20139 9530 8911     		asrs r1, r1, # 6
 20140 9532 9211     		asrs r2, r2, # 6
 20141 9534 9B11     		asrs r3, r3, # 6
 20142 9536 8018     		adds r0, r0, r2  @r
 20143 9538 C918     		adds r1, r1, r3  @i
 20144 953a 3618     		adds r6, r6, r0
 20145 953c 7F18     		adds r7, r7, r1
 20146              	
 20147 953e DD46     		mov sp, r11
 20148 9540 0FBC     		pop {r0-r3}
 20149 9542 EB46     		mov r11, sp
 20150 9544 D546     		mov sp, r10
 20151 9546 10BC     		pop {r4}
 20152 9548 EA46     		mov r10, sp
 20153 954a 2546     		mov r5, r4
 20154 954c 2404     		lsls r4, r4, # 16
 20155 954e 240C     		lsrs r4, r4, # 16
 20156 9550 2D0C     		lsrs r5, r5, # 16
ARM GAS  1.s 			page 355


 20157 9552 6043     		muls r0, r0, r4
 20158 9554 6143     		muls r1, r1, r4
 20159 9556 6A43     		muls r2, r2, r5
 20160 9558 6B43     		muls r3, r3, r5
 20161 955a 8011     		asrs r0, r0, # 6
 20162 955c 8911     		asrs r1, r1, # 6
 20163 955e 9211     		asrs r2, r2, # 6
 20164 9560 9B11     		asrs r3, r3, # 6
 20165 9562 8018     		adds r0, r0, r2         @r
 20166 9564 C918     		adds r1, r1, r3         @i
 20167 9566 3618     		adds r6, r6, r0
 20168 9568 7F18     		adds r7, r7, r1
 20169              	
 20170              		@1
 20171 956a DD46     		mov sp, r11
 20172 956c 0FBC     		pop {r0-r3}
 20173 956e EB46     		mov r11, sp
 20174 9570 D546     		mov sp, r10
 20175 9572 10BC     		pop {r4}
 20176 9574 EA46     		mov r10, sp
 20177 9576 2546     		mov r5, r4
 20178 9578 2404     		lsls r4, r4, # 16
 20179 957a 240C     		lsrs r4, r4, # 16
 20180 957c 2D0C     		lsrs r5, r5, # 16
 20181 957e 6043     		muls r0, r0, r4		@R
 20182 9580 6143     		muls r1, r1, r4		@I
 20183 9582 6A43     		muls r2, r2, r5		@R
 20184 9584 6B43     		muls r3, r3, r5		@I
 20185 9586 8011     		asrs r0, r0, # 6
 20186 9588 8911     		asrs r1, r1, # 6
 20187 958a 9211     		asrs r2, r2, # 6
 20188 958c 9B11     		asrs r3, r3, # 6
 20189 958e 8018     		adds r0, r0, r2	 @r
 20190 9590 C918     		adds r1, r1, r3	 @i
 20191 9592 3618     		adds r6, r6, r0
 20192 9594 7F18     		adds r7, r7, r1
 20193              	
 20194 9596 DD46     		mov sp, r11
 20195 9598 0FBC     		pop {r0-r3}
 20196 959a EB46     		mov r11, sp
 20197 959c D546     		mov sp, r10
 20198 959e 10BC     		pop {r4}
 20199 95a0 EA46     		mov r10, sp
 20200 95a2 2546     		mov r5, r4
 20201 95a4 2404     		lsls r4, r4, # 16
 20202 95a6 240C     		lsrs r4, r4, # 16
 20203 95a8 2D0C     		lsrs r5, r5, # 16
 20204 95aa 6043     		muls r0, r0, r4
 20205 95ac 6143     		muls r1, r1, r4
 20206 95ae 6A43     		muls r2, r2, r5
 20207 95b0 6B43     		muls r3, r3, r5
 20208 95b2 8011     		asrs r0, r0, # 6
 20209 95b4 8911     		asrs r1, r1, # 6
 20210 95b6 9211     		asrs r2, r2, # 6
 20211 95b8 9B11     		asrs r3, r3, # 6
 20212 95ba 8018     		adds r0, r0, r2         @r
 20213 95bc C918     		adds r1, r1, r3         @i
ARM GAS  1.s 			page 356


 20214 95be 3618     		adds r6, r6, r0
 20215 95c0 7F18     		adds r7, r7, r1
 20216              	
 20217 95c2 DD46     		mov sp, r11
 20218 95c4 0FBC     		pop {r0-r3}
 20219 95c6 EB46     		mov r11, sp
 20220 95c8 D546     		mov sp, r10
 20221 95ca 10BC     		pop {r4}
 20222 95cc EA46     		mov r10, sp
 20223 95ce 2546     		mov r5, r4
 20224 95d0 2404     		lsls r4, r4, # 16
 20225 95d2 240C     		lsrs r4, r4, # 16
 20226 95d4 2D0C     		lsrs r5, r5, # 16
 20227 95d6 6043     		muls r0, r0, r4
 20228 95d8 6143     		muls r1, r1, r4
 20229 95da 6A43     		muls r2, r2, r5
 20230 95dc 6B43     		muls r3, r3, r5
 20231 95de 8011     		asrs r0, r0, # 6
 20232 95e0 8911     		asrs r1, r1, # 6
 20233 95e2 9211     		asrs r2, r2, # 6
 20234 95e4 9B11     		asrs r3, r3, # 6
 20235 95e6 8018     		adds r0, r0, r2  @r
 20236 95e8 C918     		adds r1, r1, r3  @i
 20237 95ea 3618     		adds r6, r6, r0
 20238 95ec 7F18     		adds r7, r7, r1
 20239              	
 20240 95ee DD46     		mov sp, r11
 20241 95f0 0FBC     		pop {r0-r3}
 20242 95f2 EB46     		mov r11, sp
 20243 95f4 D546     		mov sp, r10
 20244 95f6 10BC     		pop {r4}
 20245 95f8 EA46     		mov r10, sp
 20246 95fa 2546     		mov r5, r4
 20247 95fc 2404     		lsls r4, r4, # 16
 20248 95fe 240C     		lsrs r4, r4, # 16
 20249 9600 2D0C     		lsrs r5, r5, # 16
 20250 9602 6043     		muls r0, r0, r4
 20251 9604 6143     		muls r1, r1, r4
 20252 9606 6A43     		muls r2, r2, r5
 20253 9608 6B43     		muls r3, r3, r5
 20254 960a 8011     		asrs r0, r0, # 6
 20255 960c 8911     		asrs r1, r1, # 6
 20256 960e 9211     		asrs r2, r2, # 6
 20257 9610 9B11     		asrs r3, r3, # 6
 20258 9612 8018     		adds r0, r0, r2         @r
 20259 9614 C918     		adds r1, r1, r3         @i
 20260 9616 3618     		adds r6, r6, r0
 20261 9618 7F18     		adds r7, r7, r1
 20262              	
 20263              		@2
 20264 961a DD46     		mov sp, r11
 20265 961c 0FBC     		pop {r0-r3}
 20266 961e EB46     		mov r11, sp
 20267 9620 D546     		mov sp, r10
 20268 9622 10BC     		pop {r4}
 20269 9624 EA46     		mov r10, sp
 20270 9626 2546     		mov r5, r4
ARM GAS  1.s 			page 357


 20271 9628 2404     		lsls r4, r4, # 16
 20272 962a 240C     		lsrs r4, r4, # 16
 20273 962c 2D0C     		lsrs r5, r5, # 16
 20274 962e 6043     		muls r0, r0, r4		@R
 20275 9630 6143     		muls r1, r1, r4		@I
 20276 9632 6A43     		muls r2, r2, r5		@R
 20277 9634 6B43     		muls r3, r3, r5		@I
 20278 9636 8011     		asrs r0, r0, # 6
 20279 9638 8911     		asrs r1, r1, # 6
 20280 963a 9211     		asrs r2, r2, # 6
 20281 963c 9B11     		asrs r3, r3, # 6
 20282 963e 8018     		adds r0, r0, r2	 @r
 20283 9640 C918     		adds r1, r1, r3	 @i
 20284 9642 3618     		adds r6, r6, r0
 20285 9644 7F18     		adds r7, r7, r1
 20286              	
 20287 9646 DD46     		mov sp, r11
 20288 9648 0FBC     		pop {r0-r3}
 20289 964a EB46     		mov r11, sp
 20290 964c D546     		mov sp, r10
 20291 964e 10BC     		pop {r4}
 20292 9650 EA46     		mov r10, sp
 20293 9652 2546     		mov r5, r4
 20294 9654 2404     		lsls r4, r4, # 16
 20295 9656 240C     		lsrs r4, r4, # 16
 20296 9658 2D0C     		lsrs r5, r5, # 16
 20297 965a 6043     		muls r0, r0, r4
 20298 965c 6143     		muls r1, r1, r4
 20299 965e 6A43     		muls r2, r2, r5
 20300 9660 6B43     		muls r3, r3, r5
 20301 9662 8011     		asrs r0, r0, # 6
 20302 9664 8911     		asrs r1, r1, # 6
 20303 9666 9211     		asrs r2, r2, # 6
 20304 9668 9B11     		asrs r3, r3, # 6
 20305 966a 8018     		adds r0, r0, r2         @r
 20306 966c C918     		adds r1, r1, r3         @i
 20307 966e 3618     		adds r6, r6, r0
 20308 9670 7F18     		adds r7, r7, r1
 20309              	
 20310 9672 DD46     		mov sp, r11
 20311 9674 0FBC     		pop {r0-r3}
 20312 9676 EB46     		mov r11, sp
 20313 9678 D546     		mov sp, r10
 20314 967a 10BC     		pop {r4}
 20315 967c EA46     		mov r10, sp
 20316 967e 2546     		mov r5, r4
 20317 9680 2404     		lsls r4, r4, # 16
 20318 9682 240C     		lsrs r4, r4, # 16
 20319 9684 2D0C     		lsrs r5, r5, # 16
 20320 9686 6043     		muls r0, r0, r4
 20321 9688 6143     		muls r1, r1, r4
 20322 968a 6A43     		muls r2, r2, r5
 20323 968c 6B43     		muls r3, r3, r5
 20324 968e 8011     		asrs r0, r0, # 6
 20325 9690 8911     		asrs r1, r1, # 6
 20326 9692 9211     		asrs r2, r2, # 6
 20327 9694 9B11     		asrs r3, r3, # 6
ARM GAS  1.s 			page 358


 20328 9696 8018     		adds r0, r0, r2  @r
 20329 9698 C918     		adds r1, r1, r3  @i
 20330 969a 3618     		adds r6, r6, r0
 20331 969c 7F18     		adds r7, r7, r1
 20332              	
 20333 969e DD46     		mov sp, r11
 20334 96a0 0FBC     		pop {r0-r3}
 20335 96a2 EB46     		mov r11, sp
 20336 96a4 D546     		mov sp, r10
 20337 96a6 10BC     		pop {r4}
 20338 96a8 EA46     		mov r10, sp
 20339 96aa 2546     		mov r5, r4
 20340 96ac 2404     		lsls r4, r4, # 16
 20341 96ae 240C     		lsrs r4, r4, # 16
 20342 96b0 2D0C     		lsrs r5, r5, # 16
 20343 96b2 6043     		muls r0, r0, r4
 20344 96b4 6143     		muls r1, r1, r4
 20345 96b6 6A43     		muls r2, r2, r5
 20346 96b8 6B43     		muls r3, r3, r5
 20347 96ba 8011     		asrs r0, r0, # 6
 20348 96bc 8911     		asrs r1, r1, # 6
 20349 96be 9211     		asrs r2, r2, # 6
 20350 96c0 9B11     		asrs r3, r3, # 6
 20351 96c2 8018     		adds r0, r0, r2         @r
 20352 96c4 C918     		adds r1, r1, r3         @i
 20353 96c6 3618     		adds r6, r6, r0
 20354 96c8 7F18     		adds r7, r7, r1
 20355              	
 20356              		@3
 20357 96ca DD46     		mov sp, r11
 20358 96cc 0FBC     		pop {r0-r3}
 20359 96ce EB46     		mov r11, sp
 20360 96d0 D546     		mov sp, r10
 20361 96d2 10BC     		pop {r4}
 20362 96d4 EA46     		mov r10, sp
 20363 96d6 2546     		mov r5, r4
 20364 96d8 2404     		lsls r4, r4, # 16
 20365 96da 240C     		lsrs r4, r4, # 16
 20366 96dc 2D0C     		lsrs r5, r5, # 16
 20367 96de 6043     		muls r0, r0, r4		@R
 20368 96e0 6143     		muls r1, r1, r4		@I
 20369 96e2 6A43     		muls r2, r2, r5		@R
 20370 96e4 6B43     		muls r3, r3, r5		@I
 20371 96e6 8011     		asrs r0, r0, # 6
 20372 96e8 8911     		asrs r1, r1, # 6
 20373 96ea 9211     		asrs r2, r2, # 6
 20374 96ec 9B11     		asrs r3, r3, # 6
 20375 96ee 8018     		adds r0, r0, r2	 @r
 20376 96f0 C918     		adds r1, r1, r3	 @i
 20377 96f2 3618     		adds r6, r6, r0
 20378 96f4 7F18     		adds r7, r7, r1
 20379              	
 20380 96f6 DD46     		mov sp, r11
 20381 96f8 0FBC     		pop {r0-r3}
 20382 96fa EB46     		mov r11, sp
 20383 96fc D546     		mov sp, r10
 20384 96fe 10BC     		pop {r4}
ARM GAS  1.s 			page 359


 20385 9700 EA46     		mov r10, sp
 20386 9702 2546     		mov r5, r4
 20387 9704 2404     		lsls r4, r4, # 16
 20388 9706 240C     		lsrs r4, r4, # 16
 20389 9708 2D0C     		lsrs r5, r5, # 16
 20390 970a 6043     		muls r0, r0, r4
 20391 970c 6143     		muls r1, r1, r4
 20392 970e 6A43     		muls r2, r2, r5
 20393 9710 6B43     		muls r3, r3, r5
 20394 9712 8011     		asrs r0, r0, # 6
 20395 9714 8911     		asrs r1, r1, # 6
 20396 9716 9211     		asrs r2, r2, # 6
 20397 9718 9B11     		asrs r3, r3, # 6
 20398 971a 8018     		adds r0, r0, r2         @r
 20399 971c C918     		adds r1, r1, r3         @i
 20400 971e 3618     		adds r6, r6, r0
 20401 9720 7F18     		adds r7, r7, r1
 20402              	
 20403 9722 DD46     		mov sp, r11
 20404 9724 0FBC     		pop {r0-r3}
 20405 9726 EB46     		mov r11, sp
 20406 9728 D546     		mov sp, r10
 20407 972a 10BC     		pop {r4}
 20408 972c EA46     		mov r10, sp
 20409 972e 2546     		mov r5, r4
 20410 9730 2404     		lsls r4, r4, # 16
 20411 9732 240C     		lsrs r4, r4, # 16
 20412 9734 2D0C     		lsrs r5, r5, # 16
 20413 9736 6043     		muls r0, r0, r4
 20414 9738 6143     		muls r1, r1, r4
 20415 973a 6A43     		muls r2, r2, r5
 20416 973c 6B43     		muls r3, r3, r5
 20417 973e 8011     		asrs r0, r0, # 6
 20418 9740 8911     		asrs r1, r1, # 6
 20419 9742 9211     		asrs r2, r2, # 6
 20420 9744 9B11     		asrs r3, r3, # 6
 20421 9746 8018     		adds r0, r0, r2  @r
 20422 9748 C918     		adds r1, r1, r3  @i
 20423 974a 3618     		adds r6, r6, r0
 20424 974c 7F18     		adds r7, r7, r1
 20425              	
 20426 974e DD46     		mov sp, r11
 20427 9750 0FBC     		pop {r0-r3}
 20428 9752 EB46     		mov r11, sp
 20429 9754 D546     		mov sp, r10
 20430 9756 10BC     		pop {r4}
 20431 9758 EA46     		mov r10, sp
 20432 975a 2546     		mov r5, r4
 20433 975c 2404     		lsls r4, r4, # 16
 20434 975e 240C     		lsrs r4, r4, # 16
 20435 9760 2D0C     		lsrs r5, r5, # 16
 20436 9762 6043     		muls r0, r0, r4
 20437 9764 6143     		muls r1, r1, r4
 20438 9766 6A43     		muls r2, r2, r5
 20439 9768 6B43     		muls r3, r3, r5
 20440 976a 8011     		asrs r0, r0, # 6
 20441 976c 8911     		asrs r1, r1, # 6
ARM GAS  1.s 			page 360


 20442 976e 9211     		asrs r2, r2, # 6
 20443 9770 9B11     		asrs r3, r3, # 6
 20444 9772 8018     		adds r0, r0, r2         @r
 20445 9774 C918     		adds r1, r1, r3         @i
 20446 9776 3618     		adds r6, r6, r0
 20447 9778 7F18     		adds r7, r7, r1
 20448              	
 20449              		@4
 20450 977a DD46     		mov sp, r11
 20451 977c 0FBC     		pop {r0-r3}
 20452 977e EB46     		mov r11, sp
 20453 9780 D546     		mov sp, r10
 20454 9782 10BC     		pop {r4}
 20455 9784 EA46     		mov r10, sp
 20456 9786 2546     		mov r5, r4
 20457 9788 2404     		lsls r4, r4, # 16
 20458 978a 240C     		lsrs r4, r4, # 16
 20459 978c 2D0C     		lsrs r5, r5, # 16
 20460 978e 6043     		muls r0, r0, r4		@R
 20461 9790 6143     		muls r1, r1, r4		@I
 20462 9792 6A43     		muls r2, r2, r5		@R
 20463 9794 6B43     		muls r3, r3, r5		@I
 20464 9796 8011     		asrs r0, r0, # 6
 20465 9798 8911     		asrs r1, r1, # 6
 20466 979a 9211     		asrs r2, r2, # 6
 20467 979c 9B11     		asrs r3, r3, # 6
 20468 979e 8018     		adds r0, r0, r2	 @r
 20469 97a0 C918     		adds r1, r1, r3	 @i
 20470 97a2 3618     		adds r6, r6, r0
 20471 97a4 7F18     		adds r7, r7, r1
 20472              	
 20473 97a6 DD46     		mov sp, r11
 20474 97a8 0FBC     		pop {r0-r3}
 20475 97aa EB46     		mov r11, sp
 20476 97ac D546     		mov sp, r10
 20477 97ae 10BC     		pop {r4}
 20478 97b0 EA46     		mov r10, sp
 20479 97b2 2546     		mov r5, r4
 20480 97b4 2404     		lsls r4, r4, # 16
 20481 97b6 240C     		lsrs r4, r4, # 16
 20482 97b8 2D0C     		lsrs r5, r5, # 16
 20483 97ba 6043     		muls r0, r0, r4
 20484 97bc 6143     		muls r1, r1, r4
 20485 97be 6A43     		muls r2, r2, r5
 20486 97c0 6B43     		muls r3, r3, r5
 20487 97c2 8011     		asrs r0, r0, # 6
 20488 97c4 8911     		asrs r1, r1, # 6
 20489 97c6 9211     		asrs r2, r2, # 6
 20490 97c8 9B11     		asrs r3, r3, # 6
 20491 97ca 8018     		adds r0, r0, r2         @r
 20492 97cc C918     		adds r1, r1, r3         @i
 20493 97ce 3618     		adds r6, r6, r0
 20494 97d0 7F18     		adds r7, r7, r1
 20495              	
 20496 97d2 DD46     		mov sp, r11
 20497 97d4 0FBC     		pop {r0-r3}
 20498 97d6 EB46     		mov r11, sp
ARM GAS  1.s 			page 361


 20499 97d8 D546     		mov sp, r10
 20500 97da 10BC     		pop {r4}
 20501 97dc EA46     		mov r10, sp
 20502 97de 2546     		mov r5, r4
 20503 97e0 2404     		lsls r4, r4, # 16
 20504 97e2 240C     		lsrs r4, r4, # 16
 20505 97e4 2D0C     		lsrs r5, r5, # 16
 20506 97e6 6043     		muls r0, r0, r4
 20507 97e8 6143     		muls r1, r1, r4
 20508 97ea 6A43     		muls r2, r2, r5
 20509 97ec 6B43     		muls r3, r3, r5
 20510 97ee 8011     		asrs r0, r0, # 6
 20511 97f0 8911     		asrs r1, r1, # 6
 20512 97f2 9211     		asrs r2, r2, # 6
 20513 97f4 9B11     		asrs r3, r3, # 6
 20514 97f6 8018     		adds r0, r0, r2  @r
 20515 97f8 C918     		adds r1, r1, r3  @i
 20516 97fa 3618     		adds r6, r6, r0
 20517 97fc 7F18     		adds r7, r7, r1
 20518              	
 20519 97fe DD46     		mov sp, r11
 20520 9800 0FBC     		pop {r0-r3}
 20521 9802 EB46     		mov r11, sp
 20522 9804 D546     		mov sp, r10
 20523 9806 10BC     		pop {r4}
 20524 9808 EA46     		mov r10, sp
 20525 980a 2546     		mov r5, r4
 20526 980c 2404     		lsls r4, r4, # 16
 20527 980e 240C     		lsrs r4, r4, # 16
 20528 9810 2D0C     		lsrs r5, r5, # 16
 20529 9812 6043     		muls r0, r0, r4
 20530 9814 6143     		muls r1, r1, r4
 20531 9816 6A43     		muls r2, r2, r5
 20532 9818 6B43     		muls r3, r3, r5
 20533 981a 8011     		asrs r0, r0, # 6
 20534 981c 8911     		asrs r1, r1, # 6
 20535 981e 9211     		asrs r2, r2, # 6
 20536 9820 9B11     		asrs r3, r3, # 6
 20537 9822 8018     		adds r0, r0, r2         @r
 20538 9824 C918     		adds r1, r1, r3         @i
 20539 9826 3618     		adds r6, r6, r0
 20540 9828 7F18     		adds r7, r7, r1
 20541              	
 20542              		@5
 20543 982a DD46     		mov sp, r11
 20544 982c 0FBC     		pop {r0-r3}
 20545 982e EB46     		mov r11, sp
 20546 9830 D546     		mov sp, r10
 20547 9832 10BC     		pop {r4}
 20548 9834 EA46     		mov r10, sp
 20549 9836 2546     		mov r5, r4
 20550 9838 2404     		lsls r4, r4, # 16
 20551 983a 240C     		lsrs r4, r4, # 16
 20552 983c 2D0C     		lsrs r5, r5, # 16
 20553 983e 6043     		muls r0, r0, r4		@R
 20554 9840 6143     		muls r1, r1, r4		@I
 20555 9842 6A43     		muls r2, r2, r5		@R
ARM GAS  1.s 			page 362


 20556 9844 6B43     		muls r3, r3, r5		@I
 20557 9846 8011     		asrs r0, r0, # 6
 20558 9848 8911     		asrs r1, r1, # 6
 20559 984a 9211     		asrs r2, r2, # 6
 20560 984c 9B11     		asrs r3, r3, # 6
 20561 984e 8018     		adds r0, r0, r2	 @r
 20562 9850 C918     		adds r1, r1, r3	 @i
 20563 9852 3618     		adds r6, r6, r0
 20564 9854 7F18     		adds r7, r7, r1
 20565              	
 20566 9856 DD46     		mov sp, r11
 20567 9858 0FBC     		pop {r0-r3}
 20568 985a EB46     		mov r11, sp
 20569 985c D546     		mov sp, r10
 20570 985e 10BC     		pop {r4}
 20571 9860 EA46     		mov r10, sp
 20572 9862 2546     		mov r5, r4
 20573 9864 2404     		lsls r4, r4, # 16
 20574 9866 240C     		lsrs r4, r4, # 16
 20575 9868 2D0C     		lsrs r5, r5, # 16
 20576 986a 6043     		muls r0, r0, r4
 20577 986c 6143     		muls r1, r1, r4
 20578 986e 6A43     		muls r2, r2, r5
 20579 9870 6B43     		muls r3, r3, r5
 20580 9872 8011     		asrs r0, r0, # 6
 20581 9874 8911     		asrs r1, r1, # 6
 20582 9876 9211     		asrs r2, r2, # 6
 20583 9878 9B11     		asrs r3, r3, # 6
 20584 987a 8018     		adds r0, r0, r2         @r
 20585 987c C918     		adds r1, r1, r3         @i
 20586 987e 3618     		adds r6, r6, r0
 20587 9880 7F18     		adds r7, r7, r1
 20588              	
 20589 9882 DD46     		mov sp, r11
 20590 9884 0FBC     		pop {r0-r3}
 20591 9886 EB46     		mov r11, sp
 20592 9888 D546     		mov sp, r10
 20593 988a 10BC     		pop {r4}
 20594 988c EA46     		mov r10, sp
 20595 988e 2546     		mov r5, r4
 20596 9890 2404     		lsls r4, r4, # 16
 20597 9892 240C     		lsrs r4, r4, # 16
 20598 9894 2D0C     		lsrs r5, r5, # 16
 20599 9896 6043     		muls r0, r0, r4
 20600 9898 6143     		muls r1, r1, r4
 20601 989a 6A43     		muls r2, r2, r5
 20602 989c 6B43     		muls r3, r3, r5
 20603 989e 8011     		asrs r0, r0, # 6
 20604 98a0 8911     		asrs r1, r1, # 6
 20605 98a2 9211     		asrs r2, r2, # 6
 20606 98a4 9B11     		asrs r3, r3, # 6
 20607 98a6 8018     		adds r0, r0, r2  @r
 20608 98a8 C918     		adds r1, r1, r3  @i
 20609 98aa 3618     		adds r6, r6, r0
 20610 98ac 7F18     		adds r7, r7, r1
 20611              	
 20612 98ae DD46     		mov sp, r11
ARM GAS  1.s 			page 363


 20613 98b0 0FBC     		pop {r0-r3}
 20614 98b2 EB46     		mov r11, sp
 20615 98b4 D546     		mov sp, r10
 20616 98b6 10BC     		pop {r4}
 20617 98b8 EA46     		mov r10, sp
 20618 98ba 2546     		mov r5, r4
 20619 98bc 2404     		lsls r4, r4, # 16
 20620 98be 240C     		lsrs r4, r4, # 16
 20621 98c0 2D0C     		lsrs r5, r5, # 16
 20622 98c2 6043     		muls r0, r0, r4
 20623 98c4 6143     		muls r1, r1, r4
 20624 98c6 6A43     		muls r2, r2, r5
 20625 98c8 6B43     		muls r3, r3, r5
 20626 98ca 8011     		asrs r0, r0, # 6
 20627 98cc 8911     		asrs r1, r1, # 6
 20628 98ce 9211     		asrs r2, r2, # 6
 20629 98d0 9B11     		asrs r3, r3, # 6
 20630 98d2 8018     		adds r0, r0, r2         @r
 20631 98d4 C918     		adds r1, r1, r3         @i
 20632 98d6 3618     		adds r6, r6, r0
 20633 98d8 7F18     		adds r7, r7, r1
 20634              	
 20635              		@6
 20636 98da DD46     		mov sp, r11
 20637 98dc 0FBC     		pop {r0-r3}
 20638 98de EB46     		mov r11, sp
 20639 98e0 D546     		mov sp, r10
 20640 98e2 10BC     		pop {r4}
 20641 98e4 EA46     		mov r10, sp
 20642 98e6 2546     		mov r5, r4
 20643 98e8 2404     		lsls r4, r4, # 16
 20644 98ea 240C     		lsrs r4, r4, # 16
 20645 98ec 2D0C     		lsrs r5, r5, # 16
 20646 98ee 6043     		muls r0, r0, r4		@R
 20647 98f0 6143     		muls r1, r1, r4		@I
 20648 98f2 6A43     		muls r2, r2, r5		@R
 20649 98f4 6B43     		muls r3, r3, r5		@I
 20650 98f6 8011     		asrs r0, r0, # 6
 20651 98f8 8911     		asrs r1, r1, # 6
 20652 98fa 9211     		asrs r2, r2, # 6
 20653 98fc 9B11     		asrs r3, r3, # 6
 20654 98fe 8018     		adds r0, r0, r2	 @r
 20655 9900 C918     		adds r1, r1, r3	 @i
 20656 9902 3618     		adds r6, r6, r0
 20657 9904 7F18     		adds r7, r7, r1
 20658              	
 20659 9906 DD46     		mov sp, r11
 20660 9908 0FBC     		pop {r0-r3}
 20661 990a EB46     		mov r11, sp
 20662 990c D546     		mov sp, r10
 20663 990e 10BC     		pop {r4}
 20664 9910 EA46     		mov r10, sp
 20665 9912 2546     		mov r5, r4
 20666 9914 2404     		lsls r4, r4, # 16
 20667 9916 240C     		lsrs r4, r4, # 16
 20668 9918 2D0C     		lsrs r5, r5, # 16
 20669 991a 6043     		muls r0, r0, r4
ARM GAS  1.s 			page 364


 20670 991c 6143     		muls r1, r1, r4
 20671 991e 6A43     		muls r2, r2, r5
 20672 9920 6B43     		muls r3, r3, r5
 20673 9922 8011     		asrs r0, r0, # 6
 20674 9924 8911     		asrs r1, r1, # 6
 20675 9926 9211     		asrs r2, r2, # 6
 20676 9928 9B11     		asrs r3, r3, # 6
 20677 992a 8018     		adds r0, r0, r2         @r
 20678 992c C918     		adds r1, r1, r3         @i
 20679 992e 3618     		adds r6, r6, r0
 20680 9930 7F18     		adds r7, r7, r1
 20681              	
 20682 9932 DD46     		mov sp, r11
 20683 9934 0FBC     		pop {r0-r3}
 20684 9936 EB46     		mov r11, sp
 20685 9938 D546     		mov sp, r10
 20686 993a 10BC     		pop {r4}
 20687 993c EA46     		mov r10, sp
 20688 993e 2546     		mov r5, r4
 20689 9940 2404     		lsls r4, r4, # 16
 20690 9942 240C     		lsrs r4, r4, # 16
 20691 9944 2D0C     		lsrs r5, r5, # 16
 20692 9946 6043     		muls r0, r0, r4
 20693 9948 6143     		muls r1, r1, r4
 20694 994a 6A43     		muls r2, r2, r5
 20695 994c 6B43     		muls r3, r3, r5
 20696 994e 8011     		asrs r0, r0, # 6
 20697 9950 8911     		asrs r1, r1, # 6
 20698 9952 9211     		asrs r2, r2, # 6
 20699 9954 9B11     		asrs r3, r3, # 6
 20700 9956 8018     		adds r0, r0, r2  @r
 20701 9958 C918     		adds r1, r1, r3  @i
 20702 995a 3618     		adds r6, r6, r0
 20703 995c 7F18     		adds r7, r7, r1
 20704              	
 20705 995e DD46     		mov sp, r11
 20706 9960 0FBC     		pop {r0-r3}
 20707 9962 EB46     		mov r11, sp
 20708 9964 D546     		mov sp, r10
 20709 9966 10BC     		pop {r4}
 20710 9968 EA46     		mov r10, sp
 20711 996a 2546     		mov r5, r4
 20712 996c 2404     		lsls r4, r4, # 16
 20713 996e 240C     		lsrs r4, r4, # 16
 20714 9970 2D0C     		lsrs r5, r5, # 16
 20715 9972 6043     		muls r0, r0, r4
 20716 9974 6143     		muls r1, r1, r4
 20717 9976 6A43     		muls r2, r2, r5
 20718 9978 6B43     		muls r3, r3, r5
 20719 997a 8011     		asrs r0, r0, # 6
 20720 997c 8911     		asrs r1, r1, # 6
 20721 997e 9211     		asrs r2, r2, # 6
 20722 9980 9B11     		asrs r3, r3, # 6
 20723 9982 8018     		adds r0, r0, r2         @r
 20724 9984 C918     		adds r1, r1, r3         @i
 20725 9986 3618     		adds r6, r6, r0
 20726 9988 7F18     		adds r7, r7, r1
ARM GAS  1.s 			page 365


 20727              	
 20728              		@7
 20729 998a DD46     		mov sp, r11
 20730 998c 0FBC     		pop {r0-r3}
 20731 998e EB46     		mov r11, sp
 20732 9990 D546     		mov sp, r10
 20733 9992 10BC     		pop {r4}
 20734 9994 EA46     		mov r10, sp
 20735 9996 2546     		mov r5, r4
 20736 9998 2404     		lsls r4, r4, # 16
 20737 999a 240C     		lsrs r4, r4, # 16
 20738 999c 2D0C     		lsrs r5, r5, # 16
 20739 999e 6043     		muls r0, r0, r4		@R
 20740 99a0 6143     		muls r1, r1, r4		@I
 20741 99a2 6A43     		muls r2, r2, r5		@R
 20742 99a4 6B43     		muls r3, r3, r5		@I
 20743 99a6 8011     		asrs r0, r0, # 6
 20744 99a8 8911     		asrs r1, r1, # 6
 20745 99aa 9211     		asrs r2, r2, # 6
 20746 99ac 9B11     		asrs r3, r3, # 6
 20747 99ae 8018     		adds r0, r0, r2	 @r
 20748 99b0 C918     		adds r1, r1, r3	 @i
 20749 99b2 3618     		adds r6, r6, r0
 20750 99b4 7F18     		adds r7, r7, r1
 20751              	
 20752 99b6 DD46     		mov sp, r11
 20753 99b8 0FBC     		pop {r0-r3}
 20754 99ba EB46     		mov r11, sp
 20755 99bc D546     		mov sp, r10
 20756 99be 10BC     		pop {r4}
 20757 99c0 EA46     		mov r10, sp
 20758 99c2 2546     		mov r5, r4
 20759 99c4 2404     		lsls r4, r4, # 16
 20760 99c6 240C     		lsrs r4, r4, # 16
 20761 99c8 2D0C     		lsrs r5, r5, # 16
 20762 99ca 6043     		muls r0, r0, r4
 20763 99cc 6143     		muls r1, r1, r4
 20764 99ce 6A43     		muls r2, r2, r5
 20765 99d0 6B43     		muls r3, r3, r5
 20766 99d2 8011     		asrs r0, r0, # 6
 20767 99d4 8911     		asrs r1, r1, # 6
 20768 99d6 9211     		asrs r2, r2, # 6
 20769 99d8 9B11     		asrs r3, r3, # 6
 20770 99da 8018     		adds r0, r0, r2         @r
 20771 99dc C918     		adds r1, r1, r3         @i
 20772 99de 3618     		adds r6, r6, r0
 20773 99e0 7F18     		adds r7, r7, r1
 20774              	
 20775 99e2 DD46     		mov sp, r11
 20776 99e4 0FBC     		pop {r0-r3}
 20777 99e6 EB46     		mov r11, sp
 20778 99e8 D546     		mov sp, r10
 20779 99ea 10BC     		pop {r4}
 20780 99ec EA46     		mov r10, sp
 20781 99ee 2546     		mov r5, r4
 20782 99f0 2404     		lsls r4, r4, # 16
 20783 99f2 240C     		lsrs r4, r4, # 16
ARM GAS  1.s 			page 366


 20784 99f4 2D0C     		lsrs r5, r5, # 16
 20785 99f6 6043     		muls r0, r0, r4
 20786 99f8 6143     		muls r1, r1, r4
 20787 99fa 6A43     		muls r2, r2, r5
 20788 99fc 6B43     		muls r3, r3, r5
 20789 99fe 8011     		asrs r0, r0, # 6
 20790 9a00 8911     		asrs r1, r1, # 6
 20791 9a02 9211     		asrs r2, r2, # 6
 20792 9a04 9B11     		asrs r3, r3, # 6
 20793 9a06 8018     		adds r0, r0, r2  @r
 20794 9a08 C918     		adds r1, r1, r3  @i
 20795 9a0a 3618     		adds r6, r6, r0
 20796 9a0c 7F18     		adds r7, r7, r1
 20797              	
 20798 9a0e DD46     		mov sp, r11
 20799 9a10 0FBC     		pop {r0-r3}
 20800 9a12 EB46     		mov r11, sp
 20801 9a14 D546     		mov sp, r10
 20802 9a16 10BC     		pop {r4}
 20803 9a18 EA46     		mov r10, sp
 20804 9a1a 2546     		mov r5, r4
 20805 9a1c 2404     		lsls r4, r4, # 16
 20806 9a1e 240C     		lsrs r4, r4, # 16
 20807 9a20 2D0C     		lsrs r5, r5, # 16
 20808 9a22 6043     		muls r0, r0, r4
 20809 9a24 6143     		muls r1, r1, r4
 20810 9a26 6A43     		muls r2, r2, r5
 20811 9a28 6B43     		muls r3, r3, r5
 20812 9a2a 8011     		asrs r0, r0, # 6
 20813 9a2c 8911     		asrs r1, r1, # 6
 20814 9a2e 9211     		asrs r2, r2, # 6
 20815 9a30 9B11     		asrs r3, r3, # 6
 20816 9a32 8018     		adds r0, r0, r2         @r
 20817 9a34 C918     		adds r1, r1, r3         @i
 20818 9a36 3618     		adds r6, r6, r0
 20819 9a38 7F18     		adds r7, r7, r1
 20820              	
 20821              		@8
 20822 9a3a DD46     		mov sp, r11
 20823 9a3c 0FBC     		pop {r0-r3}
 20824 9a3e EB46     		mov r11, sp
 20825 9a40 D546     		mov sp, r10
 20826 9a42 10BC     		pop {r4}
 20827 9a44 EA46     		mov r10, sp
 20828 9a46 2546     		mov r5, r4
 20829 9a48 2404     		lsls r4, r4, # 16
 20830 9a4a 240C     		lsrs r4, r4, # 16
 20831 9a4c 2D0C     		lsrs r5, r5, # 16
 20832 9a4e 6043     		muls r0, r0, r4		@R
 20833 9a50 6143     		muls r1, r1, r4		@I
 20834 9a52 6A43     		muls r2, r2, r5		@R
 20835 9a54 6B43     		muls r3, r3, r5		@I
 20836 9a56 8011     		asrs r0, r0, # 6
 20837 9a58 8911     		asrs r1, r1, # 6
 20838 9a5a 9211     		asrs r2, r2, # 6
 20839 9a5c 9B11     		asrs r3, r3, # 6
 20840 9a5e 8018     		adds r0, r0, r2	 @r
ARM GAS  1.s 			page 367


 20841 9a60 C918     		adds r1, r1, r3	 @i
 20842 9a62 3618     		adds r6, r6, r0
 20843 9a64 7F18     		adds r7, r7, r1
 20844              	
 20845 9a66 DD46     		mov sp, r11
 20846 9a68 0FBC     		pop {r0-r3}
 20847 9a6a EB46     		mov r11, sp
 20848 9a6c D546     		mov sp, r10
 20849 9a6e 10BC     		pop {r4}
 20850 9a70 EA46     		mov r10, sp
 20851 9a72 2546     		mov r5, r4
 20852 9a74 2404     		lsls r4, r4, # 16
 20853 9a76 240C     		lsrs r4, r4, # 16
 20854 9a78 2D0C     		lsrs r5, r5, # 16
 20855 9a7a 6043     		muls r0, r0, r4
 20856 9a7c 6143     		muls r1, r1, r4
 20857 9a7e 6A43     		muls r2, r2, r5
 20858 9a80 6B43     		muls r3, r3, r5
 20859 9a82 8011     		asrs r0, r0, # 6
 20860 9a84 8911     		asrs r1, r1, # 6
 20861 9a86 9211     		asrs r2, r2, # 6
 20862 9a88 9B11     		asrs r3, r3, # 6
 20863 9a8a 8018     		adds r0, r0, r2         @r
 20864 9a8c C918     		adds r1, r1, r3         @i
 20865 9a8e 3618     		adds r6, r6, r0
 20866 9a90 7F18     		adds r7, r7, r1
 20867              	
 20868 9a92 DD46     		mov sp, r11
 20869 9a94 0FBC     		pop {r0-r3}
 20870 9a96 EB46     		mov r11, sp
 20871 9a98 D546     		mov sp, r10
 20872 9a9a 10BC     		pop {r4}
 20873 9a9c EA46     		mov r10, sp
 20874 9a9e 2546     		mov r5, r4
 20875 9aa0 2404     		lsls r4, r4, # 16
 20876 9aa2 240C     		lsrs r4, r4, # 16
 20877 9aa4 2D0C     		lsrs r5, r5, # 16
 20878 9aa6 6043     		muls r0, r0, r4
 20879 9aa8 6143     		muls r1, r1, r4
 20880 9aaa 6A43     		muls r2, r2, r5
 20881 9aac 6B43     		muls r3, r3, r5
 20882 9aae 8011     		asrs r0, r0, # 6
 20883 9ab0 8911     		asrs r1, r1, # 6
 20884 9ab2 9211     		asrs r2, r2, # 6
 20885 9ab4 9B11     		asrs r3, r3, # 6
 20886 9ab6 8018     		adds r0, r0, r2  @r
 20887 9ab8 C918     		adds r1, r1, r3  @i
 20888 9aba 3618     		adds r6, r6, r0
 20889 9abc 7F18     		adds r7, r7, r1
 20890              	
 20891 9abe DD46     		mov sp, r11
 20892 9ac0 0FBC     		pop {r0-r3}
 20893 9ac2 EB46     		mov r11, sp
 20894 9ac4 D546     		mov sp, r10
 20895 9ac6 10BC     		pop {r4}
 20896 9ac8 EA46     		mov r10, sp
 20897 9aca 2546     		mov r5, r4
ARM GAS  1.s 			page 368


 20898 9acc 2404     		lsls r4, r4, # 16
 20899 9ace 240C     		lsrs r4, r4, # 16
 20900 9ad0 2D0C     		lsrs r5, r5, # 16
 20901 9ad2 6043     		muls r0, r0, r4
 20902 9ad4 6143     		muls r1, r1, r4
 20903 9ad6 6A43     		muls r2, r2, r5
 20904 9ad8 6B43     		muls r3, r3, r5
 20905 9ada 8011     		asrs r0, r0, # 6
 20906 9adc 8911     		asrs r1, r1, # 6
 20907 9ade 9211     		asrs r2, r2, # 6
 20908 9ae0 9B11     		asrs r3, r3, # 6
 20909 9ae2 8018     		adds r0, r0, r2         @r
 20910 9ae4 C918     		adds r1, r1, r3         @i
 20911 9ae6 3618     		adds r6, r6, r0
 20912 9ae8 7F18     		adds r7, r7, r1
 20913              	
 20914              		@9
 20915 9aea DD46     		mov sp, r11
 20916 9aec 0FBC     		pop {r0-r3}
 20917 9aee EB46     		mov r11, sp
 20918 9af0 D546     		mov sp, r10
 20919 9af2 10BC     		pop {r4}
 20920 9af4 EA46     		mov r10, sp
 20921 9af6 2546     		mov r5, r4
 20922 9af8 2404     		lsls r4, r4, # 16
 20923 9afa 240C     		lsrs r4, r4, # 16
 20924 9afc 2D0C     		lsrs r5, r5, # 16
 20925 9afe 6043     		muls r0, r0, r4		@R
 20926 9b00 6143     		muls r1, r1, r4		@I
 20927 9b02 6A43     		muls r2, r2, r5		@R
 20928 9b04 6B43     		muls r3, r3, r5		@I
 20929 9b06 8011     		asrs r0, r0, # 6
 20930 9b08 8911     		asrs r1, r1, # 6
 20931 9b0a 9211     		asrs r2, r2, # 6
 20932 9b0c 9B11     		asrs r3, r3, # 6
 20933 9b0e 8018     		adds r0, r0, r2	 @r
 20934 9b10 C918     		adds r1, r1, r3	 @i
 20935 9b12 3618     		adds r6, r6, r0
 20936 9b14 7F18     		adds r7, r7, r1
 20937              	
 20938 9b16 DD46     		mov sp, r11
 20939 9b18 0FBC     		pop {r0-r3}
 20940 9b1a EB46     		mov r11, sp
 20941 9b1c D546     		mov sp, r10
 20942 9b1e 10BC     		pop {r4}
 20943 9b20 EA46     		mov r10, sp
 20944 9b22 2546     		mov r5, r4
 20945 9b24 2404     		lsls r4, r4, # 16
 20946 9b26 240C     		lsrs r4, r4, # 16
 20947 9b28 2D0C     		lsrs r5, r5, # 16
 20948 9b2a 6043     		muls r0, r0, r4
 20949 9b2c 6143     		muls r1, r1, r4
 20950 9b2e 6A43     		muls r2, r2, r5
 20951 9b30 6B43     		muls r3, r3, r5
 20952 9b32 8011     		asrs r0, r0, # 6
 20953 9b34 8911     		asrs r1, r1, # 6
 20954 9b36 9211     		asrs r2, r2, # 6
ARM GAS  1.s 			page 369


 20955 9b38 9B11     		asrs r3, r3, # 6
 20956 9b3a 8018     		adds r0, r0, r2         @r
 20957 9b3c C918     		adds r1, r1, r3         @i
 20958 9b3e 3618     		adds r6, r6, r0
 20959 9b40 7F18     		adds r7, r7, r1
 20960              	
 20961 9b42 DD46     		mov sp, r11
 20962 9b44 0FBC     		pop {r0-r3}
 20963 9b46 EB46     		mov r11, sp
 20964 9b48 D546     		mov sp, r10
 20965 9b4a 10BC     		pop {r4}
 20966 9b4c EA46     		mov r10, sp
 20967 9b4e 2546     		mov r5, r4
 20968 9b50 2404     		lsls r4, r4, # 16
 20969 9b52 240C     		lsrs r4, r4, # 16
 20970 9b54 2D0C     		lsrs r5, r5, # 16
 20971 9b56 6043     		muls r0, r0, r4
 20972 9b58 6143     		muls r1, r1, r4
 20973 9b5a 6A43     		muls r2, r2, r5
 20974 9b5c 6B43     		muls r3, r3, r5
 20975 9b5e 8011     		asrs r0, r0, # 6
 20976 9b60 8911     		asrs r1, r1, # 6
 20977 9b62 9211     		asrs r2, r2, # 6
 20978 9b64 9B11     		asrs r3, r3, # 6
 20979 9b66 8018     		adds r0, r0, r2  @r
 20980 9b68 C918     		adds r1, r1, r3  @i
 20981 9b6a 3618     		adds r6, r6, r0
 20982 9b6c 7F18     		adds r7, r7, r1
 20983              	
 20984 9b6e DD46     		mov sp, r11
 20985 9b70 0FBC     		pop {r0-r3}
 20986 9b72 EB46     		mov r11, sp
 20987 9b74 D546     		mov sp, r10
 20988 9b76 10BC     		pop {r4}
 20989 9b78 EA46     		mov r10, sp
 20990 9b7a 2546     		mov r5, r4
 20991 9b7c 2404     		lsls r4, r4, # 16
 20992 9b7e 240C     		lsrs r4, r4, # 16
 20993 9b80 2D0C     		lsrs r5, r5, # 16
 20994 9b82 6043     		muls r0, r0, r4
 20995 9b84 6143     		muls r1, r1, r4
 20996 9b86 6A43     		muls r2, r2, r5
 20997 9b88 6B43     		muls r3, r3, r5
 20998 9b8a 8011     		asrs r0, r0, # 6
 20999 9b8c 8911     		asrs r1, r1, # 6
 21000 9b8e 9211     		asrs r2, r2, # 6
 21001 9b90 9B11     		asrs r3, r3, # 6
 21002 9b92 8018     		adds r0, r0, r2         @r
 21003 9b94 C918     		adds r1, r1, r3         @i
 21004 9b96 3618     		adds r6, r6, r0
 21005 9b98 7F18     		adds r7, r7, r1
 21006              	
 21007              		@yjm21
 21008              		@0
 21009 9b9a DD46     		mov sp, r11
 21010 9b9c 0FBC     		pop {r0-r3}
 21011 9b9e EB46     		mov r11, sp
ARM GAS  1.s 			page 370


 21012 9ba0 D546     		mov sp, r10
 21013 9ba2 10BC     		pop {r4}
 21014 9ba4 EA46     		mov r10, sp
 21015 9ba6 2546     		mov r5, r4
 21016 9ba8 2404     		lsls r4, r4, # 16
 21017 9baa 240C     		lsrs r4, r4, # 16
 21018 9bac 2D0C     		lsrs r5, r5, # 16
 21019 9bae 6043     		muls r0, r0, r4		@R
 21020 9bb0 6143     		muls r1, r1, r4		@I
 21021 9bb2 6A43     		muls r2, r2, r5		@R
 21022 9bb4 6B43     		muls r3, r3, r5		@I
 21023 9bb6 8011     		asrs r0, r0, # 6
 21024 9bb8 8911     		asrs r1, r1, # 6
 21025 9bba 9211     		asrs r2, r2, # 6
 21026 9bbc 9B11     		asrs r3, r3, # 6
 21027 9bbe 8018     		adds r0, r0, r2	 @r
 21028 9bc0 C918     		adds r1, r1, r3	 @i
 21029 9bc2 3618     		adds r6, r6, r0
 21030 9bc4 7F18     		adds r7, r7, r1
 21031              	
 21032 9bc6 DD46     		mov sp, r11
 21033 9bc8 0FBC     		pop {r0-r3}
 21034 9bca EB46     		mov r11, sp
 21035 9bcc D546     		mov sp, r10
 21036 9bce 10BC     		pop {r4}
 21037 9bd0 EA46     		mov r10, sp
 21038 9bd2 2546     		mov r5, r4
 21039 9bd4 2404     		lsls r4, r4, # 16
 21040 9bd6 240C     		lsrs r4, r4, # 16
 21041 9bd8 2D0C     		lsrs r5, r5, # 16
 21042 9bda 6043     		muls r0, r0, r4
 21043 9bdc 6143     		muls r1, r1, r4
 21044 9bde 6A43     		muls r2, r2, r5
 21045 9be0 6B43     		muls r3, r3, r5
 21046 9be2 8011     		asrs r0, r0, # 6
 21047 9be4 8911     		asrs r1, r1, # 6
 21048 9be6 9211     		asrs r2, r2, # 6
 21049 9be8 9B11     		asrs r3, r3, # 6
 21050 9bea 8018     		adds r0, r0, r2         @r
 21051 9bec C918     		adds r1, r1, r3         @i
 21052 9bee 3618     		adds r6, r6, r0
 21053 9bf0 7F18     		adds r7, r7, r1
 21054              	
 21055 9bf2 DD46     		mov sp, r11
 21056 9bf4 0FBC     		pop {r0-r3}
 21057 9bf6 EB46     		mov r11, sp
 21058 9bf8 D546     		mov sp, r10
 21059 9bfa 10BC     		pop {r4}
 21060 9bfc EA46     		mov r10, sp
 21061 9bfe 2546     		mov r5, r4
 21062 9c00 2404     		lsls r4, r4, # 16
 21063 9c02 240C     		lsrs r4, r4, # 16
 21064 9c04 2D0C     		lsrs r5, r5, # 16
 21065 9c06 6043     		muls r0, r0, r4
 21066 9c08 6143     		muls r1, r1, r4
 21067 9c0a 6A43     		muls r2, r2, r5
 21068 9c0c 6B43     		muls r3, r3, r5
ARM GAS  1.s 			page 371


 21069 9c0e 8011     		asrs r0, r0, # 6
 21070 9c10 8911     		asrs r1, r1, # 6
 21071 9c12 9211     		asrs r2, r2, # 6
 21072 9c14 9B11     		asrs r3, r3, # 6
 21073 9c16 8018     		adds r0, r0, r2  @r
 21074 9c18 C918     		adds r1, r1, r3  @i
 21075 9c1a 3618     		adds r6, r6, r0
 21076 9c1c 7F18     		adds r7, r7, r1
 21077              	
 21078 9c1e DD46     		mov sp, r11
 21079 9c20 0FBC     		pop {r0-r3}
 21080 9c22 EB46     		mov r11, sp
 21081 9c24 D546     		mov sp, r10
 21082 9c26 10BC     		pop {r4}
 21083 9c28 EA46     		mov r10, sp
 21084 9c2a 2546     		mov r5, r4
 21085 9c2c 2404     		lsls r4, r4, # 16
 21086 9c2e 240C     		lsrs r4, r4, # 16
 21087 9c30 2D0C     		lsrs r5, r5, # 16
 21088 9c32 6043     		muls r0, r0, r4
 21089 9c34 6143     		muls r1, r1, r4
 21090 9c36 6A43     		muls r2, r2, r5
 21091 9c38 6B43     		muls r3, r3, r5
 21092 9c3a 8011     		asrs r0, r0, # 6
 21093 9c3c 8911     		asrs r1, r1, # 6
 21094 9c3e 9211     		asrs r2, r2, # 6
 21095 9c40 9B11     		asrs r3, r3, # 6
 21096 9c42 8018     		adds r0, r0, r2         @r
 21097 9c44 C918     		adds r1, r1, r3         @i
 21098 9c46 3618     		adds r6, r6, r0
 21099 9c48 7F18     		adds r7, r7, r1
 21100              	
 21101              		@1
 21102 9c4a DD46     		mov sp, r11
 21103 9c4c 0FBC     		pop {r0-r3}
 21104 9c4e EB46     		mov r11, sp
 21105 9c50 D546     		mov sp, r10
 21106 9c52 10BC     		pop {r4}
 21107 9c54 EA46     		mov r10, sp
 21108 9c56 2546     		mov r5, r4
 21109 9c58 2404     		lsls r4, r4, # 16
 21110 9c5a 240C     		lsrs r4, r4, # 16
 21111 9c5c 2D0C     		lsrs r5, r5, # 16
 21112 9c5e 6043     		muls r0, r0, r4		@R
 21113 9c60 6143     		muls r1, r1, r4		@I
 21114 9c62 6A43     		muls r2, r2, r5		@R
 21115 9c64 6B43     		muls r3, r3, r5		@I
 21116 9c66 8011     		asrs r0, r0, # 6
 21117 9c68 8911     		asrs r1, r1, # 6
 21118 9c6a 9211     		asrs r2, r2, # 6
 21119 9c6c 9B11     		asrs r3, r3, # 6
 21120 9c6e 8018     		adds r0, r0, r2	 @r
 21121 9c70 C918     		adds r1, r1, r3	 @i
 21122 9c72 3618     		adds r6, r6, r0
 21123 9c74 7F18     		adds r7, r7, r1
 21124              	
 21125 9c76 DD46     		mov sp, r11
ARM GAS  1.s 			page 372


 21126 9c78 0FBC     		pop {r0-r3}
 21127 9c7a EB46     		mov r11, sp
 21128 9c7c D546     		mov sp, r10
 21129 9c7e 10BC     		pop {r4}
 21130 9c80 EA46     		mov r10, sp
 21131 9c82 2546     		mov r5, r4
 21132 9c84 2404     		lsls r4, r4, # 16
 21133 9c86 240C     		lsrs r4, r4, # 16
 21134 9c88 2D0C     		lsrs r5, r5, # 16
 21135 9c8a 6043     		muls r0, r0, r4
 21136 9c8c 6143     		muls r1, r1, r4
 21137 9c8e 6A43     		muls r2, r2, r5
 21138 9c90 6B43     		muls r3, r3, r5
 21139 9c92 8011     		asrs r0, r0, # 6
 21140 9c94 8911     		asrs r1, r1, # 6
 21141 9c96 9211     		asrs r2, r2, # 6
 21142 9c98 9B11     		asrs r3, r3, # 6
 21143 9c9a 8018     		adds r0, r0, r2         @r
 21144 9c9c C918     		adds r1, r1, r3         @i
 21145 9c9e 3618     		adds r6, r6, r0
 21146 9ca0 7F18     		adds r7, r7, r1
 21147              	
 21148 9ca2 DD46     		mov sp, r11
 21149 9ca4 0FBC     		pop {r0-r3}
 21150 9ca6 EB46     		mov r11, sp
 21151 9ca8 D546     		mov sp, r10
 21152 9caa 10BC     		pop {r4}
 21153 9cac EA46     		mov r10, sp
 21154 9cae 2546     		mov r5, r4
 21155 9cb0 2404     		lsls r4, r4, # 16
 21156 9cb2 240C     		lsrs r4, r4, # 16
 21157 9cb4 2D0C     		lsrs r5, r5, # 16
 21158 9cb6 6043     		muls r0, r0, r4
 21159 9cb8 6143     		muls r1, r1, r4
 21160 9cba 6A43     		muls r2, r2, r5
 21161 9cbc 6B43     		muls r3, r3, r5
 21162 9cbe 8011     		asrs r0, r0, # 6
 21163 9cc0 8911     		asrs r1, r1, # 6
 21164 9cc2 9211     		asrs r2, r2, # 6
 21165 9cc4 9B11     		asrs r3, r3, # 6
 21166 9cc6 8018     		adds r0, r0, r2  @r
 21167 9cc8 C918     		adds r1, r1, r3  @i
 21168 9cca 3618     		adds r6, r6, r0
 21169 9ccc 7F18     		adds r7, r7, r1
 21170              	
 21171 9cce DD46     		mov sp, r11
 21172 9cd0 0FBC     		pop {r0-r3}
 21173 9cd2 EB46     		mov r11, sp
 21174 9cd4 D546     		mov sp, r10
 21175 9cd6 10BC     		pop {r4}
 21176 9cd8 EA46     		mov r10, sp
 21177 9cda 2546     		mov r5, r4
 21178 9cdc 2404     		lsls r4, r4, # 16
 21179 9cde 240C     		lsrs r4, r4, # 16
 21180 9ce0 2D0C     		lsrs r5, r5, # 16
 21181 9ce2 6043     		muls r0, r0, r4
 21182 9ce4 6143     		muls r1, r1, r4
ARM GAS  1.s 			page 373


 21183 9ce6 6A43     		muls r2, r2, r5
 21184 9ce8 6B43     		muls r3, r3, r5
 21185 9cea 8011     		asrs r0, r0, # 6
 21186 9cec 8911     		asrs r1, r1, # 6
 21187 9cee 9211     		asrs r2, r2, # 6
 21188 9cf0 9B11     		asrs r3, r3, # 6
 21189 9cf2 8018     		adds r0, r0, r2         @r
 21190 9cf4 C918     		adds r1, r1, r3         @i
 21191 9cf6 3618     		adds r6, r6, r0
 21192 9cf8 7F18     		adds r7, r7, r1
 21193              	
 21194              		@2
 21195 9cfa DD46     		mov sp, r11
 21196 9cfc 0FBC     		pop {r0-r3}
 21197 9cfe EB46     		mov r11, sp
 21198 9d00 D546     		mov sp, r10
 21199 9d02 10BC     		pop {r4}
 21200 9d04 EA46     		mov r10, sp
 21201 9d06 2546     		mov r5, r4
 21202 9d08 2404     		lsls r4, r4, # 16
 21203 9d0a 240C     		lsrs r4, r4, # 16
 21204 9d0c 2D0C     		lsrs r5, r5, # 16
 21205 9d0e 6043     		muls r0, r0, r4		@R
 21206 9d10 6143     		muls r1, r1, r4		@I
 21207 9d12 6A43     		muls r2, r2, r5		@R
 21208 9d14 6B43     		muls r3, r3, r5		@I
 21209 9d16 8011     		asrs r0, r0, # 6
 21210 9d18 8911     		asrs r1, r1, # 6
 21211 9d1a 9211     		asrs r2, r2, # 6
 21212 9d1c 9B11     		asrs r3, r3, # 6
 21213 9d1e 8018     		adds r0, r0, r2	 @r
 21214 9d20 C918     		adds r1, r1, r3	 @i
 21215 9d22 3618     		adds r6, r6, r0
 21216 9d24 7F18     		adds r7, r7, r1
 21217              	
 21218 9d26 DD46     		mov sp, r11
 21219 9d28 0FBC     		pop {r0-r3}
 21220 9d2a EB46     		mov r11, sp
 21221 9d2c D546     		mov sp, r10
 21222 9d2e 10BC     		pop {r4}
 21223 9d30 EA46     		mov r10, sp
 21224 9d32 2546     		mov r5, r4
 21225 9d34 2404     		lsls r4, r4, # 16
 21226 9d36 240C     		lsrs r4, r4, # 16
 21227 9d38 2D0C     		lsrs r5, r5, # 16
 21228 9d3a 6043     		muls r0, r0, r4
 21229 9d3c 6143     		muls r1, r1, r4
 21230 9d3e 6A43     		muls r2, r2, r5
 21231 9d40 6B43     		muls r3, r3, r5
 21232 9d42 8011     		asrs r0, r0, # 6
 21233 9d44 8911     		asrs r1, r1, # 6
 21234 9d46 9211     		asrs r2, r2, # 6
 21235 9d48 9B11     		asrs r3, r3, # 6
 21236 9d4a 8018     		adds r0, r0, r2         @r
 21237 9d4c C918     		adds r1, r1, r3         @i
 21238 9d4e 3618     		adds r6, r6, r0
 21239 9d50 7F18     		adds r7, r7, r1
ARM GAS  1.s 			page 374


 21240              	
 21241 9d52 DD46     		mov sp, r11
 21242 9d54 0FBC     		pop {r0-r3}
 21243 9d56 EB46     		mov r11, sp
 21244 9d58 D546     		mov sp, r10
 21245 9d5a 10BC     		pop {r4}
 21246 9d5c EA46     		mov r10, sp
 21247 9d5e 2546     		mov r5, r4
 21248 9d60 2404     		lsls r4, r4, # 16
 21249 9d62 240C     		lsrs r4, r4, # 16
 21250 9d64 2D0C     		lsrs r5, r5, # 16
 21251 9d66 6043     		muls r0, r0, r4
 21252 9d68 6143     		muls r1, r1, r4
 21253 9d6a 6A43     		muls r2, r2, r5
 21254 9d6c 6B43     		muls r3, r3, r5
 21255 9d6e 8011     		asrs r0, r0, # 6
 21256 9d70 8911     		asrs r1, r1, # 6
 21257 9d72 9211     		asrs r2, r2, # 6
 21258 9d74 9B11     		asrs r3, r3, # 6
 21259 9d76 8018     		adds r0, r0, r2  @r
 21260 9d78 C918     		adds r1, r1, r3  @i
 21261 9d7a 3618     		adds r6, r6, r0
 21262 9d7c 7F18     		adds r7, r7, r1
 21263              	
 21264 9d7e DD46     		mov sp, r11
 21265 9d80 0FBC     		pop {r0-r3}
 21266 9d82 EB46     		mov r11, sp
 21267 9d84 D546     		mov sp, r10
 21268 9d86 10BC     		pop {r4}
 21269 9d88 EA46     		mov r10, sp
 21270 9d8a 2546     		mov r5, r4
 21271 9d8c 2404     		lsls r4, r4, # 16
 21272 9d8e 240C     		lsrs r4, r4, # 16
 21273 9d90 2D0C     		lsrs r5, r5, # 16
 21274 9d92 6043     		muls r0, r0, r4
 21275 9d94 6143     		muls r1, r1, r4
 21276 9d96 6A43     		muls r2, r2, r5
 21277 9d98 6B43     		muls r3, r3, r5
 21278 9d9a 8011     		asrs r0, r0, # 6
 21279 9d9c 8911     		asrs r1, r1, # 6
 21280 9d9e 9211     		asrs r2, r2, # 6
 21281 9da0 9B11     		asrs r3, r3, # 6
 21282 9da2 8018     		adds r0, r0, r2         @r
 21283 9da4 C918     		adds r1, r1, r3         @i
 21284 9da6 3618     		adds r6, r6, r0
 21285 9da8 7F18     		adds r7, r7, r1
 21286              	
 21287              		@3
 21288 9daa DD46     		mov sp, r11
 21289 9dac 0FBC     		pop {r0-r3}
 21290 9dae EB46     		mov r11, sp
 21291 9db0 D546     		mov sp, r10
 21292 9db2 10BC     		pop {r4}
 21293 9db4 EA46     		mov r10, sp
 21294 9db6 2546     		mov r5, r4
 21295 9db8 2404     		lsls r4, r4, # 16
 21296 9dba 240C     		lsrs r4, r4, # 16
ARM GAS  1.s 			page 375


 21297 9dbc 2D0C     		lsrs r5, r5, # 16
 21298 9dbe 6043     		muls r0, r0, r4		@R
 21299 9dc0 6143     		muls r1, r1, r4		@I
 21300 9dc2 6A43     		muls r2, r2, r5		@R
 21301 9dc4 6B43     		muls r3, r3, r5		@I
 21302 9dc6 8011     		asrs r0, r0, # 6
 21303 9dc8 8911     		asrs r1, r1, # 6
 21304 9dca 9211     		asrs r2, r2, # 6
 21305 9dcc 9B11     		asrs r3, r3, # 6
 21306 9dce 8018     		adds r0, r0, r2	 @r
 21307 9dd0 C918     		adds r1, r1, r3	 @i
 21308 9dd2 3618     		adds r6, r6, r0
 21309 9dd4 7F18     		adds r7, r7, r1
 21310              	
 21311 9dd6 DD46     		mov sp, r11
 21312 9dd8 0FBC     		pop {r0-r3}
 21313 9dda EB46     		mov r11, sp
 21314 9ddc D546     		mov sp, r10
 21315 9dde 10BC     		pop {r4}
 21316 9de0 EA46     		mov r10, sp
 21317 9de2 2546     		mov r5, r4
 21318 9de4 2404     		lsls r4, r4, # 16
 21319 9de6 240C     		lsrs r4, r4, # 16
 21320 9de8 2D0C     		lsrs r5, r5, # 16
 21321 9dea 6043     		muls r0, r0, r4
 21322 9dec 6143     		muls r1, r1, r4
 21323 9dee 6A43     		muls r2, r2, r5
 21324 9df0 6B43     		muls r3, r3, r5
 21325 9df2 8011     		asrs r0, r0, # 6
 21326 9df4 8911     		asrs r1, r1, # 6
 21327 9df6 9211     		asrs r2, r2, # 6
 21328 9df8 9B11     		asrs r3, r3, # 6
 21329 9dfa 8018     		adds r0, r0, r2         @r
 21330 9dfc C918     		adds r1, r1, r3         @i
 21331 9dfe 3618     		adds r6, r6, r0
 21332 9e00 7F18     		adds r7, r7, r1
 21333              	
 21334 9e02 DD46     		mov sp, r11
 21335 9e04 0FBC     		pop {r0-r3}
 21336 9e06 EB46     		mov r11, sp
 21337 9e08 D546     		mov sp, r10
 21338 9e0a 10BC     		pop {r4}
 21339 9e0c EA46     		mov r10, sp
 21340 9e0e 2546     		mov r5, r4
 21341 9e10 2404     		lsls r4, r4, # 16
 21342 9e12 240C     		lsrs r4, r4, # 16
 21343 9e14 2D0C     		lsrs r5, r5, # 16
 21344 9e16 6043     		muls r0, r0, r4
 21345 9e18 6143     		muls r1, r1, r4
 21346 9e1a 6A43     		muls r2, r2, r5
 21347 9e1c 6B43     		muls r3, r3, r5
 21348 9e1e 8011     		asrs r0, r0, # 6
 21349 9e20 8911     		asrs r1, r1, # 6
 21350 9e22 9211     		asrs r2, r2, # 6
 21351 9e24 9B11     		asrs r3, r3, # 6
 21352 9e26 8018     		adds r0, r0, r2  @r
 21353 9e28 C918     		adds r1, r1, r3  @i
ARM GAS  1.s 			page 376


 21354 9e2a 3618     		adds r6, r6, r0
 21355 9e2c 7F18     		adds r7, r7, r1
 21356              	
 21357 9e2e DD46     		mov sp, r11
 21358 9e30 0FBC     		pop {r0-r3}
 21359 9e32 EB46     		mov r11, sp
 21360 9e34 D546     		mov sp, r10
 21361 9e36 10BC     		pop {r4}
 21362 9e38 EA46     		mov r10, sp
 21363 9e3a 2546     		mov r5, r4
 21364 9e3c 2404     		lsls r4, r4, # 16
 21365 9e3e 240C     		lsrs r4, r4, # 16
 21366 9e40 2D0C     		lsrs r5, r5, # 16
 21367 9e42 6043     		muls r0, r0, r4
 21368 9e44 6143     		muls r1, r1, r4
 21369 9e46 6A43     		muls r2, r2, r5
 21370 9e48 6B43     		muls r3, r3, r5
 21371 9e4a 8011     		asrs r0, r0, # 6
 21372 9e4c 8911     		asrs r1, r1, # 6
 21373 9e4e 9211     		asrs r2, r2, # 6
 21374 9e50 9B11     		asrs r3, r3, # 6
 21375 9e52 8018     		adds r0, r0, r2         @r
 21376 9e54 C918     		adds r1, r1, r3         @i
 21377 9e56 3618     		adds r6, r6, r0
 21378 9e58 7F18     		adds r7, r7, r1
 21379              	
 21380              		@4
 21381 9e5a DD46     		mov sp, r11
 21382 9e5c 0FBC     		pop {r0-r3}
 21383 9e5e EB46     		mov r11, sp
 21384 9e60 D546     		mov sp, r10
 21385 9e62 10BC     		pop {r4}
 21386 9e64 EA46     		mov r10, sp
 21387 9e66 2546     		mov r5, r4
 21388 9e68 2404     		lsls r4, r4, # 16
 21389 9e6a 240C     		lsrs r4, r4, # 16
 21390 9e6c 2D0C     		lsrs r5, r5, # 16
 21391 9e6e 6043     		muls r0, r0, r4		@R
 21392 9e70 6143     		muls r1, r1, r4		@I
 21393 9e72 6A43     		muls r2, r2, r5		@R
 21394 9e74 6B43     		muls r3, r3, r5		@I
 21395 9e76 8011     		asrs r0, r0, # 6
 21396 9e78 8911     		asrs r1, r1, # 6
 21397 9e7a 9211     		asrs r2, r2, # 6
 21398 9e7c 9B11     		asrs r3, r3, # 6
 21399 9e7e 8018     		adds r0, r0, r2	 @r
 21400 9e80 C918     		adds r1, r1, r3	 @i
 21401 9e82 3618     		adds r6, r6, r0
 21402 9e84 7F18     		adds r7, r7, r1
 21403              	
 21404 9e86 DD46     		mov sp, r11
 21405 9e88 0FBC     		pop {r0-r3}
 21406 9e8a EB46     		mov r11, sp
 21407 9e8c D546     		mov sp, r10
 21408 9e8e 10BC     		pop {r4}
 21409 9e90 EA46     		mov r10, sp
 21410 9e92 2546     		mov r5, r4
ARM GAS  1.s 			page 377


 21411 9e94 2404     		lsls r4, r4, # 16
 21412 9e96 240C     		lsrs r4, r4, # 16
 21413 9e98 2D0C     		lsrs r5, r5, # 16
 21414 9e9a 6043     		muls r0, r0, r4
 21415 9e9c 6143     		muls r1, r1, r4
 21416 9e9e 6A43     		muls r2, r2, r5
 21417 9ea0 6B43     		muls r3, r3, r5
 21418 9ea2 8011     		asrs r0, r0, # 6
 21419 9ea4 8911     		asrs r1, r1, # 6
 21420 9ea6 9211     		asrs r2, r2, # 6
 21421 9ea8 9B11     		asrs r3, r3, # 6
 21422 9eaa 8018     		adds r0, r0, r2         @r
 21423 9eac C918     		adds r1, r1, r3         @i
 21424 9eae 3618     		adds r6, r6, r0
 21425 9eb0 7F18     		adds r7, r7, r1
 21426              	
 21427 9eb2 DD46     		mov sp, r11
 21428 9eb4 0FBC     		pop {r0-r3}
 21429 9eb6 EB46     		mov r11, sp
 21430 9eb8 D546     		mov sp, r10
 21431 9eba 10BC     		pop {r4}
 21432 9ebc EA46     		mov r10, sp
 21433 9ebe 2546     		mov r5, r4
 21434 9ec0 2404     		lsls r4, r4, # 16
 21435 9ec2 240C     		lsrs r4, r4, # 16
 21436 9ec4 2D0C     		lsrs r5, r5, # 16
 21437 9ec6 6043     		muls r0, r0, r4
 21438 9ec8 6143     		muls r1, r1, r4
 21439 9eca 6A43     		muls r2, r2, r5
 21440 9ecc 6B43     		muls r3, r3, r5
 21441 9ece 8011     		asrs r0, r0, # 6
 21442 9ed0 8911     		asrs r1, r1, # 6
 21443 9ed2 9211     		asrs r2, r2, # 6
 21444 9ed4 9B11     		asrs r3, r3, # 6
 21445 9ed6 8018     		adds r0, r0, r2  @r
 21446 9ed8 C918     		adds r1, r1, r3  @i
 21447 9eda 3618     		adds r6, r6, r0
 21448 9edc 7F18     		adds r7, r7, r1
 21449              	
 21450 9ede DD46     		mov sp, r11
 21451 9ee0 0FBC     		pop {r0-r3}
 21452 9ee2 EB46     		mov r11, sp
 21453 9ee4 D546     		mov sp, r10
 21454 9ee6 10BC     		pop {r4}
 21455 9ee8 EA46     		mov r10, sp
 21456 9eea 2546     		mov r5, r4
 21457 9eec 2404     		lsls r4, r4, # 16
 21458 9eee 240C     		lsrs r4, r4, # 16
 21459 9ef0 2D0C     		lsrs r5, r5, # 16
 21460 9ef2 6043     		muls r0, r0, r4
 21461 9ef4 6143     		muls r1, r1, r4
 21462 9ef6 6A43     		muls r2, r2, r5
 21463 9ef8 6B43     		muls r3, r3, r5
 21464 9efa 8011     		asrs r0, r0, # 6
 21465 9efc 8911     		asrs r1, r1, # 6
 21466 9efe 9211     		asrs r2, r2, # 6
 21467 9f00 9B11     		asrs r3, r3, # 6
ARM GAS  1.s 			page 378


 21468 9f02 8018     		adds r0, r0, r2         @r
 21469 9f04 C918     		adds r1, r1, r3         @i
 21470 9f06 3618     		adds r6, r6, r0
 21471 9f08 7F18     		adds r7, r7, r1
 21472              	
 21473              		@5
 21474 9f0a DD46     		mov sp, r11
 21475 9f0c 0FBC     		pop {r0-r3}
 21476 9f0e EB46     		mov r11, sp
 21477 9f10 D546     		mov sp, r10
 21478 9f12 10BC     		pop {r4}
 21479 9f14 EA46     		mov r10, sp
 21480 9f16 2546     		mov r5, r4
 21481 9f18 2404     		lsls r4, r4, # 16
 21482 9f1a 240C     		lsrs r4, r4, # 16
 21483 9f1c 2D0C     		lsrs r5, r5, # 16
 21484 9f1e 6043     		muls r0, r0, r4		@R
 21485 9f20 6143     		muls r1, r1, r4		@I
 21486 9f22 6A43     		muls r2, r2, r5		@R
 21487 9f24 6B43     		muls r3, r3, r5		@I
 21488 9f26 8011     		asrs r0, r0, # 6
 21489 9f28 8911     		asrs r1, r1, # 6
 21490 9f2a 9211     		asrs r2, r2, # 6
 21491 9f2c 9B11     		asrs r3, r3, # 6
 21492 9f2e 8018     		adds r0, r0, r2	 @r
 21493 9f30 C918     		adds r1, r1, r3	 @i
 21494 9f32 3618     		adds r6, r6, r0
 21495 9f34 7F18     		adds r7, r7, r1
 21496              	
 21497 9f36 DD46     		mov sp, r11
 21498 9f38 0FBC     		pop {r0-r3}
 21499 9f3a EB46     		mov r11, sp
 21500 9f3c D546     		mov sp, r10
 21501 9f3e 10BC     		pop {r4}
 21502 9f40 EA46     		mov r10, sp
 21503 9f42 2546     		mov r5, r4
 21504 9f44 2404     		lsls r4, r4, # 16
 21505 9f46 240C     		lsrs r4, r4, # 16
 21506 9f48 2D0C     		lsrs r5, r5, # 16
 21507 9f4a 6043     		muls r0, r0, r4
 21508 9f4c 6143     		muls r1, r1, r4
 21509 9f4e 6A43     		muls r2, r2, r5
 21510 9f50 6B43     		muls r3, r3, r5
 21511 9f52 8011     		asrs r0, r0, # 6
 21512 9f54 8911     		asrs r1, r1, # 6
 21513 9f56 9211     		asrs r2, r2, # 6
 21514 9f58 9B11     		asrs r3, r3, # 6
 21515 9f5a 8018     		adds r0, r0, r2         @r
 21516 9f5c C918     		adds r1, r1, r3         @i
 21517 9f5e 3618     		adds r6, r6, r0
 21518 9f60 7F18     		adds r7, r7, r1
 21519              	
 21520 9f62 DD46     		mov sp, r11
 21521 9f64 0FBC     		pop {r0-r3}
 21522 9f66 EB46     		mov r11, sp
 21523 9f68 D546     		mov sp, r10
 21524 9f6a 10BC     		pop {r4}
ARM GAS  1.s 			page 379


 21525 9f6c EA46     		mov r10, sp
 21526 9f6e 2546     		mov r5, r4
 21527 9f70 2404     		lsls r4, r4, # 16
 21528 9f72 240C     		lsrs r4, r4, # 16
 21529 9f74 2D0C     		lsrs r5, r5, # 16
 21530 9f76 6043     		muls r0, r0, r4
 21531 9f78 6143     		muls r1, r1, r4
 21532 9f7a 6A43     		muls r2, r2, r5
 21533 9f7c 6B43     		muls r3, r3, r5
 21534 9f7e 8011     		asrs r0, r0, # 6
 21535 9f80 8911     		asrs r1, r1, # 6
 21536 9f82 9211     		asrs r2, r2, # 6
 21537 9f84 9B11     		asrs r3, r3, # 6
 21538 9f86 8018     		adds r0, r0, r2  @r
 21539 9f88 C918     		adds r1, r1, r3  @i
 21540 9f8a 3618     		adds r6, r6, r0
 21541 9f8c 7F18     		adds r7, r7, r1
 21542              	
 21543 9f8e DD46     		mov sp, r11
 21544 9f90 0FBC     		pop {r0-r3}
 21545 9f92 EB46     		mov r11, sp
 21546 9f94 D546     		mov sp, r10
 21547 9f96 10BC     		pop {r4}
 21548 9f98 EA46     		mov r10, sp
 21549 9f9a 2546     		mov r5, r4
 21550 9f9c 2404     		lsls r4, r4, # 16
 21551 9f9e 240C     		lsrs r4, r4, # 16
 21552 9fa0 2D0C     		lsrs r5, r5, # 16
 21553 9fa2 6043     		muls r0, r0, r4
 21554 9fa4 6143     		muls r1, r1, r4
 21555 9fa6 6A43     		muls r2, r2, r5
 21556 9fa8 6B43     		muls r3, r3, r5
 21557 9faa 8011     		asrs r0, r0, # 6
 21558 9fac 8911     		asrs r1, r1, # 6
 21559 9fae 9211     		asrs r2, r2, # 6
 21560 9fb0 9B11     		asrs r3, r3, # 6
 21561 9fb2 8018     		adds r0, r0, r2         @r
 21562 9fb4 C918     		adds r1, r1, r3         @i
 21563 9fb6 3618     		adds r6, r6, r0
 21564 9fb8 7F18     		adds r7, r7, r1
 21565              	
 21566              		@6
 21567 9fba DD46     		mov sp, r11
 21568 9fbc 0FBC     		pop {r0-r3}
 21569 9fbe EB46     		mov r11, sp
 21570 9fc0 D546     		mov sp, r10
 21571 9fc2 10BC     		pop {r4}
 21572 9fc4 EA46     		mov r10, sp
 21573 9fc6 2546     		mov r5, r4
 21574 9fc8 2404     		lsls r4, r4, # 16
 21575 9fca 240C     		lsrs r4, r4, # 16
 21576 9fcc 2D0C     		lsrs r5, r5, # 16
 21577 9fce 6043     		muls r0, r0, r4		@R
 21578 9fd0 6143     		muls r1, r1, r4		@I
 21579 9fd2 6A43     		muls r2, r2, r5		@R
 21580 9fd4 6B43     		muls r3, r3, r5		@I
 21581 9fd6 8011     		asrs r0, r0, # 6
ARM GAS  1.s 			page 380


 21582 9fd8 8911     		asrs r1, r1, # 6
 21583 9fda 9211     		asrs r2, r2, # 6
 21584 9fdc 9B11     		asrs r3, r3, # 6
 21585 9fde 8018     		adds r0, r0, r2	 @r
 21586 9fe0 C918     		adds r1, r1, r3	 @i
 21587 9fe2 3618     		adds r6, r6, r0
 21588 9fe4 7F18     		adds r7, r7, r1
 21589              	
 21590 9fe6 DD46     		mov sp, r11
 21591 9fe8 0FBC     		pop {r0-r3}
 21592 9fea EB46     		mov r11, sp
 21593 9fec D546     		mov sp, r10
 21594 9fee 10BC     		pop {r4}
 21595 9ff0 EA46     		mov r10, sp
 21596 9ff2 2546     		mov r5, r4
 21597 9ff4 2404     		lsls r4, r4, # 16
 21598 9ff6 240C     		lsrs r4, r4, # 16
 21599 9ff8 2D0C     		lsrs r5, r5, # 16
 21600 9ffa 6043     		muls r0, r0, r4
 21601 9ffc 6143     		muls r1, r1, r4
 21602 9ffe 6A43     		muls r2, r2, r5
 21603 a000 6B43     		muls r3, r3, r5
 21604 a002 8011     		asrs r0, r0, # 6
 21605 a004 8911     		asrs r1, r1, # 6
 21606 a006 9211     		asrs r2, r2, # 6
 21607 a008 9B11     		asrs r3, r3, # 6
 21608 a00a 8018     		adds r0, r0, r2         @r
 21609 a00c C918     		adds r1, r1, r3         @i
 21610 a00e 3618     		adds r6, r6, r0
 21611 a010 7F18     		adds r7, r7, r1
 21612              	
 21613 a012 DD46     		mov sp, r11
 21614 a014 0FBC     		pop {r0-r3}
 21615 a016 EB46     		mov r11, sp
 21616 a018 D546     		mov sp, r10
 21617 a01a 10BC     		pop {r4}
 21618 a01c EA46     		mov r10, sp
 21619 a01e 2546     		mov r5, r4
 21620 a020 2404     		lsls r4, r4, # 16
 21621 a022 240C     		lsrs r4, r4, # 16
 21622 a024 2D0C     		lsrs r5, r5, # 16
 21623 a026 6043     		muls r0, r0, r4
 21624 a028 6143     		muls r1, r1, r4
 21625 a02a 6A43     		muls r2, r2, r5
 21626 a02c 6B43     		muls r3, r3, r5
 21627 a02e 8011     		asrs r0, r0, # 6
 21628 a030 8911     		asrs r1, r1, # 6
 21629 a032 9211     		asrs r2, r2, # 6
 21630 a034 9B11     		asrs r3, r3, # 6
 21631 a036 8018     		adds r0, r0, r2  @r
 21632 a038 C918     		adds r1, r1, r3  @i
 21633 a03a 3618     		adds r6, r6, r0
 21634 a03c 7F18     		adds r7, r7, r1
 21635              	
 21636 a03e DD46     		mov sp, r11
 21637 a040 0FBC     		pop {r0-r3}
 21638 a042 EB46     		mov r11, sp
ARM GAS  1.s 			page 381


 21639 a044 D546     		mov sp, r10
 21640 a046 10BC     		pop {r4}
 21641 a048 EA46     		mov r10, sp
 21642 a04a 2546     		mov r5, r4
 21643 a04c 2404     		lsls r4, r4, # 16
 21644 a04e 240C     		lsrs r4, r4, # 16
 21645 a050 2D0C     		lsrs r5, r5, # 16
 21646 a052 6043     		muls r0, r0, r4
 21647 a054 6143     		muls r1, r1, r4
 21648 a056 6A43     		muls r2, r2, r5
 21649 a058 6B43     		muls r3, r3, r5
 21650 a05a 8011     		asrs r0, r0, # 6
 21651 a05c 8911     		asrs r1, r1, # 6
 21652 a05e 9211     		asrs r2, r2, # 6
 21653 a060 9B11     		asrs r3, r3, # 6
 21654 a062 8018     		adds r0, r0, r2         @r
 21655 a064 C918     		adds r1, r1, r3         @i
 21656 a066 3618     		adds r6, r6, r0
 21657 a068 7F18     		adds r7, r7, r1
 21658              	
 21659              		@7
 21660 a06a DD46     		mov sp, r11
 21661 a06c 0FBC     		pop {r0-r3}
 21662 a06e EB46     		mov r11, sp
 21663 a070 D546     		mov sp, r10
 21664 a072 10BC     		pop {r4}
 21665 a074 EA46     		mov r10, sp
 21666 a076 2546     		mov r5, r4
 21667 a078 2404     		lsls r4, r4, # 16
 21668 a07a 240C     		lsrs r4, r4, # 16
 21669 a07c 2D0C     		lsrs r5, r5, # 16
 21670 a07e 6043     		muls r0, r0, r4		@R
 21671 a080 6143     		muls r1, r1, r4		@I
 21672 a082 6A43     		muls r2, r2, r5		@R
 21673 a084 6B43     		muls r3, r3, r5		@I
 21674 a086 8011     		asrs r0, r0, # 6
 21675 a088 8911     		asrs r1, r1, # 6
 21676 a08a 9211     		asrs r2, r2, # 6
 21677 a08c 9B11     		asrs r3, r3, # 6
 21678 a08e 8018     		adds r0, r0, r2	 @r
 21679 a090 C918     		adds r1, r1, r3	 @i
 21680 a092 3618     		adds r6, r6, r0
 21681 a094 7F18     		adds r7, r7, r1
 21682              	
 21683 a096 DD46     		mov sp, r11
 21684 a098 0FBC     		pop {r0-r3}
 21685 a09a EB46     		mov r11, sp
 21686 a09c D546     		mov sp, r10
 21687 a09e 10BC     		pop {r4}
 21688 a0a0 EA46     		mov r10, sp
 21689 a0a2 2546     		mov r5, r4
 21690 a0a4 2404     		lsls r4, r4, # 16
 21691 a0a6 240C     		lsrs r4, r4, # 16
 21692 a0a8 2D0C     		lsrs r5, r5, # 16
 21693 a0aa 6043     		muls r0, r0, r4
 21694 a0ac 6143     		muls r1, r1, r4
 21695 a0ae 6A43     		muls r2, r2, r5
ARM GAS  1.s 			page 382


 21696 a0b0 6B43     		muls r3, r3, r5
 21697 a0b2 8011     		asrs r0, r0, # 6
 21698 a0b4 8911     		asrs r1, r1, # 6
 21699 a0b6 9211     		asrs r2, r2, # 6
 21700 a0b8 9B11     		asrs r3, r3, # 6
 21701 a0ba 8018     		adds r0, r0, r2         @r
 21702 a0bc C918     		adds r1, r1, r3         @i
 21703 a0be 3618     		adds r6, r6, r0
 21704 a0c0 7F18     		adds r7, r7, r1
 21705              	
 21706 a0c2 DD46     		mov sp, r11
 21707 a0c4 0FBC     		pop {r0-r3}
 21708 a0c6 EB46     		mov r11, sp
 21709 a0c8 D546     		mov sp, r10
 21710 a0ca 10BC     		pop {r4}
 21711 a0cc EA46     		mov r10, sp
 21712 a0ce 2546     		mov r5, r4
 21713 a0d0 2404     		lsls r4, r4, # 16
 21714 a0d2 240C     		lsrs r4, r4, # 16
 21715 a0d4 2D0C     		lsrs r5, r5, # 16
 21716 a0d6 6043     		muls r0, r0, r4
 21717 a0d8 6143     		muls r1, r1, r4
 21718 a0da 6A43     		muls r2, r2, r5
 21719 a0dc 6B43     		muls r3, r3, r5
 21720 a0de 8011     		asrs r0, r0, # 6
 21721 a0e0 8911     		asrs r1, r1, # 6
 21722 a0e2 9211     		asrs r2, r2, # 6
 21723 a0e4 9B11     		asrs r3, r3, # 6
 21724 a0e6 8018     		adds r0, r0, r2  @r
 21725 a0e8 C918     		adds r1, r1, r3  @i
 21726 a0ea 3618     		adds r6, r6, r0
 21727 a0ec 7F18     		adds r7, r7, r1
 21728              	
 21729 a0ee DD46     		mov sp, r11
 21730 a0f0 0FBC     		pop {r0-r3}
 21731 a0f2 EB46     		mov r11, sp
 21732 a0f4 D546     		mov sp, r10
 21733 a0f6 10BC     		pop {r4}
 21734 a0f8 EA46     		mov r10, sp
 21735 a0fa 2546     		mov r5, r4
 21736 a0fc 2404     		lsls r4, r4, # 16
 21737 a0fe 240C     		lsrs r4, r4, # 16
 21738 a100 2D0C     		lsrs r5, r5, # 16
 21739 a102 6043     		muls r0, r0, r4
 21740 a104 6143     		muls r1, r1, r4
 21741 a106 6A43     		muls r2, r2, r5
 21742 a108 6B43     		muls r3, r3, r5
 21743 a10a 8011     		asrs r0, r0, # 6
 21744 a10c 8911     		asrs r1, r1, # 6
 21745 a10e 9211     		asrs r2, r2, # 6
 21746 a110 9B11     		asrs r3, r3, # 6
 21747 a112 8018     		adds r0, r0, r2         @r
 21748 a114 C918     		adds r1, r1, r3         @i
 21749 a116 3618     		adds r6, r6, r0
 21750 a118 7F18     		adds r7, r7, r1
 21751              	
 21752              		@8
ARM GAS  1.s 			page 383


 21753 a11a DD46     		mov sp, r11
 21754 a11c 0FBC     		pop {r0-r3}
 21755 a11e EB46     		mov r11, sp
 21756 a120 D546     		mov sp, r10
 21757 a122 10BC     		pop {r4}
 21758 a124 EA46     		mov r10, sp
 21759 a126 2546     		mov r5, r4
 21760 a128 2404     		lsls r4, r4, # 16
 21761 a12a 240C     		lsrs r4, r4, # 16
 21762 a12c 2D0C     		lsrs r5, r5, # 16
 21763 a12e 6043     		muls r0, r0, r4		@R
 21764 a130 6143     		muls r1, r1, r4		@I
 21765 a132 6A43     		muls r2, r2, r5		@R
 21766 a134 6B43     		muls r3, r3, r5		@I
 21767 a136 8011     		asrs r0, r0, # 6
 21768 a138 8911     		asrs r1, r1, # 6
 21769 a13a 9211     		asrs r2, r2, # 6
 21770 a13c 9B11     		asrs r3, r3, # 6
 21771 a13e 8018     		adds r0, r0, r2	 @r
 21772 a140 C918     		adds r1, r1, r3	 @i
 21773 a142 3618     		adds r6, r6, r0
 21774 a144 7F18     		adds r7, r7, r1
 21775              	
 21776 a146 DD46     		mov sp, r11
 21777 a148 0FBC     		pop {r0-r3}
 21778 a14a EB46     		mov r11, sp
 21779 a14c D546     		mov sp, r10
 21780 a14e 10BC     		pop {r4}
 21781 a150 EA46     		mov r10, sp
 21782 a152 2546     		mov r5, r4
 21783 a154 2404     		lsls r4, r4, # 16
 21784 a156 240C     		lsrs r4, r4, # 16
 21785 a158 2D0C     		lsrs r5, r5, # 16
 21786 a15a 6043     		muls r0, r0, r4
 21787 a15c 6143     		muls r1, r1, r4
 21788 a15e 6A43     		muls r2, r2, r5
 21789 a160 6B43     		muls r3, r3, r5
 21790 a162 8011     		asrs r0, r0, # 6
 21791 a164 8911     		asrs r1, r1, # 6
 21792 a166 9211     		asrs r2, r2, # 6
 21793 a168 9B11     		asrs r3, r3, # 6
 21794 a16a 8018     		adds r0, r0, r2         @r
 21795 a16c C918     		adds r1, r1, r3         @i
 21796 a16e 3618     		adds r6, r6, r0
 21797 a170 7F18     		adds r7, r7, r1
 21798              	
 21799 a172 DD46     		mov sp, r11
 21800 a174 0FBC     		pop {r0-r3}
 21801 a176 EB46     		mov r11, sp
 21802 a178 D546     		mov sp, r10
 21803 a17a 10BC     		pop {r4}
 21804 a17c EA46     		mov r10, sp
 21805 a17e 2546     		mov r5, r4
 21806 a180 2404     		lsls r4, r4, # 16
 21807 a182 240C     		lsrs r4, r4, # 16
 21808 a184 2D0C     		lsrs r5, r5, # 16
 21809 a186 6043     		muls r0, r0, r4
ARM GAS  1.s 			page 384


 21810 a188 6143     		muls r1, r1, r4
 21811 a18a 6A43     		muls r2, r2, r5
 21812 a18c 6B43     		muls r3, r3, r5
 21813 a18e 8011     		asrs r0, r0, # 6
 21814 a190 8911     		asrs r1, r1, # 6
 21815 a192 9211     		asrs r2, r2, # 6
 21816 a194 9B11     		asrs r3, r3, # 6
 21817 a196 8018     		adds r0, r0, r2  @r
 21818 a198 C918     		adds r1, r1, r3  @i
 21819 a19a 3618     		adds r6, r6, r0
 21820 a19c 7F18     		adds r7, r7, r1
 21821              	
 21822 a19e DD46     		mov sp, r11
 21823 a1a0 0FBC     		pop {r0-r3}
 21824 a1a2 EB46     		mov r11, sp
 21825 a1a4 D546     		mov sp, r10
 21826 a1a6 10BC     		pop {r4}
 21827 a1a8 EA46     		mov r10, sp
 21828 a1aa 2546     		mov r5, r4
 21829 a1ac 2404     		lsls r4, r4, # 16
 21830 a1ae 240C     		lsrs r4, r4, # 16
 21831 a1b0 2D0C     		lsrs r5, r5, # 16
 21832 a1b2 6043     		muls r0, r0, r4
 21833 a1b4 6143     		muls r1, r1, r4
 21834 a1b6 6A43     		muls r2, r2, r5
 21835 a1b8 6B43     		muls r3, r3, r5
 21836 a1ba 8011     		asrs r0, r0, # 6
 21837 a1bc 8911     		asrs r1, r1, # 6
 21838 a1be 9211     		asrs r2, r2, # 6
 21839 a1c0 9B11     		asrs r3, r3, # 6
 21840 a1c2 8018     		adds r0, r0, r2         @r
 21841 a1c4 C918     		adds r1, r1, r3         @i
 21842 a1c6 3618     		adds r6, r6, r0
 21843 a1c8 7F18     		adds r7, r7, r1
 21844              	
 21845              		@9
 21846 a1ca DD46     		mov sp, r11
 21847 a1cc 0FBC     		pop {r0-r3}
 21848 a1ce EB46     		mov r11, sp
 21849 a1d0 D546     		mov sp, r10
 21850 a1d2 10BC     		pop {r4}
 21851 a1d4 EA46     		mov r10, sp
 21852 a1d6 2546     		mov r5, r4
 21853 a1d8 2404     		lsls r4, r4, # 16
 21854 a1da 240C     		lsrs r4, r4, # 16
 21855 a1dc 2D0C     		lsrs r5, r5, # 16
 21856 a1de 6043     		muls r0, r0, r4		@R
 21857 a1e0 6143     		muls r1, r1, r4		@I
 21858 a1e2 6A43     		muls r2, r2, r5		@R
 21859 a1e4 6B43     		muls r3, r3, r5		@I
 21860 a1e6 8011     		asrs r0, r0, # 6
 21861 a1e8 8911     		asrs r1, r1, # 6
 21862 a1ea 9211     		asrs r2, r2, # 6
 21863 a1ec 9B11     		asrs r3, r3, # 6
 21864 a1ee 8018     		adds r0, r0, r2	 @r
 21865 a1f0 C918     		adds r1, r1, r3	 @i
 21866 a1f2 3618     		adds r6, r6, r0
ARM GAS  1.s 			page 385


 21867 a1f4 7F18     		adds r7, r7, r1
 21868              	
 21869 a1f6 DD46     		mov sp, r11
 21870 a1f8 0FBC     		pop {r0-r3}
 21871 a1fa EB46     		mov r11, sp
 21872 a1fc D546     		mov sp, r10
 21873 a1fe 10BC     		pop {r4}
 21874 a200 EA46     		mov r10, sp
 21875 a202 2546     		mov r5, r4
 21876 a204 2404     		lsls r4, r4, # 16
 21877 a206 240C     		lsrs r4, r4, # 16
 21878 a208 2D0C     		lsrs r5, r5, # 16
 21879 a20a 6043     		muls r0, r0, r4
 21880 a20c 6143     		muls r1, r1, r4
 21881 a20e 6A43     		muls r2, r2, r5
 21882 a210 6B43     		muls r3, r3, r5
 21883 a212 8011     		asrs r0, r0, # 6
 21884 a214 8911     		asrs r1, r1, # 6
 21885 a216 9211     		asrs r2, r2, # 6
 21886 a218 9B11     		asrs r3, r3, # 6
 21887 a21a 8018     		adds r0, r0, r2         @r
 21888 a21c C918     		adds r1, r1, r3         @i
 21889 a21e 3618     		adds r6, r6, r0
 21890 a220 7F18     		adds r7, r7, r1
 21891              	
 21892 a222 DD46     		mov sp, r11
 21893 a224 0FBC     		pop {r0-r3}
 21894 a226 EB46     		mov r11, sp
 21895 a228 D546     		mov sp, r10
 21896 a22a 10BC     		pop {r4}
 21897 a22c EA46     		mov r10, sp
 21898 a22e 2546     		mov r5, r4
 21899 a230 2404     		lsls r4, r4, # 16
 21900 a232 240C     		lsrs r4, r4, # 16
 21901 a234 2D0C     		lsrs r5, r5, # 16
 21902 a236 6043     		muls r0, r0, r4
 21903 a238 6143     		muls r1, r1, r4
 21904 a23a 6A43     		muls r2, r2, r5
 21905 a23c 6B43     		muls r3, r3, r5
 21906 a23e 8011     		asrs r0, r0, # 6
 21907 a240 8911     		asrs r1, r1, # 6
 21908 a242 9211     		asrs r2, r2, # 6
 21909 a244 9B11     		asrs r3, r3, # 6
 21910 a246 8018     		adds r0, r0, r2  @r
 21911 a248 C918     		adds r1, r1, r3  @i
 21912 a24a 3618     		adds r6, r6, r0
 21913 a24c 7F18     		adds r7, r7, r1
 21914              	
 21915 a24e DD46     		mov sp, r11
 21916 a250 0FBC     		pop {r0-r3}
 21917 a252 EB46     		mov r11, sp
 21918 a254 D546     		mov sp, r10
 21919 a256 10BC     		pop {r4}
 21920 a258 EA46     		mov r10, sp
 21921 a25a 2546     		mov r5, r4
 21922 a25c 2404     		lsls r4, r4, # 16
 21923 a25e 240C     		lsrs r4, r4, # 16
ARM GAS  1.s 			page 386


 21924 a260 2D0C     		lsrs r5, r5, # 16
 21925 a262 6043     		muls r0, r0, r4
 21926 a264 6143     		muls r1, r1, r4
 21927 a266 6A43     		muls r2, r2, r5
 21928 a268 6B43     		muls r3, r3, r5
 21929 a26a 8011     		asrs r0, r0, # 6
 21930 a26c 8911     		asrs r1, r1, # 6
 21931 a26e 9211     		asrs r2, r2, # 6
 21932 a270 9B11     		asrs r3, r3, # 6
 21933 a272 8018     		adds r0, r0, r2         @r
 21934 a274 C918     		adds r1, r1, r3         @i
 21935 a276 3618     		adds r6, r6, r0
 21936 a278 7F18     		adds r7, r7, r1
 21937              	
 21938              		@yjm22
 21939              		@0
 21940 a27a DD46     		mov sp, r11
 21941 a27c 0FBC     		pop {r0-r3}
 21942 a27e EB46     		mov r11, sp
 21943 a280 D546     		mov sp, r10
 21944 a282 10BC     		pop {r4}
 21945 a284 EA46     		mov r10, sp
 21946 a286 2546     		mov r5, r4
 21947 a288 2404     		lsls r4, r4, # 16
 21948 a28a 240C     		lsrs r4, r4, # 16
 21949 a28c 2D0C     		lsrs r5, r5, # 16
 21950 a28e 6043     		muls r0, r0, r4		@R
 21951 a290 6143     		muls r1, r1, r4		@I
 21952 a292 6A43     		muls r2, r2, r5		@R
 21953 a294 6B43     		muls r3, r3, r5		@I
 21954 a296 8011     		asrs r0, r0, # 6
 21955 a298 8911     		asrs r1, r1, # 6
 21956 a29a 9211     		asrs r2, r2, # 6
 21957 a29c 9B11     		asrs r3, r3, # 6
 21958 a29e 8018     		adds r0, r0, r2	 @r
 21959 a2a0 C918     		adds r1, r1, r3	 @i
 21960 a2a2 3618     		adds r6, r6, r0
 21961 a2a4 7F18     		adds r7, r7, r1
 21962              	
 21963 a2a6 DD46     		mov sp, r11
 21964 a2a8 0FBC     		pop {r0-r3}
 21965 a2aa EB46     		mov r11, sp
 21966 a2ac D546     		mov sp, r10
 21967 a2ae 10BC     		pop {r4}
 21968 a2b0 EA46     		mov r10, sp
 21969 a2b2 2546     		mov r5, r4
 21970 a2b4 2404     		lsls r4, r4, # 16
 21971 a2b6 240C     		lsrs r4, r4, # 16
 21972 a2b8 2D0C     		lsrs r5, r5, # 16
 21973 a2ba 6043     		muls r0, r0, r4
 21974 a2bc 6143     		muls r1, r1, r4
 21975 a2be 6A43     		muls r2, r2, r5
 21976 a2c0 6B43     		muls r3, r3, r5
 21977 a2c2 8011     		asrs r0, r0, # 6
 21978 a2c4 8911     		asrs r1, r1, # 6
 21979 a2c6 9211     		asrs r2, r2, # 6
 21980 a2c8 9B11     		asrs r3, r3, # 6
ARM GAS  1.s 			page 387


 21981 a2ca 8018     		adds r0, r0, r2         @r
 21982 a2cc C918     		adds r1, r1, r3         @i
 21983 a2ce 3618     		adds r6, r6, r0
 21984 a2d0 7F18     		adds r7, r7, r1
 21985              	
 21986 a2d2 DD46     		mov sp, r11
 21987 a2d4 0FBC     		pop {r0-r3}
 21988 a2d6 EB46     		mov r11, sp
 21989 a2d8 D546     		mov sp, r10
 21990 a2da 10BC     		pop {r4}
 21991 a2dc EA46     		mov r10, sp
 21992 a2de 2546     		mov r5, r4
 21993 a2e0 2404     		lsls r4, r4, # 16
 21994 a2e2 240C     		lsrs r4, r4, # 16
 21995 a2e4 2D0C     		lsrs r5, r5, # 16
 21996 a2e6 6043     		muls r0, r0, r4
 21997 a2e8 6143     		muls r1, r1, r4
 21998 a2ea 6A43     		muls r2, r2, r5
 21999 a2ec 6B43     		muls r3, r3, r5
 22000 a2ee 8011     		asrs r0, r0, # 6
 22001 a2f0 8911     		asrs r1, r1, # 6
 22002 a2f2 9211     		asrs r2, r2, # 6
 22003 a2f4 9B11     		asrs r3, r3, # 6
 22004 a2f6 8018     		adds r0, r0, r2  @r
 22005 a2f8 C918     		adds r1, r1, r3  @i
 22006 a2fa 3618     		adds r6, r6, r0
 22007 a2fc 7F18     		adds r7, r7, r1
 22008              	
 22009 a2fe DD46     		mov sp, r11
 22010 a300 0FBC     		pop {r0-r3}
 22011 a302 EB46     		mov r11, sp
 22012 a304 D546     		mov sp, r10
 22013 a306 10BC     		pop {r4}
 22014 a308 EA46     		mov r10, sp
 22015 a30a 2546     		mov r5, r4
 22016 a30c 2404     		lsls r4, r4, # 16
 22017 a30e 240C     		lsrs r4, r4, # 16
 22018 a310 2D0C     		lsrs r5, r5, # 16
 22019 a312 6043     		muls r0, r0, r4
 22020 a314 6143     		muls r1, r1, r4
 22021 a316 6A43     		muls r2, r2, r5
 22022 a318 6B43     		muls r3, r3, r5
 22023 a31a 8011     		asrs r0, r0, # 6
 22024 a31c 8911     		asrs r1, r1, # 6
 22025 a31e 9211     		asrs r2, r2, # 6
 22026 a320 9B11     		asrs r3, r3, # 6
 22027 a322 8018     		adds r0, r0, r2         @r
 22028 a324 C918     		adds r1, r1, r3         @i
 22029 a326 3618     		adds r6, r6, r0
 22030 a328 7F18     		adds r7, r7, r1
 22031              	
 22032              		@1
 22033 a32a DD46     		mov sp, r11
 22034 a32c 0FBC     		pop {r0-r3}
 22035 a32e EB46     		mov r11, sp
 22036 a330 D546     		mov sp, r10
 22037 a332 10BC     		pop {r4}
ARM GAS  1.s 			page 388


 22038 a334 EA46     		mov r10, sp
 22039 a336 2546     		mov r5, r4
 22040 a338 2404     		lsls r4, r4, # 16
 22041 a33a 240C     		lsrs r4, r4, # 16
 22042 a33c 2D0C     		lsrs r5, r5, # 16
 22043 a33e 6043     		muls r0, r0, r4		@R
 22044 a340 6143     		muls r1, r1, r4		@I
 22045 a342 6A43     		muls r2, r2, r5		@R
 22046 a344 6B43     		muls r3, r3, r5		@I
 22047 a346 8011     		asrs r0, r0, # 6
 22048 a348 8911     		asrs r1, r1, # 6
 22049 a34a 9211     		asrs r2, r2, # 6
 22050 a34c 9B11     		asrs r3, r3, # 6
 22051 a34e 8018     		adds r0, r0, r2	 @r
 22052 a350 C918     		adds r1, r1, r3	 @i
 22053 a352 3618     		adds r6, r6, r0
 22054 a354 7F18     		adds r7, r7, r1
 22055              	
 22056 a356 DD46     		mov sp, r11
 22057 a358 0FBC     		pop {r0-r3}
 22058 a35a EB46     		mov r11, sp
 22059 a35c D546     		mov sp, r10
 22060 a35e 10BC     		pop {r4}
 22061 a360 EA46     		mov r10, sp
 22062 a362 2546     		mov r5, r4
 22063 a364 2404     		lsls r4, r4, # 16
 22064 a366 240C     		lsrs r4, r4, # 16
 22065 a368 2D0C     		lsrs r5, r5, # 16
 22066 a36a 6043     		muls r0, r0, r4
 22067 a36c 6143     		muls r1, r1, r4
 22068 a36e 6A43     		muls r2, r2, r5
 22069 a370 6B43     		muls r3, r3, r5
 22070 a372 8011     		asrs r0, r0, # 6
 22071 a374 8911     		asrs r1, r1, # 6
 22072 a376 9211     		asrs r2, r2, # 6
 22073 a378 9B11     		asrs r3, r3, # 6
 22074 a37a 8018     		adds r0, r0, r2         @r
 22075 a37c C918     		adds r1, r1, r3         @i
 22076 a37e 3618     		adds r6, r6, r0
 22077 a380 7F18     		adds r7, r7, r1
 22078              	
 22079 a382 DD46     		mov sp, r11
 22080 a384 0FBC     		pop {r0-r3}
 22081 a386 EB46     		mov r11, sp
 22082 a388 D546     		mov sp, r10
 22083 a38a 10BC     		pop {r4}
 22084 a38c EA46     		mov r10, sp
 22085 a38e 2546     		mov r5, r4
 22086 a390 2404     		lsls r4, r4, # 16
 22087 a392 240C     		lsrs r4, r4, # 16
 22088 a394 2D0C     		lsrs r5, r5, # 16
 22089 a396 6043     		muls r0, r0, r4
 22090 a398 6143     		muls r1, r1, r4
 22091 a39a 6A43     		muls r2, r2, r5
 22092 a39c 6B43     		muls r3, r3, r5
 22093 a39e 8011     		asrs r0, r0, # 6
 22094 a3a0 8911     		asrs r1, r1, # 6
ARM GAS  1.s 			page 389


 22095 a3a2 9211     		asrs r2, r2, # 6
 22096 a3a4 9B11     		asrs r3, r3, # 6
 22097 a3a6 8018     		adds r0, r0, r2  @r
 22098 a3a8 C918     		adds r1, r1, r3  @i
 22099 a3aa 3618     		adds r6, r6, r0
 22100 a3ac 7F18     		adds r7, r7, r1
 22101              	
 22102 a3ae DD46     		mov sp, r11
 22103 a3b0 0FBC     		pop {r0-r3}
 22104 a3b2 EB46     		mov r11, sp
 22105 a3b4 D546     		mov sp, r10
 22106 a3b6 10BC     		pop {r4}
 22107 a3b8 EA46     		mov r10, sp
 22108 a3ba 2546     		mov r5, r4
 22109 a3bc 2404     		lsls r4, r4, # 16
 22110 a3be 240C     		lsrs r4, r4, # 16
 22111 a3c0 2D0C     		lsrs r5, r5, # 16
 22112 a3c2 6043     		muls r0, r0, r4
 22113 a3c4 6143     		muls r1, r1, r4
 22114 a3c6 6A43     		muls r2, r2, r5
 22115 a3c8 6B43     		muls r3, r3, r5
 22116 a3ca 8011     		asrs r0, r0, # 6
 22117 a3cc 8911     		asrs r1, r1, # 6
 22118 a3ce 9211     		asrs r2, r2, # 6
 22119 a3d0 9B11     		asrs r3, r3, # 6
 22120 a3d2 8018     		adds r0, r0, r2         @r
 22121 a3d4 C918     		adds r1, r1, r3         @i
 22122 a3d6 3618     		adds r6, r6, r0
 22123 a3d8 7F18     		adds r7, r7, r1
 22124              	
 22125              		@2
 22126 a3da DD46     		mov sp, r11
 22127 a3dc 0FBC     		pop {r0-r3}
 22128 a3de EB46     		mov r11, sp
 22129 a3e0 D546     		mov sp, r10
 22130 a3e2 10BC     		pop {r4}
 22131 a3e4 EA46     		mov r10, sp
 22132 a3e6 2546     		mov r5, r4
 22133 a3e8 2404     		lsls r4, r4, # 16
 22134 a3ea 240C     		lsrs r4, r4, # 16
 22135 a3ec 2D0C     		lsrs r5, r5, # 16
 22136 a3ee 6043     		muls r0, r0, r4		@R
 22137 a3f0 6143     		muls r1, r1, r4		@I
 22138 a3f2 6A43     		muls r2, r2, r5		@R
 22139 a3f4 6B43     		muls r3, r3, r5		@I
 22140 a3f6 8011     		asrs r0, r0, # 6
 22141 a3f8 8911     		asrs r1, r1, # 6
 22142 a3fa 9211     		asrs r2, r2, # 6
 22143 a3fc 9B11     		asrs r3, r3, # 6
 22144 a3fe 8018     		adds r0, r0, r2	 @r
 22145 a400 C918     		adds r1, r1, r3	 @i
 22146 a402 3618     		adds r6, r6, r0
 22147 a404 7F18     		adds r7, r7, r1
 22148              	
 22149 a406 DD46     		mov sp, r11
 22150 a408 0FBC     		pop {r0-r3}
 22151 a40a EB46     		mov r11, sp
ARM GAS  1.s 			page 390


 22152 a40c D546     		mov sp, r10
 22153 a40e 10BC     		pop {r4}
 22154 a410 EA46     		mov r10, sp
 22155 a412 2546     		mov r5, r4
 22156 a414 2404     		lsls r4, r4, # 16
 22157 a416 240C     		lsrs r4, r4, # 16
 22158 a418 2D0C     		lsrs r5, r5, # 16
 22159 a41a 6043     		muls r0, r0, r4
 22160 a41c 6143     		muls r1, r1, r4
 22161 a41e 6A43     		muls r2, r2, r5
 22162 a420 6B43     		muls r3, r3, r5
 22163 a422 8011     		asrs r0, r0, # 6
 22164 a424 8911     		asrs r1, r1, # 6
 22165 a426 9211     		asrs r2, r2, # 6
 22166 a428 9B11     		asrs r3, r3, # 6
 22167 a42a 8018     		adds r0, r0, r2         @r
 22168 a42c C918     		adds r1, r1, r3         @i
 22169 a42e 3618     		adds r6, r6, r0
 22170 a430 7F18     		adds r7, r7, r1
 22171              	
 22172 a432 DD46     		mov sp, r11
 22173 a434 0FBC     		pop {r0-r3}
 22174 a436 EB46     		mov r11, sp
 22175 a438 D546     		mov sp, r10
 22176 a43a 10BC     		pop {r4}
 22177 a43c EA46     		mov r10, sp
 22178 a43e 2546     		mov r5, r4
 22179 a440 2404     		lsls r4, r4, # 16
 22180 a442 240C     		lsrs r4, r4, # 16
 22181 a444 2D0C     		lsrs r5, r5, # 16
 22182 a446 6043     		muls r0, r0, r4
 22183 a448 6143     		muls r1, r1, r4
 22184 a44a 6A43     		muls r2, r2, r5
 22185 a44c 6B43     		muls r3, r3, r5
 22186 a44e 8011     		asrs r0, r0, # 6
 22187 a450 8911     		asrs r1, r1, # 6
 22188 a452 9211     		asrs r2, r2, # 6
 22189 a454 9B11     		asrs r3, r3, # 6
 22190 a456 8018     		adds r0, r0, r2  @r
 22191 a458 C918     		adds r1, r1, r3  @i
 22192 a45a 3618     		adds r6, r6, r0
 22193 a45c 7F18     		adds r7, r7, r1
 22194              	
 22195 a45e DD46     		mov sp, r11
 22196 a460 0FBC     		pop {r0-r3}
 22197 a462 EB46     		mov r11, sp
 22198 a464 D546     		mov sp, r10
 22199 a466 10BC     		pop {r4}
 22200 a468 EA46     		mov r10, sp
 22201 a46a 2546     		mov r5, r4
 22202 a46c 2404     		lsls r4, r4, # 16
 22203 a46e 240C     		lsrs r4, r4, # 16
 22204 a470 2D0C     		lsrs r5, r5, # 16
 22205 a472 6043     		muls r0, r0, r4
 22206 a474 6143     		muls r1, r1, r4
 22207 a476 6A43     		muls r2, r2, r5
 22208 a478 6B43     		muls r3, r3, r5
ARM GAS  1.s 			page 391


 22209 a47a 8011     		asrs r0, r0, # 6
 22210 a47c 8911     		asrs r1, r1, # 6
 22211 a47e 9211     		asrs r2, r2, # 6
 22212 a480 9B11     		asrs r3, r3, # 6
 22213 a482 8018     		adds r0, r0, r2         @r
 22214 a484 C918     		adds r1, r1, r3         @i
 22215 a486 3618     		adds r6, r6, r0
 22216 a488 7F18     		adds r7, r7, r1
 22217              	
 22218              		@3
 22219 a48a DD46     		mov sp, r11
 22220 a48c 0FBC     		pop {r0-r3}
 22221 a48e EB46     		mov r11, sp
 22222 a490 D546     		mov sp, r10
 22223 a492 10BC     		pop {r4}
 22224 a494 EA46     		mov r10, sp
 22225 a496 2546     		mov r5, r4
 22226 a498 2404     		lsls r4, r4, # 16
 22227 a49a 240C     		lsrs r4, r4, # 16
 22228 a49c 2D0C     		lsrs r5, r5, # 16
 22229 a49e 6043     		muls r0, r0, r4		@R
 22230 a4a0 6143     		muls r1, r1, r4		@I
 22231 a4a2 6A43     		muls r2, r2, r5		@R
 22232 a4a4 6B43     		muls r3, r3, r5		@I
 22233 a4a6 8011     		asrs r0, r0, # 6
 22234 a4a8 8911     		asrs r1, r1, # 6
 22235 a4aa 9211     		asrs r2, r2, # 6
 22236 a4ac 9B11     		asrs r3, r3, # 6
 22237 a4ae 8018     		adds r0, r0, r2	 @r
 22238 a4b0 C918     		adds r1, r1, r3	 @i
 22239 a4b2 3618     		adds r6, r6, r0
 22240 a4b4 7F18     		adds r7, r7, r1
 22241              	
 22242 a4b6 DD46     		mov sp, r11
 22243 a4b8 0FBC     		pop {r0-r3}
 22244 a4ba EB46     		mov r11, sp
 22245 a4bc D546     		mov sp, r10
 22246 a4be 10BC     		pop {r4}
 22247 a4c0 EA46     		mov r10, sp
 22248 a4c2 2546     		mov r5, r4
 22249 a4c4 2404     		lsls r4, r4, # 16
 22250 a4c6 240C     		lsrs r4, r4, # 16
 22251 a4c8 2D0C     		lsrs r5, r5, # 16
 22252 a4ca 6043     		muls r0, r0, r4
 22253 a4cc 6143     		muls r1, r1, r4
 22254 a4ce 6A43     		muls r2, r2, r5
 22255 a4d0 6B43     		muls r3, r3, r5
 22256 a4d2 8011     		asrs r0, r0, # 6
 22257 a4d4 8911     		asrs r1, r1, # 6
 22258 a4d6 9211     		asrs r2, r2, # 6
 22259 a4d8 9B11     		asrs r3, r3, # 6
 22260 a4da 8018     		adds r0, r0, r2         @r
 22261 a4dc C918     		adds r1, r1, r3         @i
 22262 a4de 3618     		adds r6, r6, r0
 22263 a4e0 7F18     		adds r7, r7, r1
 22264              	
 22265 a4e2 DD46     		mov sp, r11
ARM GAS  1.s 			page 392


 22266 a4e4 0FBC     		pop {r0-r3}
 22267 a4e6 EB46     		mov r11, sp
 22268 a4e8 D546     		mov sp, r10
 22269 a4ea 10BC     		pop {r4}
 22270 a4ec EA46     		mov r10, sp
 22271 a4ee 2546     		mov r5, r4
 22272 a4f0 2404     		lsls r4, r4, # 16
 22273 a4f2 240C     		lsrs r4, r4, # 16
 22274 a4f4 2D0C     		lsrs r5, r5, # 16
 22275 a4f6 6043     		muls r0, r0, r4
 22276 a4f8 6143     		muls r1, r1, r4
 22277 a4fa 6A43     		muls r2, r2, r5
 22278 a4fc 6B43     		muls r3, r3, r5
 22279 a4fe 8011     		asrs r0, r0, # 6
 22280 a500 8911     		asrs r1, r1, # 6
 22281 a502 9211     		asrs r2, r2, # 6
 22282 a504 9B11     		asrs r3, r3, # 6
 22283 a506 8018     		adds r0, r0, r2  @r
 22284 a508 C918     		adds r1, r1, r3  @i
 22285 a50a 3618     		adds r6, r6, r0
 22286 a50c 7F18     		adds r7, r7, r1
 22287              	
 22288 a50e DD46     		mov sp, r11
 22289 a510 0FBC     		pop {r0-r3}
 22290 a512 EB46     		mov r11, sp
 22291 a514 D546     		mov sp, r10
 22292 a516 10BC     		pop {r4}
 22293 a518 EA46     		mov r10, sp
 22294 a51a 2546     		mov r5, r4
 22295 a51c 2404     		lsls r4, r4, # 16
 22296 a51e 240C     		lsrs r4, r4, # 16
 22297 a520 2D0C     		lsrs r5, r5, # 16
 22298 a522 6043     		muls r0, r0, r4
 22299 a524 6143     		muls r1, r1, r4
 22300 a526 6A43     		muls r2, r2, r5
 22301 a528 6B43     		muls r3, r3, r5
 22302 a52a 8011     		asrs r0, r0, # 6
 22303 a52c 8911     		asrs r1, r1, # 6
 22304 a52e 9211     		asrs r2, r2, # 6
 22305 a530 9B11     		asrs r3, r3, # 6
 22306 a532 8018     		adds r0, r0, r2         @r
 22307 a534 C918     		adds r1, r1, r3         @i
 22308 a536 3618     		adds r6, r6, r0
 22309 a538 7F18     		adds r7, r7, r1
 22310              	
 22311              		@4
 22312 a53a DD46     		mov sp, r11
 22313 a53c 0FBC     		pop {r0-r3}
 22314 a53e EB46     		mov r11, sp
 22315 a540 D546     		mov sp, r10
 22316 a542 10BC     		pop {r4}
 22317 a544 EA46     		mov r10, sp
 22318 a546 2546     		mov r5, r4
 22319 a548 2404     		lsls r4, r4, # 16
 22320 a54a 240C     		lsrs r4, r4, # 16
 22321 a54c 2D0C     		lsrs r5, r5, # 16
 22322 a54e 6043     		muls r0, r0, r4		@R
ARM GAS  1.s 			page 393


 22323 a550 6143     		muls r1, r1, r4		@I
 22324 a552 6A43     		muls r2, r2, r5		@R
 22325 a554 6B43     		muls r3, r3, r5		@I
 22326 a556 8011     		asrs r0, r0, # 6
 22327 a558 8911     		asrs r1, r1, # 6
 22328 a55a 9211     		asrs r2, r2, # 6
 22329 a55c 9B11     		asrs r3, r3, # 6
 22330 a55e 8018     		adds r0, r0, r2	 @r
 22331 a560 C918     		adds r1, r1, r3	 @i
 22332 a562 3618     		adds r6, r6, r0
 22333 a564 7F18     		adds r7, r7, r1
 22334              	
 22335 a566 DD46     		mov sp, r11
 22336 a568 0FBC     		pop {r0-r3}
 22337 a56a EB46     		mov r11, sp
 22338 a56c D546     		mov sp, r10
 22339 a56e 10BC     		pop {r4}
 22340 a570 EA46     		mov r10, sp
 22341 a572 2546     		mov r5, r4
 22342 a574 2404     		lsls r4, r4, # 16
 22343 a576 240C     		lsrs r4, r4, # 16
 22344 a578 2D0C     		lsrs r5, r5, # 16
 22345 a57a 6043     		muls r0, r0, r4
 22346 a57c 6143     		muls r1, r1, r4
 22347 a57e 6A43     		muls r2, r2, r5
 22348 a580 6B43     		muls r3, r3, r5
 22349 a582 8011     		asrs r0, r0, # 6
 22350 a584 8911     		asrs r1, r1, # 6
 22351 a586 9211     		asrs r2, r2, # 6
 22352 a588 9B11     		asrs r3, r3, # 6
 22353 a58a 8018     		adds r0, r0, r2         @r
 22354 a58c C918     		adds r1, r1, r3         @i
 22355 a58e 3618     		adds r6, r6, r0
 22356 a590 7F18     		adds r7, r7, r1
 22357              	
 22358 a592 DD46     		mov sp, r11
 22359 a594 0FBC     		pop {r0-r3}
 22360 a596 EB46     		mov r11, sp
 22361 a598 D546     		mov sp, r10
 22362 a59a 10BC     		pop {r4}
 22363 a59c EA46     		mov r10, sp
 22364 a59e 2546     		mov r5, r4
 22365 a5a0 2404     		lsls r4, r4, # 16
 22366 a5a2 240C     		lsrs r4, r4, # 16
 22367 a5a4 2D0C     		lsrs r5, r5, # 16
 22368 a5a6 6043     		muls r0, r0, r4
 22369 a5a8 6143     		muls r1, r1, r4
 22370 a5aa 6A43     		muls r2, r2, r5
 22371 a5ac 6B43     		muls r3, r3, r5
 22372 a5ae 8011     		asrs r0, r0, # 6
 22373 a5b0 8911     		asrs r1, r1, # 6
 22374 a5b2 9211     		asrs r2, r2, # 6
 22375 a5b4 9B11     		asrs r3, r3, # 6
 22376 a5b6 8018     		adds r0, r0, r2  @r
 22377 a5b8 C918     		adds r1, r1, r3  @i
 22378 a5ba 3618     		adds r6, r6, r0
 22379 a5bc 7F18     		adds r7, r7, r1
ARM GAS  1.s 			page 394


 22380              	
 22381 a5be DD46     		mov sp, r11
 22382 a5c0 0FBC     		pop {r0-r3}
 22383 a5c2 EB46     		mov r11, sp
 22384 a5c4 D546     		mov sp, r10
 22385 a5c6 10BC     		pop {r4}
 22386 a5c8 EA46     		mov r10, sp
 22387 a5ca 2546     		mov r5, r4
 22388 a5cc 2404     		lsls r4, r4, # 16
 22389 a5ce 240C     		lsrs r4, r4, # 16
 22390 a5d0 2D0C     		lsrs r5, r5, # 16
 22391 a5d2 6043     		muls r0, r0, r4
 22392 a5d4 6143     		muls r1, r1, r4
 22393 a5d6 6A43     		muls r2, r2, r5
 22394 a5d8 6B43     		muls r3, r3, r5
 22395 a5da 8011     		asrs r0, r0, # 6
 22396 a5dc 8911     		asrs r1, r1, # 6
 22397 a5de 9211     		asrs r2, r2, # 6
 22398 a5e0 9B11     		asrs r3, r3, # 6
 22399 a5e2 8018     		adds r0, r0, r2         @r
 22400 a5e4 C918     		adds r1, r1, r3         @i
 22401 a5e6 3618     		adds r6, r6, r0
 22402 a5e8 7F18     		adds r7, r7, r1
 22403              	
 22404              		@5
 22405 a5ea DD46     		mov sp, r11
 22406 a5ec 0FBC     		pop {r0-r3}
 22407 a5ee EB46     		mov r11, sp
 22408 a5f0 D546     		mov sp, r10
 22409 a5f2 10BC     		pop {r4}
 22410 a5f4 EA46     		mov r10, sp
 22411 a5f6 2546     		mov r5, r4
 22412 a5f8 2404     		lsls r4, r4, # 16
 22413 a5fa 240C     		lsrs r4, r4, # 16
 22414 a5fc 2D0C     		lsrs r5, r5, # 16
 22415 a5fe 6043     		muls r0, r0, r4		@R
 22416 a600 6143     		muls r1, r1, r4		@I
 22417 a602 6A43     		muls r2, r2, r5		@R
 22418 a604 6B43     		muls r3, r3, r5		@I
 22419 a606 8011     		asrs r0, r0, # 6
 22420 a608 8911     		asrs r1, r1, # 6
 22421 a60a 9211     		asrs r2, r2, # 6
 22422 a60c 9B11     		asrs r3, r3, # 6
 22423 a60e 8018     		adds r0, r0, r2	 @r
 22424 a610 C918     		adds r1, r1, r3	 @i
 22425 a612 3618     		adds r6, r6, r0
 22426 a614 7F18     		adds r7, r7, r1
 22427              	
 22428 a616 DD46     		mov sp, r11
 22429 a618 0FBC     		pop {r0-r3}
 22430 a61a EB46     		mov r11, sp
 22431 a61c D546     		mov sp, r10
 22432 a61e 10BC     		pop {r4}
 22433 a620 EA46     		mov r10, sp
 22434 a622 2546     		mov r5, r4
 22435 a624 2404     		lsls r4, r4, # 16
 22436 a626 240C     		lsrs r4, r4, # 16
ARM GAS  1.s 			page 395


 22437 a628 2D0C     		lsrs r5, r5, # 16
 22438 a62a 6043     		muls r0, r0, r4
 22439 a62c 6143     		muls r1, r1, r4
 22440 a62e 6A43     		muls r2, r2, r5
 22441 a630 6B43     		muls r3, r3, r5
 22442 a632 8011     		asrs r0, r0, # 6
 22443 a634 8911     		asrs r1, r1, # 6
 22444 a636 9211     		asrs r2, r2, # 6
 22445 a638 9B11     		asrs r3, r3, # 6
 22446 a63a 8018     		adds r0, r0, r2         @r
 22447 a63c C918     		adds r1, r1, r3         @i
 22448 a63e 3618     		adds r6, r6, r0
 22449 a640 7F18     		adds r7, r7, r1
 22450              	
 22451 a642 DD46     		mov sp, r11
 22452 a644 0FBC     		pop {r0-r3}
 22453 a646 EB46     		mov r11, sp
 22454 a648 D546     		mov sp, r10
 22455 a64a 10BC     		pop {r4}
 22456 a64c EA46     		mov r10, sp
 22457 a64e 2546     		mov r5, r4
 22458 a650 2404     		lsls r4, r4, # 16
 22459 a652 240C     		lsrs r4, r4, # 16
 22460 a654 2D0C     		lsrs r5, r5, # 16
 22461 a656 6043     		muls r0, r0, r4
 22462 a658 6143     		muls r1, r1, r4
 22463 a65a 6A43     		muls r2, r2, r5
 22464 a65c 6B43     		muls r3, r3, r5
 22465 a65e 8011     		asrs r0, r0, # 6
 22466 a660 8911     		asrs r1, r1, # 6
 22467 a662 9211     		asrs r2, r2, # 6
 22468 a664 9B11     		asrs r3, r3, # 6
 22469 a666 8018     		adds r0, r0, r2  @r
 22470 a668 C918     		adds r1, r1, r3  @i
 22471 a66a 3618     		adds r6, r6, r0
 22472 a66c 7F18     		adds r7, r7, r1
 22473              	
 22474 a66e DD46     		mov sp, r11
 22475 a670 0FBC     		pop {r0-r3}
 22476 a672 EB46     		mov r11, sp
 22477 a674 D546     		mov sp, r10
 22478 a676 10BC     		pop {r4}
 22479 a678 EA46     		mov r10, sp
 22480 a67a 2546     		mov r5, r4
 22481 a67c 2404     		lsls r4, r4, # 16
 22482 a67e 240C     		lsrs r4, r4, # 16
 22483 a680 2D0C     		lsrs r5, r5, # 16
 22484 a682 6043     		muls r0, r0, r4
 22485 a684 6143     		muls r1, r1, r4
 22486 a686 6A43     		muls r2, r2, r5
 22487 a688 6B43     		muls r3, r3, r5
 22488 a68a 8011     		asrs r0, r0, # 6
 22489 a68c 8911     		asrs r1, r1, # 6
 22490 a68e 9211     		asrs r2, r2, # 6
 22491 a690 9B11     		asrs r3, r3, # 6
 22492 a692 8018     		adds r0, r0, r2         @r
 22493 a694 C918     		adds r1, r1, r3         @i
ARM GAS  1.s 			page 396


 22494 a696 3618     		adds r6, r6, r0
 22495 a698 7F18     		adds r7, r7, r1
 22496              	
 22497              		@6
 22498 a69a DD46     		mov sp, r11
 22499 a69c 0FBC     		pop {r0-r3}
 22500 a69e EB46     		mov r11, sp
 22501 a6a0 D546     		mov sp, r10
 22502 a6a2 10BC     		pop {r4}
 22503 a6a4 EA46     		mov r10, sp
 22504 a6a6 2546     		mov r5, r4
 22505 a6a8 2404     		lsls r4, r4, # 16
 22506 a6aa 240C     		lsrs r4, r4, # 16
 22507 a6ac 2D0C     		lsrs r5, r5, # 16
 22508 a6ae 6043     		muls r0, r0, r4		@R
 22509 a6b0 6143     		muls r1, r1, r4		@I
 22510 a6b2 6A43     		muls r2, r2, r5		@R
 22511 a6b4 6B43     		muls r3, r3, r5		@I
 22512 a6b6 8011     		asrs r0, r0, # 6
 22513 a6b8 8911     		asrs r1, r1, # 6
 22514 a6ba 9211     		asrs r2, r2, # 6
 22515 a6bc 9B11     		asrs r3, r3, # 6
 22516 a6be 8018     		adds r0, r0, r2	 @r
 22517 a6c0 C918     		adds r1, r1, r3	 @i
 22518 a6c2 3618     		adds r6, r6, r0
 22519 a6c4 7F18     		adds r7, r7, r1
 22520              	
 22521 a6c6 DD46     		mov sp, r11
 22522 a6c8 0FBC     		pop {r0-r3}
 22523 a6ca EB46     		mov r11, sp
 22524 a6cc D546     		mov sp, r10
 22525 a6ce 10BC     		pop {r4}
 22526 a6d0 EA46     		mov r10, sp
 22527 a6d2 2546     		mov r5, r4
 22528 a6d4 2404     		lsls r4, r4, # 16
 22529 a6d6 240C     		lsrs r4, r4, # 16
 22530 a6d8 2D0C     		lsrs r5, r5, # 16
 22531 a6da 6043     		muls r0, r0, r4
 22532 a6dc 6143     		muls r1, r1, r4
 22533 a6de 6A43     		muls r2, r2, r5
 22534 a6e0 6B43     		muls r3, r3, r5
 22535 a6e2 8011     		asrs r0, r0, # 6
 22536 a6e4 8911     		asrs r1, r1, # 6
 22537 a6e6 9211     		asrs r2, r2, # 6
 22538 a6e8 9B11     		asrs r3, r3, # 6
 22539 a6ea 8018     		adds r0, r0, r2         @r
 22540 a6ec C918     		adds r1, r1, r3         @i
 22541 a6ee 3618     		adds r6, r6, r0
 22542 a6f0 7F18     		adds r7, r7, r1
 22543              	
 22544 a6f2 DD46     		mov sp, r11
 22545 a6f4 0FBC     		pop {r0-r3}
 22546 a6f6 EB46     		mov r11, sp
 22547 a6f8 D546     		mov sp, r10
 22548 a6fa 10BC     		pop {r4}
 22549 a6fc EA46     		mov r10, sp
 22550 a6fe 2546     		mov r5, r4
ARM GAS  1.s 			page 397


 22551 a700 2404     		lsls r4, r4, # 16
 22552 a702 240C     		lsrs r4, r4, # 16
 22553 a704 2D0C     		lsrs r5, r5, # 16
 22554 a706 6043     		muls r0, r0, r4
 22555 a708 6143     		muls r1, r1, r4
 22556 a70a 6A43     		muls r2, r2, r5
 22557 a70c 6B43     		muls r3, r3, r5
 22558 a70e 8011     		asrs r0, r0, # 6
 22559 a710 8911     		asrs r1, r1, # 6
 22560 a712 9211     		asrs r2, r2, # 6
 22561 a714 9B11     		asrs r3, r3, # 6
 22562 a716 8018     		adds r0, r0, r2  @r
 22563 a718 C918     		adds r1, r1, r3  @i
 22564 a71a 3618     		adds r6, r6, r0
 22565 a71c 7F18     		adds r7, r7, r1
 22566              	
 22567 a71e DD46     		mov sp, r11
 22568 a720 0FBC     		pop {r0-r3}
 22569 a722 EB46     		mov r11, sp
 22570 a724 D546     		mov sp, r10
 22571 a726 10BC     		pop {r4}
 22572 a728 EA46     		mov r10, sp
 22573 a72a 2546     		mov r5, r4
 22574 a72c 2404     		lsls r4, r4, # 16
 22575 a72e 240C     		lsrs r4, r4, # 16
 22576 a730 2D0C     		lsrs r5, r5, # 16
 22577 a732 6043     		muls r0, r0, r4
 22578 a734 6143     		muls r1, r1, r4
 22579 a736 6A43     		muls r2, r2, r5
 22580 a738 6B43     		muls r3, r3, r5
 22581 a73a 8011     		asrs r0, r0, # 6
 22582 a73c 8911     		asrs r1, r1, # 6
 22583 a73e 9211     		asrs r2, r2, # 6
 22584 a740 9B11     		asrs r3, r3, # 6
 22585 a742 8018     		adds r0, r0, r2         @r
 22586 a744 C918     		adds r1, r1, r3         @i
 22587 a746 3618     		adds r6, r6, r0
 22588 a748 7F18     		adds r7, r7, r1
 22589              	
 22590              		@7
 22591 a74a DD46     		mov sp, r11
 22592 a74c 0FBC     		pop {r0-r3}
 22593 a74e EB46     		mov r11, sp
 22594 a750 D546     		mov sp, r10
 22595 a752 10BC     		pop {r4}
 22596 a754 EA46     		mov r10, sp
 22597 a756 2546     		mov r5, r4
 22598 a758 2404     		lsls r4, r4, # 16
 22599 a75a 240C     		lsrs r4, r4, # 16
 22600 a75c 2D0C     		lsrs r5, r5, # 16
 22601 a75e 6043     		muls r0, r0, r4		@R
 22602 a760 6143     		muls r1, r1, r4		@I
 22603 a762 6A43     		muls r2, r2, r5		@R
 22604 a764 6B43     		muls r3, r3, r5		@I
 22605 a766 8011     		asrs r0, r0, # 6
 22606 a768 8911     		asrs r1, r1, # 6
 22607 a76a 9211     		asrs r2, r2, # 6
ARM GAS  1.s 			page 398


 22608 a76c 9B11     		asrs r3, r3, # 6
 22609 a76e 8018     		adds r0, r0, r2	 @r
 22610 a770 C918     		adds r1, r1, r3	 @i
 22611 a772 3618     		adds r6, r6, r0
 22612 a774 7F18     		adds r7, r7, r1
 22613              	
 22614 a776 DD46     		mov sp, r11
 22615 a778 0FBC     		pop {r0-r3}
 22616 a77a EB46     		mov r11, sp
 22617 a77c D546     		mov sp, r10
 22618 a77e 10BC     		pop {r4}
 22619 a780 EA46     		mov r10, sp
 22620 a782 2546     		mov r5, r4
 22621 a784 2404     		lsls r4, r4, # 16
 22622 a786 240C     		lsrs r4, r4, # 16
 22623 a788 2D0C     		lsrs r5, r5, # 16
 22624 a78a 6043     		muls r0, r0, r4
 22625 a78c 6143     		muls r1, r1, r4
 22626 a78e 6A43     		muls r2, r2, r5
 22627 a790 6B43     		muls r3, r3, r5
 22628 a792 8011     		asrs r0, r0, # 6
 22629 a794 8911     		asrs r1, r1, # 6
 22630 a796 9211     		asrs r2, r2, # 6
 22631 a798 9B11     		asrs r3, r3, # 6
 22632 a79a 8018     		adds r0, r0, r2         @r
 22633 a79c C918     		adds r1, r1, r3         @i
 22634 a79e 3618     		adds r6, r6, r0
 22635 a7a0 7F18     		adds r7, r7, r1
 22636              	
 22637 a7a2 DD46     		mov sp, r11
 22638 a7a4 0FBC     		pop {r0-r3}
 22639 a7a6 EB46     		mov r11, sp
 22640 a7a8 D546     		mov sp, r10
 22641 a7aa 10BC     		pop {r4}
 22642 a7ac EA46     		mov r10, sp
 22643 a7ae 2546     		mov r5, r4
 22644 a7b0 2404     		lsls r4, r4, # 16
 22645 a7b2 240C     		lsrs r4, r4, # 16
 22646 a7b4 2D0C     		lsrs r5, r5, # 16
 22647 a7b6 6043     		muls r0, r0, r4
 22648 a7b8 6143     		muls r1, r1, r4
 22649 a7ba 6A43     		muls r2, r2, r5
 22650 a7bc 6B43     		muls r3, r3, r5
 22651 a7be 8011     		asrs r0, r0, # 6
 22652 a7c0 8911     		asrs r1, r1, # 6
 22653 a7c2 9211     		asrs r2, r2, # 6
 22654 a7c4 9B11     		asrs r3, r3, # 6
 22655 a7c6 8018     		adds r0, r0, r2  @r
 22656 a7c8 C918     		adds r1, r1, r3  @i
 22657 a7ca 3618     		adds r6, r6, r0
 22658 a7cc 7F18     		adds r7, r7, r1
 22659              	
 22660 a7ce DD46     		mov sp, r11
 22661 a7d0 0FBC     		pop {r0-r3}
 22662 a7d2 EB46     		mov r11, sp
 22663 a7d4 D546     		mov sp, r10
 22664 a7d6 10BC     		pop {r4}
ARM GAS  1.s 			page 399


 22665 a7d8 EA46     		mov r10, sp
 22666 a7da 2546     		mov r5, r4
 22667 a7dc 2404     		lsls r4, r4, # 16
 22668 a7de 240C     		lsrs r4, r4, # 16
 22669 a7e0 2D0C     		lsrs r5, r5, # 16
 22670 a7e2 6043     		muls r0, r0, r4
 22671 a7e4 6143     		muls r1, r1, r4
 22672 a7e6 6A43     		muls r2, r2, r5
 22673 a7e8 6B43     		muls r3, r3, r5
 22674 a7ea 8011     		asrs r0, r0, # 6
 22675 a7ec 8911     		asrs r1, r1, # 6
 22676 a7ee 9211     		asrs r2, r2, # 6
 22677 a7f0 9B11     		asrs r3, r3, # 6
 22678 a7f2 8018     		adds r0, r0, r2         @r
 22679 a7f4 C918     		adds r1, r1, r3         @i
 22680 a7f6 3618     		adds r6, r6, r0
 22681 a7f8 7F18     		adds r7, r7, r1
 22682              	
 22683              		@8
 22684 a7fa DD46     		mov sp, r11
 22685 a7fc 0FBC     		pop {r0-r3}
 22686 a7fe EB46     		mov r11, sp
 22687 a800 D546     		mov sp, r10
 22688 a802 10BC     		pop {r4}
 22689 a804 EA46     		mov r10, sp
 22690 a806 2546     		mov r5, r4
 22691 a808 2404     		lsls r4, r4, # 16
 22692 a80a 240C     		lsrs r4, r4, # 16
 22693 a80c 2D0C     		lsrs r5, r5, # 16
 22694 a80e 6043     		muls r0, r0, r4		@R
 22695 a810 6143     		muls r1, r1, r4		@I
 22696 a812 6A43     		muls r2, r2, r5		@R
 22697 a814 6B43     		muls r3, r3, r5		@I
 22698 a816 8011     		asrs r0, r0, # 6
 22699 a818 8911     		asrs r1, r1, # 6
 22700 a81a 9211     		asrs r2, r2, # 6
 22701 a81c 9B11     		asrs r3, r3, # 6
 22702 a81e 8018     		adds r0, r0, r2	 @r
 22703 a820 C918     		adds r1, r1, r3	 @i
 22704 a822 3618     		adds r6, r6, r0
 22705 a824 7F18     		adds r7, r7, r1
 22706              	
 22707 a826 DD46     		mov sp, r11
 22708 a828 0FBC     		pop {r0-r3}
 22709 a82a EB46     		mov r11, sp
 22710 a82c D546     		mov sp, r10
 22711 a82e 10BC     		pop {r4}
 22712 a830 EA46     		mov r10, sp
 22713 a832 2546     		mov r5, r4
 22714 a834 2404     		lsls r4, r4, # 16
 22715 a836 240C     		lsrs r4, r4, # 16
 22716 a838 2D0C     		lsrs r5, r5, # 16
 22717 a83a 6043     		muls r0, r0, r4
 22718 a83c 6143     		muls r1, r1, r4
 22719 a83e 6A43     		muls r2, r2, r5
 22720 a840 6B43     		muls r3, r3, r5
 22721 a842 8011     		asrs r0, r0, # 6
ARM GAS  1.s 			page 400


 22722 a844 8911     		asrs r1, r1, # 6
 22723 a846 9211     		asrs r2, r2, # 6
 22724 a848 9B11     		asrs r3, r3, # 6
 22725 a84a 8018     		adds r0, r0, r2         @r
 22726 a84c C918     		adds r1, r1, r3         @i
 22727 a84e 3618     		adds r6, r6, r0
 22728 a850 7F18     		adds r7, r7, r1
 22729              	
 22730 a852 DD46     		mov sp, r11
 22731 a854 0FBC     		pop {r0-r3}
 22732 a856 EB46     		mov r11, sp
 22733 a858 D546     		mov sp, r10
 22734 a85a 10BC     		pop {r4}
 22735 a85c EA46     		mov r10, sp
 22736 a85e 2546     		mov r5, r4
 22737 a860 2404     		lsls r4, r4, # 16
 22738 a862 240C     		lsrs r4, r4, # 16
 22739 a864 2D0C     		lsrs r5, r5, # 16
 22740 a866 6043     		muls r0, r0, r4
 22741 a868 6143     		muls r1, r1, r4
 22742 a86a 6A43     		muls r2, r2, r5
 22743 a86c 6B43     		muls r3, r3, r5
 22744 a86e 8011     		asrs r0, r0, # 6
 22745 a870 8911     		asrs r1, r1, # 6
 22746 a872 9211     		asrs r2, r2, # 6
 22747 a874 9B11     		asrs r3, r3, # 6
 22748 a876 8018     		adds r0, r0, r2  @r
 22749 a878 C918     		adds r1, r1, r3  @i
 22750 a87a 3618     		adds r6, r6, r0
 22751 a87c 7F18     		adds r7, r7, r1
 22752              	
 22753 a87e DD46     		mov sp, r11
 22754 a880 0FBC     		pop {r0-r3}
 22755 a882 EB46     		mov r11, sp
 22756 a884 D546     		mov sp, r10
 22757 a886 10BC     		pop {r4}
 22758 a888 EA46     		mov r10, sp
 22759 a88a 2546     		mov r5, r4
 22760 a88c 2404     		lsls r4, r4, # 16
 22761 a88e 240C     		lsrs r4, r4, # 16
 22762 a890 2D0C     		lsrs r5, r5, # 16
 22763 a892 6043     		muls r0, r0, r4
 22764 a894 6143     		muls r1, r1, r4
 22765 a896 6A43     		muls r2, r2, r5
 22766 a898 6B43     		muls r3, r3, r5
 22767 a89a 8011     		asrs r0, r0, # 6
 22768 a89c 8911     		asrs r1, r1, # 6
 22769 a89e 9211     		asrs r2, r2, # 6
 22770 a8a0 9B11     		asrs r3, r3, # 6
 22771 a8a2 8018     		adds r0, r0, r2         @r
 22772 a8a4 C918     		adds r1, r1, r3         @i
 22773 a8a6 3618     		adds r6, r6, r0
 22774 a8a8 7F18     		adds r7, r7, r1
 22775              	
 22776              		@9
 22777 a8aa DD46     		mov sp, r11
 22778 a8ac 0FBC     		pop {r0-r3}
ARM GAS  1.s 			page 401


 22779 a8ae EB46     		mov r11, sp
 22780 a8b0 D546     		mov sp, r10
 22781 a8b2 10BC     		pop {r4}
 22782 a8b4 EA46     		mov r10, sp
 22783 a8b6 2546     		mov r5, r4
 22784 a8b8 2404     		lsls r4, r4, # 16
 22785 a8ba 240C     		lsrs r4, r4, # 16
 22786 a8bc 2D0C     		lsrs r5, r5, # 16
 22787 a8be 6043     		muls r0, r0, r4		@R
 22788 a8c0 6143     		muls r1, r1, r4		@I
 22789 a8c2 6A43     		muls r2, r2, r5		@R
 22790 a8c4 6B43     		muls r3, r3, r5		@I
 22791 a8c6 8011     		asrs r0, r0, # 6
 22792 a8c8 8911     		asrs r1, r1, # 6
 22793 a8ca 9211     		asrs r2, r2, # 6
 22794 a8cc 9B11     		asrs r3, r3, # 6
 22795 a8ce 8018     		adds r0, r0, r2	 @r
 22796 a8d0 C918     		adds r1, r1, r3	 @i
 22797 a8d2 3618     		adds r6, r6, r0
 22798 a8d4 7F18     		adds r7, r7, r1
 22799              	
 22800 a8d6 DD46     		mov sp, r11
 22801 a8d8 0FBC     		pop {r0-r3}
 22802 a8da EB46     		mov r11, sp
 22803 a8dc D546     		mov sp, r10
 22804 a8de 10BC     		pop {r4}
 22805 a8e0 EA46     		mov r10, sp
 22806 a8e2 2546     		mov r5, r4
 22807 a8e4 2404     		lsls r4, r4, # 16
 22808 a8e6 240C     		lsrs r4, r4, # 16
 22809 a8e8 2D0C     		lsrs r5, r5, # 16
 22810 a8ea 6043     		muls r0, r0, r4
 22811 a8ec 6143     		muls r1, r1, r4
 22812 a8ee 6A43     		muls r2, r2, r5
 22813 a8f0 6B43     		muls r3, r3, r5
 22814 a8f2 8011     		asrs r0, r0, # 6
 22815 a8f4 8911     		asrs r1, r1, # 6
 22816 a8f6 9211     		asrs r2, r2, # 6
 22817 a8f8 9B11     		asrs r3, r3, # 6
 22818 a8fa 8018     		adds r0, r0, r2         @r
 22819 a8fc C918     		adds r1, r1, r3         @i
 22820 a8fe 3618     		adds r6, r6, r0
 22821 a900 7F18     		adds r7, r7, r1
 22822              	
 22823 a902 DD46     		mov sp, r11
 22824 a904 0FBC     		pop {r0-r3}
 22825 a906 EB46     		mov r11, sp
 22826 a908 D546     		mov sp, r10
 22827 a90a 10BC     		pop {r4}
 22828 a90c EA46     		mov r10, sp
 22829 a90e 2546     		mov r5, r4
 22830 a910 2404     		lsls r4, r4, # 16
 22831 a912 240C     		lsrs r4, r4, # 16
 22832 a914 2D0C     		lsrs r5, r5, # 16
 22833 a916 6043     		muls r0, r0, r4
 22834 a918 6143     		muls r1, r1, r4
 22835 a91a 6A43     		muls r2, r2, r5
ARM GAS  1.s 			page 402


 22836 a91c 6B43     		muls r3, r3, r5
 22837 a91e 8011     		asrs r0, r0, # 6
 22838 a920 8911     		asrs r1, r1, # 6
 22839 a922 9211     		asrs r2, r2, # 6
 22840 a924 9B11     		asrs r3, r3, # 6
 22841 a926 8018     		adds r0, r0, r2  @r
 22842 a928 C918     		adds r1, r1, r3  @i
 22843 a92a 3618     		adds r6, r6, r0
 22844 a92c 7F18     		adds r7, r7, r1
 22845              	
 22846 a92e DD46     		mov sp, r11
 22847 a930 0FBC     		pop {r0-r3}
 22848 a932 EB46     		mov r11, sp
 22849 a934 D546     		mov sp, r10
 22850 a936 10BC     		pop {r4}
 22851 a938 EA46     		mov r10, sp
 22852 a93a 2546     		mov r5, r4
 22853 a93c 2404     		lsls r4, r4, # 16
 22854 a93e 240C     		lsrs r4, r4, # 16
 22855 a940 2D0C     		lsrs r5, r5, # 16
 22856 a942 6043     		muls r0, r0, r4
 22857 a944 6143     		muls r1, r1, r4
 22858 a946 6A43     		muls r2, r2, r5
 22859 a948 6B43     		muls r3, r3, r5
 22860 a94a 8011     		asrs r0, r0, # 6
 22861 a94c 8911     		asrs r1, r1, # 6
 22862 a94e 9211     		asrs r2, r2, # 6
 22863 a950 9B11     		asrs r3, r3, # 6
 22864 a952 8018     		adds r0, r0, r2         @r
 22865 a954 C918     		adds r1, r1, r3         @i
 22866 a956 3618     		adds r6, r6, r0
 22867 a958 7F18     		adds r7, r7, r1
 22868              	
 22869              		@yjm23
 22870              		@0
 22871 a95a DD46     		mov sp, r11
 22872 a95c 0FBC     		pop {r0-r3}
 22873 a95e EB46     		mov r11, sp
 22874 a960 D546     		mov sp, r10
 22875 a962 10BC     		pop {r4}
 22876 a964 EA46     		mov r10, sp
 22877 a966 2546     		mov r5, r4
 22878 a968 2404     		lsls r4, r4, # 16
 22879 a96a 240C     		lsrs r4, r4, # 16
 22880 a96c 2D0C     		lsrs r5, r5, # 16
 22881 a96e 6043     		muls r0, r0, r4		@R
 22882 a970 6143     		muls r1, r1, r4		@I
 22883 a972 6A43     		muls r2, r2, r5		@R
 22884 a974 6B43     		muls r3, r3, r5		@I
 22885 a976 8011     		asrs r0, r0, # 6
 22886 a978 8911     		asrs r1, r1, # 6
 22887 a97a 9211     		asrs r2, r2, # 6
 22888 a97c 9B11     		asrs r3, r3, # 6
 22889 a97e 8018     		adds r0, r0, r2	 @r
 22890 a980 C918     		adds r1, r1, r3	 @i
 22891 a982 3618     		adds r6, r6, r0
 22892 a984 7F18     		adds r7, r7, r1
ARM GAS  1.s 			page 403


 22893              	
 22894 a986 DD46     		mov sp, r11
 22895 a988 0FBC     		pop {r0-r3}
 22896 a98a EB46     		mov r11, sp
 22897 a98c D546     		mov sp, r10
 22898 a98e 10BC     		pop {r4}
 22899 a990 EA46     		mov r10, sp
 22900 a992 2546     		mov r5, r4
 22901 a994 2404     		lsls r4, r4, # 16
 22902 a996 240C     		lsrs r4, r4, # 16
 22903 a998 2D0C     		lsrs r5, r5, # 16
 22904 a99a 6043     		muls r0, r0, r4
 22905 a99c 6143     		muls r1, r1, r4
 22906 a99e 6A43     		muls r2, r2, r5
 22907 a9a0 6B43     		muls r3, r3, r5
 22908 a9a2 8011     		asrs r0, r0, # 6
 22909 a9a4 8911     		asrs r1, r1, # 6
 22910 a9a6 9211     		asrs r2, r2, # 6
 22911 a9a8 9B11     		asrs r3, r3, # 6
 22912 a9aa 8018     		adds r0, r0, r2         @r
 22913 a9ac C918     		adds r1, r1, r3         @i
 22914 a9ae 3618     		adds r6, r6, r0
 22915 a9b0 7F18     		adds r7, r7, r1
 22916              	
 22917 a9b2 DD46     		mov sp, r11
 22918 a9b4 0FBC     		pop {r0-r3}
 22919 a9b6 EB46     		mov r11, sp
 22920 a9b8 D546     		mov sp, r10
 22921 a9ba 10BC     		pop {r4}
 22922 a9bc EA46     		mov r10, sp
 22923 a9be 2546     		mov r5, r4
 22924 a9c0 2404     		lsls r4, r4, # 16
 22925 a9c2 240C     		lsrs r4, r4, # 16
 22926 a9c4 2D0C     		lsrs r5, r5, # 16
 22927 a9c6 6043     		muls r0, r0, r4
 22928 a9c8 6143     		muls r1, r1, r4
 22929 a9ca 6A43     		muls r2, r2, r5
 22930 a9cc 6B43     		muls r3, r3, r5
 22931 a9ce 8011     		asrs r0, r0, # 6
 22932 a9d0 8911     		asrs r1, r1, # 6
 22933 a9d2 9211     		asrs r2, r2, # 6
 22934 a9d4 9B11     		asrs r3, r3, # 6
 22935 a9d6 8018     		adds r0, r0, r2  @r
 22936 a9d8 C918     		adds r1, r1, r3  @i
 22937 a9da 3618     		adds r6, r6, r0
 22938 a9dc 7F18     		adds r7, r7, r1
 22939              	
 22940 a9de DD46     		mov sp, r11
 22941 a9e0 0FBC     		pop {r0-r3}
 22942 a9e2 EB46     		mov r11, sp
 22943 a9e4 D546     		mov sp, r10
 22944 a9e6 10BC     		pop {r4}
 22945 a9e8 EA46     		mov r10, sp
 22946 a9ea 2546     		mov r5, r4
 22947 a9ec 2404     		lsls r4, r4, # 16
 22948 a9ee 240C     		lsrs r4, r4, # 16
 22949 a9f0 2D0C     		lsrs r5, r5, # 16
ARM GAS  1.s 			page 404


 22950 a9f2 6043     		muls r0, r0, r4
 22951 a9f4 6143     		muls r1, r1, r4
 22952 a9f6 6A43     		muls r2, r2, r5
 22953 a9f8 6B43     		muls r3, r3, r5
 22954 a9fa 8011     		asrs r0, r0, # 6
 22955 a9fc 8911     		asrs r1, r1, # 6
 22956 a9fe 9211     		asrs r2, r2, # 6
 22957 aa00 9B11     		asrs r3, r3, # 6
 22958 aa02 8018     		adds r0, r0, r2         @r
 22959 aa04 C918     		adds r1, r1, r3         @i
 22960 aa06 3618     		adds r6, r6, r0
 22961 aa08 7F18     		adds r7, r7, r1
 22962              	
 22963              		@1
 22964 aa0a DD46     		mov sp, r11
 22965 aa0c 0FBC     		pop {r0-r3}
 22966 aa0e EB46     		mov r11, sp
 22967 aa10 D546     		mov sp, r10
 22968 aa12 10BC     		pop {r4}
 22969 aa14 EA46     		mov r10, sp
 22970 aa16 2546     		mov r5, r4
 22971 aa18 2404     		lsls r4, r4, # 16
 22972 aa1a 240C     		lsrs r4, r4, # 16
 22973 aa1c 2D0C     		lsrs r5, r5, # 16
 22974 aa1e 6043     		muls r0, r0, r4		@R
 22975 aa20 6143     		muls r1, r1, r4		@I
 22976 aa22 6A43     		muls r2, r2, r5		@R
 22977 aa24 6B43     		muls r3, r3, r5		@I
 22978 aa26 8011     		asrs r0, r0, # 6
 22979 aa28 8911     		asrs r1, r1, # 6
 22980 aa2a 9211     		asrs r2, r2, # 6
 22981 aa2c 9B11     		asrs r3, r3, # 6
 22982 aa2e 8018     		adds r0, r0, r2	 @r
 22983 aa30 C918     		adds r1, r1, r3	 @i
 22984 aa32 3618     		adds r6, r6, r0
 22985 aa34 7F18     		adds r7, r7, r1
 22986              	
 22987 aa36 DD46     		mov sp, r11
 22988 aa38 0FBC     		pop {r0-r3}
 22989 aa3a EB46     		mov r11, sp
 22990 aa3c D546     		mov sp, r10
 22991 aa3e 10BC     		pop {r4}
 22992 aa40 EA46     		mov r10, sp
 22993 aa42 2546     		mov r5, r4
 22994 aa44 2404     		lsls r4, r4, # 16
 22995 aa46 240C     		lsrs r4, r4, # 16
 22996 aa48 2D0C     		lsrs r5, r5, # 16
 22997 aa4a 6043     		muls r0, r0, r4
 22998 aa4c 6143     		muls r1, r1, r4
 22999 aa4e 6A43     		muls r2, r2, r5
 23000 aa50 6B43     		muls r3, r3, r5
 23001 aa52 8011     		asrs r0, r0, # 6
 23002 aa54 8911     		asrs r1, r1, # 6
 23003 aa56 9211     		asrs r2, r2, # 6
 23004 aa58 9B11     		asrs r3, r3, # 6
 23005 aa5a 8018     		adds r0, r0, r2         @r
 23006 aa5c C918     		adds r1, r1, r3         @i
ARM GAS  1.s 			page 405


 23007 aa5e 3618     		adds r6, r6, r0
 23008 aa60 7F18     		adds r7, r7, r1
 23009              	
 23010 aa62 DD46     		mov sp, r11
 23011 aa64 0FBC     		pop {r0-r3}
 23012 aa66 EB46     		mov r11, sp
 23013 aa68 D546     		mov sp, r10
 23014 aa6a 10BC     		pop {r4}
 23015 aa6c EA46     		mov r10, sp
 23016 aa6e 2546     		mov r5, r4
 23017 aa70 2404     		lsls r4, r4, # 16
 23018 aa72 240C     		lsrs r4, r4, # 16
 23019 aa74 2D0C     		lsrs r5, r5, # 16
 23020 aa76 6043     		muls r0, r0, r4
 23021 aa78 6143     		muls r1, r1, r4
 23022 aa7a 6A43     		muls r2, r2, r5
 23023 aa7c 6B43     		muls r3, r3, r5
 23024 aa7e 8011     		asrs r0, r0, # 6
 23025 aa80 8911     		asrs r1, r1, # 6
 23026 aa82 9211     		asrs r2, r2, # 6
 23027 aa84 9B11     		asrs r3, r3, # 6
 23028 aa86 8018     		adds r0, r0, r2  @r
 23029 aa88 C918     		adds r1, r1, r3  @i
 23030 aa8a 3618     		adds r6, r6, r0
 23031 aa8c 7F18     		adds r7, r7, r1
 23032              	
 23033 aa8e DD46     		mov sp, r11
 23034 aa90 0FBC     		pop {r0-r3}
 23035 aa92 EB46     		mov r11, sp
 23036 aa94 D546     		mov sp, r10
 23037 aa96 10BC     		pop {r4}
 23038 aa98 EA46     		mov r10, sp
 23039 aa9a 2546     		mov r5, r4
 23040 aa9c 2404     		lsls r4, r4, # 16
 23041 aa9e 240C     		lsrs r4, r4, # 16
 23042 aaa0 2D0C     		lsrs r5, r5, # 16
 23043 aaa2 6043     		muls r0, r0, r4
 23044 aaa4 6143     		muls r1, r1, r4
 23045 aaa6 6A43     		muls r2, r2, r5
 23046 aaa8 6B43     		muls r3, r3, r5
 23047 aaaa 8011     		asrs r0, r0, # 6
 23048 aaac 8911     		asrs r1, r1, # 6
 23049 aaae 9211     		asrs r2, r2, # 6
 23050 aab0 9B11     		asrs r3, r3, # 6
 23051 aab2 8018     		adds r0, r0, r2         @r
 23052 aab4 C918     		adds r1, r1, r3         @i
 23053 aab6 3618     		adds r6, r6, r0
 23054 aab8 7F18     		adds r7, r7, r1
 23055              	
 23056              		@2
 23057 aaba DD46     		mov sp, r11
 23058 aabc 0FBC     		pop {r0-r3}
 23059 aabe EB46     		mov r11, sp
 23060 aac0 D546     		mov sp, r10
 23061 aac2 10BC     		pop {r4}
 23062 aac4 EA46     		mov r10, sp
 23063 aac6 2546     		mov r5, r4
ARM GAS  1.s 			page 406


 23064 aac8 2404     		lsls r4, r4, # 16
 23065 aaca 240C     		lsrs r4, r4, # 16
 23066 aacc 2D0C     		lsrs r5, r5, # 16
 23067 aace 6043     		muls r0, r0, r4		@R
 23068 aad0 6143     		muls r1, r1, r4		@I
 23069 aad2 6A43     		muls r2, r2, r5		@R
 23070 aad4 6B43     		muls r3, r3, r5		@I
 23071 aad6 8011     		asrs r0, r0, # 6
 23072 aad8 8911     		asrs r1, r1, # 6
 23073 aada 9211     		asrs r2, r2, # 6
 23074 aadc 9B11     		asrs r3, r3, # 6
 23075 aade 8018     		adds r0, r0, r2	 @r
 23076 aae0 C918     		adds r1, r1, r3	 @i
 23077 aae2 3618     		adds r6, r6, r0
 23078 aae4 7F18     		adds r7, r7, r1
 23079              	
 23080 aae6 DD46     		mov sp, r11
 23081 aae8 0FBC     		pop {r0-r3}
 23082 aaea EB46     		mov r11, sp
 23083 aaec D546     		mov sp, r10
 23084 aaee 10BC     		pop {r4}
 23085 aaf0 EA46     		mov r10, sp
 23086 aaf2 2546     		mov r5, r4
 23087 aaf4 2404     		lsls r4, r4, # 16
 23088 aaf6 240C     		lsrs r4, r4, # 16
 23089 aaf8 2D0C     		lsrs r5, r5, # 16
 23090 aafa 6043     		muls r0, r0, r4
 23091 aafc 6143     		muls r1, r1, r4
 23092 aafe 6A43     		muls r2, r2, r5
 23093 ab00 6B43     		muls r3, r3, r5
 23094 ab02 8011     		asrs r0, r0, # 6
 23095 ab04 8911     		asrs r1, r1, # 6
 23096 ab06 9211     		asrs r2, r2, # 6
 23097 ab08 9B11     		asrs r3, r3, # 6
 23098 ab0a 8018     		adds r0, r0, r2         @r
 23099 ab0c C918     		adds r1, r1, r3         @i
 23100 ab0e 3618     		adds r6, r6, r0
 23101 ab10 7F18     		adds r7, r7, r1
 23102              	
 23103 ab12 DD46     		mov sp, r11
 23104 ab14 0FBC     		pop {r0-r3}
 23105 ab16 EB46     		mov r11, sp
 23106 ab18 D546     		mov sp, r10
 23107 ab1a 10BC     		pop {r4}
 23108 ab1c EA46     		mov r10, sp
 23109 ab1e 2546     		mov r5, r4
 23110 ab20 2404     		lsls r4, r4, # 16
 23111 ab22 240C     		lsrs r4, r4, # 16
 23112 ab24 2D0C     		lsrs r5, r5, # 16
 23113 ab26 6043     		muls r0, r0, r4
 23114 ab28 6143     		muls r1, r1, r4
 23115 ab2a 6A43     		muls r2, r2, r5
 23116 ab2c 6B43     		muls r3, r3, r5
 23117 ab2e 8011     		asrs r0, r0, # 6
 23118 ab30 8911     		asrs r1, r1, # 6
 23119 ab32 9211     		asrs r2, r2, # 6
 23120 ab34 9B11     		asrs r3, r3, # 6
ARM GAS  1.s 			page 407


 23121 ab36 8018     		adds r0, r0, r2  @r
 23122 ab38 C918     		adds r1, r1, r3  @i
 23123 ab3a 3618     		adds r6, r6, r0
 23124 ab3c 7F18     		adds r7, r7, r1
 23125              	
 23126 ab3e DD46     		mov sp, r11
 23127 ab40 0FBC     		pop {r0-r3}
 23128 ab42 EB46     		mov r11, sp
 23129 ab44 D546     		mov sp, r10
 23130 ab46 10BC     		pop {r4}
 23131 ab48 EA46     		mov r10, sp
 23132 ab4a 2546     		mov r5, r4
 23133 ab4c 2404     		lsls r4, r4, # 16
 23134 ab4e 240C     		lsrs r4, r4, # 16
 23135 ab50 2D0C     		lsrs r5, r5, # 16
 23136 ab52 6043     		muls r0, r0, r4
 23137 ab54 6143     		muls r1, r1, r4
 23138 ab56 6A43     		muls r2, r2, r5
 23139 ab58 6B43     		muls r3, r3, r5
 23140 ab5a 8011     		asrs r0, r0, # 6
 23141 ab5c 8911     		asrs r1, r1, # 6
 23142 ab5e 9211     		asrs r2, r2, # 6
 23143 ab60 9B11     		asrs r3, r3, # 6
 23144 ab62 8018     		adds r0, r0, r2         @r
 23145 ab64 C918     		adds r1, r1, r3         @i
 23146 ab66 3618     		adds r6, r6, r0
 23147 ab68 7F18     		adds r7, r7, r1
 23148              	
 23149              		@3
 23150 ab6a DD46     		mov sp, r11
 23151 ab6c 0FBC     		pop {r0-r3}
 23152 ab6e EB46     		mov r11, sp
 23153 ab70 D546     		mov sp, r10
 23154 ab72 10BC     		pop {r4}
 23155 ab74 EA46     		mov r10, sp
 23156 ab76 2546     		mov r5, r4
 23157 ab78 2404     		lsls r4, r4, # 16
 23158 ab7a 240C     		lsrs r4, r4, # 16
 23159 ab7c 2D0C     		lsrs r5, r5, # 16
 23160 ab7e 6043     		muls r0, r0, r4		@R
 23161 ab80 6143     		muls r1, r1, r4		@I
 23162 ab82 6A43     		muls r2, r2, r5		@R
 23163 ab84 6B43     		muls r3, r3, r5		@I
 23164 ab86 8011     		asrs r0, r0, # 6
 23165 ab88 8911     		asrs r1, r1, # 6
 23166 ab8a 9211     		asrs r2, r2, # 6
 23167 ab8c 9B11     		asrs r3, r3, # 6
 23168 ab8e 8018     		adds r0, r0, r2	 @r
 23169 ab90 C918     		adds r1, r1, r3	 @i
 23170 ab92 3618     		adds r6, r6, r0
 23171 ab94 7F18     		adds r7, r7, r1
 23172              	
 23173 ab96 DD46     		mov sp, r11
 23174 ab98 0FBC     		pop {r0-r3}
 23175 ab9a EB46     		mov r11, sp
 23176 ab9c D546     		mov sp, r10
 23177 ab9e 10BC     		pop {r4}
ARM GAS  1.s 			page 408


 23178 aba0 EA46     		mov r10, sp
 23179 aba2 2546     		mov r5, r4
 23180 aba4 2404     		lsls r4, r4, # 16
 23181 aba6 240C     		lsrs r4, r4, # 16
 23182 aba8 2D0C     		lsrs r5, r5, # 16
 23183 abaa 6043     		muls r0, r0, r4
 23184 abac 6143     		muls r1, r1, r4
 23185 abae 6A43     		muls r2, r2, r5
 23186 abb0 6B43     		muls r3, r3, r5
 23187 abb2 8011     		asrs r0, r0, # 6
 23188 abb4 8911     		asrs r1, r1, # 6
 23189 abb6 9211     		asrs r2, r2, # 6
 23190 abb8 9B11     		asrs r3, r3, # 6
 23191 abba 8018     		adds r0, r0, r2         @r
 23192 abbc C918     		adds r1, r1, r3         @i
 23193 abbe 3618     		adds r6, r6, r0
 23194 abc0 7F18     		adds r7, r7, r1
 23195              	
 23196 abc2 DD46     		mov sp, r11
 23197 abc4 0FBC     		pop {r0-r3}
 23198 abc6 EB46     		mov r11, sp
 23199 abc8 D546     		mov sp, r10
 23200 abca 10BC     		pop {r4}
 23201 abcc EA46     		mov r10, sp
 23202 abce 2546     		mov r5, r4
 23203 abd0 2404     		lsls r4, r4, # 16
 23204 abd2 240C     		lsrs r4, r4, # 16
 23205 abd4 2D0C     		lsrs r5, r5, # 16
 23206 abd6 6043     		muls r0, r0, r4
 23207 abd8 6143     		muls r1, r1, r4
 23208 abda 6A43     		muls r2, r2, r5
 23209 abdc 6B43     		muls r3, r3, r5
 23210 abde 8011     		asrs r0, r0, # 6
 23211 abe0 8911     		asrs r1, r1, # 6
 23212 abe2 9211     		asrs r2, r2, # 6
 23213 abe4 9B11     		asrs r3, r3, # 6
 23214 abe6 8018     		adds r0, r0, r2  @r
 23215 abe8 C918     		adds r1, r1, r3  @i
 23216 abea 3618     		adds r6, r6, r0
 23217 abec 7F18     		adds r7, r7, r1
 23218              	
 23219 abee DD46     		mov sp, r11
 23220 abf0 0FBC     		pop {r0-r3}
 23221 abf2 EB46     		mov r11, sp
 23222 abf4 D546     		mov sp, r10
 23223 abf6 10BC     		pop {r4}
 23224 abf8 EA46     		mov r10, sp
 23225 abfa 2546     		mov r5, r4
 23226 abfc 2404     		lsls r4, r4, # 16
 23227 abfe 240C     		lsrs r4, r4, # 16
 23228 ac00 2D0C     		lsrs r5, r5, # 16
 23229 ac02 6043     		muls r0, r0, r4
 23230 ac04 6143     		muls r1, r1, r4
 23231 ac06 6A43     		muls r2, r2, r5
 23232 ac08 6B43     		muls r3, r3, r5
 23233 ac0a 8011     		asrs r0, r0, # 6
 23234 ac0c 8911     		asrs r1, r1, # 6
ARM GAS  1.s 			page 409


 23235 ac0e 9211     		asrs r2, r2, # 6
 23236 ac10 9B11     		asrs r3, r3, # 6
 23237 ac12 8018     		adds r0, r0, r2         @r
 23238 ac14 C918     		adds r1, r1, r3         @i
 23239 ac16 3618     		adds r6, r6, r0
 23240 ac18 7F18     		adds r7, r7, r1
 23241              	
 23242              		@4
 23243 ac1a DD46     		mov sp, r11
 23244 ac1c 0FBC     		pop {r0-r3}
 23245 ac1e EB46     		mov r11, sp
 23246 ac20 D546     		mov sp, r10
 23247 ac22 10BC     		pop {r4}
 23248 ac24 EA46     		mov r10, sp
 23249 ac26 2546     		mov r5, r4
 23250 ac28 2404     		lsls r4, r4, # 16
 23251 ac2a 240C     		lsrs r4, r4, # 16
 23252 ac2c 2D0C     		lsrs r5, r5, # 16
 23253 ac2e 6043     		muls r0, r0, r4		@R
 23254 ac30 6143     		muls r1, r1, r4		@I
 23255 ac32 6A43     		muls r2, r2, r5		@R
 23256 ac34 6B43     		muls r3, r3, r5		@I
 23257 ac36 8011     		asrs r0, r0, # 6
 23258 ac38 8911     		asrs r1, r1, # 6
 23259 ac3a 9211     		asrs r2, r2, # 6
 23260 ac3c 9B11     		asrs r3, r3, # 6
 23261 ac3e 8018     		adds r0, r0, r2	 @r
 23262 ac40 C918     		adds r1, r1, r3	 @i
 23263 ac42 3618     		adds r6, r6, r0
 23264 ac44 7F18     		adds r7, r7, r1
 23265              	
 23266 ac46 DD46     		mov sp, r11
 23267 ac48 0FBC     		pop {r0-r3}
 23268 ac4a EB46     		mov r11, sp
 23269 ac4c D546     		mov sp, r10
 23270 ac4e 10BC     		pop {r4}
 23271 ac50 EA46     		mov r10, sp
 23272 ac52 2546     		mov r5, r4
 23273 ac54 2404     		lsls r4, r4, # 16
 23274 ac56 240C     		lsrs r4, r4, # 16
 23275 ac58 2D0C     		lsrs r5, r5, # 16
 23276 ac5a 6043     		muls r0, r0, r4
 23277 ac5c 6143     		muls r1, r1, r4
 23278 ac5e 6A43     		muls r2, r2, r5
 23279 ac60 6B43     		muls r3, r3, r5
 23280 ac62 8011     		asrs r0, r0, # 6
 23281 ac64 8911     		asrs r1, r1, # 6
 23282 ac66 9211     		asrs r2, r2, # 6
 23283 ac68 9B11     		asrs r3, r3, # 6
 23284 ac6a 8018     		adds r0, r0, r2         @r
 23285 ac6c C918     		adds r1, r1, r3         @i
 23286 ac6e 3618     		adds r6, r6, r0
 23287 ac70 7F18     		adds r7, r7, r1
 23288              	
 23289 ac72 DD46     		mov sp, r11
 23290 ac74 0FBC     		pop {r0-r3}
 23291 ac76 EB46     		mov r11, sp
ARM GAS  1.s 			page 410


 23292 ac78 D546     		mov sp, r10
 23293 ac7a 10BC     		pop {r4}
 23294 ac7c EA46     		mov r10, sp
 23295 ac7e 2546     		mov r5, r4
 23296 ac80 2404     		lsls r4, r4, # 16
 23297 ac82 240C     		lsrs r4, r4, # 16
 23298 ac84 2D0C     		lsrs r5, r5, # 16
 23299 ac86 6043     		muls r0, r0, r4
 23300 ac88 6143     		muls r1, r1, r4
 23301 ac8a 6A43     		muls r2, r2, r5
 23302 ac8c 6B43     		muls r3, r3, r5
 23303 ac8e 8011     		asrs r0, r0, # 6
 23304 ac90 8911     		asrs r1, r1, # 6
 23305 ac92 9211     		asrs r2, r2, # 6
 23306 ac94 9B11     		asrs r3, r3, # 6
 23307 ac96 8018     		adds r0, r0, r2  @r
 23308 ac98 C918     		adds r1, r1, r3  @i
 23309 ac9a 3618     		adds r6, r6, r0
 23310 ac9c 7F18     		adds r7, r7, r1
 23311              	
 23312 ac9e DD46     		mov sp, r11
 23313 aca0 0FBC     		pop {r0-r3}
 23314 aca2 EB46     		mov r11, sp
 23315 aca4 D546     		mov sp, r10
 23316 aca6 10BC     		pop {r4}
 23317 aca8 EA46     		mov r10, sp
 23318 acaa 2546     		mov r5, r4
 23319 acac 2404     		lsls r4, r4, # 16
 23320 acae 240C     		lsrs r4, r4, # 16
 23321 acb0 2D0C     		lsrs r5, r5, # 16
 23322 acb2 6043     		muls r0, r0, r4
 23323 acb4 6143     		muls r1, r1, r4
 23324 acb6 6A43     		muls r2, r2, r5
 23325 acb8 6B43     		muls r3, r3, r5
 23326 acba 8011     		asrs r0, r0, # 6
 23327 acbc 8911     		asrs r1, r1, # 6
 23328 acbe 9211     		asrs r2, r2, # 6
 23329 acc0 9B11     		asrs r3, r3, # 6
 23330 acc2 8018     		adds r0, r0, r2         @r
 23331 acc4 C918     		adds r1, r1, r3         @i
 23332 acc6 3618     		adds r6, r6, r0
 23333 acc8 7F18     		adds r7, r7, r1
 23334              	
 23335              		@5
 23336 acca DD46     		mov sp, r11
 23337 accc 0FBC     		pop {r0-r3}
 23338 acce EB46     		mov r11, sp
 23339 acd0 D546     		mov sp, r10
 23340 acd2 10BC     		pop {r4}
 23341 acd4 EA46     		mov r10, sp
 23342 acd6 2546     		mov r5, r4
 23343 acd8 2404     		lsls r4, r4, # 16
 23344 acda 240C     		lsrs r4, r4, # 16
 23345 acdc 2D0C     		lsrs r5, r5, # 16
 23346 acde 6043     		muls r0, r0, r4		@R
 23347 ace0 6143     		muls r1, r1, r4		@I
 23348 ace2 6A43     		muls r2, r2, r5		@R
ARM GAS  1.s 			page 411


 23349 ace4 6B43     		muls r3, r3, r5		@I
 23350 ace6 8011     		asrs r0, r0, # 6
 23351 ace8 8911     		asrs r1, r1, # 6
 23352 acea 9211     		asrs r2, r2, # 6
 23353 acec 9B11     		asrs r3, r3, # 6
 23354 acee 8018     		adds r0, r0, r2	 @r
 23355 acf0 C918     		adds r1, r1, r3	 @i
 23356 acf2 3618     		adds r6, r6, r0
 23357 acf4 7F18     		adds r7, r7, r1
 23358              	
 23359 acf6 DD46     		mov sp, r11
 23360 acf8 0FBC     		pop {r0-r3}
 23361 acfa EB46     		mov r11, sp
 23362 acfc D546     		mov sp, r10
 23363 acfe 10BC     		pop {r4}
 23364 ad00 EA46     		mov r10, sp
 23365 ad02 2546     		mov r5, r4
 23366 ad04 2404     		lsls r4, r4, # 16
 23367 ad06 240C     		lsrs r4, r4, # 16
 23368 ad08 2D0C     		lsrs r5, r5, # 16
 23369 ad0a 6043     		muls r0, r0, r4
 23370 ad0c 6143     		muls r1, r1, r4
 23371 ad0e 6A43     		muls r2, r2, r5
 23372 ad10 6B43     		muls r3, r3, r5
 23373 ad12 8011     		asrs r0, r0, # 6
 23374 ad14 8911     		asrs r1, r1, # 6
 23375 ad16 9211     		asrs r2, r2, # 6
 23376 ad18 9B11     		asrs r3, r3, # 6
 23377 ad1a 8018     		adds r0, r0, r2         @r
 23378 ad1c C918     		adds r1, r1, r3         @i
 23379 ad1e 3618     		adds r6, r6, r0
 23380 ad20 7F18     		adds r7, r7, r1
 23381              	
 23382 ad22 DD46     		mov sp, r11
 23383 ad24 0FBC     		pop {r0-r3}
 23384 ad26 EB46     		mov r11, sp
 23385 ad28 D546     		mov sp, r10
 23386 ad2a 10BC     		pop {r4}
 23387 ad2c EA46     		mov r10, sp
 23388 ad2e 2546     		mov r5, r4
 23389 ad30 2404     		lsls r4, r4, # 16
 23390 ad32 240C     		lsrs r4, r4, # 16
 23391 ad34 2D0C     		lsrs r5, r5, # 16
 23392 ad36 6043     		muls r0, r0, r4
 23393 ad38 6143     		muls r1, r1, r4
 23394 ad3a 6A43     		muls r2, r2, r5
 23395 ad3c 6B43     		muls r3, r3, r5
 23396 ad3e 8011     		asrs r0, r0, # 6
 23397 ad40 8911     		asrs r1, r1, # 6
 23398 ad42 9211     		asrs r2, r2, # 6
 23399 ad44 9B11     		asrs r3, r3, # 6
 23400 ad46 8018     		adds r0, r0, r2  @r
 23401 ad48 C918     		adds r1, r1, r3  @i
 23402 ad4a 3618     		adds r6, r6, r0
 23403 ad4c 7F18     		adds r7, r7, r1
 23404              	
 23405 ad4e DD46     		mov sp, r11
ARM GAS  1.s 			page 412


 23406 ad50 0FBC     		pop {r0-r3}
 23407 ad52 EB46     		mov r11, sp
 23408 ad54 D546     		mov sp, r10
 23409 ad56 10BC     		pop {r4}
 23410 ad58 EA46     		mov r10, sp
 23411 ad5a 2546     		mov r5, r4
 23412 ad5c 2404     		lsls r4, r4, # 16
 23413 ad5e 240C     		lsrs r4, r4, # 16
 23414 ad60 2D0C     		lsrs r5, r5, # 16
 23415 ad62 6043     		muls r0, r0, r4
 23416 ad64 6143     		muls r1, r1, r4
 23417 ad66 6A43     		muls r2, r2, r5
 23418 ad68 6B43     		muls r3, r3, r5
 23419 ad6a 8011     		asrs r0, r0, # 6
 23420 ad6c 8911     		asrs r1, r1, # 6
 23421 ad6e 9211     		asrs r2, r2, # 6
 23422 ad70 9B11     		asrs r3, r3, # 6
 23423 ad72 8018     		adds r0, r0, r2         @r
 23424 ad74 C918     		adds r1, r1, r3         @i
 23425 ad76 3618     		adds r6, r6, r0
 23426 ad78 7F18     		adds r7, r7, r1
 23427              	
 23428              		@6
 23429 ad7a DD46     		mov sp, r11
 23430 ad7c 0FBC     		pop {r0-r3}
 23431 ad7e EB46     		mov r11, sp
 23432 ad80 D546     		mov sp, r10
 23433 ad82 10BC     		pop {r4}
 23434 ad84 EA46     		mov r10, sp
 23435 ad86 2546     		mov r5, r4
 23436 ad88 2404     		lsls r4, r4, # 16
 23437 ad8a 240C     		lsrs r4, r4, # 16
 23438 ad8c 2D0C     		lsrs r5, r5, # 16
 23439 ad8e 6043     		muls r0, r0, r4		@R
 23440 ad90 6143     		muls r1, r1, r4		@I
 23441 ad92 6A43     		muls r2, r2, r5		@R
 23442 ad94 6B43     		muls r3, r3, r5		@I
 23443 ad96 8011     		asrs r0, r0, # 6
 23444 ad98 8911     		asrs r1, r1, # 6
 23445 ad9a 9211     		asrs r2, r2, # 6
 23446 ad9c 9B11     		asrs r3, r3, # 6
 23447 ad9e 8018     		adds r0, r0, r2	 @r
 23448 ada0 C918     		adds r1, r1, r3	 @i
 23449 ada2 3618     		adds r6, r6, r0
 23450 ada4 7F18     		adds r7, r7, r1
 23451              	
 23452 ada6 DD46     		mov sp, r11
 23453 ada8 0FBC     		pop {r0-r3}
 23454 adaa EB46     		mov r11, sp
 23455 adac D546     		mov sp, r10
 23456 adae 10BC     		pop {r4}
 23457 adb0 EA46     		mov r10, sp
 23458 adb2 2546     		mov r5, r4
 23459 adb4 2404     		lsls r4, r4, # 16
 23460 adb6 240C     		lsrs r4, r4, # 16
 23461 adb8 2D0C     		lsrs r5, r5, # 16
 23462 adba 6043     		muls r0, r0, r4
ARM GAS  1.s 			page 413


 23463 adbc 6143     		muls r1, r1, r4
 23464 adbe 6A43     		muls r2, r2, r5
 23465 adc0 6B43     		muls r3, r3, r5
 23466 adc2 8011     		asrs r0, r0, # 6
 23467 adc4 8911     		asrs r1, r1, # 6
 23468 adc6 9211     		asrs r2, r2, # 6
 23469 adc8 9B11     		asrs r3, r3, # 6
 23470 adca 8018     		adds r0, r0, r2         @r
 23471 adcc C918     		adds r1, r1, r3         @i
 23472 adce 3618     		adds r6, r6, r0
 23473 add0 7F18     		adds r7, r7, r1
 23474              	
 23475 add2 DD46     		mov sp, r11
 23476 add4 0FBC     		pop {r0-r3}
 23477 add6 EB46     		mov r11, sp
 23478 add8 D546     		mov sp, r10
 23479 adda 10BC     		pop {r4}
 23480 addc EA46     		mov r10, sp
 23481 adde 2546     		mov r5, r4
 23482 ade0 2404     		lsls r4, r4, # 16
 23483 ade2 240C     		lsrs r4, r4, # 16
 23484 ade4 2D0C     		lsrs r5, r5, # 16
 23485 ade6 6043     		muls r0, r0, r4
 23486 ade8 6143     		muls r1, r1, r4
 23487 adea 6A43     		muls r2, r2, r5
 23488 adec 6B43     		muls r3, r3, r5
 23489 adee 8011     		asrs r0, r0, # 6
 23490 adf0 8911     		asrs r1, r1, # 6
 23491 adf2 9211     		asrs r2, r2, # 6
 23492 adf4 9B11     		asrs r3, r3, # 6
 23493 adf6 8018     		adds r0, r0, r2  @r
 23494 adf8 C918     		adds r1, r1, r3  @i
 23495 adfa 3618     		adds r6, r6, r0
 23496 adfc 7F18     		adds r7, r7, r1
 23497              	
 23498 adfe DD46     		mov sp, r11
 23499 ae00 0FBC     		pop {r0-r3}
 23500 ae02 EB46     		mov r11, sp
 23501 ae04 D546     		mov sp, r10
 23502 ae06 10BC     		pop {r4}
 23503 ae08 EA46     		mov r10, sp
 23504 ae0a 2546     		mov r5, r4
 23505 ae0c 2404     		lsls r4, r4, # 16
 23506 ae0e 240C     		lsrs r4, r4, # 16
 23507 ae10 2D0C     		lsrs r5, r5, # 16
 23508 ae12 6043     		muls r0, r0, r4
 23509 ae14 6143     		muls r1, r1, r4
 23510 ae16 6A43     		muls r2, r2, r5
 23511 ae18 6B43     		muls r3, r3, r5
 23512 ae1a 8011     		asrs r0, r0, # 6
 23513 ae1c 8911     		asrs r1, r1, # 6
 23514 ae1e 9211     		asrs r2, r2, # 6
 23515 ae20 9B11     		asrs r3, r3, # 6
 23516 ae22 8018     		adds r0, r0, r2         @r
 23517 ae24 C918     		adds r1, r1, r3         @i
 23518 ae26 3618     		adds r6, r6, r0
 23519 ae28 7F18     		adds r7, r7, r1
ARM GAS  1.s 			page 414


 23520              	
 23521              		@7
 23522 ae2a DD46     		mov sp, r11
 23523 ae2c 0FBC     		pop {r0-r3}
 23524 ae2e EB46     		mov r11, sp
 23525 ae30 D546     		mov sp, r10
 23526 ae32 10BC     		pop {r4}
 23527 ae34 EA46     		mov r10, sp
 23528 ae36 2546     		mov r5, r4
 23529 ae38 2404     		lsls r4, r4, # 16
 23530 ae3a 240C     		lsrs r4, r4, # 16
 23531 ae3c 2D0C     		lsrs r5, r5, # 16
 23532 ae3e 6043     		muls r0, r0, r4		@R
 23533 ae40 6143     		muls r1, r1, r4		@I
 23534 ae42 6A43     		muls r2, r2, r5		@R
 23535 ae44 6B43     		muls r3, r3, r5		@I
 23536 ae46 8011     		asrs r0, r0, # 6
 23537 ae48 8911     		asrs r1, r1, # 6
 23538 ae4a 9211     		asrs r2, r2, # 6
 23539 ae4c 9B11     		asrs r3, r3, # 6
 23540 ae4e 8018     		adds r0, r0, r2	 @r
 23541 ae50 C918     		adds r1, r1, r3	 @i
 23542 ae52 3618     		adds r6, r6, r0
 23543 ae54 7F18     		adds r7, r7, r1
 23544              	
 23545 ae56 DD46     		mov sp, r11
 23546 ae58 0FBC     		pop {r0-r3}
 23547 ae5a EB46     		mov r11, sp
 23548 ae5c D546     		mov sp, r10
 23549 ae5e 10BC     		pop {r4}
 23550 ae60 EA46     		mov r10, sp
 23551 ae62 2546     		mov r5, r4
 23552 ae64 2404     		lsls r4, r4, # 16
 23553 ae66 240C     		lsrs r4, r4, # 16
 23554 ae68 2D0C     		lsrs r5, r5, # 16
 23555 ae6a 6043     		muls r0, r0, r4
 23556 ae6c 6143     		muls r1, r1, r4
 23557 ae6e 6A43     		muls r2, r2, r5
 23558 ae70 6B43     		muls r3, r3, r5
 23559 ae72 8011     		asrs r0, r0, # 6
 23560 ae74 8911     		asrs r1, r1, # 6
 23561 ae76 9211     		asrs r2, r2, # 6
 23562 ae78 9B11     		asrs r3, r3, # 6
 23563 ae7a 8018     		adds r0, r0, r2         @r
 23564 ae7c C918     		adds r1, r1, r3         @i
 23565 ae7e 3618     		adds r6, r6, r0
 23566 ae80 7F18     		adds r7, r7, r1
 23567              	
 23568 ae82 DD46     		mov sp, r11
 23569 ae84 0FBC     		pop {r0-r3}
 23570 ae86 EB46     		mov r11, sp
 23571 ae88 D546     		mov sp, r10
 23572 ae8a 10BC     		pop {r4}
 23573 ae8c EA46     		mov r10, sp
 23574 ae8e 2546     		mov r5, r4
 23575 ae90 2404     		lsls r4, r4, # 16
 23576 ae92 240C     		lsrs r4, r4, # 16
ARM GAS  1.s 			page 415


 23577 ae94 2D0C     		lsrs r5, r5, # 16
 23578 ae96 6043     		muls r0, r0, r4
 23579 ae98 6143     		muls r1, r1, r4
 23580 ae9a 6A43     		muls r2, r2, r5
 23581 ae9c 6B43     		muls r3, r3, r5
 23582 ae9e 8011     		asrs r0, r0, # 6
 23583 aea0 8911     		asrs r1, r1, # 6
 23584 aea2 9211     		asrs r2, r2, # 6
 23585 aea4 9B11     		asrs r3, r3, # 6
 23586 aea6 8018     		adds r0, r0, r2  @r
 23587 aea8 C918     		adds r1, r1, r3  @i
 23588 aeaa 3618     		adds r6, r6, r0
 23589 aeac 7F18     		adds r7, r7, r1
 23590              	
 23591 aeae DD46     		mov sp, r11
 23592 aeb0 0FBC     		pop {r0-r3}
 23593 aeb2 EB46     		mov r11, sp
 23594 aeb4 D546     		mov sp, r10
 23595 aeb6 10BC     		pop {r4}
 23596 aeb8 EA46     		mov r10, sp
 23597 aeba 2546     		mov r5, r4
 23598 aebc 2404     		lsls r4, r4, # 16
 23599 aebe 240C     		lsrs r4, r4, # 16
 23600 aec0 2D0C     		lsrs r5, r5, # 16
 23601 aec2 6043     		muls r0, r0, r4
 23602 aec4 6143     		muls r1, r1, r4
 23603 aec6 6A43     		muls r2, r2, r5
 23604 aec8 6B43     		muls r3, r3, r5
 23605 aeca 8011     		asrs r0, r0, # 6
 23606 aecc 8911     		asrs r1, r1, # 6
 23607 aece 9211     		asrs r2, r2, # 6
 23608 aed0 9B11     		asrs r3, r3, # 6
 23609 aed2 8018     		adds r0, r0, r2         @r
 23610 aed4 C918     		adds r1, r1, r3         @i
 23611 aed6 3618     		adds r6, r6, r0
 23612 aed8 7F18     		adds r7, r7, r1
 23613              	
 23614              		@8
 23615 aeda DD46     		mov sp, r11
 23616 aedc 0FBC     		pop {r0-r3}
 23617 aede EB46     		mov r11, sp
 23618 aee0 D546     		mov sp, r10
 23619 aee2 10BC     		pop {r4}
 23620 aee4 EA46     		mov r10, sp
 23621 aee6 2546     		mov r5, r4
 23622 aee8 2404     		lsls r4, r4, # 16
 23623 aeea 240C     		lsrs r4, r4, # 16
 23624 aeec 2D0C     		lsrs r5, r5, # 16
 23625 aeee 6043     		muls r0, r0, r4		@R
 23626 aef0 6143     		muls r1, r1, r4		@I
 23627 aef2 6A43     		muls r2, r2, r5		@R
 23628 aef4 6B43     		muls r3, r3, r5		@I
 23629 aef6 8011     		asrs r0, r0, # 6
 23630 aef8 8911     		asrs r1, r1, # 6
 23631 aefa 9211     		asrs r2, r2, # 6
 23632 aefc 9B11     		asrs r3, r3, # 6
 23633 aefe 8018     		adds r0, r0, r2	 @r
ARM GAS  1.s 			page 416


 23634 af00 C918     		adds r1, r1, r3	 @i
 23635 af02 3618     		adds r6, r6, r0
 23636 af04 7F18     		adds r7, r7, r1
 23637              	
 23638 af06 DD46     		mov sp, r11
 23639 af08 0FBC     		pop {r0-r3}
 23640 af0a EB46     		mov r11, sp
 23641 af0c D546     		mov sp, r10
 23642 af0e 10BC     		pop {r4}
 23643 af10 EA46     		mov r10, sp
 23644 af12 2546     		mov r5, r4
 23645 af14 2404     		lsls r4, r4, # 16
 23646 af16 240C     		lsrs r4, r4, # 16
 23647 af18 2D0C     		lsrs r5, r5, # 16
 23648 af1a 6043     		muls r0, r0, r4
 23649 af1c 6143     		muls r1, r1, r4
 23650 af1e 6A43     		muls r2, r2, r5
 23651 af20 6B43     		muls r3, r3, r5
 23652 af22 8011     		asrs r0, r0, # 6
 23653 af24 8911     		asrs r1, r1, # 6
 23654 af26 9211     		asrs r2, r2, # 6
 23655 af28 9B11     		asrs r3, r3, # 6
 23656 af2a 8018     		adds r0, r0, r2         @r
 23657 af2c C918     		adds r1, r1, r3         @i
 23658 af2e 3618     		adds r6, r6, r0
 23659 af30 7F18     		adds r7, r7, r1
 23660              	
 23661 af32 DD46     		mov sp, r11
 23662 af34 0FBC     		pop {r0-r3}
 23663 af36 EB46     		mov r11, sp
 23664 af38 D546     		mov sp, r10
 23665 af3a 10BC     		pop {r4}
 23666 af3c EA46     		mov r10, sp
 23667 af3e 2546     		mov r5, r4
 23668 af40 2404     		lsls r4, r4, # 16
 23669 af42 240C     		lsrs r4, r4, # 16
 23670 af44 2D0C     		lsrs r5, r5, # 16
 23671 af46 6043     		muls r0, r0, r4
 23672 af48 6143     		muls r1, r1, r4
 23673 af4a 6A43     		muls r2, r2, r5
 23674 af4c 6B43     		muls r3, r3, r5
 23675 af4e 8011     		asrs r0, r0, # 6
 23676 af50 8911     		asrs r1, r1, # 6
 23677 af52 9211     		asrs r2, r2, # 6
 23678 af54 9B11     		asrs r3, r3, # 6
 23679 af56 8018     		adds r0, r0, r2  @r
 23680 af58 C918     		adds r1, r1, r3  @i
 23681 af5a 3618     		adds r6, r6, r0
 23682 af5c 7F18     		adds r7, r7, r1
 23683              	
 23684 af5e DD46     		mov sp, r11
 23685 af60 0FBC     		pop {r0-r3}
 23686 af62 EB46     		mov r11, sp
 23687 af64 D546     		mov sp, r10
 23688 af66 10BC     		pop {r4}
 23689 af68 EA46     		mov r10, sp
 23690 af6a 2546     		mov r5, r4
ARM GAS  1.s 			page 417


 23691 af6c 2404     		lsls r4, r4, # 16
 23692 af6e 240C     		lsrs r4, r4, # 16
 23693 af70 2D0C     		lsrs r5, r5, # 16
 23694 af72 6043     		muls r0, r0, r4
 23695 af74 6143     		muls r1, r1, r4
 23696 af76 6A43     		muls r2, r2, r5
 23697 af78 6B43     		muls r3, r3, r5
 23698 af7a 8011     		asrs r0, r0, # 6
 23699 af7c 8911     		asrs r1, r1, # 6
 23700 af7e 9211     		asrs r2, r2, # 6
 23701 af80 9B11     		asrs r3, r3, # 6
 23702 af82 8018     		adds r0, r0, r2         @r
 23703 af84 C918     		adds r1, r1, r3         @i
 23704 af86 3618     		adds r6, r6, r0
 23705 af88 7F18     		adds r7, r7, r1
 23706              	
 23707              		@9
 23708 af8a DD46     		mov sp, r11
 23709 af8c 0FBC     		pop {r0-r3}
 23710 af8e EB46     		mov r11, sp
 23711 af90 D546     		mov sp, r10
 23712 af92 10BC     		pop {r4}
 23713 af94 EA46     		mov r10, sp
 23714 af96 2546     		mov r5, r4
 23715 af98 2404     		lsls r4, r4, # 16
 23716 af9a 240C     		lsrs r4, r4, # 16
 23717 af9c 2D0C     		lsrs r5, r5, # 16
 23718 af9e 6043     		muls r0, r0, r4		@R
 23719 afa0 6143     		muls r1, r1, r4		@I
 23720 afa2 6A43     		muls r2, r2, r5		@R
 23721 afa4 6B43     		muls r3, r3, r5		@I
 23722 afa6 8011     		asrs r0, r0, # 6
 23723 afa8 8911     		asrs r1, r1, # 6
 23724 afaa 9211     		asrs r2, r2, # 6
 23725 afac 9B11     		asrs r3, r3, # 6
 23726 afae 8018     		adds r0, r0, r2	 @r
 23727 afb0 C918     		adds r1, r1, r3	 @i
 23728 afb2 3618     		adds r6, r6, r0
 23729 afb4 7F18     		adds r7, r7, r1
 23730              	
 23731 afb6 DD46     		mov sp, r11
 23732 afb8 0FBC     		pop {r0-r3}
 23733 afba EB46     		mov r11, sp
 23734 afbc D546     		mov sp, r10
 23735 afbe 10BC     		pop {r4}
 23736 afc0 EA46     		mov r10, sp
 23737 afc2 2546     		mov r5, r4
 23738 afc4 2404     		lsls r4, r4, # 16
 23739 afc6 240C     		lsrs r4, r4, # 16
 23740 afc8 2D0C     		lsrs r5, r5, # 16
 23741 afca 6043     		muls r0, r0, r4
 23742 afcc 6143     		muls r1, r1, r4
 23743 afce 6A43     		muls r2, r2, r5
 23744 afd0 6B43     		muls r3, r3, r5
 23745 afd2 8011     		asrs r0, r0, # 6
 23746 afd4 8911     		asrs r1, r1, # 6
 23747 afd6 9211     		asrs r2, r2, # 6
ARM GAS  1.s 			page 418


 23748 afd8 9B11     		asrs r3, r3, # 6
 23749 afda 8018     		adds r0, r0, r2         @r
 23750 afdc C918     		adds r1, r1, r3         @i
 23751 afde 3618     		adds r6, r6, r0
 23752 afe0 7F18     		adds r7, r7, r1
 23753              	
 23754 afe2 DD46     		mov sp, r11
 23755 afe4 0FBC     		pop {r0-r3}
 23756 afe6 EB46     		mov r11, sp
 23757 afe8 D546     		mov sp, r10
 23758 afea 10BC     		pop {r4}
 23759 afec EA46     		mov r10, sp
 23760 afee 2546     		mov r5, r4
 23761 aff0 2404     		lsls r4, r4, # 16
 23762 aff2 240C     		lsrs r4, r4, # 16
 23763 aff4 2D0C     		lsrs r5, r5, # 16
 23764 aff6 6043     		muls r0, r0, r4
 23765 aff8 6143     		muls r1, r1, r4
 23766 affa 6A43     		muls r2, r2, r5
 23767 affc 6B43     		muls r3, r3, r5
 23768 affe 8011     		asrs r0, r0, # 6
 23769 b000 8911     		asrs r1, r1, # 6
 23770 b002 9211     		asrs r2, r2, # 6
 23771 b004 9B11     		asrs r3, r3, # 6
 23772 b006 8018     		adds r0, r0, r2  @r
 23773 b008 C918     		adds r1, r1, r3  @i
 23774 b00a 3618     		adds r6, r6, r0
 23775 b00c 7F18     		adds r7, r7, r1
 23776              	
 23777 b00e DD46     		mov sp, r11
 23778 b010 0FBC     		pop {r0-r3}
 23779 b012 EB46     		mov r11, sp
 23780 b014 D546     		mov sp, r10
 23781 b016 10BC     		pop {r4}
 23782 b018 EA46     		mov r10, sp
 23783 b01a 2546     		mov r5, r4
 23784 b01c 2404     		lsls r4, r4, # 16
 23785 b01e 240C     		lsrs r4, r4, # 16
 23786 b020 2D0C     		lsrs r5, r5, # 16
 23787 b022 6043     		muls r0, r0, r4
 23788 b024 6143     		muls r1, r1, r4
 23789 b026 6A43     		muls r2, r2, r5
 23790 b028 6B43     		muls r3, r3, r5
 23791 b02a 8011     		asrs r0, r0, # 6
 23792 b02c 8911     		asrs r1, r1, # 6
 23793 b02e 9211     		asrs r2, r2, # 6
 23794 b030 9B11     		asrs r3, r3, # 6
 23795 b032 8018     		adds r0, r0, r2         @r
 23796 b034 C918     		adds r1, r1, r3         @i
 23797 b036 3618     		adds r6, r6, r0
 23798 b038 7F18     		adds r7, r7, r1
 23799              	
 23800              		@yjm24
 23801              	
 23802              		@0
 23803 b03a DD46     		mov sp, r11
 23804 b03c 0FBC     		pop {r0-r3}
ARM GAS  1.s 			page 419


 23805 b03e EB46     		mov r11, sp
 23806 b040 D546     		mov sp, r10
 23807 b042 10BC     		pop {r4}
 23808 b044 EA46     		mov r10, sp
 23809 b046 2546     		mov r5, r4
 23810 b048 2404     		lsls r4, r4, # 16
 23811 b04a 240C     		lsrs r4, r4, # 16
 23812 b04c 2D0C     		lsrs r5, r5, # 16
 23813 b04e 6043     		muls r0, r0, r4		@R
 23814 b050 6143     		muls r1, r1, r4		@I
 23815 b052 6A43     		muls r2, r2, r5		@R
 23816 b054 6B43     		muls r3, r3, r5		@I
 23817 b056 8011     		asrs r0, r0, # 6
 23818 b058 8911     		asrs r1, r1, # 6
 23819 b05a 9211     		asrs r2, r2, # 6
 23820 b05c 9B11     		asrs r3, r3, # 6
 23821 b05e 8018     		adds r0, r0, r2	 @r
 23822 b060 C918     		adds r1, r1, r3	 @i
 23823 b062 3618     		adds r6, r6, r0
 23824 b064 7F18     		adds r7, r7, r1
 23825              	
 23826 b066 DD46     		mov sp, r11
 23827 b068 0FBC     		pop {r0-r3}
 23828 b06a EB46     		mov r11, sp
 23829 b06c D546     		mov sp, r10
 23830 b06e 10BC     		pop {r4}
 23831 b070 EA46     		mov r10, sp
 23832 b072 2546     		mov r5, r4
 23833 b074 2404     		lsls r4, r4, # 16
 23834 b076 240C     		lsrs r4, r4, # 16
 23835 b078 2D0C     		lsrs r5, r5, # 16
 23836 b07a 6043     		muls r0, r0, r4
 23837 b07c 6143     		muls r1, r1, r4
 23838 b07e 6A43     		muls r2, r2, r5
 23839 b080 6B43     		muls r3, r3, r5
 23840 b082 8011     		asrs r0, r0, # 6
 23841 b084 8911     		asrs r1, r1, # 6
 23842 b086 9211     		asrs r2, r2, # 6
 23843 b088 9B11     		asrs r3, r3, # 6
 23844 b08a 8018     		adds r0, r0, r2         @r
 23845 b08c C918     		adds r1, r1, r3         @i
 23846 b08e 3618     		adds r6, r6, r0
 23847 b090 7F18     		adds r7, r7, r1
 23848              	
 23849 b092 DD46     		mov sp, r11
 23850 b094 0FBC     		pop {r0-r3}
 23851 b096 EB46     		mov r11, sp
 23852 b098 D546     		mov sp, r10
 23853 b09a 10BC     		pop {r4}
 23854 b09c EA46     		mov r10, sp
 23855 b09e 2546     		mov r5, r4
 23856 b0a0 2404     		lsls r4, r4, # 16
 23857 b0a2 240C     		lsrs r4, r4, # 16
 23858 b0a4 2D0C     		lsrs r5, r5, # 16
 23859 b0a6 6043     		muls r0, r0, r4
 23860 b0a8 6143     		muls r1, r1, r4
 23861 b0aa 6A43     		muls r2, r2, r5
ARM GAS  1.s 			page 420


 23862 b0ac 6B43     		muls r3, r3, r5
 23863 b0ae 8011     		asrs r0, r0, # 6
 23864 b0b0 8911     		asrs r1, r1, # 6
 23865 b0b2 9211     		asrs r2, r2, # 6
 23866 b0b4 9B11     		asrs r3, r3, # 6
 23867 b0b6 8018     		adds r0, r0, r2  @r
 23868 b0b8 C918     		adds r1, r1, r3  @i
 23869 b0ba 3618     		adds r6, r6, r0
 23870 b0bc 7F18     		adds r7, r7, r1
 23871              	
 23872 b0be DD46     		mov sp, r11
 23873 b0c0 0FBC     		pop {r0-r3}
 23874 b0c2 EB46     		mov r11, sp
 23875 b0c4 D546     		mov sp, r10
 23876 b0c6 10BC     		pop {r4}
 23877 b0c8 EA46     		mov r10, sp
 23878 b0ca 2546     		mov r5, r4
 23879 b0cc 2404     		lsls r4, r4, # 16
 23880 b0ce 240C     		lsrs r4, r4, # 16
 23881 b0d0 2D0C     		lsrs r5, r5, # 16
 23882 b0d2 6043     		muls r0, r0, r4
 23883 b0d4 6143     		muls r1, r1, r4
 23884 b0d6 6A43     		muls r2, r2, r5
 23885 b0d8 6B43     		muls r3, r3, r5
 23886 b0da 8011     		asrs r0, r0, # 6
 23887 b0dc 8911     		asrs r1, r1, # 6
 23888 b0de 9211     		asrs r2, r2, # 6
 23889 b0e0 9B11     		asrs r3, r3, # 6
 23890 b0e2 8018     		adds r0, r0, r2         @r
 23891 b0e4 C918     		adds r1, r1, r3         @i
 23892 b0e6 3618     		adds r6, r6, r0
 23893 b0e8 7F18     		adds r7, r7, r1
 23894              	
 23895              		@1
 23896 b0ea DD46     		mov sp, r11
 23897 b0ec 0FBC     		pop {r0-r3}
 23898 b0ee EB46     		mov r11, sp
 23899 b0f0 D546     		mov sp, r10
 23900 b0f2 10BC     		pop {r4}
 23901 b0f4 EA46     		mov r10, sp
 23902 b0f6 2546     		mov r5, r4
 23903 b0f8 2404     		lsls r4, r4, # 16
 23904 b0fa 240C     		lsrs r4, r4, # 16
 23905 b0fc 2D0C     		lsrs r5, r5, # 16
 23906 b0fe 6043     		muls r0, r0, r4		@R
 23907 b100 6143     		muls r1, r1, r4		@I
 23908 b102 6A43     		muls r2, r2, r5		@R
 23909 b104 6B43     		muls r3, r3, r5		@I
 23910 b106 8011     		asrs r0, r0, # 6
 23911 b108 8911     		asrs r1, r1, # 6
 23912 b10a 9211     		asrs r2, r2, # 6
 23913 b10c 9B11     		asrs r3, r3, # 6
 23914 b10e 8018     		adds r0, r0, r2	 @r
 23915 b110 C918     		adds r1, r1, r3	 @i
 23916 b112 3618     		adds r6, r6, r0
 23917 b114 7F18     		adds r7, r7, r1
 23918              	
ARM GAS  1.s 			page 421


 23919 b116 DD46     		mov sp, r11
 23920 b118 0FBC     		pop {r0-r3}
 23921 b11a EB46     		mov r11, sp
 23922 b11c D546     		mov sp, r10
 23923 b11e 10BC     		pop {r4}
 23924 b120 EA46     		mov r10, sp
 23925 b122 2546     		mov r5, r4
 23926 b124 2404     		lsls r4, r4, # 16
 23927 b126 240C     		lsrs r4, r4, # 16
 23928 b128 2D0C     		lsrs r5, r5, # 16
 23929 b12a 6043     		muls r0, r0, r4
 23930 b12c 6143     		muls r1, r1, r4
 23931 b12e 6A43     		muls r2, r2, r5
 23932 b130 6B43     		muls r3, r3, r5
 23933 b132 8011     		asrs r0, r0, # 6
 23934 b134 8911     		asrs r1, r1, # 6
 23935 b136 9211     		asrs r2, r2, # 6
 23936 b138 9B11     		asrs r3, r3, # 6
 23937 b13a 8018     		adds r0, r0, r2         @r
 23938 b13c C918     		adds r1, r1, r3         @i
 23939 b13e 3618     		adds r6, r6, r0
 23940 b140 7F18     		adds r7, r7, r1
 23941              	
 23942 b142 DD46     		mov sp, r11
 23943 b144 0FBC     		pop {r0-r3}
 23944 b146 EB46     		mov r11, sp
 23945 b148 D546     		mov sp, r10
 23946 b14a 10BC     		pop {r4}
 23947 b14c EA46     		mov r10, sp
 23948 b14e 2546     		mov r5, r4
 23949 b150 2404     		lsls r4, r4, # 16
 23950 b152 240C     		lsrs r4, r4, # 16
 23951 b154 2D0C     		lsrs r5, r5, # 16
 23952 b156 6043     		muls r0, r0, r4
 23953 b158 6143     		muls r1, r1, r4
 23954 b15a 6A43     		muls r2, r2, r5
 23955 b15c 6B43     		muls r3, r3, r5
 23956 b15e 8011     		asrs r0, r0, # 6
 23957 b160 8911     		asrs r1, r1, # 6
 23958 b162 9211     		asrs r2, r2, # 6
 23959 b164 9B11     		asrs r3, r3, # 6
 23960 b166 8018     		adds r0, r0, r2  @r
 23961 b168 C918     		adds r1, r1, r3  @i
 23962 b16a 3618     		adds r6, r6, r0
 23963 b16c 7F18     		adds r7, r7, r1
 23964              	
 23965 b16e DD46     		mov sp, r11
 23966 b170 0FBC     		pop {r0-r3}
 23967 b172 EB46     		mov r11, sp
 23968 b174 D546     		mov sp, r10
 23969 b176 10BC     		pop {r4}
 23970 b178 EA46     		mov r10, sp
 23971 b17a 2546     		mov r5, r4
 23972 b17c 2404     		lsls r4, r4, # 16
 23973 b17e 240C     		lsrs r4, r4, # 16
 23974 b180 2D0C     		lsrs r5, r5, # 16
 23975 b182 6043     		muls r0, r0, r4
ARM GAS  1.s 			page 422


 23976 b184 6143     		muls r1, r1, r4
 23977 b186 6A43     		muls r2, r2, r5
 23978 b188 6B43     		muls r3, r3, r5
 23979 b18a 8011     		asrs r0, r0, # 6
 23980 b18c 8911     		asrs r1, r1, # 6
 23981 b18e 9211     		asrs r2, r2, # 6
 23982 b190 9B11     		asrs r3, r3, # 6
 23983 b192 8018     		adds r0, r0, r2         @r
 23984 b194 C918     		adds r1, r1, r3         @i
 23985 b196 3618     		adds r6, r6, r0
 23986 b198 7F18     		adds r7, r7, r1
 23987              	
 23988              		@2
 23989 b19a DD46     		mov sp, r11
 23990 b19c 0FBC     		pop {r0-r3}
 23991 b19e EB46     		mov r11, sp
 23992 b1a0 D546     		mov sp, r10
 23993 b1a2 10BC     		pop {r4}
 23994 b1a4 EA46     		mov r10, sp
 23995 b1a6 2546     		mov r5, r4
 23996 b1a8 2404     		lsls r4, r4, # 16
 23997 b1aa 240C     		lsrs r4, r4, # 16
 23998 b1ac 2D0C     		lsrs r5, r5, # 16
 23999 b1ae 6043     		muls r0, r0, r4		@R
 24000 b1b0 6143     		muls r1, r1, r4		@I
 24001 b1b2 6A43     		muls r2, r2, r5		@R
 24002 b1b4 6B43     		muls r3, r3, r5		@I
 24003 b1b6 8011     		asrs r0, r0, # 6
 24004 b1b8 8911     		asrs r1, r1, # 6
 24005 b1ba 9211     		asrs r2, r2, # 6
 24006 b1bc 9B11     		asrs r3, r3, # 6
 24007 b1be 8018     		adds r0, r0, r2	 @r
 24008 b1c0 C918     		adds r1, r1, r3	 @i
 24009 b1c2 3618     		adds r6, r6, r0
 24010 b1c4 7F18     		adds r7, r7, r1
 24011              	
 24012 b1c6 DD46     		mov sp, r11
 24013 b1c8 0FBC     		pop {r0-r3}
 24014 b1ca EB46     		mov r11, sp
 24015 b1cc D546     		mov sp, r10
 24016 b1ce 10BC     		pop {r4}
 24017 b1d0 EA46     		mov r10, sp
 24018 b1d2 2546     		mov r5, r4
 24019 b1d4 2404     		lsls r4, r4, # 16
 24020 b1d6 240C     		lsrs r4, r4, # 16
 24021 b1d8 2D0C     		lsrs r5, r5, # 16
 24022 b1da 6043     		muls r0, r0, r4
 24023 b1dc 6143     		muls r1, r1, r4
 24024 b1de 6A43     		muls r2, r2, r5
 24025 b1e0 6B43     		muls r3, r3, r5
 24026 b1e2 8011     		asrs r0, r0, # 6
 24027 b1e4 8911     		asrs r1, r1, # 6
 24028 b1e6 9211     		asrs r2, r2, # 6
 24029 b1e8 9B11     		asrs r3, r3, # 6
 24030 b1ea 8018     		adds r0, r0, r2         @r
 24031 b1ec C918     		adds r1, r1, r3         @i
 24032 b1ee 3618     		adds r6, r6, r0
ARM GAS  1.s 			page 423


 24033 b1f0 7F18     		adds r7, r7, r1
 24034              	
 24035 b1f2 DD46     		mov sp, r11
 24036 b1f4 0FBC     		pop {r0-r3}
 24037 b1f6 EB46     		mov r11, sp
 24038 b1f8 D546     		mov sp, r10
 24039 b1fa 10BC     		pop {r4}
 24040 b1fc EA46     		mov r10, sp
 24041 b1fe 2546     		mov r5, r4
 24042 b200 2404     		lsls r4, r4, # 16
 24043 b202 240C     		lsrs r4, r4, # 16
 24044 b204 2D0C     		lsrs r5, r5, # 16
 24045 b206 6043     		muls r0, r0, r4
 24046 b208 6143     		muls r1, r1, r4
 24047 b20a 6A43     		muls r2, r2, r5
 24048 b20c 6B43     		muls r3, r3, r5
 24049 b20e 8011     		asrs r0, r0, # 6
 24050 b210 8911     		asrs r1, r1, # 6
 24051 b212 9211     		asrs r2, r2, # 6
 24052 b214 9B11     		asrs r3, r3, # 6
 24053 b216 8018     		adds r0, r0, r2  @r
 24054 b218 C918     		adds r1, r1, r3  @i
 24055 b21a 3618     		adds r6, r6, r0
 24056 b21c 7F18     		adds r7, r7, r1
 24057              	
 24058 b21e DD46     		mov sp, r11
 24059 b220 0FBC     		pop {r0-r3}
 24060 b222 EB46     		mov r11, sp
 24061 b224 D546     		mov sp, r10
 24062 b226 10BC     		pop {r4}
 24063 b228 EA46     		mov r10, sp
 24064 b22a 2546     		mov r5, r4
 24065 b22c 2404     		lsls r4, r4, # 16
 24066 b22e 240C     		lsrs r4, r4, # 16
 24067 b230 2D0C     		lsrs r5, r5, # 16
 24068 b232 6043     		muls r0, r0, r4
 24069 b234 6143     		muls r1, r1, r4
 24070 b236 6A43     		muls r2, r2, r5
 24071 b238 6B43     		muls r3, r3, r5
 24072 b23a 8011     		asrs r0, r0, # 6
 24073 b23c 8911     		asrs r1, r1, # 6
 24074 b23e 9211     		asrs r2, r2, # 6
 24075 b240 9B11     		asrs r3, r3, # 6
 24076 b242 8018     		adds r0, r0, r2         @r
 24077 b244 C918     		adds r1, r1, r3         @i
 24078 b246 3618     		adds r6, r6, r0
 24079 b248 7F18     		adds r7, r7, r1
 24080              	
 24081              		@3
 24082 b24a DD46     		mov sp, r11
 24083 b24c 0FBC     		pop {r0-r3}
 24084 b24e EB46     		mov r11, sp
 24085 b250 D546     		mov sp, r10
 24086 b252 10BC     		pop {r4}
 24087 b254 EA46     		mov r10, sp
 24088 b256 2546     		mov r5, r4
 24089 b258 2404     		lsls r4, r4, # 16
ARM GAS  1.s 			page 424


 24090 b25a 240C     		lsrs r4, r4, # 16
 24091 b25c 2D0C     		lsrs r5, r5, # 16
 24092 b25e 6043     		muls r0, r0, r4		@R
 24093 b260 6143     		muls r1, r1, r4		@I
 24094 b262 6A43     		muls r2, r2, r5		@R
 24095 b264 6B43     		muls r3, r3, r5		@I
 24096 b266 8011     		asrs r0, r0, # 6
 24097 b268 8911     		asrs r1, r1, # 6
 24098 b26a 9211     		asrs r2, r2, # 6
 24099 b26c 9B11     		asrs r3, r3, # 6
 24100 b26e 8018     		adds r0, r0, r2	 @r
 24101 b270 C918     		adds r1, r1, r3	 @i
 24102 b272 3618     		adds r6, r6, r0
 24103 b274 7F18     		adds r7, r7, r1
 24104              	
 24105 b276 DD46     		mov sp, r11
 24106 b278 0FBC     		pop {r0-r3}
 24107 b27a EB46     		mov r11, sp
 24108 b27c D546     		mov sp, r10
 24109 b27e 10BC     		pop {r4}
 24110 b280 EA46     		mov r10, sp
 24111 b282 2546     		mov r5, r4
 24112 b284 2404     		lsls r4, r4, # 16
 24113 b286 240C     		lsrs r4, r4, # 16
 24114 b288 2D0C     		lsrs r5, r5, # 16
 24115 b28a 6043     		muls r0, r0, r4
 24116 b28c 6143     		muls r1, r1, r4
 24117 b28e 6A43     		muls r2, r2, r5
 24118 b290 6B43     		muls r3, r3, r5
 24119 b292 8011     		asrs r0, r0, # 6
 24120 b294 8911     		asrs r1, r1, # 6
 24121 b296 9211     		asrs r2, r2, # 6
 24122 b298 9B11     		asrs r3, r3, # 6
 24123 b29a 8018     		adds r0, r0, r2         @r
 24124 b29c C918     		adds r1, r1, r3         @i
 24125 b29e 3618     		adds r6, r6, r0
 24126 b2a0 7F18     		adds r7, r7, r1
 24127              	
 24128 b2a2 DD46     		mov sp, r11
 24129 b2a4 0FBC     		pop {r0-r3}
 24130 b2a6 EB46     		mov r11, sp
 24131 b2a8 D546     		mov sp, r10
 24132 b2aa 10BC     		pop {r4}
 24133 b2ac EA46     		mov r10, sp
 24134 b2ae 2546     		mov r5, r4
 24135 b2b0 2404     		lsls r4, r4, # 16
 24136 b2b2 240C     		lsrs r4, r4, # 16
 24137 b2b4 2D0C     		lsrs r5, r5, # 16
 24138 b2b6 6043     		muls r0, r0, r4
 24139 b2b8 6143     		muls r1, r1, r4
 24140 b2ba 6A43     		muls r2, r2, r5
 24141 b2bc 6B43     		muls r3, r3, r5
 24142 b2be 8011     		asrs r0, r0, # 6
 24143 b2c0 8911     		asrs r1, r1, # 6
 24144 b2c2 9211     		asrs r2, r2, # 6
 24145 b2c4 9B11     		asrs r3, r3, # 6
 24146 b2c6 8018     		adds r0, r0, r2  @r
ARM GAS  1.s 			page 425


 24147 b2c8 C918     		adds r1, r1, r3  @i
 24148 b2ca 3618     		adds r6, r6, r0
 24149 b2cc 7F18     		adds r7, r7, r1
 24150              	
 24151 b2ce DD46     		mov sp, r11
 24152 b2d0 0FBC     		pop {r0-r3}
 24153 b2d2 EB46     		mov r11, sp
 24154 b2d4 D546     		mov sp, r10
 24155 b2d6 10BC     		pop {r4}
 24156 b2d8 EA46     		mov r10, sp
 24157 b2da 2546     		mov r5, r4
 24158 b2dc 2404     		lsls r4, r4, # 16
 24159 b2de 240C     		lsrs r4, r4, # 16
 24160 b2e0 2D0C     		lsrs r5, r5, # 16
 24161 b2e2 6043     		muls r0, r0, r4
 24162 b2e4 6143     		muls r1, r1, r4
 24163 b2e6 6A43     		muls r2, r2, r5
 24164 b2e8 6B43     		muls r3, r3, r5
 24165 b2ea 8011     		asrs r0, r0, # 6
 24166 b2ec 8911     		asrs r1, r1, # 6
 24167 b2ee 9211     		asrs r2, r2, # 6
 24168 b2f0 9B11     		asrs r3, r3, # 6
 24169 b2f2 8018     		adds r0, r0, r2         @r
 24170 b2f4 C918     		adds r1, r1, r3         @i
 24171 b2f6 3618     		adds r6, r6, r0
 24172 b2f8 7F18     		adds r7, r7, r1
 24173              	
 24174              		@4
 24175 b2fa DD46     		mov sp, r11
 24176 b2fc 0FBC     		pop {r0-r3}
 24177 b2fe EB46     		mov r11, sp
 24178 b300 D546     		mov sp, r10
 24179 b302 10BC     		pop {r4}
 24180 b304 EA46     		mov r10, sp
 24181 b306 2546     		mov r5, r4
 24182 b308 2404     		lsls r4, r4, # 16
 24183 b30a 240C     		lsrs r4, r4, # 16
 24184 b30c 2D0C     		lsrs r5, r5, # 16
 24185 b30e 6043     		muls r0, r0, r4		@R
 24186 b310 6143     		muls r1, r1, r4		@I
 24187 b312 6A43     		muls r2, r2, r5		@R
 24188 b314 6B43     		muls r3, r3, r5		@I
 24189 b316 8011     		asrs r0, r0, # 6
 24190 b318 8911     		asrs r1, r1, # 6
 24191 b31a 9211     		asrs r2, r2, # 6
 24192 b31c 9B11     		asrs r3, r3, # 6
 24193 b31e 8018     		adds r0, r0, r2	 @r
 24194 b320 C918     		adds r1, r1, r3	 @i
 24195 b322 3618     		adds r6, r6, r0
 24196 b324 7F18     		adds r7, r7, r1
 24197              	
 24198 b326 DD46     		mov sp, r11
 24199 b328 0FBC     		pop {r0-r3}
 24200 b32a EB46     		mov r11, sp
 24201 b32c D546     		mov sp, r10
 24202 b32e 10BC     		pop {r4}
 24203 b330 EA46     		mov r10, sp
ARM GAS  1.s 			page 426


 24204 b332 2546     		mov r5, r4
 24205 b334 2404     		lsls r4, r4, # 16
 24206 b336 240C     		lsrs r4, r4, # 16
 24207 b338 2D0C     		lsrs r5, r5, # 16
 24208 b33a 6043     		muls r0, r0, r4
 24209 b33c 6143     		muls r1, r1, r4
 24210 b33e 6A43     		muls r2, r2, r5
 24211 b340 6B43     		muls r3, r3, r5
 24212 b342 8011     		asrs r0, r0, # 6
 24213 b344 8911     		asrs r1, r1, # 6
 24214 b346 9211     		asrs r2, r2, # 6
 24215 b348 9B11     		asrs r3, r3, # 6
 24216 b34a 8018     		adds r0, r0, r2         @r
 24217 b34c C918     		adds r1, r1, r3         @i
 24218 b34e 3618     		adds r6, r6, r0
 24219 b350 7F18     		adds r7, r7, r1
 24220              	
 24221 b352 DD46     		mov sp, r11
 24222 b354 0FBC     		pop {r0-r3}
 24223 b356 EB46     		mov r11, sp
 24224 b358 D546     		mov sp, r10
 24225 b35a 10BC     		pop {r4}
 24226 b35c EA46     		mov r10, sp
 24227 b35e 2546     		mov r5, r4
 24228 b360 2404     		lsls r4, r4, # 16
 24229 b362 240C     		lsrs r4, r4, # 16
 24230 b364 2D0C     		lsrs r5, r5, # 16
 24231 b366 6043     		muls r0, r0, r4
 24232 b368 6143     		muls r1, r1, r4
 24233 b36a 6A43     		muls r2, r2, r5
 24234 b36c 6B43     		muls r3, r3, r5
 24235 b36e 8011     		asrs r0, r0, # 6
 24236 b370 8911     		asrs r1, r1, # 6
 24237 b372 9211     		asrs r2, r2, # 6
 24238 b374 9B11     		asrs r3, r3, # 6
 24239 b376 8018     		adds r0, r0, r2  @r
 24240 b378 C918     		adds r1, r1, r3  @i
 24241 b37a 3618     		adds r6, r6, r0
 24242 b37c 7F18     		adds r7, r7, r1
 24243              	
 24244 b37e DD46     		mov sp, r11
 24245 b380 0FBC     		pop {r0-r3}
 24246 b382 EB46     		mov r11, sp
 24247 b384 D546     		mov sp, r10
 24248 b386 10BC     		pop {r4}
 24249 b388 EA46     		mov r10, sp
 24250 b38a 2546     		mov r5, r4
 24251 b38c 2404     		lsls r4, r4, # 16
 24252 b38e 240C     		lsrs r4, r4, # 16
 24253 b390 2D0C     		lsrs r5, r5, # 16
 24254 b392 6043     		muls r0, r0, r4
 24255 b394 6143     		muls r1, r1, r4
 24256 b396 6A43     		muls r2, r2, r5
 24257 b398 6B43     		muls r3, r3, r5
 24258 b39a 8011     		asrs r0, r0, # 6
 24259 b39c 8911     		asrs r1, r1, # 6
 24260 b39e 9211     		asrs r2, r2, # 6
ARM GAS  1.s 			page 427


 24261 b3a0 9B11     		asrs r3, r3, # 6
 24262 b3a2 8018     		adds r0, r0, r2         @r
 24263 b3a4 C918     		adds r1, r1, r3         @i
 24264 b3a6 3618     		adds r6, r6, r0
 24265 b3a8 7F18     		adds r7, r7, r1
 24266              	
 24267              		@5
 24268 b3aa DD46     		mov sp, r11
 24269 b3ac 0FBC     		pop {r0-r3}
 24270 b3ae EB46     		mov r11, sp
 24271 b3b0 D546     		mov sp, r10
 24272 b3b2 10BC     		pop {r4}
 24273 b3b4 EA46     		mov r10, sp
 24274 b3b6 2546     		mov r5, r4
 24275 b3b8 2404     		lsls r4, r4, # 16
 24276 b3ba 240C     		lsrs r4, r4, # 16
 24277 b3bc 2D0C     		lsrs r5, r5, # 16
 24278 b3be 6043     		muls r0, r0, r4		@R
 24279 b3c0 6143     		muls r1, r1, r4		@I
 24280 b3c2 6A43     		muls r2, r2, r5		@R
 24281 b3c4 6B43     		muls r3, r3, r5		@I
 24282 b3c6 8011     		asrs r0, r0, # 6
 24283 b3c8 8911     		asrs r1, r1, # 6
 24284 b3ca 9211     		asrs r2, r2, # 6
 24285 b3cc 9B11     		asrs r3, r3, # 6
 24286 b3ce 8018     		adds r0, r0, r2	 @r
 24287 b3d0 C918     		adds r1, r1, r3	 @i
 24288 b3d2 3618     		adds r6, r6, r0
 24289 b3d4 7F18     		adds r7, r7, r1
 24290              	
 24291 b3d6 DD46     		mov sp, r11
 24292 b3d8 0FBC     		pop {r0-r3}
 24293 b3da EB46     		mov r11, sp
 24294 b3dc D546     		mov sp, r10
 24295 b3de 10BC     		pop {r4}
 24296 b3e0 EA46     		mov r10, sp
 24297 b3e2 2546     		mov r5, r4
 24298 b3e4 2404     		lsls r4, r4, # 16
 24299 b3e6 240C     		lsrs r4, r4, # 16
 24300 b3e8 2D0C     		lsrs r5, r5, # 16
 24301 b3ea 6043     		muls r0, r0, r4
 24302 b3ec 6143     		muls r1, r1, r4
 24303 b3ee 6A43     		muls r2, r2, r5
 24304 b3f0 6B43     		muls r3, r3, r5
 24305 b3f2 8011     		asrs r0, r0, # 6
 24306 b3f4 8911     		asrs r1, r1, # 6
 24307 b3f6 9211     		asrs r2, r2, # 6
 24308 b3f8 9B11     		asrs r3, r3, # 6
 24309 b3fa 8018     		adds r0, r0, r2         @r
 24310 b3fc C918     		adds r1, r1, r3         @i
 24311 b3fe 3618     		adds r6, r6, r0
 24312 b400 7F18     		adds r7, r7, r1
 24313              	
 24314 b402 DD46     		mov sp, r11
 24315 b404 0FBC     		pop {r0-r3}
 24316 b406 EB46     		mov r11, sp
 24317 b408 D546     		mov sp, r10
ARM GAS  1.s 			page 428


 24318 b40a 10BC     		pop {r4}
 24319 b40c EA46     		mov r10, sp
 24320 b40e 2546     		mov r5, r4
 24321 b410 2404     		lsls r4, r4, # 16
 24322 b412 240C     		lsrs r4, r4, # 16
 24323 b414 2D0C     		lsrs r5, r5, # 16
 24324 b416 6043     		muls r0, r0, r4
 24325 b418 6143     		muls r1, r1, r4
 24326 b41a 6A43     		muls r2, r2, r5
 24327 b41c 6B43     		muls r3, r3, r5
 24328 b41e 8011     		asrs r0, r0, # 6
 24329 b420 8911     		asrs r1, r1, # 6
 24330 b422 9211     		asrs r2, r2, # 6
 24331 b424 9B11     		asrs r3, r3, # 6
 24332 b426 8018     		adds r0, r0, r2  @r
 24333 b428 C918     		adds r1, r1, r3  @i
 24334 b42a 3618     		adds r6, r6, r0
 24335 b42c 7F18     		adds r7, r7, r1
 24336              	
 24337 b42e DD46     		mov sp, r11
 24338 b430 0FBC     		pop {r0-r3}
 24339 b432 EB46     		mov r11, sp
 24340 b434 D546     		mov sp, r10
 24341 b436 10BC     		pop {r4}
 24342 b438 EA46     		mov r10, sp
 24343 b43a 2546     		mov r5, r4
 24344 b43c 2404     		lsls r4, r4, # 16
 24345 b43e 240C     		lsrs r4, r4, # 16
 24346 b440 2D0C     		lsrs r5, r5, # 16
 24347 b442 6043     		muls r0, r0, r4
 24348 b444 6143     		muls r1, r1, r4
 24349 b446 6A43     		muls r2, r2, r5
 24350 b448 6B43     		muls r3, r3, r5
 24351 b44a 8011     		asrs r0, r0, # 6
 24352 b44c 8911     		asrs r1, r1, # 6
 24353 b44e 9211     		asrs r2, r2, # 6
 24354 b450 9B11     		asrs r3, r3, # 6
 24355 b452 8018     		adds r0, r0, r2         @r
 24356 b454 C918     		adds r1, r1, r3         @i
 24357 b456 3618     		adds r6, r6, r0
 24358 b458 7F18     		adds r7, r7, r1
 24359              	
 24360              		@6
 24361 b45a DD46     		mov sp, r11
 24362 b45c 0FBC     		pop {r0-r3}
 24363 b45e EB46     		mov r11, sp
 24364 b460 D546     		mov sp, r10
 24365 b462 10BC     		pop {r4}
 24366 b464 EA46     		mov r10, sp
 24367 b466 2546     		mov r5, r4
 24368 b468 2404     		lsls r4, r4, # 16
 24369 b46a 240C     		lsrs r4, r4, # 16
 24370 b46c 2D0C     		lsrs r5, r5, # 16
 24371 b46e 6043     		muls r0, r0, r4		@R
 24372 b470 6143     		muls r1, r1, r4		@I
 24373 b472 6A43     		muls r2, r2, r5		@R
 24374 b474 6B43     		muls r3, r3, r5		@I
ARM GAS  1.s 			page 429


 24375 b476 8011     		asrs r0, r0, # 6
 24376 b478 8911     		asrs r1, r1, # 6
 24377 b47a 9211     		asrs r2, r2, # 6
 24378 b47c 9B11     		asrs r3, r3, # 6
 24379 b47e 8018     		adds r0, r0, r2	 @r
 24380 b480 C918     		adds r1, r1, r3	 @i
 24381 b482 3618     		adds r6, r6, r0
 24382 b484 7F18     		adds r7, r7, r1
 24383              	
 24384 b486 DD46     		mov sp, r11
 24385 b488 0FBC     		pop {r0-r3}
 24386 b48a EB46     		mov r11, sp
 24387 b48c D546     		mov sp, r10
 24388 b48e 10BC     		pop {r4}
 24389 b490 EA46     		mov r10, sp
 24390 b492 2546     		mov r5, r4
 24391 b494 2404     		lsls r4, r4, # 16
 24392 b496 240C     		lsrs r4, r4, # 16
 24393 b498 2D0C     		lsrs r5, r5, # 16
 24394 b49a 6043     		muls r0, r0, r4
 24395 b49c 6143     		muls r1, r1, r4
 24396 b49e 6A43     		muls r2, r2, r5
 24397 b4a0 6B43     		muls r3, r3, r5
 24398 b4a2 8011     		asrs r0, r0, # 6
 24399 b4a4 8911     		asrs r1, r1, # 6
 24400 b4a6 9211     		asrs r2, r2, # 6
 24401 b4a8 9B11     		asrs r3, r3, # 6
 24402 b4aa 8018     		adds r0, r0, r2         @r
 24403 b4ac C918     		adds r1, r1, r3         @i
 24404 b4ae 3618     		adds r6, r6, r0
 24405 b4b0 7F18     		adds r7, r7, r1
 24406              	
 24407 b4b2 DD46     		mov sp, r11
 24408 b4b4 0FBC     		pop {r0-r3}
 24409 b4b6 EB46     		mov r11, sp
 24410 b4b8 D546     		mov sp, r10
 24411 b4ba 10BC     		pop {r4}
 24412 b4bc EA46     		mov r10, sp
 24413 b4be 2546     		mov r5, r4
 24414 b4c0 2404     		lsls r4, r4, # 16
 24415 b4c2 240C     		lsrs r4, r4, # 16
 24416 b4c4 2D0C     		lsrs r5, r5, # 16
 24417 b4c6 6043     		muls r0, r0, r4
 24418 b4c8 6143     		muls r1, r1, r4
 24419 b4ca 6A43     		muls r2, r2, r5
 24420 b4cc 6B43     		muls r3, r3, r5
 24421 b4ce 8011     		asrs r0, r0, # 6
 24422 b4d0 8911     		asrs r1, r1, # 6
 24423 b4d2 9211     		asrs r2, r2, # 6
 24424 b4d4 9B11     		asrs r3, r3, # 6
 24425 b4d6 8018     		adds r0, r0, r2  @r
 24426 b4d8 C918     		adds r1, r1, r3  @i
 24427 b4da 3618     		adds r6, r6, r0
 24428 b4dc 7F18     		adds r7, r7, r1
 24429              	
 24430 b4de DD46     		mov sp, r11
 24431 b4e0 0FBC     		pop {r0-r3}
ARM GAS  1.s 			page 430


 24432 b4e2 EB46     		mov r11, sp
 24433 b4e4 D546     		mov sp, r10
 24434 b4e6 10BC     		pop {r4}
 24435 b4e8 EA46     		mov r10, sp
 24436 b4ea 2546     		mov r5, r4
 24437 b4ec 2404     		lsls r4, r4, # 16
 24438 b4ee 240C     		lsrs r4, r4, # 16
 24439 b4f0 2D0C     		lsrs r5, r5, # 16
 24440 b4f2 6043     		muls r0, r0, r4
 24441 b4f4 6143     		muls r1, r1, r4
 24442 b4f6 6A43     		muls r2, r2, r5
 24443 b4f8 6B43     		muls r3, r3, r5
 24444 b4fa 8011     		asrs r0, r0, # 6
 24445 b4fc 8911     		asrs r1, r1, # 6
 24446 b4fe 9211     		asrs r2, r2, # 6
 24447 b500 9B11     		asrs r3, r3, # 6
 24448 b502 8018     		adds r0, r0, r2         @r
 24449 b504 C918     		adds r1, r1, r3         @i
 24450 b506 3618     		adds r6, r6, r0
 24451 b508 7F18     		adds r7, r7, r1
 24452              	
 24453              		@7
 24454 b50a DD46     		mov sp, r11
 24455 b50c 0FBC     		pop {r0-r3}
 24456 b50e EB46     		mov r11, sp
 24457 b510 D546     		mov sp, r10
 24458 b512 10BC     		pop {r4}
 24459 b514 EA46     		mov r10, sp
 24460 b516 2546     		mov r5, r4
 24461 b518 2404     		lsls r4, r4, # 16
 24462 b51a 240C     		lsrs r4, r4, # 16
 24463 b51c 2D0C     		lsrs r5, r5, # 16
 24464 b51e 6043     		muls r0, r0, r4		@R
 24465 b520 6143     		muls r1, r1, r4		@I
 24466 b522 6A43     		muls r2, r2, r5		@R
 24467 b524 6B43     		muls r3, r3, r5		@I
 24468 b526 8011     		asrs r0, r0, # 6
 24469 b528 8911     		asrs r1, r1, # 6
 24470 b52a 9211     		asrs r2, r2, # 6
 24471 b52c 9B11     		asrs r3, r3, # 6
 24472 b52e 8018     		adds r0, r0, r2	 @r
 24473 b530 C918     		adds r1, r1, r3	 @i
 24474 b532 3618     		adds r6, r6, r0
 24475 b534 7F18     		adds r7, r7, r1
 24476              	
 24477 b536 DD46     		mov sp, r11
 24478 b538 0FBC     		pop {r0-r3}
 24479 b53a EB46     		mov r11, sp
 24480 b53c D546     		mov sp, r10
 24481 b53e 10BC     		pop {r4}
 24482 b540 EA46     		mov r10, sp
 24483 b542 2546     		mov r5, r4
 24484 b544 2404     		lsls r4, r4, # 16
 24485 b546 240C     		lsrs r4, r4, # 16
 24486 b548 2D0C     		lsrs r5, r5, # 16
 24487 b54a 6043     		muls r0, r0, r4
 24488 b54c 6143     		muls r1, r1, r4
ARM GAS  1.s 			page 431


 24489 b54e 6A43     		muls r2, r2, r5
 24490 b550 6B43     		muls r3, r3, r5
 24491 b552 8011     		asrs r0, r0, # 6
 24492 b554 8911     		asrs r1, r1, # 6
 24493 b556 9211     		asrs r2, r2, # 6
 24494 b558 9B11     		asrs r3, r3, # 6
 24495 b55a 8018     		adds r0, r0, r2         @r
 24496 b55c C918     		adds r1, r1, r3         @i
 24497 b55e 3618     		adds r6, r6, r0
 24498 b560 7F18     		adds r7, r7, r1
 24499              	
 24500 b562 DD46     		mov sp, r11
 24501 b564 0FBC     		pop {r0-r3}
 24502 b566 EB46     		mov r11, sp
 24503 b568 D546     		mov sp, r10
 24504 b56a 10BC     		pop {r4}
 24505 b56c EA46     		mov r10, sp
 24506 b56e 2546     		mov r5, r4
 24507 b570 2404     		lsls r4, r4, # 16
 24508 b572 240C     		lsrs r4, r4, # 16
 24509 b574 2D0C     		lsrs r5, r5, # 16
 24510 b576 6043     		muls r0, r0, r4
 24511 b578 6143     		muls r1, r1, r4
 24512 b57a 6A43     		muls r2, r2, r5
 24513 b57c 6B43     		muls r3, r3, r5
 24514 b57e 8011     		asrs r0, r0, # 6
 24515 b580 8911     		asrs r1, r1, # 6
 24516 b582 9211     		asrs r2, r2, # 6
 24517 b584 9B11     		asrs r3, r3, # 6
 24518 b586 8018     		adds r0, r0, r2  @r
 24519 b588 C918     		adds r1, r1, r3  @i
 24520 b58a 3618     		adds r6, r6, r0
 24521 b58c 7F18     		adds r7, r7, r1
 24522              	
 24523 b58e DD46     		mov sp, r11
 24524 b590 0FBC     		pop {r0-r3}
 24525 b592 EB46     		mov r11, sp
 24526 b594 D546     		mov sp, r10
 24527 b596 10BC     		pop {r4}
 24528 b598 EA46     		mov r10, sp
 24529 b59a 2546     		mov r5, r4
 24530 b59c 2404     		lsls r4, r4, # 16
 24531 b59e 240C     		lsrs r4, r4, # 16
 24532 b5a0 2D0C     		lsrs r5, r5, # 16
 24533 b5a2 6043     		muls r0, r0, r4
 24534 b5a4 6143     		muls r1, r1, r4
 24535 b5a6 6A43     		muls r2, r2, r5
 24536 b5a8 6B43     		muls r3, r3, r5
 24537 b5aa 8011     		asrs r0, r0, # 6
 24538 b5ac 8911     		asrs r1, r1, # 6
 24539 b5ae 9211     		asrs r2, r2, # 6
 24540 b5b0 9B11     		asrs r3, r3, # 6
 24541 b5b2 8018     		adds r0, r0, r2         @r
 24542 b5b4 C918     		adds r1, r1, r3         @i
 24543 b5b6 3618     		adds r6, r6, r0
 24544 b5b8 7F18     		adds r7, r7, r1
 24545              	
ARM GAS  1.s 			page 432


 24546              		@8
 24547 b5ba DD46     		mov sp, r11
 24548 b5bc 0FBC     		pop {r0-r3}
 24549 b5be EB46     		mov r11, sp
 24550 b5c0 D546     		mov sp, r10
 24551 b5c2 10BC     		pop {r4}
 24552 b5c4 EA46     		mov r10, sp
 24553 b5c6 2546     		mov r5, r4
 24554 b5c8 2404     		lsls r4, r4, # 16
 24555 b5ca 240C     		lsrs r4, r4, # 16
 24556 b5cc 2D0C     		lsrs r5, r5, # 16
 24557 b5ce 6043     		muls r0, r0, r4		@R
 24558 b5d0 6143     		muls r1, r1, r4		@I
 24559 b5d2 6A43     		muls r2, r2, r5		@R
 24560 b5d4 6B43     		muls r3, r3, r5		@I
 24561 b5d6 8011     		asrs r0, r0, # 6
 24562 b5d8 8911     		asrs r1, r1, # 6
 24563 b5da 9211     		asrs r2, r2, # 6
 24564 b5dc 9B11     		asrs r3, r3, # 6
 24565 b5de 8018     		adds r0, r0, r2	 @r
 24566 b5e0 C918     		adds r1, r1, r3	 @i
 24567 b5e2 3618     		adds r6, r6, r0
 24568 b5e4 7F18     		adds r7, r7, r1
 24569              	
 24570 b5e6 DD46     		mov sp, r11
 24571 b5e8 0FBC     		pop {r0-r3}
 24572 b5ea EB46     		mov r11, sp
 24573 b5ec D546     		mov sp, r10
 24574 b5ee 10BC     		pop {r4}
 24575 b5f0 EA46     		mov r10, sp
 24576 b5f2 2546     		mov r5, r4
 24577 b5f4 2404     		lsls r4, r4, # 16
 24578 b5f6 240C     		lsrs r4, r4, # 16
 24579 b5f8 2D0C     		lsrs r5, r5, # 16
 24580 b5fa 6043     		muls r0, r0, r4
 24581 b5fc 6143     		muls r1, r1, r4
 24582 b5fe 6A43     		muls r2, r2, r5
 24583 b600 6B43     		muls r3, r3, r5
 24584 b602 8011     		asrs r0, r0, # 6
 24585 b604 8911     		asrs r1, r1, # 6
 24586 b606 9211     		asrs r2, r2, # 6
 24587 b608 9B11     		asrs r3, r3, # 6
 24588 b60a 8018     		adds r0, r0, r2         @r
 24589 b60c C918     		adds r1, r1, r3         @i
 24590 b60e 3618     		adds r6, r6, r0
 24591 b610 7F18     		adds r7, r7, r1
 24592              	
 24593 b612 DD46     		mov sp, r11
 24594 b614 0FBC     		pop {r0-r3}
 24595 b616 EB46     		mov r11, sp
 24596 b618 D546     		mov sp, r10
 24597 b61a 10BC     		pop {r4}
 24598 b61c EA46     		mov r10, sp
 24599 b61e 2546     		mov r5, r4
 24600 b620 2404     		lsls r4, r4, # 16
 24601 b622 240C     		lsrs r4, r4, # 16
 24602 b624 2D0C     		lsrs r5, r5, # 16
ARM GAS  1.s 			page 433


 24603 b626 6043     		muls r0, r0, r4
 24604 b628 6143     		muls r1, r1, r4
 24605 b62a 6A43     		muls r2, r2, r5
 24606 b62c 6B43     		muls r3, r3, r5
 24607 b62e 8011     		asrs r0, r0, # 6
 24608 b630 8911     		asrs r1, r1, # 6
 24609 b632 9211     		asrs r2, r2, # 6
 24610 b634 9B11     		asrs r3, r3, # 6
 24611 b636 8018     		adds r0, r0, r2  @r
 24612 b638 C918     		adds r1, r1, r3  @i
 24613 b63a 3618     		adds r6, r6, r0
 24614 b63c 7F18     		adds r7, r7, r1
 24615              	
 24616 b63e DD46     		mov sp, r11
 24617 b640 0FBC     		pop {r0-r3}
 24618 b642 EB46     		mov r11, sp
 24619 b644 D546     		mov sp, r10
 24620 b646 10BC     		pop {r4}
 24621 b648 EA46     		mov r10, sp
 24622 b64a 2546     		mov r5, r4
 24623 b64c 2404     		lsls r4, r4, # 16
 24624 b64e 240C     		lsrs r4, r4, # 16
 24625 b650 2D0C     		lsrs r5, r5, # 16
 24626 b652 6043     		muls r0, r0, r4
 24627 b654 6143     		muls r1, r1, r4
 24628 b656 6A43     		muls r2, r2, r5
 24629 b658 6B43     		muls r3, r3, r5
 24630 b65a 8011     		asrs r0, r0, # 6
 24631 b65c 8911     		asrs r1, r1, # 6
 24632 b65e 9211     		asrs r2, r2, # 6
 24633 b660 9B11     		asrs r3, r3, # 6
 24634 b662 8018     		adds r0, r0, r2         @r
 24635 b664 C918     		adds r1, r1, r3         @i
 24636 b666 3618     		adds r6, r6, r0
 24637 b668 7F18     		adds r7, r7, r1
 24638              	
 24639              		@9
 24640 b66a DD46     		mov sp, r11
 24641 b66c 0FBC     		pop {r0-r3}
 24642 b66e EB46     		mov r11, sp
 24643 b670 D546     		mov sp, r10
 24644 b672 10BC     		pop {r4}
 24645 b674 EA46     		mov r10, sp
 24646 b676 2546     		mov r5, r4
 24647 b678 2404     		lsls r4, r4, # 16
 24648 b67a 240C     		lsrs r4, r4, # 16
 24649 b67c 2D0C     		lsrs r5, r5, # 16
 24650 b67e 6043     		muls r0, r0, r4		@R
 24651 b680 6143     		muls r1, r1, r4		@I
 24652 b682 6A43     		muls r2, r2, r5		@R
 24653 b684 6B43     		muls r3, r3, r5		@I
 24654 b686 8011     		asrs r0, r0, # 6
 24655 b688 8911     		asrs r1, r1, # 6
 24656 b68a 9211     		asrs r2, r2, # 6
 24657 b68c 9B11     		asrs r3, r3, # 6
 24658 b68e 8018     		adds r0, r0, r2	 @r
 24659 b690 C918     		adds r1, r1, r3	 @i
ARM GAS  1.s 			page 434


 24660 b692 3618     		adds r6, r6, r0
 24661 b694 7F18     		adds r7, r7, r1
 24662              	
 24663 b696 DD46     		mov sp, r11
 24664 b698 0FBC     		pop {r0-r3}
 24665 b69a EB46     		mov r11, sp
 24666 b69c D546     		mov sp, r10
 24667 b69e 10BC     		pop {r4}
 24668 b6a0 EA46     		mov r10, sp
 24669 b6a2 2546     		mov r5, r4
 24670 b6a4 2404     		lsls r4, r4, # 16
 24671 b6a6 240C     		lsrs r4, r4, # 16
 24672 b6a8 2D0C     		lsrs r5, r5, # 16
 24673 b6aa 6043     		muls r0, r0, r4
 24674 b6ac 6143     		muls r1, r1, r4
 24675 b6ae 6A43     		muls r2, r2, r5
 24676 b6b0 6B43     		muls r3, r3, r5
 24677 b6b2 8011     		asrs r0, r0, # 6
 24678 b6b4 8911     		asrs r1, r1, # 6
 24679 b6b6 9211     		asrs r2, r2, # 6
 24680 b6b8 9B11     		asrs r3, r3, # 6
 24681 b6ba 8018     		adds r0, r0, r2         @r
 24682 b6bc C918     		adds r1, r1, r3         @i
 24683 b6be 3618     		adds r6, r6, r0
 24684 b6c0 7F18     		adds r7, r7, r1
 24685              	
 24686 b6c2 DD46     		mov sp, r11
 24687 b6c4 0FBC     		pop {r0-r3}
 24688 b6c6 EB46     		mov r11, sp
 24689 b6c8 D546     		mov sp, r10
 24690 b6ca 10BC     		pop {r4}
 24691 b6cc EA46     		mov r10, sp
 24692 b6ce 2546     		mov r5, r4
 24693 b6d0 2404     		lsls r4, r4, # 16
 24694 b6d2 240C     		lsrs r4, r4, # 16
 24695 b6d4 2D0C     		lsrs r5, r5, # 16
 24696 b6d6 6043     		muls r0, r0, r4
 24697 b6d8 6143     		muls r1, r1, r4
 24698 b6da 6A43     		muls r2, r2, r5
 24699 b6dc 6B43     		muls r3, r3, r5
 24700 b6de 8011     		asrs r0, r0, # 6
 24701 b6e0 8911     		asrs r1, r1, # 6
 24702 b6e2 9211     		asrs r2, r2, # 6
 24703 b6e4 9B11     		asrs r3, r3, # 6
 24704 b6e6 8018     		adds r0, r0, r2  @r
 24705 b6e8 C918     		adds r1, r1, r3  @i
 24706 b6ea 3618     		adds r6, r6, r0
 24707 b6ec 7F18     		adds r7, r7, r1
 24708              	
 24709 b6ee DD46     		mov sp, r11
 24710 b6f0 0FBC     		pop {r0-r3}
 24711 b6f2 EB46     		mov r11, sp
 24712 b6f4 D546     		mov sp, r10
 24713 b6f6 10BC     		pop {r4}
 24714 b6f8 EA46     		mov r10, sp
 24715 b6fa 2546     		mov r5, r4
 24716 b6fc 2404     		lsls r4, r4, # 16
ARM GAS  1.s 			page 435


 24717 b6fe 240C     		lsrs r4, r4, # 16
 24718 b700 2D0C     		lsrs r5, r5, # 16
 24719 b702 6043     		muls r0, r0, r4
 24720 b704 6143     		muls r1, r1, r4
 24721 b706 6A43     		muls r2, r2, r5
 24722 b708 6B43     		muls r3, r3, r5
 24723 b70a 8011     		asrs r0, r0, # 6
 24724 b70c 8911     		asrs r1, r1, # 6
 24725 b70e 9211     		asrs r2, r2, # 6
 24726 b710 9B11     		asrs r3, r3, # 6
 24727 b712 8018     		adds r0, r0, r2         @r
 24728 b714 C918     		adds r1, r1, r3         @i
 24729 b716 3618     		adds r6, r6, r0
 24730 b718 7F18     		adds r7, r7, r1
 24731              	
 24732              	
 24733              	
 24734              	
 24735              	
 24736              	
 24737              	
 24738              	
 24739              	
 24740              	
 24741 b71a 0848     		ldr r0, = 0x200010a0
 24742 b71c 8245     		cmp r10, r0
 24743 b71e 02D0     		beq __dft_fanhuile
 24744 b720 0748     		ldr r0, = __dft_xunhuan
 24745 b722 0130     		adds r0, r0, # 1
 24746 b724 8746     		mov pc, r0
 24747              	__dft_fanhuile:
 24748 b726 3046     		mov r0, r6
 24749 b728 3946     		mov r1, r7
 24750 b72a 4012     		asrs r0, r0, # 9	@dfdf
 24751 b72c 4912     		asrs r1, r1, # 9
 24752 b72e E546     		mov sp, r12
 24753 b730 1CBC     		pop {r2-r4}
 24754 b732 9246     		mov r10, r2
 24755 b734 9B46     		mov r11, r3
 24756 b736 A446     		mov r12, r4
 24757 b738 FCBD     		pop {r2-r7,pc}
 24758 b73a 0000A010 		.ltorg
 24758      0020300B 
 24758      0000
 24759              	
 24760              	__lv_bo_qi:
 24761              		@地址顺序：指针，累加值，缓冲区
 24762              		@入口R0=缓冲区，R1=数据, r2,=指针
 24763              		@出口R0
 24764 b744 F8B5     		push {r3-r7,lr}
 24765 b746 0B4C     		ldr r4, = lvbo_changdu
 24766 b748 0B4F     		ldr r7, = lvbo_youyi
 24767 b74a 2468     		ldr r4, [r4]
 24768 b74c 3F68     		ldr r7, [r7]
 24769 b74e 1568     		ldr r5, [r2]
 24770 b750 2B46     		mov r3, r5
 24771 b752 AB00     		lsls r3, r5, # 2
ARM GAS  1.s 			page 436


 24772 b754 C658     		ldr r6, [r0, r3]
 24773 b756 C150     		str r1, [r0, r3]
 24774 b758 0135     		adds r5, r5, # 1
 24775 b75a 1560     		str r5, [r2]
 24776 b75c A542     		cmp r5, r4
 24777 b75e 01D1     		bne __huanchong_leijia
 24778 b760 0025     		movs r5, # 0
 24779 b762 1560     		str r5, [r2]
 24780              	__huanchong_leijia:
 24781 b764 0438     		subs r0, r0, # 4
 24782 b766 0568     		ldr r5, [r0]
 24783 b768 4919     		adds r1, r1, r5
 24784 b76a 891B     		subs r1, r1, r6
 24785 b76c 0160     		str r1, [r0]
 24786 b76e 3941     		asrs r1, r1, r7	 @# 12 @12 @  7	@128
 24787 b770 0846     		mov r0, r1
 24788 b772 F8BD     		pop {r3-r7,pc}
 24789 b774 D41F0020 		.ltorg
 24789      D81F0020 
 24790              	
 24791              	
 24792              	
 24793              	
 24794              	
 24795              	
 24796              	
 24797              	
 24798              		
 24799              	
 24800              		
 24801              		
 24802              	_nmi:
 24803              	_Hard_Fault:
 24804              	_svc_handler:
 24805              	_pendsv_handler:
 24806              	aaa:
 24807 b77c 7047     		bx lr
 24808              		
 24809              	_systickzhongduan:
 24810 b77e 1FB5     		push {r0-r4,lr}
 24811              	
 24812 b780 1348     		ldr r0, = 0x40020000
 24813 b782 1449     		ldr r1, = 0x107d0	@ 0x103e8
 24814 b784 4162     		str r1, [r0, # 0x24]    @传输数量
 24815 b786 1449     		ldr r1, = dianyabiao
 24816 b788 C162     		str r1, [r0, # 0x2c]    @目的地
 24817 b78a 6921     		movs r1, # 0x69
 24818 b78c 0162     		str r1, [r0, # 0x20]    @模式设置和开DMA
 24819              	
 24820              	__suan_dft:
 24821 b78e F5F7BCF9 		bl __dft
 24822 b792 124A     		ldr r2, = shangbi_rr
 24823 b794 124B     		ldr r3, = shangbi_ii
 24824 b796 1060     		str r0, [r2]
 24825 b798 1960     		str r1, [r3]
 24826 b79a 0446     		mov r4, r0
 24827 b79c 114A     		ldr r2, = lvboqizhizhen1
ARM GAS  1.s 			page 437


 24828 b79e 1248     		ldr r0, =lvboqihuanchong1
 24829 b7a0 FFF7D0FF 		bl __lv_bo_qi
 24830 b7a4 1149     		ldr r1, = shangbi_i
 24831 b7a6 0860     		str r0, [r1]
 24832 b7a8 2146     		mov r1, r4
 24833 b7aa 114A     		ldr r2, = lvboqizhizhen
 24834 b7ac 1148     		ldr r0, =lvboqihuanchong
 24835 b7ae FFF7C9FF 		bl __lv_bo_qi
 24836 b7b2 1149     		ldr r1, = shangbi_r
 24837 b7b4 0860     		str r0, [r1]
 24838              	
 24839              	
 24840              		
 24841              	__systick_fanhui:
 24842 b7b6 1148     		ldr r0, = z_r
 24843 b7b8 1149     		ldr r1, = z_i
 24844 b7ba 0068     		ldr r0, [r0]
 24845 b7bc 0968     		ldr r1, [r1]
 24846 b7be F4F7DFFE 		bl __ji_suan_fu_du
 24847 b7c2 F4F7C9FE 		bl __laba
 24848              		
 24849 b7c6 0F48     		ldr r0, = 0xe0000d04
 24850 b7c8 0F49     		ldr r1, = 0x02000000
 24851 b7ca 0160     		str r1, [r0]                 @ 清除SYSTICK中断
 24852 b7cc 1FBD     		pop {r0-r4,pc}
 24853              	
 24854              	
 24855              	
 24856 b7ce 0000     		.section .data
 24857              		.equ zhanding,			0x200000fc
 24858              		.equ dianyabiao,		0x20000100
 24859              		.equ lvboqizhizhen,             0x200010b0
 24860              		.equ lvboqihuanchong,           0x200010b8
 24861              		.equ lvboqizhizhen1,            0x20001800
 24862              		.equ lvboqihuanchong1,          0x20001808
 24863              	
 24864              		.equ jiaodu_r,			0x20001fa4
 24865              		.equ jiaodu_i,			0x20001fa8
 24866              		.equ ling_min_du,		0x20001fac
 24867              		.equ qingling_r,		0x20001fb0
 24868              		.equ qingling_i,		0x20001fb4
 24869              		.equ z_r,			0x20001fb8
 24870              		.equ z_i,			0x20001fbc
 24871              		.equ z_jiao_du,			0x20001fc0
 24872              		.equ shangbi_r,			0x20001fc4
 24873              		.equ shangbi_i,			0x20001fc8
 24874              		.equ shangbi_rr,		0x20001fcc
 24875              		.equ shangbi_ii,		0x20001fd0
 24876              		.equ lvbo_changdu,		0x20001fd4
 24877              		.equ lvbo_youyi,		0x20001fd8
 24878              		.equ cossin,			0x20001fdc 
 24879              		.equ asciibiao,			0x20001fe0
 24880              	
 24881              	yjmwxwx:
 24882 0000 796A6D77 		.ascii "yjmwxwx 2024 01 01"
 24882      78777820 
 24882      32303234 
ARM GAS  1.s 			page 438


 24882      20303120 
 24882      3031
 24883              	
 24884              	she_zhi_wan:
 24885 0012 73686520 		.ascii "she zhi wan"
 24885      7A686920 
 24885      77616E
 24886              	lingmindu:
 24887 001d 6C696E67 		.ascii "ling min du"
 24887      206D696E 
 24887      206475
 24888              	kong:
 24889 0028 20202020 		.int 0x20202020
 24890              	_fu:
 24891 002c 2D       		.ascii "-"
 24892              	
 24893              	
 24894 002d 000000   		.align 4
 24895              	an_jian_biao:
 24896 0030 E3010000 		.word __anjian0	+1
 24897 0034 E5010000 		.word __anjian1	+1
 24898 0038 27020000 		.word __anjian2	+1
 24899 003c 33020000 		.word __anjian3	+1
 24900              	
 24901              	an_jian_biao1:
 24902 0040 43020000 		.word __anjian_0 +1
 24903 0044 4F020000 		.word __anjian_1 +1
 24904 0048 6B020000 		.word __anjian_2 +1
 24905 004c 87020000 		.word __anjian_3 +1
 24906              		
 24907              	
 24908              		
 24909              	
 24910              	cordic_yong_atan_biao:				@弧度
 24911 0050 87640000 		.int 0x00006487,0x00003B58,0x00001F5B,0x00000FEA,0x000007FD,0x000003FF,0x000001FF,0x000000FF,0x000
 24911      583B0000 
 24911      5B1F0000 
 24911      EA0F0000 
 24911      FD070000 
 24912              	cordic_yong_cos_sin:
 24913 0090 00000000 		.int 0x0000,0x4000,0x2D41,0x2D41,0x3B20,0x187D,0x3EC5,0x0C7C,0x3FB1,0x0645,0x3FEC,0x0323,0x3FFB,0x
 24913      00400000 
 24913      412D0000 
 24913      412D0000 
 24913      203B0000 
 24914              	
 24915              	
 24916              		
 24917              		.align 4
 24918              	cos_sin_biao_100k:
 24919 0110 00800000 		.int 0x8000,0x0000,0x678D,0xFFFFB4C4,0x278D,0xFFFF8644,0xFFFFD873,0xFFFF8644,0xFFFF9873,0xFFFFB4C4
 24919      00000000 
 24919      8D670000 
 24919      C4B4FFFF 
 24919      8D270000 
 24920              	
 24921              		.align 4
ARM GAS  1.s 			page 439


 24922              	da_a_labo_hack:			 @16*24
 24923 3f90 00000080 		.byte 0x00, 0x00, 0x00, 0x80, 0xFF, 0x01, 0xF0, 0xFF, 0x0F, 0xF8, 0xFF, 0x1F, 0x7C, 0x00, 0x3E, 0x
 24923      FF01F0FF 
 24923      0FF8FF1F 
 24923      7C003E1E 
 24923      00780E00 
 24924 3fc0 00000000 		.byte 0x00, 0x00, 0x00, 0x00, 0x00, 0x00, 0x00, 0x00, 0x00, 0x70, 0x00, 0x70, 0x70, 0x00, 0x70, 0x
 24924      00000000 
 24924      00700070 
 24924      70007070 
 24924      00707800 
 24925 3ff0 00000000 		.byte 0x00, 0x00, 0x00, 0x00, 0x00, 0x78, 0x1C, 0x00, 0x7C, 0x1C, 0x00, 0x7E, 0x0E, 0x00, 0x77, 0x
 24925      00781C00 
 24925      7C1C007E 
 24925      0E00770E 
 24925      00770E80 
 24926 4020 00000000 		.byte 0x00, 0x00, 0x00, 0x00, 0x00, 0x38, 0x1C, 0x00, 0x38, 0x1C, 0x00, 0x70, 0x0E, 0x00, 0x70, 0x
 24926      00381C00 
 24926      381C0070 
 24926      0E00700E 
 24926      00700E1C 
 24927 4050 00E00100 		.byte 0x00, 0xE0, 0x01, 0x00, 0xF0, 0x01, 0x00, 0xFC, 0x01, 0x00, 0xFE, 0x01, 0x00, 0xDF, 0x01, 0x
 24927      F00100FC 
 24927      0100FE01 
 24927      00DF0180 
 24927      CF01E0C3 
 24928 4080 00000000 		.byte 0x00, 0x00, 0x00, 0x00, 0x00, 0x00, 0x00, 0x00, 0x38, 0xFE, 0x1F, 0x38, 0xFE, 0x0F, 0x70, 0x
 24928      00000000 
 24928      38FE1F38 
 24928      FE0F70FE 
 24928      0F700E0E 
 24929 40b0 00000000 		.byte 0x00, 0x00, 0x00, 0x00, 0xFE, 0x03, 0xC0, 0xFF, 0x0F, 0xF0, 0xFF, 0x1F, 0xF8, 0x1C, 0x3E, 0x
 24929      FE03C0FF 
 24929      0FF0FF1F 
 24929      F81C3E3C 
 24929      0C781C0E 
 24930 40e0 0000000E 		.byte 0x00, 0x00, 0x00, 0x0E, 0x00, 0x00, 0x0E, 0x00, 0x00, 0x0E, 0x00, 0x40, 0x0E, 0x00, 0x70, 0x
 24930      00000E00 
 24930      000E0040 
 24930      0E00700E 
 24930      007C0E00 
 24931 4110 00000000 		.byte 0x00, 0x00, 0x00, 0x00, 0xC0, 0x07, 0xF0, 0xE1, 0x1F, 0xF8, 0xF3, 0x3F, 0xFC, 0x3F, 0x3C, 0x
 24931      C007F0E1 
 24931      1FF8F33F 
 24931      FC3F3C1E 
 24931      1F780E0E 
 24932 4140 000000E0 		.byte 0x00, 0x00, 0x00, 0xE0, 0x07, 0x00, 0xF0, 0x1F, 0x00, 0xF8, 0x3F, 0x78, 0x3C, 0x3C, 0x70, 0x
 24932      0700F01F 
 24932      00F83F78 
 24932      3C3C701E 
 24932      78700E70 
 24933              		.align 4
 24934              	ascii_biao:				@6*8
 24935 4170 00000000 		.byte 0x00, 0x00, 0x00, 0x00, 0x00, 0x00 @
 24935      0000
 24936 4176 0000004F 		.byte 0x00, 0x00, 0x00, 0x4F, 0x00, 0x00 @ !
 24936      0000
ARM GAS  1.s 			page 440


 24937 417c 00000700 		.byte 0x00, 0x00, 0x07, 0x00, 0x07, 0x00 @ "
 24937      0700
 24938 4182 00147F14 		.byte 0x00, 0x14, 0x7F, 0x14, 0x7F, 0x14 @ #
 24938      7F14
 24939 4188 00242A7F 		.byte 0x00, 0x24, 0x2A, 0x7F, 0x2A, 0x12 @ $
 24939      2A12
 24940 418e 00231308 		.byte 0x00, 0x23, 0x13, 0x08, 0x64, 0x62 @ %
 24940      6462
 24941 4194 00364955 		.byte 0x00, 0x36, 0x49, 0x55, 0x22, 0x50 @ &
 24941      2250
 24942 419a 00000503 		.byte 0x00, 0x00, 0x05, 0x03, 0x00, 0x00 @ '
 24942      0000
 24943 41a0 00001C22 		.byte 0x00, 0x00, 0x1C, 0x22, 0x41, 0x00 @ (
 24943      4100
 24944 41a6 00004122 		.byte 0x00, 0x00, 0x41, 0x22, 0x1C, 0x00 @ )
 24944      1C00
 24945 41ac 0014083E 		.byte 0x00, 0x14, 0x08, 0x3E, 0x08, 0x14 @ *
 24945      0814
 24946 41b2 0008083E 		.byte 0x00, 0x08, 0x08, 0x3E, 0x08, 0x08 @ +
 24946      0808
 24947 41b8 00005030 		.byte 0x00, 0x00, 0x50, 0x30, 0x00, 0x00 @ ,
 24947      0000
 24948 41be 00080808 		.byte 0x00, 0x08, 0x08, 0x08, 0x08, 0x08 @ -
 24948      0808
 24949 41c4 00006060 		.byte 0x00, 0x00, 0x60, 0x60, 0x00, 0x00 @ .
 24949      0000
 24950 41ca 00201008 		.byte 0x00, 0x20, 0x10, 0x08, 0x04, 0x02 @ /
 24950      0402
 24951 41d0 003E5149 		.byte 0x00, 0x3E, 0x51, 0x49, 0x45, 0x3E @ 0
 24951      453E
 24952 41d6 0000427F 		.byte 0x00, 0x00, 0x42, 0x7F, 0x40, 0x00 @ 1
 24952      4000
 24953 41dc 00426151 		.byte 0x00, 0x42, 0x61, 0x51, 0x49, 0x46 @ 2
 24953      4946
 24954 41e2 00214145 		.byte 0x00, 0x21, 0x41, 0x45, 0x4B, 0x31 @ 3
 24954      4B31
 24955 41e8 00181412 		.byte 0x00, 0x18, 0x14, 0x12, 0x7F, 0x10 @ 4
 24955      7F10
 24956 41ee 00274545 		.byte 0x00, 0x27, 0x45, 0x45, 0x45, 0x39 @ 5
 24956      4539
 24957 41f4 003C4A49 		.byte 0x00, 0x3C, 0x4A, 0x49, 0x49, 0x30 @ 6
 24957      4930
 24958 41fa 00010179 		.byte 0x00, 0x01, 0x01, 0x79, 0x05, 0x03 @ 7
 24958      0503
 24959 4200 00364949 		.byte 0x00, 0x36, 0x49, 0x49, 0x49, 0x36 @ 8
 24959      4936
 24960 4206 00064949 		.byte 0x00, 0x06, 0x49, 0x49, 0x29, 0x1E @ 9
 24960      291E
 24961 420c 00003636 		.byte 0x00, 0x00, 0x36, 0x36, 0x00, 0x00 @ :
 24961      0000
 24962 4212 00005636 		.byte 0x00, 0x00, 0x56, 0x36, 0x00, 0x00 @ ;
 24962      0000
 24963 4218 00081422 		.byte 0x00, 0x08, 0x14, 0x22, 0x41, 0x00 @ <
 24963      4100
 24964 421e 00141414 		.byte 0x00, 0x14, 0x14, 0x14, 0x14, 0x14 @ =
 24964      1414
 24965 4224 00004122 		.byte 0x00, 0x00, 0x41, 0x22, 0x14, 0x08 @ >
ARM GAS  1.s 			page 441


 24965      1408
 24966 422a 02015109 		.byte 0x02, 0x01, 0x51, 0x09, 0x06, 0x00 @ ?
 24966      0600
 24967 4230 00324979 		.byte 0x00, 0x32, 0x49, 0x79, 0x41, 0x3E @ @
 24967      413E
 24968 4236 007E1111 		.byte 0x00, 0x7E, 0x11, 0x11, 0x11, 0x7E @ A
 24968      117E
 24969 423c 00417F49 		.byte 0x00, 0x41, 0x7F, 0x49, 0x49, 0x36 @ B
 24969      4936
 24970 4242 003E4141 		.byte 0x00, 0x3E, 0x41, 0x41, 0x41, 0x22 @ C
 24970      4122
 24971 4248 00417F41 		.byte 0x00, 0x41, 0x7F, 0x41, 0x41, 0x3E @ D
 24971      413E
 24972 424e 007F4949 		.byte 0x00, 0x7F, 0x49, 0x49, 0x49, 0x49 @ E
 24972      4949
 24973 4254 007F0909 		.byte 0x00, 0x7F, 0x09, 0x09, 0x09, 0x09 @ F
 24973      0909
 24974 425a 003E4141 		.byte 0x00, 0x3E, 0x41, 0x41, 0x51, 0x72 @ G
 24974      5172
 24975 4260 007F0808 		.byte 0x00, 0x7F, 0x08, 0x08, 0x08, 0x7F @ H
 24975      087F
 24976 4266 0000417F 		.byte 0x00, 0x00, 0x41, 0x7F, 0x41, 0x00 @ I
 24976      4100
 24977 426c 00204041 		.byte 0x00, 0x20, 0x40, 0x41, 0x3F, 0x01 @ J
 24977      3F01
 24978 4272 007F0814 		.byte 0x00, 0x7F, 0x08, 0x14, 0x22, 0x41 @ K
 24978      2241
 24979 4278 007F4040 		.byte 0x00, 0x7F, 0x40, 0x40, 0x40, 0x40 @ L
 24979      4040
 24980 427e 007F020C 		.byte 0x00, 0x7F, 0x02, 0x0C, 0x02, 0x7F @ M
 24980      027F
 24981 4284 817F0608 		.byte 0x81, 0x7F, 0x06, 0x08, 0x30, 0x7F @ N
 24981      307F
 24982 428a 003E4141 		.byte 0x00, 0x3E, 0x41, 0x41, 0x41, 0x3E @ O
 24982      413E
 24983 4290 007F0909 		.byte 0x00, 0x7F, 0x09, 0x09, 0x09, 0x06 @ P
 24983      0906
 24984 4296 003E4151 		.byte 0x00, 0x3E, 0x41, 0x51, 0x21, 0x5E @ Q
 24984      215E
 24985 429c 007F0919 		.byte 0x00, 0x7F, 0x09, 0x19, 0x29, 0x46 @ R
 24985      2946
 24986 42a2 00264949 		.byte 0x00, 0x26, 0x49, 0x49, 0x49, 0x32 @ S
 24986      4932
 24987 42a8 0001017F 		.byte 0x00, 0x01, 0x01, 0x7F, 0x01, 0x01 @ T
 24987      0101
 24988 42ae 003F4040 		.byte 0x00, 0x3F, 0x40, 0x40, 0x40, 0x3F @ U
 24988      403F
 24989 42b4 001F2040 		.byte 0x00, 0x1F, 0x20, 0x40, 0x20, 0x1F @ V
 24989      201F
 24990 42ba 007F2018 		.byte 0x00, 0x7F, 0x20, 0x18, 0x20, 0x7F @ W
 24990      207F
 24991 42c0 00631408 		.byte 0x00, 0x63, 0x14, 0x08, 0x14, 0x63 @ X
 24991      1463
 24992 42c6 00070870 		.byte 0x00, 0x07, 0x08, 0x70, 0x08, 0x07 @ Y
 24992      0807
 24993 42cc 00615149 		.byte 0x00, 0x61, 0x51, 0x49, 0x45, 0x43 @ Z
 24993      4543
ARM GAS  1.s 			page 442


 24994 42d2 00007F41 		.byte 0x00, 0x00, 0x7F, 0x41, 0x41, 0x00 @ [
 24994      4100
 24995 42d8 00020408 		.byte 0x00, 0x02, 0x04, 0x08, 0x10, 0x20 @ BackSlash
 24995      1020
 24996 42de 00004141 		.byte 0x00, 0x00, 0x41, 0x41, 0x7F, 0x00 @ ]
 24996      7F00
 24997 42e4 00040201 		.byte 0x00, 0x04, 0x02, 0x01, 0x02, 0x04 @ ^
 24997      0204
 24998 42ea 00404040 		.byte 0x00, 0x40, 0x40, 0x40, 0x40, 0x40 @ _
 24998      4040
 24999 42f0 00010204 		.byte 0x00, 0x01, 0x02, 0x04, 0x00, 0x00 @ `
 24999      0000
 25000 42f6 00205454 		.byte 0x00, 0x20, 0x54, 0x54, 0x54, 0x78 @ a
 25000      5478
 25001 42fc 007F4844 		.byte 0x00, 0x7F, 0x48, 0x44, 0x44, 0x38 @ b
 25001      4438
 25002 4302 00384444 		.byte 0x00, 0x38, 0x44, 0x44, 0x44, 0x28 @ c
 25002      4428
 25003 4308 00384444 		.byte 0x00, 0x38, 0x44, 0x44, 0x48, 0x7F @ d
 25003      487F
 25004 430e 00385454 		.byte 0x00, 0x38, 0x54, 0x54, 0x54, 0x18 @ e
 25004      5418
 25005 4314 0000087E 		.byte 0x00, 0x00, 0x08, 0x7E, 0x09, 0x02 @ f
 25005      0902
 25006 431a 000C5252 		.byte 0x00, 0x0C, 0x52, 0x52, 0x4C, 0x3E @ g
 25006      4C3E
 25007 4320 007F0804 		.byte 0x00, 0x7F, 0x08, 0x04, 0x04, 0x78 @ h
 25007      0478
 25008 4326 0000447D 		.byte 0x00, 0x00, 0x44, 0x7D, 0x40, 0x00 @ i
 25008      4000
 25009 432c 00204044 		.byte 0x00, 0x20, 0x40, 0x44, 0x3D, 0x00 @ j
 25009      3D00
 25010 4332 00007F10 		.byte 0x00, 0x00, 0x7F, 0x10, 0x28, 0x44 @ k
 25010      2844
 25011 4338 0000417F 		.byte 0x00, 0x00, 0x41, 0x7F, 0x40, 0x00 @ l
 25011      4000
 25012 433e 00780478 		.byte 0x00, 0x78, 0x04, 0x78, 0x04, 0x78 @ m
 25012      0478
 25013 4344 007C0804 		.byte 0x00, 0x7C, 0x08, 0x04, 0x04, 0x78 @ n
 25013      0478
 25014 434a 00387C7C 		.byte 0x00, 0x38, 0x7C, 0x7C, 0x7C, 0x38 @ o
 25014      7C38
 25015 4350 007E0C12 		.byte 0x00, 0x7E, 0x0C, 0x12, 0x12, 0x0C @ p
 25015      120C
 25016 4356 000C1212 		.byte 0x00, 0x0C, 0x12, 0x12, 0x0C, 0x7E @ q
 25016      0C7E
 25017 435c 007C0804 		.byte 0x00, 0x7C, 0x08, 0x04, 0x04, 0x08 @ r
 25017      0408
 25018 4362 00585454 		.byte 0x00, 0x58, 0x54, 0x54, 0x54, 0x64 @ s
 25018      5464
 25019 4368 00043F44 		.byte 0x00, 0x04, 0x3F, 0x44, 0x40, 0x20 @ t
 25019      4020
 25020 436e 003C4040 		.byte 0x00, 0x3C, 0x40, 0x40, 0x3C, 0x40 @ u
 25020      3C40
 25021 4374 001C2040 		.byte 0x00, 0x1C, 0x20, 0x40, 0x20, 0x1C @ v
 25021      201C
 25022 437a 003C4030 		.byte 0x00, 0x3C, 0x40, 0x30, 0x40, 0x3C @ w
ARM GAS  1.s 			page 443


 25022      403C
 25023 4380 00442810 		.byte 0x00, 0x44, 0x28, 0x10, 0x28, 0x44 @ x
 25023      2844
 25024 4386 001CA0A0 		.byte 0x00, 0x1C, 0xA0, 0xA0, 0x90, 0x7C @ y
 25024      907C
 25025 438c 00446454 		.byte 0x00, 0x44, 0x64, 0x54, 0x4C, 0x44 @ z
 25025      4C44
 25026 4392 00000836 		.byte 0x00, 0x00, 0x08, 0x36, 0x41, 0x00 @ {
 25026      4100
 25027 4398 00000077 		.byte 0x00, 0x00, 0x00, 0x77, 0x00, 0x00 @ |
 25027      0000
 25028 439e 00004136 		.byte 0x00, 0x00, 0x41, 0x36, 0x08, 0x00 @ }
 25028      0800
 25029 43a4 00020102 		.byte 0x00, 0x02, 0x01, 0x02, 0x04, 0x02 @ ~
 25029      0402
 25030 43aa 00000000 		.byte 0x00, 0x00, 0x00, 0x00, 0x00, 0x00 @
 25030      0000
 25031              	
 25032              		.align 4
 25033              	
 25034              	danweibiao:			 @15*24
 25035 43b0 000000FE 		.byte 0x00, 0x00, 0x00, 0xFE, 0xFF, 0x7F, 0xFE, 0xFF, 0x7F, 0xFE, 0xFF, 0x7F, 0x00, 0xC0, 0x00, 0x
 25035      FF7FFEFF 
 25035      7FFEFF7F 
 25035      00C00000 
 25035      80010080 
 25036 43dd 007F70E0 		.byte 0x00, 0x7F, 0x70, 0xE0, 0xFF, 0x73, 0xF0, 0xFF, 0x77, 0xF8, 0x00, 0x7F, 0x38, 0x00, 0x7C, 0x
 25036      FF73F0FF 
 25036      77F8007F 
 25036      38007C3C 
 25036      00701C00 
 25037 440a 000000FE 		.byte 0x00, 0x00, 0x00, 0xFE, 0xFF, 0x7F, 0xFE, 0xFF, 0x7F, 0xFE, 0xFF, 0x7F, 0x0E, 0x1C, 0x00, 0x
 25037      FF7FFEFF 
 25037      7FFEFF7F 
 25037      0E1C000E 
 25037      1C000E1C 
 25038 4437 00F87F00 		.byte 0x00, 0xF8, 0x7F, 0x00, 0xFC, 0x7F, 0x00, 0x1E, 0x00, 0x00, 0x0E, 0x00, 0x00, 0x0C, 0x00, 0x
 25038      FC7F001E 
 25038      00000E00 
 25038      000C0000 
 25038      1C0000F8 
 25039 4464 000000FC 		.byte 0x00, 0x00, 0x00, 0xFC, 0xFF, 0x0F, 0xFC, 0xFF, 0x0F, 0x3C, 0x00, 0x00, 0xF0, 0x01, 0x00, 0x
 25039      FF0FFCFF 
 25039      0F3C0000 
 25039      F0010080 
 25039      0F00003C 
 25040 4491 00000080 		.byte 0x00, 0x00, 0x00, 0x80, 0xFF, 0x7F, 0x80, 0xFF, 0x7F, 0x80, 0xFF, 0x7F, 0x00, 0x07, 0x00, 0x
 25040      FF7F80FF 
 25040      7F80FF7F 
 25040      00070080 
 25040      0300C001 
 25041 44be 000000FE 		.byte 0x00, 0x00, 0x00, 0xFE, 0xFF, 0x7F, 0xFE, 0xFF, 0x7F, 0xFE, 0xFF, 0x7F, 0x1C, 0xE0, 0x00, 0x
 25041      FF7FFEFF 
 25041      7FFEFF7F 
 25041      1CE0000E 
 25041      C0000680 
 25042 44eb 000000FE 		.byte 0x00, 0x00, 0x00, 0xFE, 0xFF, 0x7F, 0xFE, 0xFF, 0x7F, 0xFE, 0xFF, 0x7F, 0x00, 0x1C, 0x00, 0x
ARM GAS  1.s 			page 444


 25042      FF7FFEFF 
 25042      7FFEFF7F 
 25042      001C0000 
 25042      1C00001C 
 25043 4518 000000FC 		.byte 0x00, 0x00, 0x00, 0xFC, 0xFF, 0x7F, 0xFC, 0xFF, 0x7F, 0xFC, 0xFF, 0x7F, 0x00, 0x7C, 0x00, 0x
 25043      FF7FFCFF 
 25043      7FFCFF7F 
 25043      007C0000 
 25043      FE0000EF 
 25044 4545 00000000 		.byte 0x00, 0x00, 0x00, 0x00, 0x00, 0x00, 0x00, 0x00, 0x00, 0x00, 0x00, 0x00, 0x00, 0x00, 0x00, 0x
 25044      00000000 
 25044      00000000 
 25044      00000000 
 25044      00000000 
 25045              		
ARM GAS  1.s 			page 445


DEFINED SYMBOLS
                 1.s:8      .text:00000000 vectors
                            *ABS*:200000fc zhanding
                 1.s:57     .text:000000c0 kaishi
                 1.s:24802  .text:0000b77c _nmi
                 1.s:24803  .text:0000b77c _Hard_Fault
                 1.s:24804  .text:0000b77c _svc_handler
                 1.s:24805  .text:0000b77c _pendsv_handler
                 1.s:24809  .text:0000b77e _systickzhongduan
                 1.s:24806  .text:0000b77c aaa
                 1.s:59     .text:000000c0 shizhong
                            .text:00000000 $d
                 1.s:63     .text:000000c0 $t
                 1.s:68     .text:000000ca deng_hse
                 1.s:77     .text:000000d8 __wai_she_shi_zhong
                 1.s:92     .text:000000e2 _neicunqingling
                 1.s:96     .text:000000e8 _neicunqinglingxunhuan
                 1.s:101    .text:000000f0 __pa_chu_shi_hua
                 1.s:118    .text:000000fe __pb_chu_shi_hua
                 1.s:135    .text:00000114 __pc_chu_shi_hua
                 1.s:142    .text:0000011c __GTIM3_chu_shi_hua
                 1.s:157    .text:00000136 __GTIM4_chu_shi_hua
                 1.s:175    .text:00000150 __adc_chu_shi_hua
                 1.s:181    .text:00000156 __deng_chu_shi_hua
                 1.s:197    .text:00000170 __DMA_chu_shi_hua
                            *ABS*:20000100 dianyabiao
                            *ABS*:20001fd4 lvbo_changdu
                            *ABS*:20001fd8 lvbo_youyi
                            *ABS*:20001fdc cossin
                 1.s:24918  .data:00000110 cos_sin_biao_100k
                 1.s:226    .text:00000198 __spi1_chu_shi_hua
                 1.s:982    .text:000007dc __lcd_chushihua
                 1.s:1095   .text:000008a4 __lcd_qingping
                 1.s:24881  .data:00000000 yjmwxwx
                 1.s:1166   .text:0000092e __xie_ascii
                            *ABS*:20001fac ling_min_du
                 1.s:244    .text:000001b8 __xiangwei_xuanzhuan_yanshi
                            *ABS*:20001fc4 shangbi_r
                            *ABS*:20001fc8 shangbi_i
                 1.s:912    .text:0000074a __atan2_ji_suan
                 1.s:806    .text:000006a0 __jisuan_cos_sin
                            *ABS*:20001fa4 jiaodu_r
                            *ABS*:20001fa8 jiaodu_i
                 1.s:269    .text:000001e2 __anjian0
                 1.s:427    .text:000002f4 ting
                 1.s:273    .text:000001e4 __anjian1
                 1.s:779    .text:00000678 __xiangwei_xuanzhuan
                            *ABS*:20001fb0 qingling_r
                            *ABS*:20001fb4 qingling_i
                 1.s:403    .text:000002d0 __ren_wu_diao_du
                 1.s:309    .text:00000226 __anjian2
                 1.s:317    .text:00000232 __anjian3
                 1.s:418    .text:000002e8 __an_jian
                 1.s:325    .text:00000242 __anjian_0
                 1.s:24886  .data:0000001d lingmindu
                 1.s:410    .text:000002dc __ren_wu_diao_du1
                 1.s:331    .text:0000024e __anjian_1
ARM GAS  1.s 			page 446


                 1.s:377    .text:000002aa __lingmin_du_yanshi
                 1.s:342    .text:00000264 __anjian_1_fanhui
                 1.s:385    .text:000002b6 __lingmin_du_xianshi
                 1.s:345    .text:0000026a __anjian_2
                 1.s:356    .text:00000280 __anjian_2_fanhui
                 1.s:360    .text:00000286 __anjian_3
                 1.s:362    .text:0000028a __anjian__3
                 1.s:24884  .data:00000012 she_zhi_wan
                 1.s:380    .text:000002ae __lingmin_du_yanshi_xunhuan
                            *ABS*:20001fe0 asciibiao
                 1.s:1347   .text:00000a66 _zhuanascii
                 1.s:1263   .text:000009ca __xie_lcd_ascii
                 1.s:24895  .data:00000030 an_jian_biao
                 1.s:24901  .data:00000040 an_jian_biao1
                            *ABS*:20001fb8 z_r
                            *ABS*:20001fbc z_i
                 1.s:434    .text:000002fc __zr_shi_bu_shi_fu
                 1.s:439    .text:00000304 __zi_shi_bu_shi_fu
                 1.s:444    .text:0000030c __bi_jiao_zr_zi_da_xiao
                 1.s:448    .text:00000312 __zr_xian_shi
                 1.s:543    .text:000004c0 __xianshi_jindu_tiao
                 1.s:487    .text:00000346 __xianshi_zr
                 1.s:479    .text:00000336 __z_r_shi_fu
                 1.s:24890  .data:0000002c _fu
                 1.s:492    .text:00000350 __xianshi_z_r
                 1.s:24888  .data:00000028 kong
                 1.s:517    .text:00000380 __xianshi_zi
                 1.s:509    .text:00000370 __z_i_shi_fu
                 1.s:522    .text:0000038a __xianshi_z_i
                 1.s:537    .text:000003a4 $d
                 1.s:545    .text:000004c0 $t
                 1.s:712    .text:000005c4 __xianshi_fudu
                 1.s:1023   .text:00000838 __lcd_yanshi
                 1.s:1028   .text:0000083e __xie_spi1
                 1.s:603    .text:00000530 __jindu_tiao_zheng
                 1.s:580    .text:0000050a __jindu_tiao_fu_heng_sao
                 1.s:585    .text:00000512 __jindu_tiao_liang
                 1.s:587    .text:00000514 __xie_jin_du_tiao
                 1.s:595    .text:00000522 __jindu_tiao_zheng_qingling
                 1.s:605    .text:00000532 __jindu_tiao_fu_qingling
                 1.s:613    .text:00000542 __jindu_tiao_zheng_heng_sao
                 1.s:618    .text:0000054a __jindu_tiao_liang1
                 1.s:620    .text:0000054c __xie_jin_du_tiao1
                 1.s:634    .text:00000558 __laba
                 1.s:643    .text:00000566 __laba_bijiao_daxiao
                 1.s:652    .text:00000574 __laba_kai
                 1.s:646    .text:0000056a __laba_guan
                 1.s:657    .text:0000057c __laba_fanhui
                 1.s:663    .text:00000580 __ji_suan_fu_du
                 1.s:673    .text:0000058a _shibubushifushu
                 1.s:678    .text:00000592 _xububushifushu
                 1.s:683    .text:0000059a _panduanxubushibushi0
                 1.s:687    .text:000005a0 _jisuanfudu1
                 1.s:700    .text:000005b6 _alpha_min_beta_max
                 1.s:692    .text:000005a8 _alpha_max_beta_min
                 1.s:722    .text:000005d6 __fudu_shi_fu
                 1.s:716    .text:000005ca __fudu_bushi_fu
ARM GAS  1.s 			page 447


                 1.s:729    .text:000005e4 __xianshi_z_fudu
                 1.s:1377   .text:00000a96 __zhuanascii
                 1.s:740    .text:000005fc $d
                 1.s:745    .text:00000628 __xianshi_jiaodu
                 1.s:746    .text:00000628 $t
                            *ABS*:20001fc0 z_jiao_du
                 1.s:757    .text:0000063e __z_jiaodu_shi_fu
                 1.s:751    .text:00000632 __z_jiaodu_bushi_fu
                 1.s:764    .text:0000064c __xianshi_z_jiaodu
                 1.s:775    .text:00000664 $d
                 1.s:780    .text:00000678 $t
                 1.s:816    .text:000006ae __xiaoyu_180
                 1.s:818    .text:000006b0 __js_cos_sin
                 1.s:827    .text:000006c0 __jisuan_jiaodu_bushi0
                 1.s:829    .text:000006c2 __jiance_chao90
                 1.s:836    .text:000006ce __xiaoyu_90
                 1.s:838    .text:000006d0 __suan_cossin
                 1.s:1408   .text:00000ae4 _chufa
                 1.s:851    .text:000006e8 __suan_cos_sin1
                 1.s:866    .text:00000702 __cordic_cos_sin
                 1.s:857    .text:000006f4 __cos_sin_fanhui
                 1.s:864    .text:00000700 __cossin_fh
                 1.s:880    .text:00000712 cordicxunhuan
                 1.s:24910  .data:00000050 cordic_yong_atan_biao
                 1.s:24912  .data:00000090 cordic_yong_cos_sin
                 1.s:925    .text:00000760 __cordic_atan2_xun_huan
                 1.s:926    .text:00000760 __du_cos_sin
                 1.s:946    .text:00000784 __ni_shi_zhen_zhuan
                 1.s:939    .text:00000778 __shun_shi_zhen_zhuan
                 1.s:952    .text:0000078e __xuan_zhuan_wan
                 1.s:971    .text:000007b0 $d
                 1.s:983    .text:000007dc $t
                 1.s:1033   .text:00000842 __deng_huan_chong_kong
                 1.s:1038   .text:0000084a __deng_huan_chong_kong1
                 1.s:1042   .text:00000850 __busy_zong_xian_mang
                 1.s:1051   .text:0000085a __xie_lcd_ye
                 1.s:1057   .text:00000862 __ye_jia
                 1.s:1071   .text:00000876 __xie_ye_dizhi
                 1.s:1086   .text:00000896 __heng_sao
                 1.s:1100   .text:000008ac __ye_jia1
                 1.s:1110   .text:000008c0 __xie_ye_dizhi1
                 1.s:1126   .text:000008e6 __heng_sao1
                 1.s:1134   .text:000008f2 __xie_lcd_weizhi
                 1.s:1179   .text:00000940 __xie_lcd_dizhi2
                 1.s:1182   .text:00000946 __du_ascii2
                 1.s:24934  .data:00004170 ascii_biao
                 1.s:1188   .text:00000950 __du_ziku_chushihua2
                 1.s:1190   .text:00000952 __du_ziku1
                 1.s:1197   .text:00000960 __duwan_ziku1
                 1.s:1205   .text:0000096c __xie_alabo
                 1.s:1224   .text:00000988 __xie_lcd_dizhi1
                 1.s:1227   .text:0000098e __du_ascii1
                 1.s:1233   .text:00000998 __du_ziku_chushihua1
                 1.s:1235   .text:0000099a __du_ziku
                 1.s:1242   .text:000009a8 __duwan_ziku
                 1.s:1281   .text:000009e4 __xie_lcd_dizhi
                 1.s:1284   .text:000009ea __du_ascii
ARM GAS  1.s 			page 448


                 1.s:1320   .text:00000a28 __xie_ascii_xiaoshudian
                 1.s:24922  .data:00003f90 da_a_labo_hack
                 1.s:1293   .text:000009f8 __du_ziku_16_chushihua
                 1.s:1295   .text:000009fa __du_ziku_16
                 1.s:1302   .text:00000a08 __duwan_16
                 1.s:1336   .text:00000a4c __xie_ru_xiaoshudian
                 1.s:1354   .text:00000a70 _xunhuanqiuma
                 1.s:1373   .text:00000a92 _qiumafanhui
                 1.s:1368   .text:00000a8a _meidaoxiaoshudian
                 1.s:1384   .text:00000aa0 __xunhuanqiuma
                 1.s:1403   .text:00000ac4 __qiumafanhui
                 1.s:1398   .text:00000abc __meidaoxiaoshudian
                 1.s:1406   .text:00000ac8 $d
                 1.s:1410   .text:00000ae4 $t
                 1.s:1430   .text:00000b08 _chufafanhui
                 1.s:1420   .text:00000af8 _chufaxunhuan
                 1.s:1427   .text:00000b04 _chufaweishubudao0
                 1.s:1437   .text:00000b0a __dft
                 1.s:1453   .text:00000b30 __dft_xunhuan
                 1.s:1452   .text:00000b26 $d
                 1.s:1452   .text:00000b28 $d
                 1.s:1456   .text:00000b30 $t
                 1.s:24747  .text:0000b726 __dft_fanhuile
                 1.s:24758  .text:0000b73a $d
                 1.s:24758  .text:0000b73c $d
                 1.s:24760  .text:0000b744 __lv_bo_qi
                 1.s:24764  .text:0000b744 $t
                 1.s:24780  .text:0000b764 __huanchong_leijia
                 1.s:24789  .text:0000b774 $d
                 1.s:24807  .text:0000b77c $t
                 1.s:24820  .text:0000b78e __suan_dft
                            *ABS*:20001fcc shangbi_rr
                            *ABS*:20001fd0 shangbi_ii
                            *ABS*:20001800 lvboqizhizhen1
                            *ABS*:20001808 lvboqihuanchong1
                            *ABS*:200010b0 lvboqizhizhen
                            *ABS*:200010b8 lvboqihuanchong
                 1.s:24841  .text:0000b7b6 __systick_fanhui
                 1.s:24894  .data:0000002d $d
                 1.s:25034  .data:000043b0 danweibiao
                 1.s:24856  .text:0000b7ce $d
                 1.s:25045  .text:0000b7d0 $d

NO UNDEFINED SYMBOLS
