ARM GAS  1.s 			page 1


   1              		@cw32f030c8t6
   2              		@编译器ARM-NONE-EABI
   3              		@yjmwxwx-2024-08-18
   4              		.thumb
   5              		.syntax unified
   6              		.section .text
   7              	vectors:
   8 0000 FC000020 		.word zhanding
   9 0004 C1000000 		.word kaishi + 1
  10 0008 9B240000 		.word _nmi	+1
  11 000c 9B240000 		.word _Hard_Fault +1
  12 0010 00000000 		.word 0
  13 0014 00000000 		.word 0
  14 0018 00000000 		.word 0
  15 001c 00000000 		.word 0
  16 0020 00000000 		.word 0
  17 0024 00000000 		.word 0
  18 0028 00000000 		.word 0
  19 002c 9B240000 		.word _svc_handler +1
  20 0030 00000000 		.word 0
  21 0034 00000000 		.word 0
  22 0038 9B240000 		.word _pendsv_handler +1
  23 003c 9D240000 		.word _systickzhongduan +1  @ 15
  24 0040 9B240000 		.word aaa +1                @ 0		WDT
  25 0044 9B240000 		.word aaa +1                @ 1		LVD
  26 0048 9B240000 		.word aaa +1                @ 2		RTC
  27 004c 9B240000 		.word aaa +1                @ 3		FLASHRAM
  28 0050 9B240000 		.word aaa +1                @ 4		RCC
  29 0054 9B240000 		.word aaa +1         	    @ 5		GPIOA
  30 0058 9B240000 		.word aaa +1                @ 6		GPIOB
  31 005c 9B240000 		.word aaa +1                @ 7		GPIOC
  32 0060 9B240000 		.word aaa +1                @ 8		GPIOF
  33 0064 9B240000 		.word aaa +1		    @ 9		DMA1
  34 0068 9B240000 		.word aaa +1                @ 10	DMA23
  35 006c 9B240000 		.word aaa +1                @ 11	DMA45
  36 0070 9B240000 		.word aaa +1                @ 12	ADC
  37 0074 9B240000 		.word aaa +1                @ 13	ATIM
  38 0078 9B240000 		.word aaa +1                @ 14	VC1
  39 007c 9B240000 		.word aaa +1                @ 15	VC2
  40 0080 9B240000 		.word aaa +1                @ 16	GTIM1
  41 0084 9B240000 		.word aaa +1                @ 17	GITM2
  42 0088 9B240000 		.word aaa +1                @ 18	GTIM3
  43 008c 9B240000 		.word aaa +1                @ 19	GTIM4
  44 0090 9B240000 		.word aaa +1                @ 20	BTIM1
  45 0094 9B240000 		.word aaa +1                @ 21	BTIM2
  46 0098 9B240000 		.word aaa +1                @ 22	BTIM3
  47 009c 9B240000 		.word aaa +1                @ 23	I2C1
  48 00a0 9B240000 		.word aaa +1                @ 24	I2C2
  49 00a4 9B240000 		.word aaa +1                @ 25	SPI1
  50 00a8 9B240000 		.word aaa +1                @ 26	SPI2
  51 00ac 9B240000 		.word aaa +1                @ 27	UART1
  52 00b0 9B240000 		.word aaa +1		    @ 28	UART2
  53 00b4 9B240000 		.word aaa +1		    @ 29	UART3
  54 00b8 9B240000 		.word aaa +1		    @ 30	AWT
  55 00bc 9B240000 	 	.word aaa +1		    @ 31	FAULT
  56              	kaishi:
  57              	@	bkpt # 1
ARM GAS  1.s 			page 2


  58              				
  59              	__wai_she_shi_zhong:
  60 00c0 8848     		ldr r0, = 0x40010000
  61              		@+0x30 0=DMA,1=FLASH,2=CRC,4=PA,5=PB,6=PC,9=PF
  62 00c2 8949     		ldr r1, = 0x273
  63 00c4 0163     		str r1, [r0, # 0x30]
  64              	
  65              		@+0X34 2=ADC,4=VC,7=ATIM,8=SPI1,9=UART1,10=GTIM3
  66              		@11=GTIM4,12=BTIM,13=AWT
  67              	
  68 00c6 8949     		ldr r1, = 0x584
  69 00c8 4163     		str r1, [r0, # 0x34]
  70              		
  71              		@+0X38 1=GTIM1,2=GTIM2,3=RTC,4=WWDT,5=IWDT,6=SPI2
  72              		@7=UART2,8=UART3,11=I2C1,12=I2C2
  73              	
  74 00ca 8949     		ldr r1, = 0x800
  75 00cc 8163     		str r1, [r0, # 0x38]
  76              		
  77              	
  78              	_neicunqingling:
  79 00ce 8948     		ldr r0, = 0x20002000
  80 00d0 894A     		ldr r2, = 0x20000000
  81 00d2 0021     		movs r1, # 0
  82              	_neicunqinglingxunhuan:
  83 00d4 0438     		subs r0, r0, # 4
  84 00d6 0160     		str r1, [r0]
  85 00d8 9042     		cmp r0, r2
  86 00da FBD1     		bne _neicunqinglingxunhuan
  87              	__pa_chu_shi_hua:
  88 00dc 8748     		ldr r0, = 0x48000000 @pa
  89 00de 8849     		ldr r1, = 0x7De7
  90 00e0 0160     		str r1, [r0]		@0=输出，1=输入
  91 00e2 8849     		ldr r1, = 0x1De7
  92 00e4 C161     		str r1, [r0, # 0x1c]	@0=数字，1=模拟
  93              	
  94 00e6 1821     		movs r1, # 0x18
  95 00e8 4160     		str r1, [r0, # 0x04]	@pa3 pa4 开漏
  96              	
  97              	
  98              	
  99              		
 100 00ea 8749     		ldr r1, = 0x50000060
 101 00ec 4161     		str r1, [r0, # 0x14]	@复用8-15
 102              		@str r1, [r0, # 0x18]	@复用0-7
 103              	
 104              	
 105              	
 106              	__pb_chu_shi_hua:
 107              	
 108 00ee 8748     		ldr r0, = 0x48000400 @pb
 109 00f0 8749     		ldr r1, = 0xfcc7
 110 00f2 0160     		str r1, [r0]            @0=输出，1=输入
 111 00f4 8749     		ldr r1, = 0xfc07
 112 00f6 C161     		str r1, [r0, # 0x1c]    @0=数字，1=模拟
 113              	
 114 00f8 8749     		ldr r1, = 0x300
ARM GAS  1.s 			page 3


 115 00fa 4160     		str r1, [r0, # 0x04]	@pb8 pb9 开漏
 116              	
 117              		
 118 00fc C021     		movs r1, # 0xc0
 119 00fe 0161     		str r1, [r0, # 0x10]	@上拉
 120              	
 121              	@	movs r1, # 0x11		@pb8 pb9 I2C1
 122              	@	str r1, [r0, # 0x14]    @复用8-15
 123 0100 8649     		ldr r1, = 0x505000
 124 0102 8161     		str r1, [r0, # 0x18]	@复用0-7
 125              	
 126              		
 127              	__pc_chu_shi_hua:	
 128 0104 864B     		ldr r3, = 0xc000	
 129 0106 8748     		ldr r0, = 0x48000800 @pc
 130 0108 C361     		str r3, [r0, # 0x1c]
 131 010a 0360     		str r3, [r0]
 132              	
 133              	__si5351_chu_shi_hua:
 134 010c 0023     		movs r3, # 0
 135 010e 864C     		ldr r4, = si5351
 136 0110 864D     		ldr r5, = 138 		@76
 137              	__xie_si5351_xun_huan:
 138 0112 AB42     		cmp r3, r5
 139 0114 0BD0     		beq __xie_wan_si5351
 140 0116 C020     		movs r0, # 0xc0
 141 0118 0133     		adds r3, r3, # 1
 142 011a E15C     		ldrb r1, [r4, r3]
 143 011c 0133     		adds r3, r3, # 1
 144 011e E25C     		ldrb r2, [r4, r3]
 145 0120 01F07EFE 		bl __xie_i2c_8_wei
 146 0124 F029     		cmp r1, # 0xf0
 147 0126 00D0     		beq __si5351_mang
 148 0128 F3E7     		b __xie_si5351_xun_huan
 149              	__si5351_mang:
 150 012a 023B     		subs r3, r3, # 2
 151 012c F1E7     		b __xie_si5351_xun_huan
 152              	__xie_wan_si5351:	
 153              	
 154              	__pf_00_OSC_IN:
 155 012e 8048     		ldr r0, = 0x48001400
 156 0130 C221     		movs r1, # 0xc2
 157 0132 C161     		str r1, [r0, # 0x1c]
 158              	
 159              	__si5351_zuowei_mcu_shizhong:
 160 0134 6B48     		ldr r0, = 0x40010000	@SYSCTRL 基地址
 161 0136 7F49     		ldr r1, = 0x5a5a0003
 162 0138 4160     		str r1, [r0, # 0x04]	@HSE HSL开
 163              		
 164 013a 7F49     		ldr r1, = 0x7ff62 	@HSE输入模式
 165 013c C161     		str r1, [r0, # 0x1c]	@SYSCTRL_HSE
 166              	__deng_HSE_wending:
 167 013e C169     		ldr r1, [r0, # 0x1c]
 168 0140 0903     		lsls r1, r1, # 12
 169 0142 FCD5     		bpl __deng_HSE_wending
 170 0144 7D49     		ldr r1, = 0x5a5a0001
 171 0146 0160     		str r1, [r0]		@HSE做为系统时钟	
ARM GAS  1.s 			page 4


 172 0148 7D49     		ldr r1, = 0x5A5A0182
 173 014a 4160     		str r1, [r0, # 0x04]	@HSE做为系统时钟
 174              		
 175              		
 176              	@__i2c1_chu_shi_hua:
 177              	@	ldr r0, = 0x40010048
 178              	@	ldr r1, = 0x11ff
 179              	@	str r1, [r0]
 180              	@	ldr r1, = 0x19ff
 181              	@	str r1, [r0]
 182              	@	ldr r0, = 0x40005400	@I2C1
 183              	@	movs r1, # 0xff		@传输速率
 184              	@	str r1, [r0, # 0x04]
 185              	@	movs r1, # 0x01
 186              	@	str r1, [r0]		@开时钟
 187              	@	movs r1, # 0x40
 188              	@	str r1, [r0, # 0x08]	@控制寄存器
 189              	
 190              	@__GTIM3_chu_shi_hua:
 191              	@	ldr r0, = 0x40014000
 192              	@	ldr r1, = 23999		@31999
 193              	@	ldr r2, = 0x300
 194              	@	str r1, [r0, r2]	@ARR
 195              	@	ldr r2, = 0x320
 196              	@	ldr r1, = 12000		@15999
 197              	@	str r1, [r0, r2]	@CCR1
 198              	@	ldr r1, = 0x0e
 199              	@	ldr r2, = 0x308
 200              	@	str r1, [r0, r2]	@CCMR
 201              	@	movs r1, # 0x01
 202              	@	ldr r2, = 0x310
 203              	@	str r1, [r0, r2]		@CR0
 204              		
 205              	
 206              	
 207              		
 208              	@__ATIM_chu_shi_hua:
 209              	@	ldr r0, = 0x40012C00
 210              	@	movs r1, # 0x81
 211              	@	str r1, [r0, # 0x20]	@触发ADC
 212              	@	ldr r1, = 239        
 213              	@	str r1, [r0]        @ARR
 214              	@	ldr r1, = 0x2001
 215              	@	str r1, [r0, # 0x0c]
 216              		
 217              	__adc_chu_shi_hua:
 218 014c 7D48     		ldr r0, = 0x40012400
 219 014e 7E49     		ldr r1, = 0x1c7 	@0xc1	@0xc5
 220 0150 0160     		str r1, [r0]			@开ADC
 221              	@	movs r1, # 0x01
 222              	@	str r1, [r0, # 0x1c]		@ATIM触发ADC
 223              	__deng_chu_shi_hua:
 224 0152 C16B     		ldr r1, [r0, # 0x3c]
 225 0154 0906     		lsls r1, r1, # 24
 226 0156 FCD5     		bpl __deng_chu_shi_hua		@等ADC初始化完成
 227 0158 8021     		movs r1, # 0x80
 228 015a 4160     		str r1, [r0, # 0x04]		@开DMA和通道选择
ARM GAS  1.s 			page 5


 229 015c 7B49     		ldr r1, = 0x10010
 230 015e C160     		str r1, [r0, # 0x0c]
 231 0160 0121     		movs r1, # 0x01
 232 0162 8160     		str r1, [r0, # 0x08]		@开ADC转换
 233              	
 234 0164 7A4C     		ldr r4, = 0xe000e010
 235 0166 7B4B     		ldr r3, =  47999	@23999  @0xffffff @ 4799
 236 0168 6360     		str r3, [r4, # 4]
 237 016a A360     		str r3, [r4, # 8]
 238 016c 0723     		movs r3, # 0x07
 239 016e 2360     		str r3, [r4]    @systick 开
 240              	
 241              	@	bl __atan2_ji_suan
 242              	@	ldr r0, = 0xe000e018
 243              	@	ldr r1, [r0]
 244              	@	bkpt # 1
 245              	
 246              	__DMA_chu_shi_hua:
 247 0170 7948     		ldr r0, = 0x40020000
 248 0172 7A49     		ldr r1, = 0x103e8
 249 0174 4162     		str r1, [r0, # 0x24]    @传输数量
 250 0176 7A49     		ldr r1, = 0x40012420
 251 0178 8162     		str r1, [r0, # 0x28]    @传输源
 252 017a 7A49     		ldr r1, = dianyabiao
 253 017c C162     		str r1, [r0, # 0x2c]    @目的地
 254 017e 2921     		movs r1, # 0x29
 255 0180 0163     		str r1, [r0, # 0x30]    @触发源
 256 0182 6921     		movs r1, # 0x69
 257 0184 0162     		str r1, [r0, # 0x20]    @模式设置和开DMA	
 258              	
 259 0186 7549     		ldr r1, = 0x103e8
 260 0188 4164     	        str r1, [r0, # 0x44]    @传输数量
 261 018a 7749     		ldr r1, = 0x40012424
 262 018c 8164     	        str r1, [r0, # 0x48]    @传输源
 263 018e 7749     		ldr r1, = dianyabiao1
 264 0190 C164     		str r1, [r0, # 0x4c]    @目的地
 265 0192 2921     		movs r1, # 0x29
 266 0194 0165     		str r1, [r0, # 0x50]    @触发源
 267 0196 6921     	        movs r1, # 0x69
 268 0198 0164     	        str r1, [r0, # 0x40]    @模式设置和开DMA
 269              	
 270 019a 7548     		ldr r0, = lvbo_changdu
 271 019c 7549     		ldr r1, = lvbo_youyi
 272 019e 764A     		ldr r2, =  50
 273 01a0 0260     		str r2, [r0]
 274 01a2 0622     		movs r2, # 6
 275 01a4 0A60     		str r2, [r1]
 276              	
 277 01a6 7548     		ldr r0, = cossin
 278 01a8 7549     		ldr r1, = cos_sin_biao_1khz
 279 01aa 0160     		str r1, [r0]
 280              		
 281              		
 282              		
 283              	__spi1_chu_shi_hua:
 284 01ac 7548     		ldr r0, = 0x40013000
 285 01ae 7649     		ldr r1, = 0x5e74	@8位	@0x7e74 16位
ARM GAS  1.s 			page 6


 286 01b0 0160     		str r1, [r0]
 287              	
 288 01b2 01F0D3FE 		bl __lcd_chushihua
 289 01b6 01F035FF 		bl __lcd_qingping
 290              	
 291 01ba 7448     		ldr r0, = yjmwxwx
 292 01bc 1221     		movs r1, # 18           @显示几个字符
 293 01be 744A     		ldr r2, = 0x0000         @LCD位置lcd位置(高8位0-0x83,低8位0-7)
 294 01c0 01F075FF 		bl __xie_ascii
 295              	
 296 01c4 01F02EFF 		 bl __lcd_qingping
 297              	
 298              	
 299              	
 300              	__anjian0:
 301 01c8 2FE1     		b ting
 302              	__anjian1:
 303 01ca 7048     	        ldr r0, = yjmwxwx
 304 01cc 1221     	        movs r1, # 18           @显示几个字符
 305 01ce 704A     	        ldr r2, = 0x0000         @LCD位置lcd位置(高8位0-0x83,低8位0-7)
 306 01d0 01F06DFF 	        bl __xie_ascii
 307              	
 308 01d4 52E0     		b __ren_wu_diao_du
 309              	__anjian2:
 310 01d6 51E0     		b __ren_wu_diao_du
 311              	__anjian3:
 312 01d8 00F056F8 		bl __an_jian
 313 01dc 0328     		cmp r0, # 3
 314 01de FBD0     		beq __anjian3
 315              	__deng_anjian_3_song_kai:
 316 01e0 00F052F8 		bl __an_jian
 317 01e4 0028     		cmp r0, # 0
 318 01e6 FBD1     		bne __deng_anjian_3_song_kai
 319 01e8 01F01CFF 	       bl __lcd_qingping
 320 01ec 6948     	        ldr r0, = kai_shi_jiao_zhun
 321 01ee 1221     	        movs r1, # 18           @显示几个字符
 322 01f0 694A     	        ldr r2, = 0x0001         @LCD位置lcd位置(高8位0-0x83,低8位0-7)
 323 01f2 01F05CFF 	        bl __xie_ascii
 324 01f6 00F03BF8 	        bl __anjian3_yanshi
 325 01fa 00F039F8 		bl __anjian3_yanshi
 326 01fe 00F037F8 		bl __anjian3_yanshi
 327 0202 00F035F8 		bl __anjian3_yanshi
 328              	
 329              	
 330              	
 331              		
 332              	__anjian3_xunhuan:	
 333 0206 00F0B3FA 	        bl __jisuan_s11
 334 020a 644A     		ldr r2, = s11_r
 335 020c 644B     		ldr r3, = s11_i
 336 020e 1060     		str r0, [r2]
 337 0210 1960     		str r1, [r3]
 338 0212 00F073FA 		bl __xianshi_zukang1
 339 0216 634D     	        ldr r5, = jiao_zhun_xian_shi_biao
 340 0218 634E     		ldr r6, = jiaozhun_caidan_zhizhen
 341 021a 3768     		ldr r7, [r6]
 342 021c E859     		ldr r0, [r5, r7]
ARM GAS  1.s 			page 7


 343 021e 1221     	        movs r1, # 18           @显示几个字符
 344 0220 5D4A     	        ldr r2, = 0x0001         @LCD位置lcd位置(高8位0-0x83,低8位0-7)
 345 0222 01F044FF 	        bl __xie_ascii
 346              	
 347 0226 00F02FF8 		bl __an_jian
 348 022a 0228     		cmp r0, # 2
 349 022c EBD1     		bne __anjian3_xunhuan
 350 022e 5F48     	        ldr r0, = ok
 351 0230 1221     	        movs r1, # 18           @显示几个字符
 352 0232 594A     		ldr r2, = 0x0001         @LCD位置lcd位置(高8位0-0x83,低8位0-7)
 353 0234 01F03BFF 		bl __xie_ascii
 354 0238 00F01AF8 		bl __anjian3_yanshi
 355 023c 00F024F8 		bl __an_jian
 356 0240 0028     		cmp r0, # 0
 357 0242 E0D1     		bne __anjian3_xunhuan
 358 0244 5A48     		ldr r0, = jiao_zhun_bao_cun_biao
 359 0246 C159     		ldr  r1, [r0, r7]
 360 0248 544A     		ldr r2, = s11_r
 361 024a 554B     		ldr r3, = s11_i
 362 024c 1268     		ldr r2, [r2]
 363 024e 1B68     		ldr r3, [r3]
 364 0250 0A60     		str r2, [r1]
 365 0252 4B60     		str r3, [r1, # 0x04]
 366              	
 367 0254 0437     		adds r7, r7, # 4
 368 0256 3760     		str r7, [r6]
 369 0258 0C2F     		cmp r7, # 0x0c
 370 025a D4D1     		bne __anjian3_xunhuan
 371 025c E859     		ldr r0, [r5, r7]
 372 025e 1221     		movs r1, # 18           @显示几个字符
 373 0260 4D4A     	        ldr r2, = 0x0001         @LCD位置lcd位置(高8位0-0x83,低8位0-7)
 374 0262 01F024FF 		bl __xie_ascii
 375 0266 00F02FF9 		bl __jiaozhun
 376 026a 00F013F8 		bl __xie_flash
 377 026e 03BE     		bkpt # 3
 378              		
 379              	
 380              	__anjian3_yanshi:
 381 0270 01B4     		push {r0}
 382 0272 5048     		ldr r0, = 0x3fffff
 383              	__anjian3_yanshi_xunhuan:	
 384 0274 0138     		subs r0, r0, # 1
 385 0276 FDD1     		bne __anjian3_yanshi_xunhuan
 386 0278 01BC     		pop {r0}
 387 027a 7047     		bx lr
 388              		
 389              		
 390              	__ren_wu_diao_du:
 391 027c 00F004F8 		bl __an_jian
 392 0280 8000     		lsls r0, r0, # 2
 393 0282 4D49     		ldr r1, = an_jian_biao
 394 0284 0A58     		ldr r2, [r1, r0]
 395 0286 9746     		mov pc, r2
 396              		
 397              		
 398              	__an_jian:
 399              		@入口PA2=按键1，PA3=按键2
ARM GAS  1.s 			page 8


 400              		@出口R0
 401 0288 4C48     		ldr r0, = 0x48000450
 402 028a 0068     		ldr r0, [r0]	@pb6 pb7
 403 028c C043     		mvns r0, r0
 404 028e 0006     		lsls r0, r0, # 24
 405 0290 800F     		lsrs r0, r0, # 30
 406 0292 7047     		bx lr
 407              	
 408              	__xie_flash:
 409              		
 410 0294 4A48     		ldr r0, = 0x40022000
 411 0296 4B49     		ldr r1, = 0x5a5a0000
 412 0298 4160     		str r1, [r0, # 0x04]
 413 029a 4B49     		ldr r1, = 0x5a5a0002
 414 029c 0160     		str r1, [r0]
 415 029e 4B49     		ldr r1, = 0x5a5a8000	@#15
 416 02a0 8160     		str r1, [r0, # 0x08]	@页解锁
 417 02a2 AA21     		movs r1, # 0xaa
 418 02a4 4A4A     		ldr r2, = 0xf000
 419 02a6 1160     		str r1, [r2]
 420 02a8 00F015F8 		bl __flash_mang
 421              		
 422 02ac 2349     		ldr r1, = 0x5a5a0001
 423 02ae 0160     		str r1, [r0]
 424 02b0 474A     		ldr r2, = 0xf000
 425 02b2 4849     		ldr r1, = kailu_r
 426 02b4 0623     		movs r3, # 6
 427              	__xie_flash_xun_huan:
 428 02b6 0C68     		ldr r4, [r1]
 429 02b8 1460     		str r4, [r2]
 430 02ba 0431     		adds r1, r1, # 0x04
 431 02bc 0432     		adds r2, r2, # 0x04
 432 02be 00F00AF8 		bl __flash_mang
 433 02c2 013B     		subs r3, r3, # 1
 434 02c4 F7D1     		bne __xie_flash_xun_huan
 435              	
 436              		
 437 02c6 3F49     	        ldr r1, = 0x5a5a0000
 438 02c8 0160     		str r1, [r0]
 439 02ca 3E49     		ldr r1, = 0x5a5a0000    @#15
 440 02cc 8160     		str r1, [r0, # 0x08]    @页解锁
 441              	
 442 02ce 4248     		ldr r0, = 0xe000ed0c
 443 02d0 4249     		ldr r1, = 0x05fa0004
 444 02d2 0160     		str r1, [r0]          		@复位
 445 02d4 21BE     		bkpt # 33
 446              		
 447              	__flash_mang:
 448 02d6 02B4     		push {r1}
 449 02d8 0168     		ldr r1, [r0]
 450 02da 8906     		lsls r1, r1, # 26
 451 02dc FBD4     		bmi __flash_mang
 452 02de 02BC     		pop {r1}
 453 02e0 7047     		bx lr
 454              	
 455              		
 456 02e2 00000000 		.ltorg
ARM GAS  1.s 			page 9


 456      01407302 
 456      00008405 
 456      00000008 
 456      00000020 
 457              	
 458              	
 459              		
 460              	shiyan:
 461 03e0 1C48     		ldr r0, = pm1
 462 03e2 1D49     		ldr r1, = pm1i
 463 03e4 1D4E     		ldr r6, = 4346
 464 03e6 1E4F     		ldr r7, = 7421
 465 03e8 0660     		str r6, [r0]
 466 03ea 0F60     		str r7, [r1]
 467              	
 468              		
 469 03ec 1D4A     		ldr r2, = pm2
 470 03ee 1E4B     		ldr r3, = pm2i
 471 03f0 1E4E     		ldr r6, = -8
 472 03f2 1F4F     		ldr r7, = -5419
 473 03f4 1660     		str r6, [r2]
 474 03f6 1F60     		str r7, [r3]
 475              		
 476 03f8 1E4C     		ldr r4, = pm3
 477 03fa 1F4D     		ldr r5, = pm3i
 478 03fc 1F4E     		ldr r6, = -69
 479 03fe 204F     		ldr r7, = 280
 480 0400 2660     		str r6, [r4]
 481 0402 2F60     		str r7, [r5]
 482              	
 483 0404 00F060F8 		bl __jiaozhun
 484              		
 485 0408 1E48     		ldr r0, = s11_r
 486 040a 1F49     		ldr r1, = s11_i
 487 040c 1F4A     		ldr r2, = 6199
 488 040e 204B     		ldr r3, = 1182
 489 0410 0260     		str r2, [r0]
 490 0412 0B60     		str r3, [r1]
 491              	
 492              		
 493 0414 00F00EF9 	        bl __osm_jiao_zhun
 494 0418 00F0BAF9 	        bl __jisuan_zukang
 495 041c 1D4A     	        ldr r2, = z_r
 496 041e 1E4B     	        ldr r3, = z_i
 497 0420 1060     	        str r0, [r2]
 498 0422 1960     	        str r1, [r3]
 499 0424 00F02EF9 	        bl __xianshi_zukang
 500 0428 37BE     		bkpt # 55
 501              	
 502              	
 503              	
 504              	
 505              	ting:	
 506 042a 00F0A1F9 		bl __jisuan_s11
 507 042e 154A     		ldr r2, = s11_r
 508 0430 154B     	        ldr r3, = s11_i
 509 0432 1060     		str r0, [r2]
ARM GAS  1.s 			page 10


 510 0434 1960     		str r1, [r3]
 511 0436 00F061F9 		bl __xianshi_zukang1
 512 043a 00F0FBF8 		bl __osm_jiao_zhun
 513 043e 00F0A7F9 		bl __jisuan_zukang
 514 0442 144A     		ldr r2, = z_r
 515 0444 144B     		ldr r3, = z_i
 516 0446 1060     		str r0, [r2]
 517 0448 1960     		str r1, [r3]
 518 044a 00F01BF9 		bl __xianshi_zukang
 519 044e 00F025F8 		bl __xianshi_zukang_danwei
 520              		
 521 0452 13E7     		b __ren_wu_diao_du
 522 0454 741F0020 		.ltorg
 522      781F0020 
 522      FA100000 
 522      FD1C0000 
 522      7C1F0020 
 523              	
 524              	
 525              	__xianshi_zukang_danwei:
 526 049c 1FB5     		push {r0-r4,lr}
 527 049e 5B20     		movs r0, # 91		@欧
 528 04a0 0221     		movs r1, # 2             @两个字符
 529 04a2 CE4A     		ldr r2, = asciibiao
 530 04a4 FF23     		movs r3, # 0xff
 531 04a6 01F09EFE 		bl _zhuanascii
 532 04aa 0220     		movs r0, # 2            @写几个字
 533 04ac 2D21     		movs r1, # 45           @字库单字长度
 534 04ae 0322     		movs r2, # 3            @宽度
 535 04b0 CB4B     		ldr r3, = 0x6502              @lcd位置(高8位0-0x83,低8位0-7)
 536 04b2 CC4C     		ldr r4, = danweibiao
 537 04b4 01F01AFE 		bl __xie_alabo
 538              	
 539 04b8 0220     		movs r0, # 2            @写几个字
 540 04ba 2D21     	        movs r1, # 45           @字库单字长度
 541 04bc 0322     	        movs r2, # 3            @宽度
 542 04be CA4B     		ldr r3, = 0x6505              @lcd位置(高8位0-0x83,低8位0-7)
 543 04c0 C84C     		ldr r4, = danweibiao
 544 04c2 01F013FE 	        bl __xie_alabo
 545              	
 546 04c6 1FBD     		pop {r0-r4,pc}
 547              		
 548              	
 549              		
 550              	__jiaozhun:	@校准开路短路匹配误差
 551 04c8 FFB5     		push {r0-r7,lr}
 552 04ca 00F024F8 		bl __det
 553 04ce 0246     		mov r2, r0
 554 04d0 0B46     		mov r3, r1
 555 04d2 1646     		mov r6, r2
 556 04d4 1F46     		mov r7, r3
 557 04d6 00F02AF8 		bl __det1
 558 04da 01F0D8FE 		bl __fu_shu_chu_fa
 559 04de C34C     		ldr r4, = kailu_r
 560 04e0 C34D     		ldr r5, = kailu_i
 561 04e2 2260     		str r2, [r4]
 562 04e4 2960     		str r1, [r5]
ARM GAS  1.s 			page 11


 563 04e6 00F03EF8 		bl __det2
 564 04ea 3246     		mov r2, r6
 565 04ec 3B46     		mov r3, r7
 566 04ee C14C     		ldr r4, = 32768
 567 04f0 6043     		muls r0, r0, r4
 568 04f2 6143     		muls r1, r1, r4
 569 04f4 01F0CBFE 		bl __fu_shu_chu_fa
 570 04f8 BF4C     		ldr r4, = duanlu_r
 571 04fa C04D     		ldr r5, = duanlu_i
 572 04fc 2260     		str r2, [r4]
 573 04fe 2960     		str r1, [r5]
 574 0500 00F051F8 		bl __det3
 575 0504 3246     		mov r2, r6
 576 0506 3B46     		mov r3, r7
 577 0508 01F0C1FE 		bl __fu_shu_chu_fa
 578 050c BC4C     		ldr r4, = pipei_r
 579 050e BD4D     		ldr r5, = pipei_i
 580 0510 2260     		str r2, [r4]
 581 0512 2960     		str r1, [r5]
 582 0514 FFBD     		pop {r0-r7,pc}
 583              	__det:
 584 0516 FCB5     		push {r2-r7,lr}
 585              		@a b c
 586              		@d e f
 587              		@g h i
 588              		@a*e
 589              		@ae*i=0
 590              		@b*f
 591 0518 BB48     		ldr r0, = pm1
 592 051a BC49     		ldr r1, = pm1i
 593 051c 0068     		ldr r0, [r0]
 594 051e 0968     		ldr r1, [r1]
 595              		@bf*g
 596              		@d*h=0
 597              		@dh*c=0
 598              		@g*e
 599 0520 BB4A     		ldr r2, = pm2
 600 0522 BC4B     		ldr r3, = pm2i
 601 0524 1268     		ldr r2, [r2]
 602 0526 1B68     		ldr r3, [r3]
 603              		@ge*c
 604              		@h*f=0
 605              		@hf*a=0
 606              		@d*b
 607              		@db*i=0
 608              		@a*e*i+b*f*g+d*h*c-g*e*c-h*f*a-d*b*i
 609 0528 801A     		subs r0, r0, r2
 610 052a C91A     		subs r1, r1, r3
 611 052c FCBD     		pop {r2-r7,pc}
 612              	__det1:
 613 052e FCB5     	        push {r2-r7,lr}
 614              	        @a b c
 615              	        @d e f
 616              	        @g h i
 617              	        @a*e
 618              	        @ae*i=0
 619              	        @b*f
ARM GAS  1.s 			page 12


 620 0530 B548     	        ldr r0, = pm1
 621 0532 B649     	        ldr r1, = pm1i
 622 0534 0068     	        ldr r0, [r0]
 623 0536 0968     	        ldr r1, [r1]
 624              	        @bf*g
 625 0538 B74A     		ldr r2, = pm3
 626 053a B84B     		ldr r3, = pm3i
 627 053c 1268     		ldr r2, [r2]
 628 053e 1B68     		ldr r3, [r3]
 629 0540 1446     		mov r4, r2
 630 0542 1D46     		mov r5, r3
 631 0544 00F069F8 		bl __fu_shu_cheng_fa
 632 0548 0646     		mov r6, r0
 633 054a 0F46     		mov r7, r1
 634              	        @d*h=0
 635              	        @dh*c=0
 636              	        @g*e
 637 054c B048     	        ldr r0, = pm2
 638 054e B149     	        ldr r1, = pm2i
 639 0550 0068     	        ldr r0, [r0]
 640 0552 0968     	        ldr r1, [r1]
 641 0554 2246     		mov r2, r4
 642 0556 2B46     		mov r3, r5
 643 0558 00F05FF8 		bl __fu_shu_cheng_fa
 644              	        @ge*c
 645              	        @h*f=0
 646              	        @hf*a=0
 647              	        @d*b
 648              	        @db*i=0
 649              	        @a*e*i+b*f*g+d*h*c-g*e*c-h*f*a-d*b*i
 650 055c 361A     	        subs r6, r6, r0
 651 055e 7F1A     	        subs r7, r7, r1
 652 0560 3046     		mov r0, r6
 653 0562 3946     		mov r1, r7
 654 0564 FCBD     	        pop {r2-r7,pc}
 655              	__det2:	
 656 0566 FCB5     	        push {r2-r7,lr}
 657              	        @a b c
 658              	        @d e f
 659              	        @g h i
 660              	        @a*e
 661              	        @ae*i=0
 662              	        @b*f
 663 0568 A748     	        ldr r0, = pm1
 664 056a A849     	        ldr r1, = pm1i
 665 056c 0068     	        ldr r0, [r0]
 666 056e 0968     	        ldr r1, [r1]
 667              	        @bf*g
 668              	        @d*h
 669 0570 A94C     		ldr r4, = pm3
 670 0572 AA4D     		ldr r5, = pm3i
 671 0574 2468     		ldr r4, [r4]
 672 0576 2D68     		ldr r5, [r5]
 673              	        @dh*c
 674 0578 E443     		mvns r4, r4
 675 057a 0134     		adds r4, r4, # 1
 676 057c ED43     		mvns r5, r5
ARM GAS  1.s 			page 13


 677 057e 0135     		adds r5, r5, # 1
 678              	        @g*e
 679 0580 A34A     	        ldr r2, = pm2
 680 0582 A44B     	        ldr r3, = pm2i
 681 0584 1268     	        ldr r2, [r2]
 682 0586 1B68     	        ldr r3, [r3]
 683              	        @ge*c
 684 0588 D243     		mvns r2, r2
 685 058a 0132     		adds r2, r2, # 1
 686 058c DB43     		mvns r3, r3
 687 058e 0133     		adds r3, r3, # 1
 688              		@h*f
 689 0590 A14E     		ldr r6, = pm3
 690 0592 A24F     		ldr r7, = pm3i
 691 0594 3668     		ldr r6, [r6]
 692 0596 3F68     		ldr r7, [r7]
 693              	        @hf*a
 694              	        @d*b
 695              		@db*i=0
 696              		@a*e*i+b*f*g+d*h*c-g*e*c-h*f*a-d*b*i
 697 0598 0019     		adds r0, r0, r4
 698 059a 4919     		adds r1, r1, r5
 699 059c 801A     		subs r0, r0, r2
 700 059e C91A     		subs r1, r1, r3
 701 05a0 801B     		subs r0, r0, r6
 702 05a2 C91B     		subs r1, r1, r7
 703 05a4 FCBD     		pop {r2-r7,pc}
 704              	__det3:
 705 05a6 FCB5     	        push {r2-r7,lr}
 706              	        @a b c
 707              	        @d e f
 708              	        @g h i
 709              	        @a*e
 710 05a8 9948     		ldr r0, = pm2
 711 05aa 9A49     		ldr r1, = pm2i
 712 05ac 0068     		ldr r0, [r0]
 713 05ae 0968     		ldr r1, [r1]
 714 05b0 0446     		mov r4, r0
 715 05b2 0D46     		mov r5, r1
 716 05b4 C043     		mvns r0, r0
 717 05b6 0130     		adds r0, r0, # 1
 718 05b8 C943     		mvns r1, r1
 719 05ba 0131     		adds r1, r1, # 1
 720              	        @ae*i
 721 05bc 964A     		ldr r2, = pm3
 722 05be 974B     		ldr r3, = pm3i
 723 05c0 1268     		ldr r2, [r2]
 724 05c2 1B68     		ldr r3, [r3]
 725 05c4 00F029F8 		bl __fu_shu_cheng_fa
 726 05c8 03B4     		push {r0-r1}
 727              	        @b*f
 728 05ca 8F48     	        ldr r0, = pm1
 729 05cc 8F49     	        ldr r1, = pm1i
 730 05ce 0068     	        ldr r0, [r0]
 731 05d0 0968     	        ldr r1, [r1]
 732 05d2 0646     		mov r6, r0
 733 05d4 0F46     		mov r7, r1
ARM GAS  1.s 			page 14


 734 05d6 2246     		mov r2, r4
 735 05d8 2B46     		mov r3, r5
 736 05da 00F01EF8 		bl __fu_shu_cheng_fa
 737 05de 03B4     		push {r0-r1}
 738              	        @bf*g
 739              	        @d*h=0
 740              	        @dh*c=0
 741              	        @g*e
 742 05e0 3046     		mov r0, r6
 743 05e2 3946     		mov r1, r7
 744 05e4 E243     		mvns r2, r4
 745 05e6 0132     		adds r2, r2, # 1
 746 05e8 EB43     		mvns r3, r5
 747 05ea 0133     		adds r3, r3, # 1
 748              	        @ge*c
 749 05ec 00F015F8 		bl __fu_shu_cheng_fa
 750 05f0 03B4     		push {r0-r1}
 751              		@h*f=0
 752              	        @hf*a=0
 753              	        @d*b
 754 05f2 3246     		mov r2, r6
 755 05f4 3B46     		mov r3, r7
 756              		@db*i
 757 05f6 8848     		ldr r0, = pm3
 758 05f8 8849     		ldr r1, = pm3i
 759 05fa 0068     		ldr r0, [r0]
 760 05fc 0968     		ldr r1, [r1]
 761 05fe 00F00CF8 		bl __fu_shu_cheng_fa
 762 0602 0646     		mov r6, r0
 763 0604 0F46     		mov r7, r1
 764 0606 30BC     		pop {r4-r5}
 765 0608 0CBC     		pop {r2-r3}
 766 060a 03BC     		pop {r0-r1}
 767              		@a*e*i+b*f*g+d*h*c-g*e*c-h*f*a-d*b*i
 768 060c 8018     		adds r0, r0, r2
 769 060e C918     		adds r1, r1, r3
 770 0610 001B     		subs r0, r0, r4
 771 0612 491B     		subs r1, r1, r5
 772 0614 801B     		subs r0, r0, r6
 773 0616 C91B     		subs r1, r1, r7
 774 0618 FCBD     		pop {r2-r7,pc}
 775              	__fu_shu_cheng_fa:
 776 061a FCB5     		push {r2-r7,lr}
 777              		@r0=a,r1=b,r2=c,r3=d
 778 061c 0446     	        mov r4, r0      @a
 779 061e 0D46     	        mov r5, r1      @b
 780 0620 1646     		mov r6, r2	@c
 781 0622 1F46     		mov r7, r3	@d
 782 0624 5043     	        muls r0, r0, r2 @a*c
 783 0626 5943     		muls r1, r1, r3 @b*d
 784 0628 401A     	        subs r0, r0, r1 @ac-bd
 785 062a 7C43     	        muls r4, r4, r7 @a*d
 786 062c 7543     	        muls r5, r5, r6 @b*c
 787 062e 6419     	        adds r4, r4, r5 @ad+bc
 788 0630 2146     		mov r1, r4
 789 0632 FCBD     		pop {r2-r7,pc}
 790              	
ARM GAS  1.s 			page 15


 791              	
 792              		
 793              	
 794              	__osm_jiao_zhun:
 795 0634 FCB5     		push {r2-r7,lr}
 796 0636 7A48     		ldr r0, = s11_r
 797 0638 7A49     		ldr r1, = s11_i
 798 063a 0068     		ldr r0, [r0]
 799 063c 0968     		ldr r1, [r1]
 800              	
 801 063e 7A4E     		ldr r6, = kai_lu_r 	@开路R
 802 0640 7A4F     		ldr r7, = kai_lu_i	@开路I
 803 0642 3668     		ldr r6, [r6]
 804 0644 3F68     		ldr r7, [r7]
 805              		
 806 0646 861B     		subs r6, r0, r6		@p1-x
 807 0648 CF1B     		subs r7, r1, r7
 808              		
 809 064a 794A     		ldr r2, = duan_lu_r	@c	@短路R
 810 064c 794B     		ldr r3, = duan_lu_i	@d	@短路I
 811 064e 1268     		ldr r2, [r2]
 812 0650 1B68     		ldr r3, [r3]
 813 0652 FFF7E2FF 		bl __fu_shu_cheng_fa
 814 0656 C013     		asrs r0, r0, # 15
 815 0658 C913     		asrs r1, r1, # 15
 816              	
 817 065a 774C     		ldr r4, = pi_pei_r		@50欧姆R
 818 065c 774D     		ldr r5, = pi_pei_i		@50欧姆I
 819 065e 2468     		ldr r4, [r4]
 820 0660 2D68     		ldr r5, [r5]
 821 0662 001B     		subs r0, r0, r4
 822 0664 491B     		subs r1, r1, r5
 823 0666 0246     		mov r2, r0
 824 0668 0B46     		mov r3, r1
 825 066a 3046     		mov r0, r6
 826 066c 3946     		mov r1, r7
 827 066e 744C     		ldr r4, = 10000
 828 0670 6043     		muls r0, r0, r4
 829 0672 6143     		muls r1, r1, r4
 830 0674 01F00BFE 		bl __fu_shu_chu_fa
 831 0678 1046     		mov r0, r2
 832 067a 724A     		ldr r2, = p_jz_r
 833 067c 724B     		ldr r3, = p_jz_i
 834 067e 1060     		str r0, [r2]
 835 0680 1960     		str r1, [r3]
 836 0682 FCBD     		pop {r2-r7,pc}
 837              	
 838              	
 839              		
 840              	
 841              	
 842              	
 843              	
 844              		
 845              	__xianshi_zukang:
 846 0684 1FB5     		push {r0-r4,lr}
 847 0686 7148     		ldr r0, = z_r
ARM GAS  1.s 			page 16


 848 0688 0468     		ldr r4, [r0]
 849 068a 2400     		movs r4, r4
 850 068c 07D5     		bpl __xianshi_zr
 851              	__z_r_shi_fu:
 852 068e E443     		mvns r4, r4
 853 0690 0134     		adds r4, r4, # 1
 854 0692 6F48     		ldr r0, = afu
 855 0694 0221     		movs r1, # 2           @显示几个字符
 856 0696 6F4A     		ldr r2, = 0x0003         @LCD位置lcd位置(高8位0-0x83,低8位0-7)
 857 0698 01F009FD 		bl __xie_ascii
 858 069c 04E0     		b __xianshi_z_r
 859              	__xianshi_zr:
 860 069e 6E48     		ldr r0, = akong
 861 06a0 0221     		movs r1, # 2           @显示几个字符
 862 06a2 6C4A     		ldr r2, = 0x0003         @LCD位置lcd位置(高8位0-0x83,低8位0-7)
 863 06a4 01F003FD 		bl __xie_ascii
 864              	__xianshi_z_r:
 865 06a8 2046     		mov r0, r4
 866 06aa 0621     		movs r1, # 6
 867 06ac 4B4A     		ldr r2, = asciibiao
 868 06ae 0323     		movs r3, # 3            @小数点位置
 869 06b0 01F099FD 		bl _zhuanascii
 870 06b4 0620     		movs r0, # 6            @写几个字
 871 06b6 3021     		movs r1, # 48           @字库单字长度
 872 06b8 0322     		movs r2, # 3            @宽度
 873 06ba 684B     		ldr r3, = 0x1102              @lcd位置
 874 06bc 01F045FD 		bl __xie_lcd_ascii
 875              	
 876              	
 877 06c0 6748     	        ldr r0, = z_i
 878 06c2 0468     	        ldr r4, [r0]
 879 06c4 2400     	        movs r4, r4
 880 06c6 07D5     	        bpl __xianshi_zi
 881              	__z_i_shi_fu:
 882 06c8 E443     	        mvns r4, r4
 883 06ca 0134     	        adds r4, r4, # 1
 884 06cc 6048     	        ldr r0, = afu
 885 06ce 0221     	        movs r1, # 2           @显示几个字符
 886 06d0 644A     	        ldr r2, = 0x0006         @LCD位置lcd位置(高8位0-0x83,低8位0-7)
 887 06d2 01F0ECFC 	        bl __xie_ascii
 888 06d6 04E0     	        b __xianshi_z_i
 889              	__xianshi_zi:
 890 06d8 5F48     	        ldr r0, = akong
 891 06da 0221     	        movs r1, # 2           @显示几个字符
 892 06dc 614A     	        ldr r2, = 0x0006         @LCD位置lcd位置(高8位0-0x83,低8位0-7)
 893 06de 01F0E6FC 	        bl __xie_ascii
 894              	__xianshi_z_i:
 895 06e2 2046     	        mov r0, r4
 896 06e4 0621     	        movs r1, # 6
 897 06e6 3D4A     	        ldr r2, = asciibiao
 898 06e8 0323     	        movs r3, # 3            @小数点位置
 899 06ea 01F07CFD 	        bl _zhuanascii
 900 06ee 0620     	        movs r0, # 6            @写几个字
 901 06f0 3021     	        movs r1, # 48           @字库单字长度
 902 06f2 0322     	        movs r2, # 3            @宽度
 903 06f4 5C4B     	        ldr r3, = 0x1105              @lcd位置
 904 06f6 01F028FD 	        bl __xie_lcd_ascii
ARM GAS  1.s 			page 17


 905              	
 906              		
 907 06fa 1FBD     		pop {r0-r4,pc}
 908              		
 909              	
 910              	
 911              	__xianshi_zukang1:
 912 06fc FFB5     		push {r0-r7,lr}
 913 06fe 4848     	        ldr r0, = s11_r
 914 0700 4849     	        ldr r1, = s11_i
 915 0702 0068     	        ldr r0, [r0]
 916 0704 0F68     	        ldr r7, [r1]
 917 0706 0600     	        movs r6, r0
 918 0708 05D4     	        bmi __shangbi_r_shi_fu1
 919              	__shangbi_r_bushi_fu1:
 920 070a 5348     	        ldr r0, = akong
 921 070c 0121     	        movs r1, # 1           @显示几个字符
 922 070e 0022     	        movs r2, # 0x00         @LCD位置lcd位置(高8位0-0x83,低8位0-7)
 923 0710 01F0CDFC 	        bl __xie_ascii
 924 0714 06E0     	        b __xianshi_shangbi_r1
 925              	__shangbi_r_shi_fu1:
 926 0716 5548     	        ldr r0, = a_fu
 927 0718 0121     	        movs r1, # 1           @显示几个字符
 928 071a 0022     	        movs r2, # 0x00         @LCD位置lcd位置(高8位0-0x83,低8位0-7)
 929 071c 01F0C7FC 	        bl __xie_ascii
 930 0720 F643     	        mvns r6, r6
 931 0722 0136     	        adds r6, r6, # 1
 932              	__xianshi_shangbi_r1:
 933 0724 3046     	        mov r0, r6
 934 0726 0821     	        movs r1, # 8             @转换几个字符
 935 0728 2C4A     	        ldr r2, = asciibiao
 936 072a FF23     	        movs r3, # 0xff             @小数点位置
 937 072c 01F073FD 	        bl __zhuanascii
 938 0730 2A48     	        ldr r0, = asciibiao
 939 0732 0821     	        movs r1, # 8           @显示几个字符
 940 0734 4E4A     	        ldr r2, = 0x800         @LCD位置lcd位置(高8位0-0x83,低8位0-7)
 941 0736 01F0BAFC 	        bl __xie_ascii
 942              	
 943 073a 3E00     	        movs r6, r7
 944 073c 05D4     	        bmi __shangbi_i_shi_fu1
 945              	__shangbi_i_bushi_fu1:
 946 073e 4648     	        ldr r0, = akong
 947 0740 0121     	        movs r1, # 1           @显示几个字符
 948 0742 4C4A     	        ldr r2, = 0x4200         @LCD位置lcd位置(高8位0-0x83,低8位0-7)
 949 0744 01F0B3FC 	        bl __xie_ascii
 950 0748 06E0     	        b __xianshi_shangbi_i1
 951              	__shangbi_i_shi_fu1:
 952 074a 4848     	        ldr r0, = a_fu
 953 074c 0121     	        movs r1, # 1           @显示几个字符
 954 074e 494A     	        ldr r2, = 0x4200         @LCD位置lcd位置(高8位0-0x83,低8位0-7)
 955 0750 01F0ADFC 	        bl __xie_ascii
 956 0754 F643     	        mvns r6, r6
 957 0756 0136     	        adds r6, r6, # 1
 958              	__xianshi_shangbi_i1:
 959 0758 3046     	        mov r0, r6
 960 075a 0821     	        movs r1, # 8             @转换几个字符
 961 075c 1F4A     	        ldr r2, = asciibiao
ARM GAS  1.s 			page 18


 962 075e FF23     	        movs r3, # 0xff             @小数点位置
 963 0760 01F059FD 	        bl __zhuanascii
 964 0764 1D48     	        ldr r0, = asciibiao
 965 0766 0821     	        movs r1, # 8           @显示几个字符
 966 0768 434A     	        ldr r2, = 0x4a00         @LCD位置lcd位置(高8位0-0x83,低8位0-7)
 967 076a 01F0A0FC 	        bl __xie_ascii
 968 076e FFBD     		pop {r0-r7,pc}
 969              	
 970              	
 971              	
 972              		
 973              	__jisuan_s11:
 974 0770 1CB5     		push {r2-r4,lr}
 975 0772 424A     		ldr r2, = vr_r
 976 0774 424B     		ldr r3, = vr_i
 977 0776 1268     		ldr r2, [r2]
 978 0778 1B68     		ldr r3, [r3]
 979 077a 4248     		ldr r0, = vt_r
 980 077c 4249     		ldr r1, = vt_i
 981 077e 304C     		ldr r4, = 10000
 982 0780 0068     		ldr r0, [r0]
 983 0782 0968     		ldr r1, [r1]
 984 0784 6043     		muls r0, r0, r4
 985 0786 6143     		muls r1, r1, r4
 986 0788 01F081FD 		bl __fu_shu_chu_fa
 987 078c 1046     		mov r0, r2
 988 078e 1CBD     		pop {r2-r4,pc}
 989              	
 990              	__jisuan_zukang:
 991 0790 1CB5     	        push {r2-r4,lr}
 992 0792 2C4C     		ldr r4, = p_jz_r	@s11_r
 993 0794 2468     		ldr r4, [r4]
 994 0796 2C49     		ldr r1, = p_jz_i	@s11_i
 995 0798 0968     		ldr r1, [r1]
 996              	
 997              		
 998 079a 0B46     		mov r3, r1
 999 079c DB43     		mvns r3, r3
 1000 079e 0133     		adds r3, r3, # 1
 1001              		
 1002 07a0 2748     		ldr r0, = 10000
 1003 07a2 0246     		mov r2, r0
 1004 07a4 0019     		adds r0, r0, r4
 1005 07a6 121B     		subs r2, r2, r4
 1006              	
 1007 07a8 384C     		ldr r4, = 5000
 1008 07aa 6043     		muls r0, r0, r4
 1009 07ac 6143     		muls r1, r1, r4
 1010              		
 1011 07ae 01F06EFD 	        bl __fu_shu_chu_fa
 1012 07b2 1046     	        mov r0, r2
 1013 07b4 1CBD     	        pop {r2-r4,pc}
 1014              	
 1015              		
 1016              	
 1017              	
 1018              	__dft:
ARM GAS  1.s 			page 19


 1019 07b6 F0B5     		push {r4-r7,lr}
 1020 07b8 4446     		mov r4, r8
 1021 07ba 4D46     		mov r5, r9
 1022 07bc 5646     		mov r6, r10
 1023 07be 6746     		mov r7, r12
 1024 07c0 F0B4     		push {r4-r7}
 1025 07c2 3348     		ldr r0, = cossin
 1026 07c4 3349     		ldr r1, = dianyabiao
 1027 07c6 344A     		ldr r2, = dianyabiao1
 1028 07c8 0068     		ldr r0, [r0]
 1029 07ca 0026     		movs r6, # 0
 1030 07cc 3746     		mov r7, r6
 1031 07ce B046     		mov r8, r6
 1032 07d0 B146     		mov r9, r6
 1033 07d2 EC46     		mov r12, sp
 1034 07d4 8A46     		mov r10, r1
 1035 07d6 9646     		mov r14, r2
 1036 07d8 8546     		mov sp, r0
 1037 07da 5FE0     		b __dft_xunhuan
 1038 07dc E01F0020 		.ltorg
 1038      02650000 
 1038      60250000 
 1038      05650000 
 1038      5C1F0020 
 1039              	__dft_xunhuan:
 1040              		@0
 1041 089c 03BC     		pop {r0-r1}
 1042 089e 0246     		mov r2, r0
 1043 08a0 0B46     		mov r3, r1
 1044              		
 1045 08a2 5546     		mov r5, r10
 1046 08a4 2C88     		ldrh r4, [r5]
 1047 08a6 0235     		adds r5, r5, # 2
 1048 08a8 AA46     		mov r10, r5
 1049 08aa 6043     		muls r0, r0, r4		@R
 1050 08ac 6143     		muls r1, r1, r4		@I
 1051 08ae 8011     		asrs r0, r0, # 6
 1052 08b0 8911     		asrs r1, r1, # 6
 1053 08b2 3618     		adds r6, r6, r0	       @COS_R
 1054 08b4 7F18     		adds r7, r7, r1	       @COS_I
 1055              	
 1056 08b6 7546     	        mov r5, r14
 1057 08b8 2C88     	        ldrh r4, [r5]
 1058 08ba 0235     	        adds r5, r5, # 2
 1059 08bc AE46     	        mov r14, r5
 1060 08be 6243     	        muls r2, r2, r4         @R
 1061 08c0 6343     	        muls r3, r3, r4         @I
 1062 08c2 9211     		asrs r2, r2, # 6
 1063 08c4 9B11     		asrs r3, r3, # 6
 1064 08c6 4446     		mov r4, r8
 1065 08c8 4D46     		mov r5, r9
 1066 08ca A418     		adds r4, r4, r2        
 1067 08cc ED18     		adds r5, r5, r3
 1068 08ce A046     		mov r8, r4		@SIN_R
 1069 08d0 A946     		mov r9, r5		@SIN_I
 1070              	
 1071              		@1
ARM GAS  1.s 			page 20


 1072 08d2 03BC     		pop {r0-r1}
 1073 08d4 0246     		mov r2, r0
 1074 08d6 0B46     		mov r3, r1
 1075              		
 1076 08d8 5546     		mov r5, r10
 1077 08da 2C88     		ldrh r4, [r5]
 1078 08dc 0235     		adds r5, r5, # 2
 1079 08de AA46     		mov r10, r5
 1080 08e0 6043     		muls r0, r0, r4		@R
 1081 08e2 6143     		muls r1, r1, r4		@I
 1082 08e4 8011     		asrs r0, r0, # 6
 1083 08e6 8911     		asrs r1, r1, # 6
 1084 08e8 3618     		adds r6, r6, r0	       @COS_R
 1085 08ea 7F18     		adds r7, r7, r1	       @COS_I
 1086              	
 1087 08ec 7546     	        mov r5, r14
 1088 08ee 2C88     	        ldrh r4, [r5]
 1089 08f0 0235     	        adds r5, r5, # 2
 1090 08f2 AE46     	        mov r14, r5
 1091 08f4 6243     	        muls r2, r2, r4         @R
 1092 08f6 6343     	        muls r3, r3, r4         @I
 1093 08f8 9211     		asrs r2, r2, # 6
 1094 08fa 9B11     		asrs r3, r3, # 6
 1095 08fc 4446     		mov r4, r8
 1096 08fe 4D46     		mov r5, r9
 1097 0900 A418     		adds r4, r4, r2        
 1098 0902 ED18     		adds r5, r5, r3
 1099 0904 A046     		mov r8, r4		@SIN_R
 1100 0906 A946     		mov r9, r5		@SIN_I
 1101              	
 1102              		@2
 1103 0908 03BC     		pop {r0-r1}
 1104 090a 0246     		mov r2, r0
 1105 090c 0B46     		mov r3, r1
 1106              		
 1107 090e 5546     		mov r5, r10
 1108 0910 2C88     		ldrh r4, [r5]
 1109 0912 0235     		adds r5, r5, # 2
 1110 0914 AA46     		mov r10, r5
 1111 0916 6043     		muls r0, r0, r4		@R
 1112 0918 6143     		muls r1, r1, r4		@I
 1113 091a 8011     		asrs r0, r0, # 6
 1114 091c 8911     		asrs r1, r1, # 6
 1115 091e 3618     		adds r6, r6, r0	       @COS_R
 1116 0920 7F18     		adds r7, r7, r1	       @COS_I
 1117              	
 1118 0922 7546     	        mov r5, r14
 1119 0924 2C88     	        ldrh r4, [r5]
 1120 0926 0235     	        adds r5, r5, # 2
 1121 0928 AE46     	        mov r14, r5
 1122 092a 6243     	        muls r2, r2, r4         @R
 1123 092c 6343     	        muls r3, r3, r4         @I
 1124 092e 9211     		asrs r2, r2, # 6
 1125 0930 9B11     		asrs r3, r3, # 6
 1126 0932 4446     		mov r4, r8
 1127 0934 4D46     		mov r5, r9
 1128 0936 A418     		adds r4, r4, r2        
ARM GAS  1.s 			page 21


 1129 0938 ED18     		adds r5, r5, r3
 1130 093a A046     		mov r8, r4		@SIN_R
 1131 093c A946     		mov r9, r5		@SIN_I
 1132              		
 1133              		@3
 1134 093e 03BC     		pop {r0-r1}
 1135 0940 0246     		mov r2, r0
 1136 0942 0B46     		mov r3, r1
 1137              		
 1138 0944 5546     		mov r5, r10
 1139 0946 2C88     		ldrh r4, [r5]
 1140 0948 0235     		adds r5, r5, # 2
 1141 094a AA46     		mov r10, r5
 1142 094c 6043     		muls r0, r0, r4		@R
 1143 094e 6143     		muls r1, r1, r4		@I
 1144 0950 8011     		asrs r0, r0, # 6
 1145 0952 8911     		asrs r1, r1, # 6
 1146 0954 3618     		adds r6, r6, r0	       @COS_R
 1147 0956 7F18     		adds r7, r7, r1	       @COS_I
 1148              	
 1149 0958 7546     	        mov r5, r14
 1150 095a 2C88     	        ldrh r4, [r5]
 1151 095c 0235     	        adds r5, r5, # 2
 1152 095e AE46     	        mov r14, r5
 1153 0960 6243     	        muls r2, r2, r4         @R
 1154 0962 6343     	        muls r3, r3, r4         @I
 1155 0964 9211     		asrs r2, r2, # 6
 1156 0966 9B11     		asrs r3, r3, # 6
 1157 0968 4446     		mov r4, r8
 1158 096a 4D46     		mov r5, r9
 1159 096c A418     		adds r4, r4, r2        
 1160 096e ED18     		adds r5, r5, r3
 1161 0970 A046     		mov r8, r4		@SIN_R
 1162 0972 A946     		mov r9, r5		@SIN_I
 1163              	
 1164              		@4
 1165 0974 03BC     		pop {r0-r1}
 1166 0976 0246     		mov r2, r0
 1167 0978 0B46     		mov r3, r1
 1168              		
 1169 097a 5546     		mov r5, r10
 1170 097c 2C88     		ldrh r4, [r5]
 1171 097e 0235     		adds r5, r5, # 2
 1172 0980 AA46     		mov r10, r5
 1173 0982 6043     		muls r0, r0, r4		@R
 1174 0984 6143     		muls r1, r1, r4		@I
 1175 0986 8011     		asrs r0, r0, # 6
 1176 0988 8911     		asrs r1, r1, # 6
 1177 098a 3618     		adds r6, r6, r0	       @COS_R
 1178 098c 7F18     		adds r7, r7, r1	       @COS_I
 1179              	
 1180 098e 7546     	        mov r5, r14
 1181 0990 2C88     	        ldrh r4, [r5]
 1182 0992 0235     	        adds r5, r5, # 2
 1183 0994 AE46     	        mov r14, r5
 1184 0996 6243     	        muls r2, r2, r4         @R
 1185 0998 6343     	        muls r3, r3, r4         @I
ARM GAS  1.s 			page 22


 1186 099a 9211     		asrs r2, r2, # 6
 1187 099c 9B11     		asrs r3, r3, # 6
 1188 099e 4446     		mov r4, r8
 1189 09a0 4D46     		mov r5, r9
 1190 09a2 A418     		adds r4, r4, r2        
 1191 09a4 ED18     		adds r5, r5, r3
 1192 09a6 A046     		mov r8, r4		@SIN_R
 1193 09a8 A946     		mov r9, r5		@SIN_I
 1194              	
 1195              		@5
 1196 09aa 03BC     			pop {r0-r1}
 1197 09ac 0246     		mov r2, r0
 1198 09ae 0B46     		mov r3, r1
 1199              		
 1200 09b0 5546     		mov r5, r10
 1201 09b2 2C88     		ldrh r4, [r5]
 1202 09b4 0235     		adds r5, r5, # 2
 1203 09b6 AA46     		mov r10, r5
 1204 09b8 6043     		muls r0, r0, r4		@R
 1205 09ba 6143     		muls r1, r1, r4		@I
 1206 09bc 8011     		asrs r0, r0, # 6
 1207 09be 8911     		asrs r1, r1, # 6
 1208 09c0 3618     		adds r6, r6, r0	       @COS_R
 1209 09c2 7F18     		adds r7, r7, r1	       @COS_I
 1210              	
 1211 09c4 7546     	        mov r5, r14
 1212 09c6 2C88     	        ldrh r4, [r5]
 1213 09c8 0235     	        adds r5, r5, # 2
 1214 09ca AE46     	        mov r14, r5
 1215 09cc 6243     	        muls r2, r2, r4         @R
 1216 09ce 6343     	        muls r3, r3, r4         @I
 1217 09d0 9211     		asrs r2, r2, # 6
 1218 09d2 9B11     		asrs r3, r3, # 6
 1219 09d4 4446     		mov r4, r8
 1220 09d6 4D46     		mov r5, r9
 1221 09d8 A418     		adds r4, r4, r2        
 1222 09da ED18     		adds r5, r5, r3
 1223 09dc A046     		mov r8, r4		@SIN_R
 1224 09de A946     		mov r9, r5		@SIN_I
 1225              		
 1226              		@6
 1227 09e0 03BC     			pop {r0-r1}
 1228 09e2 0246     		mov r2, r0
 1229 09e4 0B46     		mov r3, r1
 1230              		
 1231 09e6 5546     		mov r5, r10
 1232 09e8 2C88     		ldrh r4, [r5]
 1233 09ea 0235     		adds r5, r5, # 2
 1234 09ec AA46     		mov r10, r5
 1235 09ee 6043     		muls r0, r0, r4		@R
 1236 09f0 6143     		muls r1, r1, r4		@I
 1237 09f2 8011     		asrs r0, r0, # 6
 1238 09f4 8911     		asrs r1, r1, # 6
 1239 09f6 3618     		adds r6, r6, r0	       @COS_R
 1240 09f8 7F18     		adds r7, r7, r1	       @COS_I
 1241              	
 1242 09fa 7546     	        mov r5, r14
ARM GAS  1.s 			page 23


 1243 09fc 2C88     	        ldrh r4, [r5]
 1244 09fe 0235     	        adds r5, r5, # 2
 1245 0a00 AE46     	        mov r14, r5
 1246 0a02 6243     	        muls r2, r2, r4         @R
 1247 0a04 6343     	        muls r3, r3, r4         @I
 1248 0a06 9211     		asrs r2, r2, # 6
 1249 0a08 9B11     		asrs r3, r3, # 6
 1250 0a0a 4446     		mov r4, r8
 1251 0a0c 4D46     		mov r5, r9
 1252 0a0e A418     		adds r4, r4, r2        
 1253 0a10 ED18     		adds r5, r5, r3
 1254 0a12 A046     		mov r8, r4		@SIN_R
 1255 0a14 A946     		mov r9, r5		@SIN_I
 1256              	
 1257              		@7
 1258 0a16 03BC     			pop {r0-r1}
 1259 0a18 0246     		mov r2, r0
 1260 0a1a 0B46     		mov r3, r1
 1261              		
 1262 0a1c 5546     		mov r5, r10
 1263 0a1e 2C88     		ldrh r4, [r5]
 1264 0a20 0235     		adds r5, r5, # 2
 1265 0a22 AA46     		mov r10, r5
 1266 0a24 6043     		muls r0, r0, r4		@R
 1267 0a26 6143     		muls r1, r1, r4		@I
 1268 0a28 8011     		asrs r0, r0, # 6
 1269 0a2a 8911     		asrs r1, r1, # 6
 1270 0a2c 3618     		adds r6, r6, r0	       @COS_R
 1271 0a2e 7F18     		adds r7, r7, r1	       @COS_I
 1272              	
 1273 0a30 7546     	        mov r5, r14
 1274 0a32 2C88     	        ldrh r4, [r5]
 1275 0a34 0235     	        adds r5, r5, # 2
 1276 0a36 AE46     	        mov r14, r5
 1277 0a38 6243     	        muls r2, r2, r4         @R
 1278 0a3a 6343     	        muls r3, r3, r4         @I
 1279 0a3c 9211     		asrs r2, r2, # 6
 1280 0a3e 9B11     		asrs r3, r3, # 6
 1281 0a40 4446     		mov r4, r8
 1282 0a42 4D46     		mov r5, r9
 1283 0a44 A418     		adds r4, r4, r2        
 1284 0a46 ED18     		adds r5, r5, r3
 1285 0a48 A046     		mov r8, r4		@SIN_R
 1286 0a4a A946     		mov r9, r5		@SIN_I
 1287              	
 1288              		@8
 1289 0a4c 03BC     			pop {r0-r1}
 1290 0a4e 0246     		mov r2, r0
 1291 0a50 0B46     		mov r3, r1
 1292              		
 1293 0a52 5546     		mov r5, r10
 1294 0a54 2C88     		ldrh r4, [r5]
 1295 0a56 0235     		adds r5, r5, # 2
 1296 0a58 AA46     		mov r10, r5
 1297 0a5a 6043     		muls r0, r0, r4		@R
 1298 0a5c 6143     		muls r1, r1, r4		@I
 1299 0a5e 8011     		asrs r0, r0, # 6
ARM GAS  1.s 			page 24


 1300 0a60 8911     		asrs r1, r1, # 6
 1301 0a62 3618     		adds r6, r6, r0	       @COS_R
 1302 0a64 7F18     		adds r7, r7, r1	       @COS_I
 1303              	
 1304 0a66 7546     	        mov r5, r14
 1305 0a68 2C88     	        ldrh r4, [r5]
 1306 0a6a 0235     	        adds r5, r5, # 2
 1307 0a6c AE46     	        mov r14, r5
 1308 0a6e 6243     	        muls r2, r2, r4         @R
 1309 0a70 6343     	        muls r3, r3, r4         @I
 1310 0a72 9211     		asrs r2, r2, # 6
 1311 0a74 9B11     		asrs r3, r3, # 6
 1312 0a76 4446     		mov r4, r8
 1313 0a78 4D46     		mov r5, r9
 1314 0a7a A418     		adds r4, r4, r2        
 1315 0a7c ED18     		adds r5, r5, r3
 1316 0a7e A046     		mov r8, r4		@SIN_R
 1317 0a80 A946     		mov r9, r5		@SIN_I
 1318              	
 1319              		@9
 1320 0a82 03BC     			pop {r0-r1}
 1321 0a84 0246     		mov r2, r0
 1322 0a86 0B46     		mov r3, r1
 1323              		
 1324 0a88 5546     		mov r5, r10
 1325 0a8a 2C88     		ldrh r4, [r5]
 1326 0a8c 0235     		adds r5, r5, # 2
 1327 0a8e AA46     		mov r10, r5
 1328 0a90 6043     		muls r0, r0, r4		@R
 1329 0a92 6143     		muls r1, r1, r4		@I
 1330 0a94 8011     		asrs r0, r0, # 6
 1331 0a96 8911     		asrs r1, r1, # 6
 1332 0a98 3618     		adds r6, r6, r0	       @COS_R
 1333 0a9a 7F18     		adds r7, r7, r1	       @COS_I
 1334              	
 1335 0a9c 7546     	        mov r5, r14
 1336 0a9e 2C88     	        ldrh r4, [r5]
 1337 0aa0 0235     	        adds r5, r5, # 2
 1338 0aa2 AE46     	        mov r14, r5
 1339 0aa4 6243     	        muls r2, r2, r4         @R
 1340 0aa6 6343     	        muls r3, r3, r4         @I
 1341 0aa8 9211     		asrs r2, r2, # 6
 1342 0aaa 9B11     		asrs r3, r3, # 6
 1343 0aac 4446     		mov r4, r8
 1344 0aae 4D46     		mov r5, r9
 1345 0ab0 A418     		adds r4, r4, r2        
 1346 0ab2 ED18     		adds r5, r5, r3
 1347 0ab4 A046     		mov r8, r4		@SIN_R
 1348 0ab6 A946     		mov r9, r5		@SIN_I
 1349              	
 1350              	@yjm1
 1351              			@0
 1352 0ab8 03BC     		pop {r0-r1}
 1353 0aba 0246     		mov r2, r0
 1354 0abc 0B46     		mov r3, r1
 1355              		
 1356 0abe 5546     		mov r5, r10
ARM GAS  1.s 			page 25


 1357 0ac0 2C88     		ldrh r4, [r5]
 1358 0ac2 0235     		adds r5, r5, # 2
 1359 0ac4 AA46     		mov r10, r5
 1360 0ac6 6043     		muls r0, r0, r4		@R
 1361 0ac8 6143     		muls r1, r1, r4		@I
 1362 0aca 8011     		asrs r0, r0, # 6
 1363 0acc 8911     		asrs r1, r1, # 6
 1364 0ace 3618     		adds r6, r6, r0	       @COS_R
 1365 0ad0 7F18     		adds r7, r7, r1	       @COS_I
 1366              	
 1367 0ad2 7546     	        mov r5, r14
 1368 0ad4 2C88     	        ldrh r4, [r5]
 1369 0ad6 0235     	        adds r5, r5, # 2
 1370 0ad8 AE46     	        mov r14, r5
 1371 0ada 6243     	        muls r2, r2, r4         @R
 1372 0adc 6343     	        muls r3, r3, r4         @I
 1373 0ade 9211     		asrs r2, r2, # 6
 1374 0ae0 9B11     		asrs r3, r3, # 6
 1375 0ae2 4446     		mov r4, r8
 1376 0ae4 4D46     		mov r5, r9
 1377 0ae6 A418     		adds r4, r4, r2        
 1378 0ae8 ED18     		adds r5, r5, r3
 1379 0aea A046     		mov r8, r4		@SIN_R
 1380 0aec A946     		mov r9, r5		@SIN_I
 1381              	
 1382              		@1
 1383 0aee 03BC     		pop {r0-r1}
 1384 0af0 0246     		mov r2, r0
 1385 0af2 0B46     		mov r3, r1
 1386              		
 1387 0af4 5546     		mov r5, r10
 1388 0af6 2C88     		ldrh r4, [r5]
 1389 0af8 0235     		adds r5, r5, # 2
 1390 0afa AA46     		mov r10, r5
 1391 0afc 6043     		muls r0, r0, r4		@R
 1392 0afe 6143     		muls r1, r1, r4		@I
 1393 0b00 8011     		asrs r0, r0, # 6
 1394 0b02 8911     		asrs r1, r1, # 6
 1395 0b04 3618     		adds r6, r6, r0	       @COS_R
 1396 0b06 7F18     		adds r7, r7, r1	       @COS_I
 1397              	
 1398 0b08 7546     	        mov r5, r14
 1399 0b0a 2C88     	        ldrh r4, [r5]
 1400 0b0c 0235     	        adds r5, r5, # 2
 1401 0b0e AE46     	        mov r14, r5
 1402 0b10 6243     	        muls r2, r2, r4         @R
 1403 0b12 6343     	        muls r3, r3, r4         @I
 1404 0b14 9211     		asrs r2, r2, # 6
 1405 0b16 9B11     		asrs r3, r3, # 6
 1406 0b18 4446     		mov r4, r8
 1407 0b1a 4D46     		mov r5, r9
 1408 0b1c A418     		adds r4, r4, r2        
 1409 0b1e ED18     		adds r5, r5, r3
 1410 0b20 A046     		mov r8, r4		@SIN_R
 1411 0b22 A946     		mov r9, r5		@SIN_I
 1412              	
 1413              		@2
ARM GAS  1.s 			page 26


 1414 0b24 03BC     		pop {r0-r1}
 1415 0b26 0246     		mov r2, r0
 1416 0b28 0B46     		mov r3, r1
 1417              		
 1418 0b2a 5546     		mov r5, r10
 1419 0b2c 2C88     		ldrh r4, [r5]
 1420 0b2e 0235     		adds r5, r5, # 2
 1421 0b30 AA46     		mov r10, r5
 1422 0b32 6043     		muls r0, r0, r4		@R
 1423 0b34 6143     		muls r1, r1, r4		@I
 1424 0b36 8011     		asrs r0, r0, # 6
 1425 0b38 8911     		asrs r1, r1, # 6
 1426 0b3a 3618     		adds r6, r6, r0	       @COS_R
 1427 0b3c 7F18     		adds r7, r7, r1	       @COS_I
 1428              	
 1429 0b3e 7546     	        mov r5, r14
 1430 0b40 2C88     	        ldrh r4, [r5]
 1431 0b42 0235     	        adds r5, r5, # 2
 1432 0b44 AE46     	        mov r14, r5
 1433 0b46 6243     	        muls r2, r2, r4         @R
 1434 0b48 6343     	        muls r3, r3, r4         @I
 1435 0b4a 9211     		asrs r2, r2, # 6
 1436 0b4c 9B11     		asrs r3, r3, # 6
 1437 0b4e 4446     		mov r4, r8
 1438 0b50 4D46     		mov r5, r9
 1439 0b52 A418     		adds r4, r4, r2        
 1440 0b54 ED18     		adds r5, r5, r3
 1441 0b56 A046     		mov r8, r4		@SIN_R
 1442 0b58 A946     		mov r9, r5		@SIN_I
 1443              		
 1444              		@3
 1445 0b5a 03BC     		pop {r0-r1}
 1446 0b5c 0246     		mov r2, r0
 1447 0b5e 0B46     		mov r3, r1
 1448              		
 1449 0b60 5546     		mov r5, r10
 1450 0b62 2C88     		ldrh r4, [r5]
 1451 0b64 0235     		adds r5, r5, # 2
 1452 0b66 AA46     		mov r10, r5
 1453 0b68 6043     		muls r0, r0, r4		@R
 1454 0b6a 6143     		muls r1, r1, r4		@I
 1455 0b6c 8011     		asrs r0, r0, # 6
 1456 0b6e 8911     		asrs r1, r1, # 6
 1457 0b70 3618     		adds r6, r6, r0	       @COS_R
 1458 0b72 7F18     		adds r7, r7, r1	       @COS_I
 1459              	
 1460 0b74 7546     	        mov r5, r14
 1461 0b76 2C88     	        ldrh r4, [r5]
 1462 0b78 0235     	        adds r5, r5, # 2
 1463 0b7a AE46     	        mov r14, r5
 1464 0b7c 6243     	        muls r2, r2, r4         @R
 1465 0b7e 6343     	        muls r3, r3, r4         @I
 1466 0b80 9211     		asrs r2, r2, # 6
 1467 0b82 9B11     		asrs r3, r3, # 6
 1468 0b84 4446     		mov r4, r8
 1469 0b86 4D46     		mov r5, r9
 1470 0b88 A418     		adds r4, r4, r2        
ARM GAS  1.s 			page 27


 1471 0b8a ED18     		adds r5, r5, r3
 1472 0b8c A046     		mov r8, r4		@SIN_R
 1473 0b8e A946     		mov r9, r5		@SIN_I
 1474              	
 1475              		@4
 1476 0b90 03BC     		pop {r0-r1}
 1477 0b92 0246     		mov r2, r0
 1478 0b94 0B46     		mov r3, r1
 1479              		
 1480 0b96 5546     		mov r5, r10
 1481 0b98 2C88     		ldrh r4, [r5]
 1482 0b9a 0235     		adds r5, r5, # 2
 1483 0b9c AA46     		mov r10, r5
 1484 0b9e 6043     		muls r0, r0, r4		@R
 1485 0ba0 6143     		muls r1, r1, r4		@I
 1486 0ba2 8011     		asrs r0, r0, # 6
 1487 0ba4 8911     		asrs r1, r1, # 6
 1488 0ba6 3618     		adds r6, r6, r0	       @COS_R
 1489 0ba8 7F18     		adds r7, r7, r1	       @COS_I
 1490              	
 1491 0baa 7546     	        mov r5, r14
 1492 0bac 2C88     	        ldrh r4, [r5]
 1493 0bae 0235     	        adds r5, r5, # 2
 1494 0bb0 AE46     	        mov r14, r5
 1495 0bb2 6243     	        muls r2, r2, r4         @R
 1496 0bb4 6343     	        muls r3, r3, r4         @I
 1497 0bb6 9211     		asrs r2, r2, # 6
 1498 0bb8 9B11     		asrs r3, r3, # 6
 1499 0bba 4446     		mov r4, r8
 1500 0bbc 4D46     		mov r5, r9
 1501 0bbe A418     		adds r4, r4, r2        
 1502 0bc0 ED18     		adds r5, r5, r3
 1503 0bc2 A046     		mov r8, r4		@SIN_R
 1504 0bc4 A946     		mov r9, r5		@SIN_I
 1505              	
 1506              		@5
 1507 0bc6 03BC     			pop {r0-r1}
 1508 0bc8 0246     		mov r2, r0
 1509 0bca 0B46     		mov r3, r1
 1510              		
 1511 0bcc 5546     		mov r5, r10
 1512 0bce 2C88     		ldrh r4, [r5]
 1513 0bd0 0235     		adds r5, r5, # 2
 1514 0bd2 AA46     		mov r10, r5
 1515 0bd4 6043     		muls r0, r0, r4		@R
 1516 0bd6 6143     		muls r1, r1, r4		@I
 1517 0bd8 8011     		asrs r0, r0, # 6
 1518 0bda 8911     		asrs r1, r1, # 6
 1519 0bdc 3618     		adds r6, r6, r0	       @COS_R
 1520 0bde 7F18     		adds r7, r7, r1	       @COS_I
 1521              	
 1522 0be0 7546     	        mov r5, r14
 1523 0be2 2C88     	        ldrh r4, [r5]
 1524 0be4 0235     	        adds r5, r5, # 2
 1525 0be6 AE46     	        mov r14, r5
 1526 0be8 6243     	        muls r2, r2, r4         @R
 1527 0bea 6343     	        muls r3, r3, r4         @I
ARM GAS  1.s 			page 28


 1528 0bec 9211     		asrs r2, r2, # 6
 1529 0bee 9B11     		asrs r3, r3, # 6
 1530 0bf0 4446     		mov r4, r8
 1531 0bf2 4D46     		mov r5, r9
 1532 0bf4 A418     		adds r4, r4, r2        
 1533 0bf6 ED18     		adds r5, r5, r3
 1534 0bf8 A046     		mov r8, r4		@SIN_R
 1535 0bfa A946     		mov r9, r5		@SIN_I
 1536              		
 1537              		@6
 1538 0bfc 03BC     			pop {r0-r1}
 1539 0bfe 0246     		mov r2, r0
 1540 0c00 0B46     		mov r3, r1
 1541              		
 1542 0c02 5546     		mov r5, r10
 1543 0c04 2C88     		ldrh r4, [r5]
 1544 0c06 0235     		adds r5, r5, # 2
 1545 0c08 AA46     		mov r10, r5
 1546 0c0a 6043     		muls r0, r0, r4		@R
 1547 0c0c 6143     		muls r1, r1, r4		@I
 1548 0c0e 8011     		asrs r0, r0, # 6
 1549 0c10 8911     		asrs r1, r1, # 6
 1550 0c12 3618     		adds r6, r6, r0	       @COS_R
 1551 0c14 7F18     		adds r7, r7, r1	       @COS_I
 1552              	
 1553 0c16 7546     	        mov r5, r14
 1554 0c18 2C88     	        ldrh r4, [r5]
 1555 0c1a 0235     	        adds r5, r5, # 2
 1556 0c1c AE46     	        mov r14, r5
 1557 0c1e 6243     	        muls r2, r2, r4         @R
 1558 0c20 6343     	        muls r3, r3, r4         @I
 1559 0c22 9211     		asrs r2, r2, # 6
 1560 0c24 9B11     		asrs r3, r3, # 6
 1561 0c26 4446     		mov r4, r8
 1562 0c28 4D46     		mov r5, r9
 1563 0c2a A418     		adds r4, r4, r2        
 1564 0c2c ED18     		adds r5, r5, r3
 1565 0c2e A046     		mov r8, r4		@SIN_R
 1566 0c30 A946     		mov r9, r5		@SIN_I
 1567              	
 1568              		@7
 1569 0c32 03BC     			pop {r0-r1}
 1570 0c34 0246     		mov r2, r0
 1571 0c36 0B46     		mov r3, r1
 1572              		
 1573 0c38 5546     		mov r5, r10
 1574 0c3a 2C88     		ldrh r4, [r5]
 1575 0c3c 0235     		adds r5, r5, # 2
 1576 0c3e AA46     		mov r10, r5
 1577 0c40 6043     		muls r0, r0, r4		@R
 1578 0c42 6143     		muls r1, r1, r4		@I
 1579 0c44 8011     		asrs r0, r0, # 6
 1580 0c46 8911     		asrs r1, r1, # 6
 1581 0c48 3618     		adds r6, r6, r0	       @COS_R
 1582 0c4a 7F18     		adds r7, r7, r1	       @COS_I
 1583              	
 1584 0c4c 7546     	        mov r5, r14
ARM GAS  1.s 			page 29


 1585 0c4e 2C88     	        ldrh r4, [r5]
 1586 0c50 0235     	        adds r5, r5, # 2
 1587 0c52 AE46     	        mov r14, r5
 1588 0c54 6243     	        muls r2, r2, r4         @R
 1589 0c56 6343     	        muls r3, r3, r4         @I
 1590 0c58 9211     		asrs r2, r2, # 6
 1591 0c5a 9B11     		asrs r3, r3, # 6
 1592 0c5c 4446     		mov r4, r8
 1593 0c5e 4D46     		mov r5, r9
 1594 0c60 A418     		adds r4, r4, r2        
 1595 0c62 ED18     		adds r5, r5, r3
 1596 0c64 A046     		mov r8, r4		@SIN_R
 1597 0c66 A946     		mov r9, r5		@SIN_I
 1598              	
 1599              		@8
 1600 0c68 03BC     			pop {r0-r1}
 1601 0c6a 0246     		mov r2, r0
 1602 0c6c 0B46     		mov r3, r1
 1603              		
 1604 0c6e 5546     		mov r5, r10
 1605 0c70 2C88     		ldrh r4, [r5]
 1606 0c72 0235     		adds r5, r5, # 2
 1607 0c74 AA46     		mov r10, r5
 1608 0c76 6043     		muls r0, r0, r4		@R
 1609 0c78 6143     		muls r1, r1, r4		@I
 1610 0c7a 8011     		asrs r0, r0, # 6
 1611 0c7c 8911     		asrs r1, r1, # 6
 1612 0c7e 3618     		adds r6, r6, r0	       @COS_R
 1613 0c80 7F18     		adds r7, r7, r1	       @COS_I
 1614              	
 1615 0c82 7546     	        mov r5, r14
 1616 0c84 2C88     	        ldrh r4, [r5]
 1617 0c86 0235     	        adds r5, r5, # 2
 1618 0c88 AE46     	        mov r14, r5
 1619 0c8a 6243     	        muls r2, r2, r4         @R
 1620 0c8c 6343     	        muls r3, r3, r4         @I
 1621 0c8e 9211     		asrs r2, r2, # 6
 1622 0c90 9B11     		asrs r3, r3, # 6
 1623 0c92 4446     		mov r4, r8
 1624 0c94 4D46     		mov r5, r9
 1625 0c96 A418     		adds r4, r4, r2        
 1626 0c98 ED18     		adds r5, r5, r3
 1627 0c9a A046     		mov r8, r4		@SIN_R
 1628 0c9c A946     		mov r9, r5		@SIN_I
 1629              	
 1630              		@9
 1631 0c9e 03BC     			pop {r0-r1}
 1632 0ca0 0246     		mov r2, r0
 1633 0ca2 0B46     		mov r3, r1
 1634              		
 1635 0ca4 5546     		mov r5, r10
 1636 0ca6 2C88     		ldrh r4, [r5]
 1637 0ca8 0235     		adds r5, r5, # 2
 1638 0caa AA46     		mov r10, r5
 1639 0cac 6043     		muls r0, r0, r4		@R
 1640 0cae 6143     		muls r1, r1, r4		@I
 1641 0cb0 8011     		asrs r0, r0, # 6
ARM GAS  1.s 			page 30


 1642 0cb2 8911     		asrs r1, r1, # 6
 1643 0cb4 3618     		adds r6, r6, r0	       @COS_R
 1644 0cb6 7F18     		adds r7, r7, r1	       @COS_I
 1645              	
 1646 0cb8 7546     	        mov r5, r14
 1647 0cba 2C88     	        ldrh r4, [r5]
 1648 0cbc 0235     	        adds r5, r5, # 2
 1649 0cbe AE46     	        mov r14, r5
 1650 0cc0 6243     	        muls r2, r2, r4         @R
 1651 0cc2 6343     	        muls r3, r3, r4         @I
 1652 0cc4 9211     		asrs r2, r2, # 6
 1653 0cc6 9B11     		asrs r3, r3, # 6
 1654 0cc8 4446     		mov r4, r8
 1655 0cca 4D46     		mov r5, r9
 1656 0ccc A418     		adds r4, r4, r2        
 1657 0cce ED18     		adds r5, r5, r3
 1658 0cd0 A046     		mov r8, r4		@SIN_R
 1659 0cd2 A946     		mov r9, r5		@SIN_I
 1660              	
 1661              	@yjm2
 1662              			@0
 1663 0cd4 03BC     		pop {r0-r1}
 1664 0cd6 0246     		mov r2, r0
 1665 0cd8 0B46     		mov r3, r1
 1666              		
 1667 0cda 5546     		mov r5, r10
 1668 0cdc 2C88     		ldrh r4, [r5]
 1669 0cde 0235     		adds r5, r5, # 2
 1670 0ce0 AA46     		mov r10, r5
 1671 0ce2 6043     		muls r0, r0, r4		@R
 1672 0ce4 6143     		muls r1, r1, r4		@I
 1673 0ce6 8011     		asrs r0, r0, # 6
 1674 0ce8 8911     		asrs r1, r1, # 6
 1675 0cea 3618     		adds r6, r6, r0	       @COS_R
 1676 0cec 7F18     		adds r7, r7, r1	       @COS_I
 1677              	
 1678 0cee 7546     	        mov r5, r14
 1679 0cf0 2C88     	        ldrh r4, [r5]
 1680 0cf2 0235     	        adds r5, r5, # 2
 1681 0cf4 AE46     	        mov r14, r5
 1682 0cf6 6243     	        muls r2, r2, r4         @R
 1683 0cf8 6343     	        muls r3, r3, r4         @I
 1684 0cfa 9211     		asrs r2, r2, # 6
 1685 0cfc 9B11     		asrs r3, r3, # 6
 1686 0cfe 4446     		mov r4, r8
 1687 0d00 4D46     		mov r5, r9
 1688 0d02 A418     		adds r4, r4, r2        
 1689 0d04 ED18     		adds r5, r5, r3
 1690 0d06 A046     		mov r8, r4		@SIN_R
 1691 0d08 A946     		mov r9, r5		@SIN_I
 1692              	
 1693              		@1
 1694 0d0a 03BC     		pop {r0-r1}
 1695 0d0c 0246     		mov r2, r0
 1696 0d0e 0B46     		mov r3, r1
 1697              		
 1698 0d10 5546     		mov r5, r10
ARM GAS  1.s 			page 31


 1699 0d12 2C88     		ldrh r4, [r5]
 1700 0d14 0235     		adds r5, r5, # 2
 1701 0d16 AA46     		mov r10, r5
 1702 0d18 6043     		muls r0, r0, r4		@R
 1703 0d1a 6143     		muls r1, r1, r4		@I
 1704 0d1c 8011     		asrs r0, r0, # 6
 1705 0d1e 8911     		asrs r1, r1, # 6
 1706 0d20 3618     		adds r6, r6, r0	       @COS_R
 1707 0d22 7F18     		adds r7, r7, r1	       @COS_I
 1708              	
 1709 0d24 7546     	        mov r5, r14
 1710 0d26 2C88     	        ldrh r4, [r5]
 1711 0d28 0235     	        adds r5, r5, # 2
 1712 0d2a AE46     	        mov r14, r5
 1713 0d2c 6243     	        muls r2, r2, r4         @R
 1714 0d2e 6343     	        muls r3, r3, r4         @I
 1715 0d30 9211     		asrs r2, r2, # 6
 1716 0d32 9B11     		asrs r3, r3, # 6
 1717 0d34 4446     		mov r4, r8
 1718 0d36 4D46     		mov r5, r9
 1719 0d38 A418     		adds r4, r4, r2        
 1720 0d3a ED18     		adds r5, r5, r3
 1721 0d3c A046     		mov r8, r4		@SIN_R
 1722 0d3e A946     		mov r9, r5		@SIN_I
 1723              	
 1724              		@2
 1725 0d40 03BC     		pop {r0-r1}
 1726 0d42 0246     		mov r2, r0
 1727 0d44 0B46     		mov r3, r1
 1728              		
 1729 0d46 5546     		mov r5, r10
 1730 0d48 2C88     		ldrh r4, [r5]
 1731 0d4a 0235     		adds r5, r5, # 2
 1732 0d4c AA46     		mov r10, r5
 1733 0d4e 6043     		muls r0, r0, r4		@R
 1734 0d50 6143     		muls r1, r1, r4		@I
 1735 0d52 8011     		asrs r0, r0, # 6
 1736 0d54 8911     		asrs r1, r1, # 6
 1737 0d56 3618     		adds r6, r6, r0	       @COS_R
 1738 0d58 7F18     		adds r7, r7, r1	       @COS_I
 1739              	
 1740 0d5a 7546     	        mov r5, r14
 1741 0d5c 2C88     	        ldrh r4, [r5]
 1742 0d5e 0235     	        adds r5, r5, # 2
 1743 0d60 AE46     	        mov r14, r5
 1744 0d62 6243     	        muls r2, r2, r4         @R
 1745 0d64 6343     	        muls r3, r3, r4         @I
 1746 0d66 9211     		asrs r2, r2, # 6
 1747 0d68 9B11     		asrs r3, r3, # 6
 1748 0d6a 4446     		mov r4, r8
 1749 0d6c 4D46     		mov r5, r9
 1750 0d6e A418     		adds r4, r4, r2        
 1751 0d70 ED18     		adds r5, r5, r3
 1752 0d72 A046     		mov r8, r4		@SIN_R
 1753 0d74 A946     		mov r9, r5		@SIN_I
 1754              		
 1755              		@3
ARM GAS  1.s 			page 32


 1756 0d76 03BC     		pop {r0-r1}
 1757 0d78 0246     		mov r2, r0
 1758 0d7a 0B46     		mov r3, r1
 1759              		
 1760 0d7c 5546     		mov r5, r10
 1761 0d7e 2C88     		ldrh r4, [r5]
 1762 0d80 0235     		adds r5, r5, # 2
 1763 0d82 AA46     		mov r10, r5
 1764 0d84 6043     		muls r0, r0, r4		@R
 1765 0d86 6143     		muls r1, r1, r4		@I
 1766 0d88 8011     		asrs r0, r0, # 6
 1767 0d8a 8911     		asrs r1, r1, # 6
 1768 0d8c 3618     		adds r6, r6, r0	       @COS_R
 1769 0d8e 7F18     		adds r7, r7, r1	       @COS_I
 1770              	
 1771 0d90 7546     	        mov r5, r14
 1772 0d92 2C88     	        ldrh r4, [r5]
 1773 0d94 0235     	        adds r5, r5, # 2
 1774 0d96 AE46     	        mov r14, r5
 1775 0d98 6243     	        muls r2, r2, r4         @R
 1776 0d9a 6343     	        muls r3, r3, r4         @I
 1777 0d9c 9211     		asrs r2, r2, # 6
 1778 0d9e 9B11     		asrs r3, r3, # 6
 1779 0da0 4446     		mov r4, r8
 1780 0da2 4D46     		mov r5, r9
 1781 0da4 A418     		adds r4, r4, r2        
 1782 0da6 ED18     		adds r5, r5, r3
 1783 0da8 A046     		mov r8, r4		@SIN_R
 1784 0daa A946     		mov r9, r5		@SIN_I
 1785              	
 1786              		@4
 1787 0dac 03BC     		pop {r0-r1}
 1788 0dae 0246     		mov r2, r0
 1789 0db0 0B46     		mov r3, r1
 1790              		
 1791 0db2 5546     		mov r5, r10
 1792 0db4 2C88     		ldrh r4, [r5]
 1793 0db6 0235     		adds r5, r5, # 2
 1794 0db8 AA46     		mov r10, r5
 1795 0dba 6043     		muls r0, r0, r4		@R
 1796 0dbc 6143     		muls r1, r1, r4		@I
 1797 0dbe 8011     		asrs r0, r0, # 6
 1798 0dc0 8911     		asrs r1, r1, # 6
 1799 0dc2 3618     		adds r6, r6, r0	       @COS_R
 1800 0dc4 7F18     		adds r7, r7, r1	       @COS_I
 1801              	
 1802 0dc6 7546     	        mov r5, r14
 1803 0dc8 2C88     	        ldrh r4, [r5]
 1804 0dca 0235     	        adds r5, r5, # 2
 1805 0dcc AE46     	        mov r14, r5
 1806 0dce 6243     	        muls r2, r2, r4         @R
 1807 0dd0 6343     	        muls r3, r3, r4         @I
 1808 0dd2 9211     		asrs r2, r2, # 6
 1809 0dd4 9B11     		asrs r3, r3, # 6
 1810 0dd6 4446     		mov r4, r8
 1811 0dd8 4D46     		mov r5, r9
 1812 0dda A418     		adds r4, r4, r2        
ARM GAS  1.s 			page 33


 1813 0ddc ED18     		adds r5, r5, r3
 1814 0dde A046     		mov r8, r4		@SIN_R
 1815 0de0 A946     		mov r9, r5		@SIN_I
 1816              	
 1817              		@5
 1818 0de2 03BC     			pop {r0-r1}
 1819 0de4 0246     		mov r2, r0
 1820 0de6 0B46     		mov r3, r1
 1821              		
 1822 0de8 5546     		mov r5, r10
 1823 0dea 2C88     		ldrh r4, [r5]
 1824 0dec 0235     		adds r5, r5, # 2
 1825 0dee AA46     		mov r10, r5
 1826 0df0 6043     		muls r0, r0, r4		@R
 1827 0df2 6143     		muls r1, r1, r4		@I
 1828 0df4 8011     		asrs r0, r0, # 6
 1829 0df6 8911     		asrs r1, r1, # 6
 1830 0df8 3618     		adds r6, r6, r0	       @COS_R
 1831 0dfa 7F18     		adds r7, r7, r1	       @COS_I
 1832              	
 1833 0dfc 7546     	        mov r5, r14
 1834 0dfe 2C88     	        ldrh r4, [r5]
 1835 0e00 0235     	        adds r5, r5, # 2
 1836 0e02 AE46     	        mov r14, r5
 1837 0e04 6243     	        muls r2, r2, r4         @R
 1838 0e06 6343     	        muls r3, r3, r4         @I
 1839 0e08 9211     		asrs r2, r2, # 6
 1840 0e0a 9B11     		asrs r3, r3, # 6
 1841 0e0c 4446     		mov r4, r8
 1842 0e0e 4D46     		mov r5, r9
 1843 0e10 A418     		adds r4, r4, r2        
 1844 0e12 ED18     		adds r5, r5, r3
 1845 0e14 A046     		mov r8, r4		@SIN_R
 1846 0e16 A946     		mov r9, r5		@SIN_I
 1847              		
 1848              		@6
 1849 0e18 03BC     			pop {r0-r1}
 1850 0e1a 0246     		mov r2, r0
 1851 0e1c 0B46     		mov r3, r1
 1852              		
 1853 0e1e 5546     		mov r5, r10
 1854 0e20 2C88     		ldrh r4, [r5]
 1855 0e22 0235     		adds r5, r5, # 2
 1856 0e24 AA46     		mov r10, r5
 1857 0e26 6043     		muls r0, r0, r4		@R
 1858 0e28 6143     		muls r1, r1, r4		@I
 1859 0e2a 8011     		asrs r0, r0, # 6
 1860 0e2c 8911     		asrs r1, r1, # 6
 1861 0e2e 3618     		adds r6, r6, r0	       @COS_R
 1862 0e30 7F18     		adds r7, r7, r1	       @COS_I
 1863              	
 1864 0e32 7546     	        mov r5, r14
 1865 0e34 2C88     	        ldrh r4, [r5]
 1866 0e36 0235     	        adds r5, r5, # 2
 1867 0e38 AE46     	        mov r14, r5
 1868 0e3a 6243     	        muls r2, r2, r4         @R
 1869 0e3c 6343     	        muls r3, r3, r4         @I
ARM GAS  1.s 			page 34


 1870 0e3e 9211     		asrs r2, r2, # 6
 1871 0e40 9B11     		asrs r3, r3, # 6
 1872 0e42 4446     		mov r4, r8
 1873 0e44 4D46     		mov r5, r9
 1874 0e46 A418     		adds r4, r4, r2        
 1875 0e48 ED18     		adds r5, r5, r3
 1876 0e4a A046     		mov r8, r4		@SIN_R
 1877 0e4c A946     		mov r9, r5		@SIN_I
 1878              	
 1879              		@7
 1880 0e4e 03BC     			pop {r0-r1}
 1881 0e50 0246     		mov r2, r0
 1882 0e52 0B46     		mov r3, r1
 1883              		
 1884 0e54 5546     		mov r5, r10
 1885 0e56 2C88     		ldrh r4, [r5]
 1886 0e58 0235     		adds r5, r5, # 2
 1887 0e5a AA46     		mov r10, r5
 1888 0e5c 6043     		muls r0, r0, r4		@R
 1889 0e5e 6143     		muls r1, r1, r4		@I
 1890 0e60 8011     		asrs r0, r0, # 6
 1891 0e62 8911     		asrs r1, r1, # 6
 1892 0e64 3618     		adds r6, r6, r0	       @COS_R
 1893 0e66 7F18     		adds r7, r7, r1	       @COS_I
 1894              	
 1895 0e68 7546     	        mov r5, r14
 1896 0e6a 2C88     	        ldrh r4, [r5]
 1897 0e6c 0235     	        adds r5, r5, # 2
 1898 0e6e AE46     	        mov r14, r5
 1899 0e70 6243     	        muls r2, r2, r4         @R
 1900 0e72 6343     	        muls r3, r3, r4         @I
 1901 0e74 9211     		asrs r2, r2, # 6
 1902 0e76 9B11     		asrs r3, r3, # 6
 1903 0e78 4446     		mov r4, r8
 1904 0e7a 4D46     		mov r5, r9
 1905 0e7c A418     		adds r4, r4, r2        
 1906 0e7e ED18     		adds r5, r5, r3
 1907 0e80 A046     		mov r8, r4		@SIN_R
 1908 0e82 A946     		mov r9, r5		@SIN_I
 1909              	
 1910              		@8
 1911 0e84 03BC     			pop {r0-r1}
 1912 0e86 0246     		mov r2, r0
 1913 0e88 0B46     		mov r3, r1
 1914              		
 1915 0e8a 5546     		mov r5, r10
 1916 0e8c 2C88     		ldrh r4, [r5]
 1917 0e8e 0235     		adds r5, r5, # 2
 1918 0e90 AA46     		mov r10, r5
 1919 0e92 6043     		muls r0, r0, r4		@R
 1920 0e94 6143     		muls r1, r1, r4		@I
 1921 0e96 8011     		asrs r0, r0, # 6
 1922 0e98 8911     		asrs r1, r1, # 6
 1923 0e9a 3618     		adds r6, r6, r0	       @COS_R
 1924 0e9c 7F18     		adds r7, r7, r1	       @COS_I
 1925              	
 1926 0e9e 7546     	        mov r5, r14
ARM GAS  1.s 			page 35


 1927 0ea0 2C88     	        ldrh r4, [r5]
 1928 0ea2 0235     	        adds r5, r5, # 2
 1929 0ea4 AE46     	        mov r14, r5
 1930 0ea6 6243     	        muls r2, r2, r4         @R
 1931 0ea8 6343     	        muls r3, r3, r4         @I
 1932 0eaa 9211     		asrs r2, r2, # 6
 1933 0eac 9B11     		asrs r3, r3, # 6
 1934 0eae 4446     		mov r4, r8
 1935 0eb0 4D46     		mov r5, r9
 1936 0eb2 A418     		adds r4, r4, r2        
 1937 0eb4 ED18     		adds r5, r5, r3
 1938 0eb6 A046     		mov r8, r4		@SIN_R
 1939 0eb8 A946     		mov r9, r5		@SIN_I
 1940              	
 1941              		@9
 1942 0eba 03BC     			pop {r0-r1}
 1943 0ebc 0246     		mov r2, r0
 1944 0ebe 0B46     		mov r3, r1
 1945              		
 1946 0ec0 5546     		mov r5, r10
 1947 0ec2 2C88     		ldrh r4, [r5]
 1948 0ec4 0235     		adds r5, r5, # 2
 1949 0ec6 AA46     		mov r10, r5
 1950 0ec8 6043     		muls r0, r0, r4		@R
 1951 0eca 6143     		muls r1, r1, r4		@I
 1952 0ecc 8011     		asrs r0, r0, # 6
 1953 0ece 8911     		asrs r1, r1, # 6
 1954 0ed0 3618     		adds r6, r6, r0	       @COS_R
 1955 0ed2 7F18     		adds r7, r7, r1	       @COS_I
 1956              	
 1957 0ed4 7546     	        mov r5, r14
 1958 0ed6 2C88     	        ldrh r4, [r5]
 1959 0ed8 0235     	        adds r5, r5, # 2
 1960 0eda AE46     	        mov r14, r5
 1961 0edc 6243     	        muls r2, r2, r4         @R
 1962 0ede 6343     	        muls r3, r3, r4         @I
 1963 0ee0 9211     		asrs r2, r2, # 6
 1964 0ee2 9B11     		asrs r3, r3, # 6
 1965 0ee4 4446     		mov r4, r8
 1966 0ee6 4D46     		mov r5, r9
 1967 0ee8 A418     		adds r4, r4, r2        
 1968 0eea ED18     		adds r5, r5, r3
 1969 0eec A046     		mov r8, r4		@SIN_R
 1970 0eee A946     		mov r9, r5		@SIN_I
 1971              	
 1972              	@yjm3
 1973              			@0
 1974 0ef0 03BC     		pop {r0-r1}
 1975 0ef2 0246     		mov r2, r0
 1976 0ef4 0B46     		mov r3, r1
 1977              		
 1978 0ef6 5546     		mov r5, r10
 1979 0ef8 2C88     		ldrh r4, [r5]
 1980 0efa 0235     		adds r5, r5, # 2
 1981 0efc AA46     		mov r10, r5
 1982 0efe 6043     		muls r0, r0, r4		@R
 1983 0f00 6143     		muls r1, r1, r4		@I
ARM GAS  1.s 			page 36


 1984 0f02 8011     		asrs r0, r0, # 6
 1985 0f04 8911     		asrs r1, r1, # 6
 1986 0f06 3618     		adds r6, r6, r0	       @COS_R
 1987 0f08 7F18     		adds r7, r7, r1	       @COS_I
 1988              	
 1989 0f0a 7546     	        mov r5, r14
 1990 0f0c 2C88     	        ldrh r4, [r5]
 1991 0f0e 0235     	        adds r5, r5, # 2
 1992 0f10 AE46     	        mov r14, r5
 1993 0f12 6243     	        muls r2, r2, r4         @R
 1994 0f14 6343     	        muls r3, r3, r4         @I
 1995 0f16 9211     		asrs r2, r2, # 6
 1996 0f18 9B11     		asrs r3, r3, # 6
 1997 0f1a 4446     		mov r4, r8
 1998 0f1c 4D46     		mov r5, r9
 1999 0f1e A418     		adds r4, r4, r2        
 2000 0f20 ED18     		adds r5, r5, r3
 2001 0f22 A046     		mov r8, r4		@SIN_R
 2002 0f24 A946     		mov r9, r5		@SIN_I
 2003              	
 2004              		@1
 2005 0f26 03BC     		pop {r0-r1}
 2006 0f28 0246     		mov r2, r0
 2007 0f2a 0B46     		mov r3, r1
 2008              		
 2009 0f2c 5546     		mov r5, r10
 2010 0f2e 2C88     		ldrh r4, [r5]
 2011 0f30 0235     		adds r5, r5, # 2
 2012 0f32 AA46     		mov r10, r5
 2013 0f34 6043     		muls r0, r0, r4		@R
 2014 0f36 6143     		muls r1, r1, r4		@I
 2015 0f38 8011     		asrs r0, r0, # 6
 2016 0f3a 8911     		asrs r1, r1, # 6
 2017 0f3c 3618     		adds r6, r6, r0	       @COS_R
 2018 0f3e 7F18     		adds r7, r7, r1	       @COS_I
 2019              	
 2020 0f40 7546     	        mov r5, r14
 2021 0f42 2C88     	        ldrh r4, [r5]
 2022 0f44 0235     	        adds r5, r5, # 2
 2023 0f46 AE46     	        mov r14, r5
 2024 0f48 6243     	        muls r2, r2, r4         @R
 2025 0f4a 6343     	        muls r3, r3, r4         @I
 2026 0f4c 9211     		asrs r2, r2, # 6
 2027 0f4e 9B11     		asrs r3, r3, # 6
 2028 0f50 4446     		mov r4, r8
 2029 0f52 4D46     		mov r5, r9
 2030 0f54 A418     		adds r4, r4, r2        
 2031 0f56 ED18     		adds r5, r5, r3
 2032 0f58 A046     		mov r8, r4		@SIN_R
 2033 0f5a A946     		mov r9, r5		@SIN_I
 2034              	
 2035              		@2
 2036 0f5c 03BC     		pop {r0-r1}
 2037 0f5e 0246     		mov r2, r0
 2038 0f60 0B46     		mov r3, r1
 2039              		
 2040 0f62 5546     		mov r5, r10
ARM GAS  1.s 			page 37


 2041 0f64 2C88     		ldrh r4, [r5]
 2042 0f66 0235     		adds r5, r5, # 2
 2043 0f68 AA46     		mov r10, r5
 2044 0f6a 6043     		muls r0, r0, r4		@R
 2045 0f6c 6143     		muls r1, r1, r4		@I
 2046 0f6e 8011     		asrs r0, r0, # 6
 2047 0f70 8911     		asrs r1, r1, # 6
 2048 0f72 3618     		adds r6, r6, r0	       @COS_R
 2049 0f74 7F18     		adds r7, r7, r1	       @COS_I
 2050              	
 2051 0f76 7546     	        mov r5, r14
 2052 0f78 2C88     	        ldrh r4, [r5]
 2053 0f7a 0235     	        adds r5, r5, # 2
 2054 0f7c AE46     	        mov r14, r5
 2055 0f7e 6243     	        muls r2, r2, r4         @R
 2056 0f80 6343     	        muls r3, r3, r4         @I
 2057 0f82 9211     		asrs r2, r2, # 6
 2058 0f84 9B11     		asrs r3, r3, # 6
 2059 0f86 4446     		mov r4, r8
 2060 0f88 4D46     		mov r5, r9
 2061 0f8a A418     		adds r4, r4, r2        
 2062 0f8c ED18     		adds r5, r5, r3
 2063 0f8e A046     		mov r8, r4		@SIN_R
 2064 0f90 A946     		mov r9, r5		@SIN_I
 2065              		
 2066              		@3
 2067 0f92 03BC     		pop {r0-r1}
 2068 0f94 0246     		mov r2, r0
 2069 0f96 0B46     		mov r3, r1
 2070              		
 2071 0f98 5546     		mov r5, r10
 2072 0f9a 2C88     		ldrh r4, [r5]
 2073 0f9c 0235     		adds r5, r5, # 2
 2074 0f9e AA46     		mov r10, r5
 2075 0fa0 6043     		muls r0, r0, r4		@R
 2076 0fa2 6143     		muls r1, r1, r4		@I
 2077 0fa4 8011     		asrs r0, r0, # 6
 2078 0fa6 8911     		asrs r1, r1, # 6
 2079 0fa8 3618     		adds r6, r6, r0	       @COS_R
 2080 0faa 7F18     		adds r7, r7, r1	       @COS_I
 2081              	
 2082 0fac 7546     	        mov r5, r14
 2083 0fae 2C88     	        ldrh r4, [r5]
 2084 0fb0 0235     	        adds r5, r5, # 2
 2085 0fb2 AE46     	        mov r14, r5
 2086 0fb4 6243     	        muls r2, r2, r4         @R
 2087 0fb6 6343     	        muls r3, r3, r4         @I
 2088 0fb8 9211     		asrs r2, r2, # 6
 2089 0fba 9B11     		asrs r3, r3, # 6
 2090 0fbc 4446     		mov r4, r8
 2091 0fbe 4D46     		mov r5, r9
 2092 0fc0 A418     		adds r4, r4, r2        
 2093 0fc2 ED18     		adds r5, r5, r3
 2094 0fc4 A046     		mov r8, r4		@SIN_R
 2095 0fc6 A946     		mov r9, r5		@SIN_I
 2096              	
 2097              		@4
ARM GAS  1.s 			page 38


 2098 0fc8 03BC     		pop {r0-r1}
 2099 0fca 0246     		mov r2, r0
 2100 0fcc 0B46     		mov r3, r1
 2101              		
 2102 0fce 5546     		mov r5, r10
 2103 0fd0 2C88     		ldrh r4, [r5]
 2104 0fd2 0235     		adds r5, r5, # 2
 2105 0fd4 AA46     		mov r10, r5
 2106 0fd6 6043     		muls r0, r0, r4		@R
 2107 0fd8 6143     		muls r1, r1, r4		@I
 2108 0fda 8011     		asrs r0, r0, # 6
 2109 0fdc 8911     		asrs r1, r1, # 6
 2110 0fde 3618     		adds r6, r6, r0	       @COS_R
 2111 0fe0 7F18     		adds r7, r7, r1	       @COS_I
 2112              	
 2113 0fe2 7546     	        mov r5, r14
 2114 0fe4 2C88     	        ldrh r4, [r5]
 2115 0fe6 0235     	        adds r5, r5, # 2
 2116 0fe8 AE46     	        mov r14, r5
 2117 0fea 6243     	        muls r2, r2, r4         @R
 2118 0fec 6343     	        muls r3, r3, r4         @I
 2119 0fee 9211     		asrs r2, r2, # 6
 2120 0ff0 9B11     		asrs r3, r3, # 6
 2121 0ff2 4446     		mov r4, r8
 2122 0ff4 4D46     		mov r5, r9
 2123 0ff6 A418     		adds r4, r4, r2        
 2124 0ff8 ED18     		adds r5, r5, r3
 2125 0ffa A046     		mov r8, r4		@SIN_R
 2126 0ffc A946     		mov r9, r5		@SIN_I
 2127              	
 2128              		@5
 2129 0ffe 03BC     			pop {r0-r1}
 2130 1000 0246     		mov r2, r0
 2131 1002 0B46     		mov r3, r1
 2132              		
 2133 1004 5546     		mov r5, r10
 2134 1006 2C88     		ldrh r4, [r5]
 2135 1008 0235     		adds r5, r5, # 2
 2136 100a AA46     		mov r10, r5
 2137 100c 6043     		muls r0, r0, r4		@R
 2138 100e 6143     		muls r1, r1, r4		@I
 2139 1010 8011     		asrs r0, r0, # 6
 2140 1012 8911     		asrs r1, r1, # 6
 2141 1014 3618     		adds r6, r6, r0	       @COS_R
 2142 1016 7F18     		adds r7, r7, r1	       @COS_I
 2143              	
 2144 1018 7546     	        mov r5, r14
 2145 101a 2C88     	        ldrh r4, [r5]
 2146 101c 0235     	        adds r5, r5, # 2
 2147 101e AE46     	        mov r14, r5
 2148 1020 6243     	        muls r2, r2, r4         @R
 2149 1022 6343     	        muls r3, r3, r4         @I
 2150 1024 9211     		asrs r2, r2, # 6
 2151 1026 9B11     		asrs r3, r3, # 6
 2152 1028 4446     		mov r4, r8
 2153 102a 4D46     		mov r5, r9
 2154 102c A418     		adds r4, r4, r2        
ARM GAS  1.s 			page 39


 2155 102e ED18     		adds r5, r5, r3
 2156 1030 A046     		mov r8, r4		@SIN_R
 2157 1032 A946     		mov r9, r5		@SIN_I
 2158              		
 2159              		@6
 2160 1034 03BC     			pop {r0-r1}
 2161 1036 0246     		mov r2, r0
 2162 1038 0B46     		mov r3, r1
 2163              		
 2164 103a 5546     		mov r5, r10
 2165 103c 2C88     		ldrh r4, [r5]
 2166 103e 0235     		adds r5, r5, # 2
 2167 1040 AA46     		mov r10, r5
 2168 1042 6043     		muls r0, r0, r4		@R
 2169 1044 6143     		muls r1, r1, r4		@I
 2170 1046 8011     		asrs r0, r0, # 6
 2171 1048 8911     		asrs r1, r1, # 6
 2172 104a 3618     		adds r6, r6, r0	       @COS_R
 2173 104c 7F18     		adds r7, r7, r1	       @COS_I
 2174              	
 2175 104e 7546     	        mov r5, r14
 2176 1050 2C88     	        ldrh r4, [r5]
 2177 1052 0235     	        adds r5, r5, # 2
 2178 1054 AE46     	        mov r14, r5
 2179 1056 6243     	        muls r2, r2, r4         @R
 2180 1058 6343     	        muls r3, r3, r4         @I
 2181 105a 9211     		asrs r2, r2, # 6
 2182 105c 9B11     		asrs r3, r3, # 6
 2183 105e 4446     		mov r4, r8
 2184 1060 4D46     		mov r5, r9
 2185 1062 A418     		adds r4, r4, r2        
 2186 1064 ED18     		adds r5, r5, r3
 2187 1066 A046     		mov r8, r4		@SIN_R
 2188 1068 A946     		mov r9, r5		@SIN_I
 2189              	
 2190              		@7
 2191 106a 03BC     			pop {r0-r1}
 2192 106c 0246     		mov r2, r0
 2193 106e 0B46     		mov r3, r1
 2194              		
 2195 1070 5546     		mov r5, r10
 2196 1072 2C88     		ldrh r4, [r5]
 2197 1074 0235     		adds r5, r5, # 2
 2198 1076 AA46     		mov r10, r5
 2199 1078 6043     		muls r0, r0, r4		@R
 2200 107a 6143     		muls r1, r1, r4		@I
 2201 107c 8011     		asrs r0, r0, # 6
 2202 107e 8911     		asrs r1, r1, # 6
 2203 1080 3618     		adds r6, r6, r0	       @COS_R
 2204 1082 7F18     		adds r7, r7, r1	       @COS_I
 2205              	
 2206 1084 7546     	        mov r5, r14
 2207 1086 2C88     	        ldrh r4, [r5]
 2208 1088 0235     	        adds r5, r5, # 2
 2209 108a AE46     	        mov r14, r5
 2210 108c 6243     	        muls r2, r2, r4         @R
 2211 108e 6343     	        muls r3, r3, r4         @I
ARM GAS  1.s 			page 40


 2212 1090 9211     		asrs r2, r2, # 6
 2213 1092 9B11     		asrs r3, r3, # 6
 2214 1094 4446     		mov r4, r8
 2215 1096 4D46     		mov r5, r9
 2216 1098 A418     		adds r4, r4, r2        
 2217 109a ED18     		adds r5, r5, r3
 2218 109c A046     		mov r8, r4		@SIN_R
 2219 109e A946     		mov r9, r5		@SIN_I
 2220              	
 2221              		@8
 2222 10a0 03BC     			pop {r0-r1}
 2223 10a2 0246     		mov r2, r0
 2224 10a4 0B46     		mov r3, r1
 2225              		
 2226 10a6 5546     		mov r5, r10
 2227 10a8 2C88     		ldrh r4, [r5]
 2228 10aa 0235     		adds r5, r5, # 2
 2229 10ac AA46     		mov r10, r5
 2230 10ae 6043     		muls r0, r0, r4		@R
 2231 10b0 6143     		muls r1, r1, r4		@I
 2232 10b2 8011     		asrs r0, r0, # 6
 2233 10b4 8911     		asrs r1, r1, # 6
 2234 10b6 3618     		adds r6, r6, r0	       @COS_R
 2235 10b8 7F18     		adds r7, r7, r1	       @COS_I
 2236              	
 2237 10ba 7546     	        mov r5, r14
 2238 10bc 2C88     	        ldrh r4, [r5]
 2239 10be 0235     	        adds r5, r5, # 2
 2240 10c0 AE46     	        mov r14, r5
 2241 10c2 6243     	        muls r2, r2, r4         @R
 2242 10c4 6343     	        muls r3, r3, r4         @I
 2243 10c6 9211     		asrs r2, r2, # 6
 2244 10c8 9B11     		asrs r3, r3, # 6
 2245 10ca 4446     		mov r4, r8
 2246 10cc 4D46     		mov r5, r9
 2247 10ce A418     		adds r4, r4, r2        
 2248 10d0 ED18     		adds r5, r5, r3
 2249 10d2 A046     		mov r8, r4		@SIN_R
 2250 10d4 A946     		mov r9, r5		@SIN_I
 2251              	
 2252              		@9
 2253 10d6 03BC     			pop {r0-r1}
 2254 10d8 0246     		mov r2, r0
 2255 10da 0B46     		mov r3, r1
 2256              		
 2257 10dc 5546     		mov r5, r10
 2258 10de 2C88     		ldrh r4, [r5]
 2259 10e0 0235     		adds r5, r5, # 2
 2260 10e2 AA46     		mov r10, r5
 2261 10e4 6043     		muls r0, r0, r4		@R
 2262 10e6 6143     		muls r1, r1, r4		@I
 2263 10e8 8011     		asrs r0, r0, # 6
 2264 10ea 8911     		asrs r1, r1, # 6
 2265 10ec 3618     		adds r6, r6, r0	       @COS_R
 2266 10ee 7F18     		adds r7, r7, r1	       @COS_I
 2267              	
 2268 10f0 7546     	        mov r5, r14
ARM GAS  1.s 			page 41


 2269 10f2 2C88     	        ldrh r4, [r5]
 2270 10f4 0235     	        adds r5, r5, # 2
 2271 10f6 AE46     	        mov r14, r5
 2272 10f8 6243     	        muls r2, r2, r4         @R
 2273 10fa 6343     	        muls r3, r3, r4         @I
 2274 10fc 9211     		asrs r2, r2, # 6
 2275 10fe 9B11     		asrs r3, r3, # 6
 2276 1100 4446     		mov r4, r8
 2277 1102 4D46     		mov r5, r9
 2278 1104 A418     		adds r4, r4, r2        
 2279 1106 ED18     		adds r5, r5, r3
 2280 1108 A046     		mov r8, r4		@SIN_R
 2281 110a A946     		mov r9, r5		@SIN_I
 2282              	
 2283              	@yjm4
 2284              			@0
 2285 110c 03BC     		pop {r0-r1}
 2286 110e 0246     		mov r2, r0
 2287 1110 0B46     		mov r3, r1
 2288              		
 2289 1112 5546     		mov r5, r10
 2290 1114 2C88     		ldrh r4, [r5]
 2291 1116 0235     		adds r5, r5, # 2
 2292 1118 AA46     		mov r10, r5
 2293 111a 6043     		muls r0, r0, r4		@R
 2294 111c 6143     		muls r1, r1, r4		@I
 2295 111e 8011     		asrs r0, r0, # 6
 2296 1120 8911     		asrs r1, r1, # 6
 2297 1122 3618     		adds r6, r6, r0	       @COS_R
 2298 1124 7F18     		adds r7, r7, r1	       @COS_I
 2299              	
 2300 1126 7546     	        mov r5, r14
 2301 1128 2C88     	        ldrh r4, [r5]
 2302 112a 0235     	        adds r5, r5, # 2
 2303 112c AE46     	        mov r14, r5
 2304 112e 6243     	        muls r2, r2, r4         @R
 2305 1130 6343     	        muls r3, r3, r4         @I
 2306 1132 9211     		asrs r2, r2, # 6
 2307 1134 9B11     		asrs r3, r3, # 6
 2308 1136 4446     		mov r4, r8
 2309 1138 4D46     		mov r5, r9
 2310 113a A418     		adds r4, r4, r2        
 2311 113c ED18     		adds r5, r5, r3
 2312 113e A046     		mov r8, r4		@SIN_R
 2313 1140 A946     		mov r9, r5		@SIN_I
 2314              	
 2315              		@1
 2316 1142 03BC     		pop {r0-r1}
 2317 1144 0246     		mov r2, r0
 2318 1146 0B46     		mov r3, r1
 2319              		
 2320 1148 5546     		mov r5, r10
 2321 114a 2C88     		ldrh r4, [r5]
 2322 114c 0235     		adds r5, r5, # 2
 2323 114e AA46     		mov r10, r5
 2324 1150 6043     		muls r0, r0, r4		@R
 2325 1152 6143     		muls r1, r1, r4		@I
ARM GAS  1.s 			page 42


 2326 1154 8011     		asrs r0, r0, # 6
 2327 1156 8911     		asrs r1, r1, # 6
 2328 1158 3618     		adds r6, r6, r0	       @COS_R
 2329 115a 7F18     		adds r7, r7, r1	       @COS_I
 2330              	
 2331 115c 7546     	        mov r5, r14
 2332 115e 2C88     	        ldrh r4, [r5]
 2333 1160 0235     	        adds r5, r5, # 2
 2334 1162 AE46     	        mov r14, r5
 2335 1164 6243     	        muls r2, r2, r4         @R
 2336 1166 6343     	        muls r3, r3, r4         @I
 2337 1168 9211     		asrs r2, r2, # 6
 2338 116a 9B11     		asrs r3, r3, # 6
 2339 116c 4446     		mov r4, r8
 2340 116e 4D46     		mov r5, r9
 2341 1170 A418     		adds r4, r4, r2        
 2342 1172 ED18     		adds r5, r5, r3
 2343 1174 A046     		mov r8, r4		@SIN_R
 2344 1176 A946     		mov r9, r5		@SIN_I
 2345              	
 2346              		@2
 2347 1178 03BC     		pop {r0-r1}
 2348 117a 0246     		mov r2, r0
 2349 117c 0B46     		mov r3, r1
 2350              		
 2351 117e 5546     		mov r5, r10
 2352 1180 2C88     		ldrh r4, [r5]
 2353 1182 0235     		adds r5, r5, # 2
 2354 1184 AA46     		mov r10, r5
 2355 1186 6043     		muls r0, r0, r4		@R
 2356 1188 6143     		muls r1, r1, r4		@I
 2357 118a 8011     		asrs r0, r0, # 6
 2358 118c 8911     		asrs r1, r1, # 6
 2359 118e 3618     		adds r6, r6, r0	       @COS_R
 2360 1190 7F18     		adds r7, r7, r1	       @COS_I
 2361              	
 2362 1192 7546     	        mov r5, r14
 2363 1194 2C88     	        ldrh r4, [r5]
 2364 1196 0235     	        adds r5, r5, # 2
 2365 1198 AE46     	        mov r14, r5
 2366 119a 6243     	        muls r2, r2, r4         @R
 2367 119c 6343     	        muls r3, r3, r4         @I
 2368 119e 9211     		asrs r2, r2, # 6
 2369 11a0 9B11     		asrs r3, r3, # 6
 2370 11a2 4446     		mov r4, r8
 2371 11a4 4D46     		mov r5, r9
 2372 11a6 A418     		adds r4, r4, r2        
 2373 11a8 ED18     		adds r5, r5, r3
 2374 11aa A046     		mov r8, r4		@SIN_R
 2375 11ac A946     		mov r9, r5		@SIN_I
 2376              		
 2377              		@3
 2378 11ae 03BC     		pop {r0-r1}
 2379 11b0 0246     		mov r2, r0
 2380 11b2 0B46     		mov r3, r1
 2381              		
 2382 11b4 5546     		mov r5, r10
ARM GAS  1.s 			page 43


 2383 11b6 2C88     		ldrh r4, [r5]
 2384 11b8 0235     		adds r5, r5, # 2
 2385 11ba AA46     		mov r10, r5
 2386 11bc 6043     		muls r0, r0, r4		@R
 2387 11be 6143     		muls r1, r1, r4		@I
 2388 11c0 8011     		asrs r0, r0, # 6
 2389 11c2 8911     		asrs r1, r1, # 6
 2390 11c4 3618     		adds r6, r6, r0	       @COS_R
 2391 11c6 7F18     		adds r7, r7, r1	       @COS_I
 2392              	
 2393 11c8 7546     	        mov r5, r14
 2394 11ca 2C88     	        ldrh r4, [r5]
 2395 11cc 0235     	        adds r5, r5, # 2
 2396 11ce AE46     	        mov r14, r5
 2397 11d0 6243     	        muls r2, r2, r4         @R
 2398 11d2 6343     	        muls r3, r3, r4         @I
 2399 11d4 9211     		asrs r2, r2, # 6
 2400 11d6 9B11     		asrs r3, r3, # 6
 2401 11d8 4446     		mov r4, r8
 2402 11da 4D46     		mov r5, r9
 2403 11dc A418     		adds r4, r4, r2        
 2404 11de ED18     		adds r5, r5, r3
 2405 11e0 A046     		mov r8, r4		@SIN_R
 2406 11e2 A946     		mov r9, r5		@SIN_I
 2407              	
 2408              		@4
 2409 11e4 03BC     		pop {r0-r1}
 2410 11e6 0246     		mov r2, r0
 2411 11e8 0B46     		mov r3, r1
 2412              		
 2413 11ea 5546     		mov r5, r10
 2414 11ec 2C88     		ldrh r4, [r5]
 2415 11ee 0235     		adds r5, r5, # 2
 2416 11f0 AA46     		mov r10, r5
 2417 11f2 6043     		muls r0, r0, r4		@R
 2418 11f4 6143     		muls r1, r1, r4		@I
 2419 11f6 8011     		asrs r0, r0, # 6
 2420 11f8 8911     		asrs r1, r1, # 6
 2421 11fa 3618     		adds r6, r6, r0	       @COS_R
 2422 11fc 7F18     		adds r7, r7, r1	       @COS_I
 2423              	
 2424 11fe 7546     	        mov r5, r14
 2425 1200 2C88     	        ldrh r4, [r5]
 2426 1202 0235     	        adds r5, r5, # 2
 2427 1204 AE46     	        mov r14, r5
 2428 1206 6243     	        muls r2, r2, r4         @R
 2429 1208 6343     	        muls r3, r3, r4         @I
 2430 120a 9211     		asrs r2, r2, # 6
 2431 120c 9B11     		asrs r3, r3, # 6
 2432 120e 4446     		mov r4, r8
 2433 1210 4D46     		mov r5, r9
 2434 1212 A418     		adds r4, r4, r2        
 2435 1214 ED18     		adds r5, r5, r3
 2436 1216 A046     		mov r8, r4		@SIN_R
 2437 1218 A946     		mov r9, r5		@SIN_I
 2438              	
 2439              		@5
ARM GAS  1.s 			page 44


 2440 121a 03BC     			pop {r0-r1}
 2441 121c 0246     		mov r2, r0
 2442 121e 0B46     		mov r3, r1
 2443              		
 2444 1220 5546     		mov r5, r10
 2445 1222 2C88     		ldrh r4, [r5]
 2446 1224 0235     		adds r5, r5, # 2
 2447 1226 AA46     		mov r10, r5
 2448 1228 6043     		muls r0, r0, r4		@R
 2449 122a 6143     		muls r1, r1, r4		@I
 2450 122c 8011     		asrs r0, r0, # 6
 2451 122e 8911     		asrs r1, r1, # 6
 2452 1230 3618     		adds r6, r6, r0	       @COS_R
 2453 1232 7F18     		adds r7, r7, r1	       @COS_I
 2454              	
 2455 1234 7546     	        mov r5, r14
 2456 1236 2C88     	        ldrh r4, [r5]
 2457 1238 0235     	        adds r5, r5, # 2
 2458 123a AE46     	        mov r14, r5
 2459 123c 6243     	        muls r2, r2, r4         @R
 2460 123e 6343     	        muls r3, r3, r4         @I
 2461 1240 9211     		asrs r2, r2, # 6
 2462 1242 9B11     		asrs r3, r3, # 6
 2463 1244 4446     		mov r4, r8
 2464 1246 4D46     		mov r5, r9
 2465 1248 A418     		adds r4, r4, r2        
 2466 124a ED18     		adds r5, r5, r3
 2467 124c A046     		mov r8, r4		@SIN_R
 2468 124e A946     		mov r9, r5		@SIN_I
 2469              		
 2470              		@6
 2471 1250 03BC     			pop {r0-r1}
 2472 1252 0246     		mov r2, r0
 2473 1254 0B46     		mov r3, r1
 2474              		
 2475 1256 5546     		mov r5, r10
 2476 1258 2C88     		ldrh r4, [r5]
 2477 125a 0235     		adds r5, r5, # 2
 2478 125c AA46     		mov r10, r5
 2479 125e 6043     		muls r0, r0, r4		@R
 2480 1260 6143     		muls r1, r1, r4		@I
 2481 1262 8011     		asrs r0, r0, # 6
 2482 1264 8911     		asrs r1, r1, # 6
 2483 1266 3618     		adds r6, r6, r0	       @COS_R
 2484 1268 7F18     		adds r7, r7, r1	       @COS_I
 2485              	
 2486 126a 7546     	        mov r5, r14
 2487 126c 2C88     	        ldrh r4, [r5]
 2488 126e 0235     	        adds r5, r5, # 2
 2489 1270 AE46     	        mov r14, r5
 2490 1272 6243     	        muls r2, r2, r4         @R
 2491 1274 6343     	        muls r3, r3, r4         @I
 2492 1276 9211     		asrs r2, r2, # 6
 2493 1278 9B11     		asrs r3, r3, # 6
 2494 127a 4446     		mov r4, r8
 2495 127c 4D46     		mov r5, r9
 2496 127e A418     		adds r4, r4, r2        
ARM GAS  1.s 			page 45


 2497 1280 ED18     		adds r5, r5, r3
 2498 1282 A046     		mov r8, r4		@SIN_R
 2499 1284 A946     		mov r9, r5		@SIN_I
 2500              	
 2501              		@7
 2502 1286 03BC     			pop {r0-r1}
 2503 1288 0246     		mov r2, r0
 2504 128a 0B46     		mov r3, r1
 2505              		
 2506 128c 5546     		mov r5, r10
 2507 128e 2C88     		ldrh r4, [r5]
 2508 1290 0235     		adds r5, r5, # 2
 2509 1292 AA46     		mov r10, r5
 2510 1294 6043     		muls r0, r0, r4		@R
 2511 1296 6143     		muls r1, r1, r4		@I
 2512 1298 8011     		asrs r0, r0, # 6
 2513 129a 8911     		asrs r1, r1, # 6
 2514 129c 3618     		adds r6, r6, r0	       @COS_R
 2515 129e 7F18     		adds r7, r7, r1	       @COS_I
 2516              	
 2517 12a0 7546     	        mov r5, r14
 2518 12a2 2C88     	        ldrh r4, [r5]
 2519 12a4 0235     	        adds r5, r5, # 2
 2520 12a6 AE46     	        mov r14, r5
 2521 12a8 6243     	        muls r2, r2, r4         @R
 2522 12aa 6343     	        muls r3, r3, r4         @I
 2523 12ac 9211     		asrs r2, r2, # 6
 2524 12ae 9B11     		asrs r3, r3, # 6
 2525 12b0 4446     		mov r4, r8
 2526 12b2 4D46     		mov r5, r9
 2527 12b4 A418     		adds r4, r4, r2        
 2528 12b6 ED18     		adds r5, r5, r3
 2529 12b8 A046     		mov r8, r4		@SIN_R
 2530 12ba A946     		mov r9, r5		@SIN_I
 2531              	
 2532              		@8
 2533 12bc 03BC     			pop {r0-r1}
 2534 12be 0246     		mov r2, r0
 2535 12c0 0B46     		mov r3, r1
 2536              		
 2537 12c2 5546     		mov r5, r10
 2538 12c4 2C88     		ldrh r4, [r5]
 2539 12c6 0235     		adds r5, r5, # 2
 2540 12c8 AA46     		mov r10, r5
 2541 12ca 6043     		muls r0, r0, r4		@R
 2542 12cc 6143     		muls r1, r1, r4		@I
 2543 12ce 8011     		asrs r0, r0, # 6
 2544 12d0 8911     		asrs r1, r1, # 6
 2545 12d2 3618     		adds r6, r6, r0	       @COS_R
 2546 12d4 7F18     		adds r7, r7, r1	       @COS_I
 2547              	
 2548 12d6 7546     	        mov r5, r14
 2549 12d8 2C88     	        ldrh r4, [r5]
 2550 12da 0235     	        adds r5, r5, # 2
 2551 12dc AE46     	        mov r14, r5
 2552 12de 6243     	        muls r2, r2, r4         @R
 2553 12e0 6343     	        muls r3, r3, r4         @I
ARM GAS  1.s 			page 46


 2554 12e2 9211     		asrs r2, r2, # 6
 2555 12e4 9B11     		asrs r3, r3, # 6
 2556 12e6 4446     		mov r4, r8
 2557 12e8 4D46     		mov r5, r9
 2558 12ea A418     		adds r4, r4, r2        
 2559 12ec ED18     		adds r5, r5, r3
 2560 12ee A046     		mov r8, r4		@SIN_R
 2561 12f0 A946     		mov r9, r5		@SIN_I
 2562              	
 2563              		@9
 2564 12f2 03BC     			pop {r0-r1}
 2565 12f4 0246     		mov r2, r0
 2566 12f6 0B46     		mov r3, r1
 2567              		
 2568 12f8 5546     		mov r5, r10
 2569 12fa 2C88     		ldrh r4, [r5]
 2570 12fc 0235     		adds r5, r5, # 2
 2571 12fe AA46     		mov r10, r5
 2572 1300 6043     		muls r0, r0, r4		@R
 2573 1302 6143     		muls r1, r1, r4		@I
 2574 1304 8011     		asrs r0, r0, # 6
 2575 1306 8911     		asrs r1, r1, # 6
 2576 1308 3618     		adds r6, r6, r0	       @COS_R
 2577 130a 7F18     		adds r7, r7, r1	       @COS_I
 2578              	
 2579 130c 7546     	        mov r5, r14
 2580 130e 2C88     	        ldrh r4, [r5]
 2581 1310 0235     	        adds r5, r5, # 2
 2582 1312 AE46     	        mov r14, r5
 2583 1314 6243     	        muls r2, r2, r4         @R
 2584 1316 6343     	        muls r3, r3, r4         @I
 2585 1318 9211     		asrs r2, r2, # 6
 2586 131a 9B11     		asrs r3, r3, # 6
 2587 131c 4446     		mov r4, r8
 2588 131e 4D46     		mov r5, r9
 2589 1320 A418     		adds r4, r4, r2        
 2590 1322 ED18     		adds r5, r5, r3
 2591 1324 A046     		mov r8, r4		@SIN_R
 2592 1326 A946     		mov r9, r5		@SIN_I
 2593              	
 2594              	@yjm5
 2595              			@0
 2596 1328 03BC     		pop {r0-r1}
 2597 132a 0246     		mov r2, r0
 2598 132c 0B46     		mov r3, r1
 2599              		
 2600 132e 5546     		mov r5, r10
 2601 1330 2C88     		ldrh r4, [r5]
 2602 1332 0235     		adds r5, r5, # 2
 2603 1334 AA46     		mov r10, r5
 2604 1336 6043     		muls r0, r0, r4		@R
 2605 1338 6143     		muls r1, r1, r4		@I
 2606 133a 8011     		asrs r0, r0, # 6
 2607 133c 8911     		asrs r1, r1, # 6
 2608 133e 3618     		adds r6, r6, r0	       @COS_R
 2609 1340 7F18     		adds r7, r7, r1	       @COS_I
 2610              	
ARM GAS  1.s 			page 47


 2611 1342 7546     	        mov r5, r14
 2612 1344 2C88     	        ldrh r4, [r5]
 2613 1346 0235     	        adds r5, r5, # 2
 2614 1348 AE46     	        mov r14, r5
 2615 134a 6243     	        muls r2, r2, r4         @R
 2616 134c 6343     	        muls r3, r3, r4         @I
 2617 134e 9211     		asrs r2, r2, # 6
 2618 1350 9B11     		asrs r3, r3, # 6
 2619 1352 4446     		mov r4, r8
 2620 1354 4D46     		mov r5, r9
 2621 1356 A418     		adds r4, r4, r2        
 2622 1358 ED18     		adds r5, r5, r3
 2623 135a A046     		mov r8, r4		@SIN_R
 2624 135c A946     		mov r9, r5		@SIN_I
 2625              	
 2626              		@1
 2627 135e 03BC     		pop {r0-r1}
 2628 1360 0246     		mov r2, r0
 2629 1362 0B46     		mov r3, r1
 2630              		
 2631 1364 5546     		mov r5, r10
 2632 1366 2C88     		ldrh r4, [r5]
 2633 1368 0235     		adds r5, r5, # 2
 2634 136a AA46     		mov r10, r5
 2635 136c 6043     		muls r0, r0, r4		@R
 2636 136e 6143     		muls r1, r1, r4		@I
 2637 1370 8011     		asrs r0, r0, # 6
 2638 1372 8911     		asrs r1, r1, # 6
 2639 1374 3618     		adds r6, r6, r0	       @COS_R
 2640 1376 7F18     		adds r7, r7, r1	       @COS_I
 2641              	
 2642 1378 7546     	        mov r5, r14
 2643 137a 2C88     	        ldrh r4, [r5]
 2644 137c 0235     	        adds r5, r5, # 2
 2645 137e AE46     	        mov r14, r5
 2646 1380 6243     	        muls r2, r2, r4         @R
 2647 1382 6343     	        muls r3, r3, r4         @I
 2648 1384 9211     		asrs r2, r2, # 6
 2649 1386 9B11     		asrs r3, r3, # 6
 2650 1388 4446     		mov r4, r8
 2651 138a 4D46     		mov r5, r9
 2652 138c A418     		adds r4, r4, r2        
 2653 138e ED18     		adds r5, r5, r3
 2654 1390 A046     		mov r8, r4		@SIN_R
 2655 1392 A946     		mov r9, r5		@SIN_I
 2656              	
 2657              		@2
 2658 1394 03BC     		pop {r0-r1}
 2659 1396 0246     		mov r2, r0
 2660 1398 0B46     		mov r3, r1
 2661              		
 2662 139a 5546     		mov r5, r10
 2663 139c 2C88     		ldrh r4, [r5]
 2664 139e 0235     		adds r5, r5, # 2
 2665 13a0 AA46     		mov r10, r5
 2666 13a2 6043     		muls r0, r0, r4		@R
 2667 13a4 6143     		muls r1, r1, r4		@I
ARM GAS  1.s 			page 48


 2668 13a6 8011     		asrs r0, r0, # 6
 2669 13a8 8911     		asrs r1, r1, # 6
 2670 13aa 3618     		adds r6, r6, r0	       @COS_R
 2671 13ac 7F18     		adds r7, r7, r1	       @COS_I
 2672              	
 2673 13ae 7546     	        mov r5, r14
 2674 13b0 2C88     	        ldrh r4, [r5]
 2675 13b2 0235     	        adds r5, r5, # 2
 2676 13b4 AE46     	        mov r14, r5
 2677 13b6 6243     	        muls r2, r2, r4         @R
 2678 13b8 6343     	        muls r3, r3, r4         @I
 2679 13ba 9211     		asrs r2, r2, # 6
 2680 13bc 9B11     		asrs r3, r3, # 6
 2681 13be 4446     		mov r4, r8
 2682 13c0 4D46     		mov r5, r9
 2683 13c2 A418     		adds r4, r4, r2        
 2684 13c4 ED18     		adds r5, r5, r3
 2685 13c6 A046     		mov r8, r4		@SIN_R
 2686 13c8 A946     		mov r9, r5		@SIN_I
 2687              		
 2688              		@3
 2689 13ca 03BC     		pop {r0-r1}
 2690 13cc 0246     		mov r2, r0
 2691 13ce 0B46     		mov r3, r1
 2692              		
 2693 13d0 5546     		mov r5, r10
 2694 13d2 2C88     		ldrh r4, [r5]
 2695 13d4 0235     		adds r5, r5, # 2
 2696 13d6 AA46     		mov r10, r5
 2697 13d8 6043     		muls r0, r0, r4		@R
 2698 13da 6143     		muls r1, r1, r4		@I
 2699 13dc 8011     		asrs r0, r0, # 6
 2700 13de 8911     		asrs r1, r1, # 6
 2701 13e0 3618     		adds r6, r6, r0	       @COS_R
 2702 13e2 7F18     		adds r7, r7, r1	       @COS_I
 2703              	
 2704 13e4 7546     	        mov r5, r14
 2705 13e6 2C88     	        ldrh r4, [r5]
 2706 13e8 0235     	        adds r5, r5, # 2
 2707 13ea AE46     	        mov r14, r5
 2708 13ec 6243     	        muls r2, r2, r4         @R
 2709 13ee 6343     	        muls r3, r3, r4         @I
 2710 13f0 9211     		asrs r2, r2, # 6
 2711 13f2 9B11     		asrs r3, r3, # 6
 2712 13f4 4446     		mov r4, r8
 2713 13f6 4D46     		mov r5, r9
 2714 13f8 A418     		adds r4, r4, r2        
 2715 13fa ED18     		adds r5, r5, r3
 2716 13fc A046     		mov r8, r4		@SIN_R
 2717 13fe A946     		mov r9, r5		@SIN_I
 2718              	
 2719              		@4
 2720 1400 03BC     		pop {r0-r1}
 2721 1402 0246     		mov r2, r0
 2722 1404 0B46     		mov r3, r1
 2723              		
 2724 1406 5546     		mov r5, r10
ARM GAS  1.s 			page 49


 2725 1408 2C88     		ldrh r4, [r5]
 2726 140a 0235     		adds r5, r5, # 2
 2727 140c AA46     		mov r10, r5
 2728 140e 6043     		muls r0, r0, r4		@R
 2729 1410 6143     		muls r1, r1, r4		@I
 2730 1412 8011     		asrs r0, r0, # 6
 2731 1414 8911     		asrs r1, r1, # 6
 2732 1416 3618     		adds r6, r6, r0	       @COS_R
 2733 1418 7F18     		adds r7, r7, r1	       @COS_I
 2734              	
 2735 141a 7546     	        mov r5, r14
 2736 141c 2C88     	        ldrh r4, [r5]
 2737 141e 0235     	        adds r5, r5, # 2
 2738 1420 AE46     	        mov r14, r5
 2739 1422 6243     	        muls r2, r2, r4         @R
 2740 1424 6343     	        muls r3, r3, r4         @I
 2741 1426 9211     		asrs r2, r2, # 6
 2742 1428 9B11     		asrs r3, r3, # 6
 2743 142a 4446     		mov r4, r8
 2744 142c 4D46     		mov r5, r9
 2745 142e A418     		adds r4, r4, r2        
 2746 1430 ED18     		adds r5, r5, r3
 2747 1432 A046     		mov r8, r4		@SIN_R
 2748 1434 A946     		mov r9, r5		@SIN_I
 2749              	
 2750              		@5
 2751 1436 03BC     			pop {r0-r1}
 2752 1438 0246     		mov r2, r0
 2753 143a 0B46     		mov r3, r1
 2754              		
 2755 143c 5546     		mov r5, r10
 2756 143e 2C88     		ldrh r4, [r5]
 2757 1440 0235     		adds r5, r5, # 2
 2758 1442 AA46     		mov r10, r5
 2759 1444 6043     		muls r0, r0, r4		@R
 2760 1446 6143     		muls r1, r1, r4		@I
 2761 1448 8011     		asrs r0, r0, # 6
 2762 144a 8911     		asrs r1, r1, # 6
 2763 144c 3618     		adds r6, r6, r0	       @COS_R
 2764 144e 7F18     		adds r7, r7, r1	       @COS_I
 2765              	
 2766 1450 7546     	        mov r5, r14
 2767 1452 2C88     	        ldrh r4, [r5]
 2768 1454 0235     	        adds r5, r5, # 2
 2769 1456 AE46     	        mov r14, r5
 2770 1458 6243     	        muls r2, r2, r4         @R
 2771 145a 6343     	        muls r3, r3, r4         @I
 2772 145c 9211     		asrs r2, r2, # 6
 2773 145e 9B11     		asrs r3, r3, # 6
 2774 1460 4446     		mov r4, r8
 2775 1462 4D46     		mov r5, r9
 2776 1464 A418     		adds r4, r4, r2        
 2777 1466 ED18     		adds r5, r5, r3
 2778 1468 A046     		mov r8, r4		@SIN_R
 2779 146a A946     		mov r9, r5		@SIN_I
 2780              		
 2781              		@6
ARM GAS  1.s 			page 50


 2782 146c 03BC     			pop {r0-r1}
 2783 146e 0246     		mov r2, r0
 2784 1470 0B46     		mov r3, r1
 2785              		
 2786 1472 5546     		mov r5, r10
 2787 1474 2C88     		ldrh r4, [r5]
 2788 1476 0235     		adds r5, r5, # 2
 2789 1478 AA46     		mov r10, r5
 2790 147a 6043     		muls r0, r0, r4		@R
 2791 147c 6143     		muls r1, r1, r4		@I
 2792 147e 8011     		asrs r0, r0, # 6
 2793 1480 8911     		asrs r1, r1, # 6
 2794 1482 3618     		adds r6, r6, r0	       @COS_R
 2795 1484 7F18     		adds r7, r7, r1	       @COS_I
 2796              	
 2797 1486 7546     	        mov r5, r14
 2798 1488 2C88     	        ldrh r4, [r5]
 2799 148a 0235     	        adds r5, r5, # 2
 2800 148c AE46     	        mov r14, r5
 2801 148e 6243     	        muls r2, r2, r4         @R
 2802 1490 6343     	        muls r3, r3, r4         @I
 2803 1492 9211     		asrs r2, r2, # 6
 2804 1494 9B11     		asrs r3, r3, # 6
 2805 1496 4446     		mov r4, r8
 2806 1498 4D46     		mov r5, r9
 2807 149a A418     		adds r4, r4, r2        
 2808 149c ED18     		adds r5, r5, r3
 2809 149e A046     		mov r8, r4		@SIN_R
 2810 14a0 A946     		mov r9, r5		@SIN_I
 2811              	
 2812              		@7
 2813 14a2 03BC     			pop {r0-r1}
 2814 14a4 0246     		mov r2, r0
 2815 14a6 0B46     		mov r3, r1
 2816              		
 2817 14a8 5546     		mov r5, r10
 2818 14aa 2C88     		ldrh r4, [r5]
 2819 14ac 0235     		adds r5, r5, # 2
 2820 14ae AA46     		mov r10, r5
 2821 14b0 6043     		muls r0, r0, r4		@R
 2822 14b2 6143     		muls r1, r1, r4		@I
 2823 14b4 8011     		asrs r0, r0, # 6
 2824 14b6 8911     		asrs r1, r1, # 6
 2825 14b8 3618     		adds r6, r6, r0	       @COS_R
 2826 14ba 7F18     		adds r7, r7, r1	       @COS_I
 2827              	
 2828 14bc 7546     	        mov r5, r14
 2829 14be 2C88     	        ldrh r4, [r5]
 2830 14c0 0235     	        adds r5, r5, # 2
 2831 14c2 AE46     	        mov r14, r5
 2832 14c4 6243     	        muls r2, r2, r4         @R
 2833 14c6 6343     	        muls r3, r3, r4         @I
 2834 14c8 9211     		asrs r2, r2, # 6
 2835 14ca 9B11     		asrs r3, r3, # 6
 2836 14cc 4446     		mov r4, r8
 2837 14ce 4D46     		mov r5, r9
 2838 14d0 A418     		adds r4, r4, r2        
ARM GAS  1.s 			page 51


 2839 14d2 ED18     		adds r5, r5, r3
 2840 14d4 A046     		mov r8, r4		@SIN_R
 2841 14d6 A946     		mov r9, r5		@SIN_I
 2842              	
 2843              		@8
 2844 14d8 03BC     			pop {r0-r1}
 2845 14da 0246     		mov r2, r0
 2846 14dc 0B46     		mov r3, r1
 2847              		
 2848 14de 5546     		mov r5, r10
 2849 14e0 2C88     		ldrh r4, [r5]
 2850 14e2 0235     		adds r5, r5, # 2
 2851 14e4 AA46     		mov r10, r5
 2852 14e6 6043     		muls r0, r0, r4		@R
 2853 14e8 6143     		muls r1, r1, r4		@I
 2854 14ea 8011     		asrs r0, r0, # 6
 2855 14ec 8911     		asrs r1, r1, # 6
 2856 14ee 3618     		adds r6, r6, r0	       @COS_R
 2857 14f0 7F18     		adds r7, r7, r1	       @COS_I
 2858              	
 2859 14f2 7546     	        mov r5, r14
 2860 14f4 2C88     	        ldrh r4, [r5]
 2861 14f6 0235     	        adds r5, r5, # 2
 2862 14f8 AE46     	        mov r14, r5
 2863 14fa 6243     	        muls r2, r2, r4         @R
 2864 14fc 6343     	        muls r3, r3, r4         @I
 2865 14fe 9211     		asrs r2, r2, # 6
 2866 1500 9B11     		asrs r3, r3, # 6
 2867 1502 4446     		mov r4, r8
 2868 1504 4D46     		mov r5, r9
 2869 1506 A418     		adds r4, r4, r2        
 2870 1508 ED18     		adds r5, r5, r3
 2871 150a A046     		mov r8, r4		@SIN_R
 2872 150c A946     		mov r9, r5		@SIN_I
 2873              	
 2874              		@9
 2875 150e 03BC     			pop {r0-r1}
 2876 1510 0246     		mov r2, r0
 2877 1512 0B46     		mov r3, r1
 2878              		
 2879 1514 5546     		mov r5, r10
 2880 1516 2C88     		ldrh r4, [r5]
 2881 1518 0235     		adds r5, r5, # 2
 2882 151a AA46     		mov r10, r5
 2883 151c 6043     		muls r0, r0, r4		@R
 2884 151e 6143     		muls r1, r1, r4		@I
 2885 1520 8011     		asrs r0, r0, # 6
 2886 1522 8911     		asrs r1, r1, # 6
 2887 1524 3618     		adds r6, r6, r0	       @COS_R
 2888 1526 7F18     		adds r7, r7, r1	       @COS_I
 2889              	
 2890 1528 7546     	        mov r5, r14
 2891 152a 2C88     	        ldrh r4, [r5]
 2892 152c 0235     	        adds r5, r5, # 2
 2893 152e AE46     	        mov r14, r5
 2894 1530 6243     	        muls r2, r2, r4         @R
 2895 1532 6343     	        muls r3, r3, r4         @I
ARM GAS  1.s 			page 52


 2896 1534 9211     		asrs r2, r2, # 6
 2897 1536 9B11     		asrs r3, r3, # 6
 2898 1538 4446     		mov r4, r8
 2899 153a 4D46     		mov r5, r9
 2900 153c A418     		adds r4, r4, r2        
 2901 153e ED18     		adds r5, r5, r3
 2902 1540 A046     		mov r8, r4		@SIN_R
 2903 1542 A946     		mov r9, r5		@SIN_I
 2904              	
 2905              	@yjm6
 2906              			@0
 2907 1544 03BC     		pop {r0-r1}
 2908 1546 0246     		mov r2, r0
 2909 1548 0B46     		mov r3, r1
 2910              		
 2911 154a 5546     		mov r5, r10
 2912 154c 2C88     		ldrh r4, [r5]
 2913 154e 0235     		adds r5, r5, # 2
 2914 1550 AA46     		mov r10, r5
 2915 1552 6043     		muls r0, r0, r4		@R
 2916 1554 6143     		muls r1, r1, r4		@I
 2917 1556 8011     		asrs r0, r0, # 6
 2918 1558 8911     		asrs r1, r1, # 6
 2919 155a 3618     		adds r6, r6, r0	       @COS_R
 2920 155c 7F18     		adds r7, r7, r1	       @COS_I
 2921              	
 2922 155e 7546     	        mov r5, r14
 2923 1560 2C88     	        ldrh r4, [r5]
 2924 1562 0235     	        adds r5, r5, # 2
 2925 1564 AE46     	        mov r14, r5
 2926 1566 6243     	        muls r2, r2, r4         @R
 2927 1568 6343     	        muls r3, r3, r4         @I
 2928 156a 9211     		asrs r2, r2, # 6
 2929 156c 9B11     		asrs r3, r3, # 6
 2930 156e 4446     		mov r4, r8
 2931 1570 4D46     		mov r5, r9
 2932 1572 A418     		adds r4, r4, r2        
 2933 1574 ED18     		adds r5, r5, r3
 2934 1576 A046     		mov r8, r4		@SIN_R
 2935 1578 A946     		mov r9, r5		@SIN_I
 2936              	
 2937              		@1
 2938 157a 03BC     		pop {r0-r1}
 2939 157c 0246     		mov r2, r0
 2940 157e 0B46     		mov r3, r1
 2941              		
 2942 1580 5546     		mov r5, r10
 2943 1582 2C88     		ldrh r4, [r5]
 2944 1584 0235     		adds r5, r5, # 2
 2945 1586 AA46     		mov r10, r5
 2946 1588 6043     		muls r0, r0, r4		@R
 2947 158a 6143     		muls r1, r1, r4		@I
 2948 158c 8011     		asrs r0, r0, # 6
 2949 158e 8911     		asrs r1, r1, # 6
 2950 1590 3618     		adds r6, r6, r0	       @COS_R
 2951 1592 7F18     		adds r7, r7, r1	       @COS_I
 2952              	
ARM GAS  1.s 			page 53


 2953 1594 7546     	        mov r5, r14
 2954 1596 2C88     	        ldrh r4, [r5]
 2955 1598 0235     	        adds r5, r5, # 2
 2956 159a AE46     	        mov r14, r5
 2957 159c 6243     	        muls r2, r2, r4         @R
 2958 159e 6343     	        muls r3, r3, r4         @I
 2959 15a0 9211     		asrs r2, r2, # 6
 2960 15a2 9B11     		asrs r3, r3, # 6
 2961 15a4 4446     		mov r4, r8
 2962 15a6 4D46     		mov r5, r9
 2963 15a8 A418     		adds r4, r4, r2        
 2964 15aa ED18     		adds r5, r5, r3
 2965 15ac A046     		mov r8, r4		@SIN_R
 2966 15ae A946     		mov r9, r5		@SIN_I
 2967              	
 2968              		@2
 2969 15b0 03BC     		pop {r0-r1}
 2970 15b2 0246     		mov r2, r0
 2971 15b4 0B46     		mov r3, r1
 2972              		
 2973 15b6 5546     		mov r5, r10
 2974 15b8 2C88     		ldrh r4, [r5]
 2975 15ba 0235     		adds r5, r5, # 2
 2976 15bc AA46     		mov r10, r5
 2977 15be 6043     		muls r0, r0, r4		@R
 2978 15c0 6143     		muls r1, r1, r4		@I
 2979 15c2 8011     		asrs r0, r0, # 6
 2980 15c4 8911     		asrs r1, r1, # 6
 2981 15c6 3618     		adds r6, r6, r0	       @COS_R
 2982 15c8 7F18     		adds r7, r7, r1	       @COS_I
 2983              	
 2984 15ca 7546     	        mov r5, r14
 2985 15cc 2C88     	        ldrh r4, [r5]
 2986 15ce 0235     	        adds r5, r5, # 2
 2987 15d0 AE46     	        mov r14, r5
 2988 15d2 6243     	        muls r2, r2, r4         @R
 2989 15d4 6343     	        muls r3, r3, r4         @I
 2990 15d6 9211     		asrs r2, r2, # 6
 2991 15d8 9B11     		asrs r3, r3, # 6
 2992 15da 4446     		mov r4, r8
 2993 15dc 4D46     		mov r5, r9
 2994 15de A418     		adds r4, r4, r2        
 2995 15e0 ED18     		adds r5, r5, r3
 2996 15e2 A046     		mov r8, r4		@SIN_R
 2997 15e4 A946     		mov r9, r5		@SIN_I
 2998              		
 2999              		@3
 3000 15e6 03BC     		pop {r0-r1}
 3001 15e8 0246     		mov r2, r0
 3002 15ea 0B46     		mov r3, r1
 3003              		
 3004 15ec 5546     		mov r5, r10
 3005 15ee 2C88     		ldrh r4, [r5]
 3006 15f0 0235     		adds r5, r5, # 2
 3007 15f2 AA46     		mov r10, r5
 3008 15f4 6043     		muls r0, r0, r4		@R
 3009 15f6 6143     		muls r1, r1, r4		@I
ARM GAS  1.s 			page 54


 3010 15f8 8011     		asrs r0, r0, # 6
 3011 15fa 8911     		asrs r1, r1, # 6
 3012 15fc 3618     		adds r6, r6, r0	       @COS_R
 3013 15fe 7F18     		adds r7, r7, r1	       @COS_I
 3014              	
 3015 1600 7546     	        mov r5, r14
 3016 1602 2C88     	        ldrh r4, [r5]
 3017 1604 0235     	        adds r5, r5, # 2
 3018 1606 AE46     	        mov r14, r5
 3019 1608 6243     	        muls r2, r2, r4         @R
 3020 160a 6343     	        muls r3, r3, r4         @I
 3021 160c 9211     		asrs r2, r2, # 6
 3022 160e 9B11     		asrs r3, r3, # 6
 3023 1610 4446     		mov r4, r8
 3024 1612 4D46     		mov r5, r9
 3025 1614 A418     		adds r4, r4, r2        
 3026 1616 ED18     		adds r5, r5, r3
 3027 1618 A046     		mov r8, r4		@SIN_R
 3028 161a A946     		mov r9, r5		@SIN_I
 3029              	
 3030              		@4
 3031 161c 03BC     		pop {r0-r1}
 3032 161e 0246     		mov r2, r0
 3033 1620 0B46     		mov r3, r1
 3034              		
 3035 1622 5546     		mov r5, r10
 3036 1624 2C88     		ldrh r4, [r5]
 3037 1626 0235     		adds r5, r5, # 2
 3038 1628 AA46     		mov r10, r5
 3039 162a 6043     		muls r0, r0, r4		@R
 3040 162c 6143     		muls r1, r1, r4		@I
 3041 162e 8011     		asrs r0, r0, # 6
 3042 1630 8911     		asrs r1, r1, # 6
 3043 1632 3618     		adds r6, r6, r0	       @COS_R
 3044 1634 7F18     		adds r7, r7, r1	       @COS_I
 3045              	
 3046 1636 7546     	        mov r5, r14
 3047 1638 2C88     	        ldrh r4, [r5]
 3048 163a 0235     	        adds r5, r5, # 2
 3049 163c AE46     	        mov r14, r5
 3050 163e 6243     	        muls r2, r2, r4         @R
 3051 1640 6343     	        muls r3, r3, r4         @I
 3052 1642 9211     		asrs r2, r2, # 6
 3053 1644 9B11     		asrs r3, r3, # 6
 3054 1646 4446     		mov r4, r8
 3055 1648 4D46     		mov r5, r9
 3056 164a A418     		adds r4, r4, r2        
 3057 164c ED18     		adds r5, r5, r3
 3058 164e A046     		mov r8, r4		@SIN_R
 3059 1650 A946     		mov r9, r5		@SIN_I
 3060              	
 3061              		@5
 3062 1652 03BC     			pop {r0-r1}
 3063 1654 0246     		mov r2, r0
 3064 1656 0B46     		mov r3, r1
 3065              		
 3066 1658 5546     		mov r5, r10
ARM GAS  1.s 			page 55


 3067 165a 2C88     		ldrh r4, [r5]
 3068 165c 0235     		adds r5, r5, # 2
 3069 165e AA46     		mov r10, r5
 3070 1660 6043     		muls r0, r0, r4		@R
 3071 1662 6143     		muls r1, r1, r4		@I
 3072 1664 8011     		asrs r0, r0, # 6
 3073 1666 8911     		asrs r1, r1, # 6
 3074 1668 3618     		adds r6, r6, r0	       @COS_R
 3075 166a 7F18     		adds r7, r7, r1	       @COS_I
 3076              	
 3077 166c 7546     	        mov r5, r14
 3078 166e 2C88     	        ldrh r4, [r5]
 3079 1670 0235     	        adds r5, r5, # 2
 3080 1672 AE46     	        mov r14, r5
 3081 1674 6243     	        muls r2, r2, r4         @R
 3082 1676 6343     	        muls r3, r3, r4         @I
 3083 1678 9211     		asrs r2, r2, # 6
 3084 167a 9B11     		asrs r3, r3, # 6
 3085 167c 4446     		mov r4, r8
 3086 167e 4D46     		mov r5, r9
 3087 1680 A418     		adds r4, r4, r2        
 3088 1682 ED18     		adds r5, r5, r3
 3089 1684 A046     		mov r8, r4		@SIN_R
 3090 1686 A946     		mov r9, r5		@SIN_I
 3091              		
 3092              		@6
 3093 1688 03BC     			pop {r0-r1}
 3094 168a 0246     		mov r2, r0
 3095 168c 0B46     		mov r3, r1
 3096              		
 3097 168e 5546     		mov r5, r10
 3098 1690 2C88     		ldrh r4, [r5]
 3099 1692 0235     		adds r5, r5, # 2
 3100 1694 AA46     		mov r10, r5
 3101 1696 6043     		muls r0, r0, r4		@R
 3102 1698 6143     		muls r1, r1, r4		@I
 3103 169a 8011     		asrs r0, r0, # 6
 3104 169c 8911     		asrs r1, r1, # 6
 3105 169e 3618     		adds r6, r6, r0	       @COS_R
 3106 16a0 7F18     		adds r7, r7, r1	       @COS_I
 3107              	
 3108 16a2 7546     	        mov r5, r14
 3109 16a4 2C88     	        ldrh r4, [r5]
 3110 16a6 0235     	        adds r5, r5, # 2
 3111 16a8 AE46     	        mov r14, r5
 3112 16aa 6243     	        muls r2, r2, r4         @R
 3113 16ac 6343     	        muls r3, r3, r4         @I
 3114 16ae 9211     		asrs r2, r2, # 6
 3115 16b0 9B11     		asrs r3, r3, # 6
 3116 16b2 4446     		mov r4, r8
 3117 16b4 4D46     		mov r5, r9
 3118 16b6 A418     		adds r4, r4, r2        
 3119 16b8 ED18     		adds r5, r5, r3
 3120 16ba A046     		mov r8, r4		@SIN_R
 3121 16bc A946     		mov r9, r5		@SIN_I
 3122              	
 3123              		@7
ARM GAS  1.s 			page 56


 3124 16be 03BC     			pop {r0-r1}
 3125 16c0 0246     		mov r2, r0
 3126 16c2 0B46     		mov r3, r1
 3127              		
 3128 16c4 5546     		mov r5, r10
 3129 16c6 2C88     		ldrh r4, [r5]
 3130 16c8 0235     		adds r5, r5, # 2
 3131 16ca AA46     		mov r10, r5
 3132 16cc 6043     		muls r0, r0, r4		@R
 3133 16ce 6143     		muls r1, r1, r4		@I
 3134 16d0 8011     		asrs r0, r0, # 6
 3135 16d2 8911     		asrs r1, r1, # 6
 3136 16d4 3618     		adds r6, r6, r0	       @COS_R
 3137 16d6 7F18     		adds r7, r7, r1	       @COS_I
 3138              	
 3139 16d8 7546     	        mov r5, r14
 3140 16da 2C88     	        ldrh r4, [r5]
 3141 16dc 0235     	        adds r5, r5, # 2
 3142 16de AE46     	        mov r14, r5
 3143 16e0 6243     	        muls r2, r2, r4         @R
 3144 16e2 6343     	        muls r3, r3, r4         @I
 3145 16e4 9211     		asrs r2, r2, # 6
 3146 16e6 9B11     		asrs r3, r3, # 6
 3147 16e8 4446     		mov r4, r8
 3148 16ea 4D46     		mov r5, r9
 3149 16ec A418     		adds r4, r4, r2        
 3150 16ee ED18     		adds r5, r5, r3
 3151 16f0 A046     		mov r8, r4		@SIN_R
 3152 16f2 A946     		mov r9, r5		@SIN_I
 3153              	
 3154              		@8
 3155 16f4 03BC     			pop {r0-r1}
 3156 16f6 0246     		mov r2, r0
 3157 16f8 0B46     		mov r3, r1
 3158              		
 3159 16fa 5546     		mov r5, r10
 3160 16fc 2C88     		ldrh r4, [r5]
 3161 16fe 0235     		adds r5, r5, # 2
 3162 1700 AA46     		mov r10, r5
 3163 1702 6043     		muls r0, r0, r4		@R
 3164 1704 6143     		muls r1, r1, r4		@I
 3165 1706 8011     		asrs r0, r0, # 6
 3166 1708 8911     		asrs r1, r1, # 6
 3167 170a 3618     		adds r6, r6, r0	       @COS_R
 3168 170c 7F18     		adds r7, r7, r1	       @COS_I
 3169              	
 3170 170e 7546     	        mov r5, r14
 3171 1710 2C88     	        ldrh r4, [r5]
 3172 1712 0235     	        adds r5, r5, # 2
 3173 1714 AE46     	        mov r14, r5
 3174 1716 6243     	        muls r2, r2, r4         @R
 3175 1718 6343     	        muls r3, r3, r4         @I
 3176 171a 9211     		asrs r2, r2, # 6
 3177 171c 9B11     		asrs r3, r3, # 6
 3178 171e 4446     		mov r4, r8
 3179 1720 4D46     		mov r5, r9
 3180 1722 A418     		adds r4, r4, r2        
ARM GAS  1.s 			page 57


 3181 1724 ED18     		adds r5, r5, r3
 3182 1726 A046     		mov r8, r4		@SIN_R
 3183 1728 A946     		mov r9, r5		@SIN_I
 3184              	
 3185              		@9
 3186 172a 03BC     			pop {r0-r1}
 3187 172c 0246     		mov r2, r0
 3188 172e 0B46     		mov r3, r1
 3189              		
 3190 1730 5546     		mov r5, r10
 3191 1732 2C88     		ldrh r4, [r5]
 3192 1734 0235     		adds r5, r5, # 2
 3193 1736 AA46     		mov r10, r5
 3194 1738 6043     		muls r0, r0, r4		@R
 3195 173a 6143     		muls r1, r1, r4		@I
 3196 173c 8011     		asrs r0, r0, # 6
 3197 173e 8911     		asrs r1, r1, # 6
 3198 1740 3618     		adds r6, r6, r0	       @COS_R
 3199 1742 7F18     		adds r7, r7, r1	       @COS_I
 3200              	
 3201 1744 7546     	        mov r5, r14
 3202 1746 2C88     	        ldrh r4, [r5]
 3203 1748 0235     	        adds r5, r5, # 2
 3204 174a AE46     	        mov r14, r5
 3205 174c 6243     	        muls r2, r2, r4         @R
 3206 174e 6343     	        muls r3, r3, r4         @I
 3207 1750 9211     		asrs r2, r2, # 6
 3208 1752 9B11     		asrs r3, r3, # 6
 3209 1754 4446     		mov r4, r8
 3210 1756 4D46     		mov r5, r9
 3211 1758 A418     		adds r4, r4, r2        
 3212 175a ED18     		adds r5, r5, r3
 3213 175c A046     		mov r8, r4		@SIN_R
 3214 175e A946     		mov r9, r5		@SIN_I
 3215              	
 3216              	@yjm7
 3217              			@0
 3218 1760 03BC     		pop {r0-r1}
 3219 1762 0246     		mov r2, r0
 3220 1764 0B46     		mov r3, r1
 3221              		
 3222 1766 5546     		mov r5, r10
 3223 1768 2C88     		ldrh r4, [r5]
 3224 176a 0235     		adds r5, r5, # 2
 3225 176c AA46     		mov r10, r5
 3226 176e 6043     		muls r0, r0, r4		@R
 3227 1770 6143     		muls r1, r1, r4		@I
 3228 1772 8011     		asrs r0, r0, # 6
 3229 1774 8911     		asrs r1, r1, # 6
 3230 1776 3618     		adds r6, r6, r0	       @COS_R
 3231 1778 7F18     		adds r7, r7, r1	       @COS_I
 3232              	
 3233 177a 7546     	        mov r5, r14
 3234 177c 2C88     	        ldrh r4, [r5]
 3235 177e 0235     	        adds r5, r5, # 2
 3236 1780 AE46     	        mov r14, r5
 3237 1782 6243     	        muls r2, r2, r4         @R
ARM GAS  1.s 			page 58


 3238 1784 6343     	        muls r3, r3, r4         @I
 3239 1786 9211     		asrs r2, r2, # 6
 3240 1788 9B11     		asrs r3, r3, # 6
 3241 178a 4446     		mov r4, r8
 3242 178c 4D46     		mov r5, r9
 3243 178e A418     		adds r4, r4, r2        
 3244 1790 ED18     		adds r5, r5, r3
 3245 1792 A046     		mov r8, r4		@SIN_R
 3246 1794 A946     		mov r9, r5		@SIN_I
 3247              	
 3248              		@1
 3249 1796 03BC     		pop {r0-r1}
 3250 1798 0246     		mov r2, r0
 3251 179a 0B46     		mov r3, r1
 3252              		
 3253 179c 5546     		mov r5, r10
 3254 179e 2C88     		ldrh r4, [r5]
 3255 17a0 0235     		adds r5, r5, # 2
 3256 17a2 AA46     		mov r10, r5
 3257 17a4 6043     		muls r0, r0, r4		@R
 3258 17a6 6143     		muls r1, r1, r4		@I
 3259 17a8 8011     		asrs r0, r0, # 6
 3260 17aa 8911     		asrs r1, r1, # 6
 3261 17ac 3618     		adds r6, r6, r0	       @COS_R
 3262 17ae 7F18     		adds r7, r7, r1	       @COS_I
 3263              	
 3264 17b0 7546     	        mov r5, r14
 3265 17b2 2C88     	        ldrh r4, [r5]
 3266 17b4 0235     	        adds r5, r5, # 2
 3267 17b6 AE46     	        mov r14, r5
 3268 17b8 6243     	        muls r2, r2, r4         @R
 3269 17ba 6343     	        muls r3, r3, r4         @I
 3270 17bc 9211     		asrs r2, r2, # 6
 3271 17be 9B11     		asrs r3, r3, # 6
 3272 17c0 4446     		mov r4, r8
 3273 17c2 4D46     		mov r5, r9
 3274 17c4 A418     		adds r4, r4, r2        
 3275 17c6 ED18     		adds r5, r5, r3
 3276 17c8 A046     		mov r8, r4		@SIN_R
 3277 17ca A946     		mov r9, r5		@SIN_I
 3278              	
 3279              		@2
 3280 17cc 03BC     		pop {r0-r1}
 3281 17ce 0246     		mov r2, r0
 3282 17d0 0B46     		mov r3, r1
 3283              		
 3284 17d2 5546     		mov r5, r10
 3285 17d4 2C88     		ldrh r4, [r5]
 3286 17d6 0235     		adds r5, r5, # 2
 3287 17d8 AA46     		mov r10, r5
 3288 17da 6043     		muls r0, r0, r4		@R
 3289 17dc 6143     		muls r1, r1, r4		@I
 3290 17de 8011     		asrs r0, r0, # 6
 3291 17e0 8911     		asrs r1, r1, # 6
 3292 17e2 3618     		adds r6, r6, r0	       @COS_R
 3293 17e4 7F18     		adds r7, r7, r1	       @COS_I
 3294              	
ARM GAS  1.s 			page 59


 3295 17e6 7546     	        mov r5, r14
 3296 17e8 2C88     	        ldrh r4, [r5]
 3297 17ea 0235     	        adds r5, r5, # 2
 3298 17ec AE46     	        mov r14, r5
 3299 17ee 6243     	        muls r2, r2, r4         @R
 3300 17f0 6343     	        muls r3, r3, r4         @I
 3301 17f2 9211     		asrs r2, r2, # 6
 3302 17f4 9B11     		asrs r3, r3, # 6
 3303 17f6 4446     		mov r4, r8
 3304 17f8 4D46     		mov r5, r9
 3305 17fa A418     		adds r4, r4, r2        
 3306 17fc ED18     		adds r5, r5, r3
 3307 17fe A046     		mov r8, r4		@SIN_R
 3308 1800 A946     		mov r9, r5		@SIN_I
 3309              		
 3310              		@3
 3311 1802 03BC     		pop {r0-r1}
 3312 1804 0246     		mov r2, r0
 3313 1806 0B46     		mov r3, r1
 3314              		
 3315 1808 5546     		mov r5, r10
 3316 180a 2C88     		ldrh r4, [r5]
 3317 180c 0235     		adds r5, r5, # 2
 3318 180e AA46     		mov r10, r5
 3319 1810 6043     		muls r0, r0, r4		@R
 3320 1812 6143     		muls r1, r1, r4		@I
 3321 1814 8011     		asrs r0, r0, # 6
 3322 1816 8911     		asrs r1, r1, # 6
 3323 1818 3618     		adds r6, r6, r0	       @COS_R
 3324 181a 7F18     		adds r7, r7, r1	       @COS_I
 3325              	
 3326 181c 7546     	        mov r5, r14
 3327 181e 2C88     	        ldrh r4, [r5]
 3328 1820 0235     	        adds r5, r5, # 2
 3329 1822 AE46     	        mov r14, r5
 3330 1824 6243     	        muls r2, r2, r4         @R
 3331 1826 6343     	        muls r3, r3, r4         @I
 3332 1828 9211     		asrs r2, r2, # 6
 3333 182a 9B11     		asrs r3, r3, # 6
 3334 182c 4446     		mov r4, r8
 3335 182e 4D46     		mov r5, r9
 3336 1830 A418     		adds r4, r4, r2        
 3337 1832 ED18     		adds r5, r5, r3
 3338 1834 A046     		mov r8, r4		@SIN_R
 3339 1836 A946     		mov r9, r5		@SIN_I
 3340              	
 3341              		@4
 3342 1838 03BC     		pop {r0-r1}
 3343 183a 0246     		mov r2, r0
 3344 183c 0B46     		mov r3, r1
 3345              		
 3346 183e 5546     		mov r5, r10
 3347 1840 2C88     		ldrh r4, [r5]
 3348 1842 0235     		adds r5, r5, # 2
 3349 1844 AA46     		mov r10, r5
 3350 1846 6043     		muls r0, r0, r4		@R
 3351 1848 6143     		muls r1, r1, r4		@I
ARM GAS  1.s 			page 60


 3352 184a 8011     		asrs r0, r0, # 6
 3353 184c 8911     		asrs r1, r1, # 6
 3354 184e 3618     		adds r6, r6, r0	       @COS_R
 3355 1850 7F18     		adds r7, r7, r1	       @COS_I
 3356              	
 3357 1852 7546     	        mov r5, r14
 3358 1854 2C88     	        ldrh r4, [r5]
 3359 1856 0235     	        adds r5, r5, # 2
 3360 1858 AE46     	        mov r14, r5
 3361 185a 6243     	        muls r2, r2, r4         @R
 3362 185c 6343     	        muls r3, r3, r4         @I
 3363 185e 9211     		asrs r2, r2, # 6
 3364 1860 9B11     		asrs r3, r3, # 6
 3365 1862 4446     		mov r4, r8
 3366 1864 4D46     		mov r5, r9
 3367 1866 A418     		adds r4, r4, r2        
 3368 1868 ED18     		adds r5, r5, r3
 3369 186a A046     		mov r8, r4		@SIN_R
 3370 186c A946     		mov r9, r5		@SIN_I
 3371              	
 3372              		@5
 3373 186e 03BC     			pop {r0-r1}
 3374 1870 0246     		mov r2, r0
 3375 1872 0B46     		mov r3, r1
 3376              		
 3377 1874 5546     		mov r5, r10
 3378 1876 2C88     		ldrh r4, [r5]
 3379 1878 0235     		adds r5, r5, # 2
 3380 187a AA46     		mov r10, r5
 3381 187c 6043     		muls r0, r0, r4		@R
 3382 187e 6143     		muls r1, r1, r4		@I
 3383 1880 8011     		asrs r0, r0, # 6
 3384 1882 8911     		asrs r1, r1, # 6
 3385 1884 3618     		adds r6, r6, r0	       @COS_R
 3386 1886 7F18     		adds r7, r7, r1	       @COS_I
 3387              	
 3388 1888 7546     	        mov r5, r14
 3389 188a 2C88     	        ldrh r4, [r5]
 3390 188c 0235     	        adds r5, r5, # 2
 3391 188e AE46     	        mov r14, r5
 3392 1890 6243     	        muls r2, r2, r4         @R
 3393 1892 6343     	        muls r3, r3, r4         @I
 3394 1894 9211     		asrs r2, r2, # 6
 3395 1896 9B11     		asrs r3, r3, # 6
 3396 1898 4446     		mov r4, r8
 3397 189a 4D46     		mov r5, r9
 3398 189c A418     		adds r4, r4, r2        
 3399 189e ED18     		adds r5, r5, r3
 3400 18a0 A046     		mov r8, r4		@SIN_R
 3401 18a2 A946     		mov r9, r5		@SIN_I
 3402              		
 3403              		@6
 3404 18a4 03BC     			pop {r0-r1}
 3405 18a6 0246     		mov r2, r0
 3406 18a8 0B46     		mov r3, r1
 3407              		
 3408 18aa 5546     		mov r5, r10
ARM GAS  1.s 			page 61


 3409 18ac 2C88     		ldrh r4, [r5]
 3410 18ae 0235     		adds r5, r5, # 2
 3411 18b0 AA46     		mov r10, r5
 3412 18b2 6043     		muls r0, r0, r4		@R
 3413 18b4 6143     		muls r1, r1, r4		@I
 3414 18b6 8011     		asrs r0, r0, # 6
 3415 18b8 8911     		asrs r1, r1, # 6
 3416 18ba 3618     		adds r6, r6, r0	       @COS_R
 3417 18bc 7F18     		adds r7, r7, r1	       @COS_I
 3418              	
 3419 18be 7546     	        mov r5, r14
 3420 18c0 2C88     	        ldrh r4, [r5]
 3421 18c2 0235     	        adds r5, r5, # 2
 3422 18c4 AE46     	        mov r14, r5
 3423 18c6 6243     	        muls r2, r2, r4         @R
 3424 18c8 6343     	        muls r3, r3, r4         @I
 3425 18ca 9211     		asrs r2, r2, # 6
 3426 18cc 9B11     		asrs r3, r3, # 6
 3427 18ce 4446     		mov r4, r8
 3428 18d0 4D46     		mov r5, r9
 3429 18d2 A418     		adds r4, r4, r2        
 3430 18d4 ED18     		adds r5, r5, r3
 3431 18d6 A046     		mov r8, r4		@SIN_R
 3432 18d8 A946     		mov r9, r5		@SIN_I
 3433              	
 3434              		@7
 3435 18da 03BC     			pop {r0-r1}
 3436 18dc 0246     		mov r2, r0
 3437 18de 0B46     		mov r3, r1
 3438              		
 3439 18e0 5546     		mov r5, r10
 3440 18e2 2C88     		ldrh r4, [r5]
 3441 18e4 0235     		adds r5, r5, # 2
 3442 18e6 AA46     		mov r10, r5
 3443 18e8 6043     		muls r0, r0, r4		@R
 3444 18ea 6143     		muls r1, r1, r4		@I
 3445 18ec 8011     		asrs r0, r0, # 6
 3446 18ee 8911     		asrs r1, r1, # 6
 3447 18f0 3618     		adds r6, r6, r0	       @COS_R
 3448 18f2 7F18     		adds r7, r7, r1	       @COS_I
 3449              	
 3450 18f4 7546     	        mov r5, r14
 3451 18f6 2C88     	        ldrh r4, [r5]
 3452 18f8 0235     	        adds r5, r5, # 2
 3453 18fa AE46     	        mov r14, r5
 3454 18fc 6243     	        muls r2, r2, r4         @R
 3455 18fe 6343     	        muls r3, r3, r4         @I
 3456 1900 9211     		asrs r2, r2, # 6
 3457 1902 9B11     		asrs r3, r3, # 6
 3458 1904 4446     		mov r4, r8
 3459 1906 4D46     		mov r5, r9
 3460 1908 A418     		adds r4, r4, r2        
 3461 190a ED18     		adds r5, r5, r3
 3462 190c A046     		mov r8, r4		@SIN_R
 3463 190e A946     		mov r9, r5		@SIN_I
 3464              	
 3465              		@8
ARM GAS  1.s 			page 62


 3466 1910 03BC     			pop {r0-r1}
 3467 1912 0246     		mov r2, r0
 3468 1914 0B46     		mov r3, r1
 3469              		
 3470 1916 5546     		mov r5, r10
 3471 1918 2C88     		ldrh r4, [r5]
 3472 191a 0235     		adds r5, r5, # 2
 3473 191c AA46     		mov r10, r5
 3474 191e 6043     		muls r0, r0, r4		@R
 3475 1920 6143     		muls r1, r1, r4		@I
 3476 1922 8011     		asrs r0, r0, # 6
 3477 1924 8911     		asrs r1, r1, # 6
 3478 1926 3618     		adds r6, r6, r0	       @COS_R
 3479 1928 7F18     		adds r7, r7, r1	       @COS_I
 3480              	
 3481 192a 7546     	        mov r5, r14
 3482 192c 2C88     	        ldrh r4, [r5]
 3483 192e 0235     	        adds r5, r5, # 2
 3484 1930 AE46     	        mov r14, r5
 3485 1932 6243     	        muls r2, r2, r4         @R
 3486 1934 6343     	        muls r3, r3, r4         @I
 3487 1936 9211     		asrs r2, r2, # 6
 3488 1938 9B11     		asrs r3, r3, # 6
 3489 193a 4446     		mov r4, r8
 3490 193c 4D46     		mov r5, r9
 3491 193e A418     		adds r4, r4, r2        
 3492 1940 ED18     		adds r5, r5, r3
 3493 1942 A046     		mov r8, r4		@SIN_R
 3494 1944 A946     		mov r9, r5		@SIN_I
 3495              	
 3496              		@9
 3497 1946 03BC     			pop {r0-r1}
 3498 1948 0246     		mov r2, r0
 3499 194a 0B46     		mov r3, r1
 3500              		
 3501 194c 5546     		mov r5, r10
 3502 194e 2C88     		ldrh r4, [r5]
 3503 1950 0235     		adds r5, r5, # 2
 3504 1952 AA46     		mov r10, r5
 3505 1954 6043     		muls r0, r0, r4		@R
 3506 1956 6143     		muls r1, r1, r4		@I
 3507 1958 8011     		asrs r0, r0, # 6
 3508 195a 8911     		asrs r1, r1, # 6
 3509 195c 3618     		adds r6, r6, r0	       @COS_R
 3510 195e 7F18     		adds r7, r7, r1	       @COS_I
 3511              	
 3512 1960 7546     	        mov r5, r14
 3513 1962 2C88     	        ldrh r4, [r5]
 3514 1964 0235     	        adds r5, r5, # 2
 3515 1966 AE46     	        mov r14, r5
 3516 1968 6243     	        muls r2, r2, r4         @R
 3517 196a 6343     	        muls r3, r3, r4         @I
 3518 196c 9211     		asrs r2, r2, # 6
 3519 196e 9B11     		asrs r3, r3, # 6
 3520 1970 4446     		mov r4, r8
 3521 1972 4D46     		mov r5, r9
 3522 1974 A418     		adds r4, r4, r2        
ARM GAS  1.s 			page 63


 3523 1976 ED18     		adds r5, r5, r3
 3524 1978 A046     		mov r8, r4		@SIN_R
 3525 197a A946     		mov r9, r5		@SIN_I
 3526              	
 3527              	@yjm8
 3528              			@0
 3529 197c 03BC     		pop {r0-r1}
 3530 197e 0246     		mov r2, r0
 3531 1980 0B46     		mov r3, r1
 3532              		
 3533 1982 5546     		mov r5, r10
 3534 1984 2C88     		ldrh r4, [r5]
 3535 1986 0235     		adds r5, r5, # 2
 3536 1988 AA46     		mov r10, r5
 3537 198a 6043     		muls r0, r0, r4		@R
 3538 198c 6143     		muls r1, r1, r4		@I
 3539 198e 8011     		asrs r0, r0, # 6
 3540 1990 8911     		asrs r1, r1, # 6
 3541 1992 3618     		adds r6, r6, r0	       @COS_R
 3542 1994 7F18     		adds r7, r7, r1	       @COS_I
 3543              	
 3544 1996 7546     	        mov r5, r14
 3545 1998 2C88     	        ldrh r4, [r5]
 3546 199a 0235     	        adds r5, r5, # 2
 3547 199c AE46     	        mov r14, r5
 3548 199e 6243     	        muls r2, r2, r4         @R
 3549 19a0 6343     	        muls r3, r3, r4         @I
 3550 19a2 9211     		asrs r2, r2, # 6
 3551 19a4 9B11     		asrs r3, r3, # 6
 3552 19a6 4446     		mov r4, r8
 3553 19a8 4D46     		mov r5, r9
 3554 19aa A418     		adds r4, r4, r2        
 3555 19ac ED18     		adds r5, r5, r3
 3556 19ae A046     		mov r8, r4		@SIN_R
 3557 19b0 A946     		mov r9, r5		@SIN_I
 3558              	
 3559              		@1
 3560 19b2 03BC     		pop {r0-r1}
 3561 19b4 0246     		mov r2, r0
 3562 19b6 0B46     		mov r3, r1
 3563              		
 3564 19b8 5546     		mov r5, r10
 3565 19ba 2C88     		ldrh r4, [r5]
 3566 19bc 0235     		adds r5, r5, # 2
 3567 19be AA46     		mov r10, r5
 3568 19c0 6043     		muls r0, r0, r4		@R
 3569 19c2 6143     		muls r1, r1, r4		@I
 3570 19c4 8011     		asrs r0, r0, # 6
 3571 19c6 8911     		asrs r1, r1, # 6
 3572 19c8 3618     		adds r6, r6, r0	       @COS_R
 3573 19ca 7F18     		adds r7, r7, r1	       @COS_I
 3574              	
 3575 19cc 7546     	        mov r5, r14
 3576 19ce 2C88     	        ldrh r4, [r5]
 3577 19d0 0235     	        adds r5, r5, # 2
 3578 19d2 AE46     	        mov r14, r5
 3579 19d4 6243     	        muls r2, r2, r4         @R
ARM GAS  1.s 			page 64


 3580 19d6 6343     	        muls r3, r3, r4         @I
 3581 19d8 9211     		asrs r2, r2, # 6
 3582 19da 9B11     		asrs r3, r3, # 6
 3583 19dc 4446     		mov r4, r8
 3584 19de 4D46     		mov r5, r9
 3585 19e0 A418     		adds r4, r4, r2        
 3586 19e2 ED18     		adds r5, r5, r3
 3587 19e4 A046     		mov r8, r4		@SIN_R
 3588 19e6 A946     		mov r9, r5		@SIN_I
 3589              	
 3590              		@2
 3591 19e8 03BC     		pop {r0-r1}
 3592 19ea 0246     		mov r2, r0
 3593 19ec 0B46     		mov r3, r1
 3594              		
 3595 19ee 5546     		mov r5, r10
 3596 19f0 2C88     		ldrh r4, [r5]
 3597 19f2 0235     		adds r5, r5, # 2
 3598 19f4 AA46     		mov r10, r5
 3599 19f6 6043     		muls r0, r0, r4		@R
 3600 19f8 6143     		muls r1, r1, r4		@I
 3601 19fa 8011     		asrs r0, r0, # 6
 3602 19fc 8911     		asrs r1, r1, # 6
 3603 19fe 3618     		adds r6, r6, r0	       @COS_R
 3604 1a00 7F18     		adds r7, r7, r1	       @COS_I
 3605              	
 3606 1a02 7546     	        mov r5, r14
 3607 1a04 2C88     	        ldrh r4, [r5]
 3608 1a06 0235     	        adds r5, r5, # 2
 3609 1a08 AE46     	        mov r14, r5
 3610 1a0a 6243     	        muls r2, r2, r4         @R
 3611 1a0c 6343     	        muls r3, r3, r4         @I
 3612 1a0e 9211     		asrs r2, r2, # 6
 3613 1a10 9B11     		asrs r3, r3, # 6
 3614 1a12 4446     		mov r4, r8
 3615 1a14 4D46     		mov r5, r9
 3616 1a16 A418     		adds r4, r4, r2        
 3617 1a18 ED18     		adds r5, r5, r3
 3618 1a1a A046     		mov r8, r4		@SIN_R
 3619 1a1c A946     		mov r9, r5		@SIN_I
 3620              		
 3621              		@3
 3622 1a1e 03BC     		pop {r0-r1}
 3623 1a20 0246     		mov r2, r0
 3624 1a22 0B46     		mov r3, r1
 3625              		
 3626 1a24 5546     		mov r5, r10
 3627 1a26 2C88     		ldrh r4, [r5]
 3628 1a28 0235     		adds r5, r5, # 2
 3629 1a2a AA46     		mov r10, r5
 3630 1a2c 6043     		muls r0, r0, r4		@R
 3631 1a2e 6143     		muls r1, r1, r4		@I
 3632 1a30 8011     		asrs r0, r0, # 6
 3633 1a32 8911     		asrs r1, r1, # 6
 3634 1a34 3618     		adds r6, r6, r0	       @COS_R
 3635 1a36 7F18     		adds r7, r7, r1	       @COS_I
 3636              	
ARM GAS  1.s 			page 65


 3637 1a38 7546     	        mov r5, r14
 3638 1a3a 2C88     	        ldrh r4, [r5]
 3639 1a3c 0235     	        adds r5, r5, # 2
 3640 1a3e AE46     	        mov r14, r5
 3641 1a40 6243     	        muls r2, r2, r4         @R
 3642 1a42 6343     	        muls r3, r3, r4         @I
 3643 1a44 9211     		asrs r2, r2, # 6
 3644 1a46 9B11     		asrs r3, r3, # 6
 3645 1a48 4446     		mov r4, r8
 3646 1a4a 4D46     		mov r5, r9
 3647 1a4c A418     		adds r4, r4, r2        
 3648 1a4e ED18     		adds r5, r5, r3
 3649 1a50 A046     		mov r8, r4		@SIN_R
 3650 1a52 A946     		mov r9, r5		@SIN_I
 3651              	
 3652              		@4
 3653 1a54 03BC     		pop {r0-r1}
 3654 1a56 0246     		mov r2, r0
 3655 1a58 0B46     		mov r3, r1
 3656              		
 3657 1a5a 5546     		mov r5, r10
 3658 1a5c 2C88     		ldrh r4, [r5]
 3659 1a5e 0235     		adds r5, r5, # 2
 3660 1a60 AA46     		mov r10, r5
 3661 1a62 6043     		muls r0, r0, r4		@R
 3662 1a64 6143     		muls r1, r1, r4		@I
 3663 1a66 8011     		asrs r0, r0, # 6
 3664 1a68 8911     		asrs r1, r1, # 6
 3665 1a6a 3618     		adds r6, r6, r0	       @COS_R
 3666 1a6c 7F18     		adds r7, r7, r1	       @COS_I
 3667              	
 3668 1a6e 7546     	        mov r5, r14
 3669 1a70 2C88     	        ldrh r4, [r5]
 3670 1a72 0235     	        adds r5, r5, # 2
 3671 1a74 AE46     	        mov r14, r5
 3672 1a76 6243     	        muls r2, r2, r4         @R
 3673 1a78 6343     	        muls r3, r3, r4         @I
 3674 1a7a 9211     		asrs r2, r2, # 6
 3675 1a7c 9B11     		asrs r3, r3, # 6
 3676 1a7e 4446     		mov r4, r8
 3677 1a80 4D46     		mov r5, r9
 3678 1a82 A418     		adds r4, r4, r2        
 3679 1a84 ED18     		adds r5, r5, r3
 3680 1a86 A046     		mov r8, r4		@SIN_R
 3681 1a88 A946     		mov r9, r5		@SIN_I
 3682              	
 3683              		@5
 3684 1a8a 03BC     			pop {r0-r1}
 3685 1a8c 0246     		mov r2, r0
 3686 1a8e 0B46     		mov r3, r1
 3687              		
 3688 1a90 5546     		mov r5, r10
 3689 1a92 2C88     		ldrh r4, [r5]
 3690 1a94 0235     		adds r5, r5, # 2
 3691 1a96 AA46     		mov r10, r5
 3692 1a98 6043     		muls r0, r0, r4		@R
 3693 1a9a 6143     		muls r1, r1, r4		@I
ARM GAS  1.s 			page 66


 3694 1a9c 8011     		asrs r0, r0, # 6
 3695 1a9e 8911     		asrs r1, r1, # 6
 3696 1aa0 3618     		adds r6, r6, r0	       @COS_R
 3697 1aa2 7F18     		adds r7, r7, r1	       @COS_I
 3698              	
 3699 1aa4 7546     	        mov r5, r14
 3700 1aa6 2C88     	        ldrh r4, [r5]
 3701 1aa8 0235     	        adds r5, r5, # 2
 3702 1aaa AE46     	        mov r14, r5
 3703 1aac 6243     	        muls r2, r2, r4         @R
 3704 1aae 6343     	        muls r3, r3, r4         @I
 3705 1ab0 9211     		asrs r2, r2, # 6
 3706 1ab2 9B11     		asrs r3, r3, # 6
 3707 1ab4 4446     		mov r4, r8
 3708 1ab6 4D46     		mov r5, r9
 3709 1ab8 A418     		adds r4, r4, r2        
 3710 1aba ED18     		adds r5, r5, r3
 3711 1abc A046     		mov r8, r4		@SIN_R
 3712 1abe A946     		mov r9, r5		@SIN_I
 3713              		
 3714              		@6
 3715 1ac0 03BC     			pop {r0-r1}
 3716 1ac2 0246     		mov r2, r0
 3717 1ac4 0B46     		mov r3, r1
 3718              		
 3719 1ac6 5546     		mov r5, r10
 3720 1ac8 2C88     		ldrh r4, [r5]
 3721 1aca 0235     		adds r5, r5, # 2
 3722 1acc AA46     		mov r10, r5
 3723 1ace 6043     		muls r0, r0, r4		@R
 3724 1ad0 6143     		muls r1, r1, r4		@I
 3725 1ad2 8011     		asrs r0, r0, # 6
 3726 1ad4 8911     		asrs r1, r1, # 6
 3727 1ad6 3618     		adds r6, r6, r0	       @COS_R
 3728 1ad8 7F18     		adds r7, r7, r1	       @COS_I
 3729              	
 3730 1ada 7546     	        mov r5, r14
 3731 1adc 2C88     	        ldrh r4, [r5]
 3732 1ade 0235     	        adds r5, r5, # 2
 3733 1ae0 AE46     	        mov r14, r5
 3734 1ae2 6243     	        muls r2, r2, r4         @R
 3735 1ae4 6343     	        muls r3, r3, r4         @I
 3736 1ae6 9211     		asrs r2, r2, # 6
 3737 1ae8 9B11     		asrs r3, r3, # 6
 3738 1aea 4446     		mov r4, r8
 3739 1aec 4D46     		mov r5, r9
 3740 1aee A418     		adds r4, r4, r2        
 3741 1af0 ED18     		adds r5, r5, r3
 3742 1af2 A046     		mov r8, r4		@SIN_R
 3743 1af4 A946     		mov r9, r5		@SIN_I
 3744              	
 3745              		@7
 3746 1af6 03BC     			pop {r0-r1}
 3747 1af8 0246     		mov r2, r0
 3748 1afa 0B46     		mov r3, r1
 3749              		
 3750 1afc 5546     		mov r5, r10
ARM GAS  1.s 			page 67


 3751 1afe 2C88     		ldrh r4, [r5]
 3752 1b00 0235     		adds r5, r5, # 2
 3753 1b02 AA46     		mov r10, r5
 3754 1b04 6043     		muls r0, r0, r4		@R
 3755 1b06 6143     		muls r1, r1, r4		@I
 3756 1b08 8011     		asrs r0, r0, # 6
 3757 1b0a 8911     		asrs r1, r1, # 6
 3758 1b0c 3618     		adds r6, r6, r0	       @COS_R
 3759 1b0e 7F18     		adds r7, r7, r1	       @COS_I
 3760              	
 3761 1b10 7546     	        mov r5, r14
 3762 1b12 2C88     	        ldrh r4, [r5]
 3763 1b14 0235     	        adds r5, r5, # 2
 3764 1b16 AE46     	        mov r14, r5
 3765 1b18 6243     	        muls r2, r2, r4         @R
 3766 1b1a 6343     	        muls r3, r3, r4         @I
 3767 1b1c 9211     		asrs r2, r2, # 6
 3768 1b1e 9B11     		asrs r3, r3, # 6
 3769 1b20 4446     		mov r4, r8
 3770 1b22 4D46     		mov r5, r9
 3771 1b24 A418     		adds r4, r4, r2        
 3772 1b26 ED18     		adds r5, r5, r3
 3773 1b28 A046     		mov r8, r4		@SIN_R
 3774 1b2a A946     		mov r9, r5		@SIN_I
 3775              	
 3776              		@8
 3777 1b2c 03BC     			pop {r0-r1}
 3778 1b2e 0246     		mov r2, r0
 3779 1b30 0B46     		mov r3, r1
 3780              		
 3781 1b32 5546     		mov r5, r10
 3782 1b34 2C88     		ldrh r4, [r5]
 3783 1b36 0235     		adds r5, r5, # 2
 3784 1b38 AA46     		mov r10, r5
 3785 1b3a 6043     		muls r0, r0, r4		@R
 3786 1b3c 6143     		muls r1, r1, r4		@I
 3787 1b3e 8011     		asrs r0, r0, # 6
 3788 1b40 8911     		asrs r1, r1, # 6
 3789 1b42 3618     		adds r6, r6, r0	       @COS_R
 3790 1b44 7F18     		adds r7, r7, r1	       @COS_I
 3791              	
 3792 1b46 7546     	        mov r5, r14
 3793 1b48 2C88     	        ldrh r4, [r5]
 3794 1b4a 0235     	        adds r5, r5, # 2
 3795 1b4c AE46     	        mov r14, r5
 3796 1b4e 6243     	        muls r2, r2, r4         @R
 3797 1b50 6343     	        muls r3, r3, r4         @I
 3798 1b52 9211     		asrs r2, r2, # 6
 3799 1b54 9B11     		asrs r3, r3, # 6
 3800 1b56 4446     		mov r4, r8
 3801 1b58 4D46     		mov r5, r9
 3802 1b5a A418     		adds r4, r4, r2        
 3803 1b5c ED18     		adds r5, r5, r3
 3804 1b5e A046     		mov r8, r4		@SIN_R
 3805 1b60 A946     		mov r9, r5		@SIN_I
 3806              	
 3807              		@9
ARM GAS  1.s 			page 68


 3808 1b62 03BC     			pop {r0-r1}
 3809 1b64 0246     		mov r2, r0
 3810 1b66 0B46     		mov r3, r1
 3811              		
 3812 1b68 5546     		mov r5, r10
 3813 1b6a 2C88     		ldrh r4, [r5]
 3814 1b6c 0235     		adds r5, r5, # 2
 3815 1b6e AA46     		mov r10, r5
 3816 1b70 6043     		muls r0, r0, r4		@R
 3817 1b72 6143     		muls r1, r1, r4		@I
 3818 1b74 8011     		asrs r0, r0, # 6
 3819 1b76 8911     		asrs r1, r1, # 6
 3820 1b78 3618     		adds r6, r6, r0	       @COS_R
 3821 1b7a 7F18     		adds r7, r7, r1	       @COS_I
 3822              	
 3823 1b7c 7546     	        mov r5, r14
 3824 1b7e 2C88     	        ldrh r4, [r5]
 3825 1b80 0235     	        adds r5, r5, # 2
 3826 1b82 AE46     	        mov r14, r5
 3827 1b84 6243     	        muls r2, r2, r4         @R
 3828 1b86 6343     	        muls r3, r3, r4         @I
 3829 1b88 9211     		asrs r2, r2, # 6
 3830 1b8a 9B11     		asrs r3, r3, # 6
 3831 1b8c 4446     		mov r4, r8
 3832 1b8e 4D46     		mov r5, r9
 3833 1b90 A418     		adds r4, r4, r2        
 3834 1b92 ED18     		adds r5, r5, r3
 3835 1b94 A046     		mov r8, r4		@SIN_R
 3836 1b96 A946     		mov r9, r5		@SIN_I
 3837              	
 3838              	@yjm9
 3839              			@0
 3840 1b98 03BC     		pop {r0-r1}
 3841 1b9a 0246     		mov r2, r0
 3842 1b9c 0B46     		mov r3, r1
 3843              		
 3844 1b9e 5546     		mov r5, r10
 3845 1ba0 2C88     		ldrh r4, [r5]
 3846 1ba2 0235     		adds r5, r5, # 2
 3847 1ba4 AA46     		mov r10, r5
 3848 1ba6 6043     		muls r0, r0, r4		@R
 3849 1ba8 6143     		muls r1, r1, r4		@I
 3850 1baa 8011     		asrs r0, r0, # 6
 3851 1bac 8911     		asrs r1, r1, # 6
 3852 1bae 3618     		adds r6, r6, r0	       @COS_R
 3853 1bb0 7F18     		adds r7, r7, r1	       @COS_I
 3854              	
 3855 1bb2 7546     	        mov r5, r14
 3856 1bb4 2C88     	        ldrh r4, [r5]
 3857 1bb6 0235     	        adds r5, r5, # 2
 3858 1bb8 AE46     	        mov r14, r5
 3859 1bba 6243     	        muls r2, r2, r4         @R
 3860 1bbc 6343     	        muls r3, r3, r4         @I
 3861 1bbe 9211     		asrs r2, r2, # 6
 3862 1bc0 9B11     		asrs r3, r3, # 6
 3863 1bc2 4446     		mov r4, r8
 3864 1bc4 4D46     		mov r5, r9
ARM GAS  1.s 			page 69


 3865 1bc6 A418     		adds r4, r4, r2        
 3866 1bc8 ED18     		adds r5, r5, r3
 3867 1bca A046     		mov r8, r4		@SIN_R
 3868 1bcc A946     		mov r9, r5		@SIN_I
 3869              	
 3870              		@1
 3871 1bce 03BC     		pop {r0-r1}
 3872 1bd0 0246     		mov r2, r0
 3873 1bd2 0B46     		mov r3, r1
 3874              		
 3875 1bd4 5546     		mov r5, r10
 3876 1bd6 2C88     		ldrh r4, [r5]
 3877 1bd8 0235     		adds r5, r5, # 2
 3878 1bda AA46     		mov r10, r5
 3879 1bdc 6043     		muls r0, r0, r4		@R
 3880 1bde 6143     		muls r1, r1, r4		@I
 3881 1be0 8011     		asrs r0, r0, # 6
 3882 1be2 8911     		asrs r1, r1, # 6
 3883 1be4 3618     		adds r6, r6, r0	       @COS_R
 3884 1be6 7F18     		adds r7, r7, r1	       @COS_I
 3885              	
 3886 1be8 7546     	        mov r5, r14
 3887 1bea 2C88     	        ldrh r4, [r5]
 3888 1bec 0235     	        adds r5, r5, # 2
 3889 1bee AE46     	        mov r14, r5
 3890 1bf0 6243     	        muls r2, r2, r4         @R
 3891 1bf2 6343     	        muls r3, r3, r4         @I
 3892 1bf4 9211     		asrs r2, r2, # 6
 3893 1bf6 9B11     		asrs r3, r3, # 6
 3894 1bf8 4446     		mov r4, r8
 3895 1bfa 4D46     		mov r5, r9
 3896 1bfc A418     		adds r4, r4, r2        
 3897 1bfe ED18     		adds r5, r5, r3
 3898 1c00 A046     		mov r8, r4		@SIN_R
 3899 1c02 A946     		mov r9, r5		@SIN_I
 3900              	
 3901              		@2
 3902 1c04 03BC     		pop {r0-r1}
 3903 1c06 0246     		mov r2, r0
 3904 1c08 0B46     		mov r3, r1
 3905              		
 3906 1c0a 5546     		mov r5, r10
 3907 1c0c 2C88     		ldrh r4, [r5]
 3908 1c0e 0235     		adds r5, r5, # 2
 3909 1c10 AA46     		mov r10, r5
 3910 1c12 6043     		muls r0, r0, r4		@R
 3911 1c14 6143     		muls r1, r1, r4		@I
 3912 1c16 8011     		asrs r0, r0, # 6
 3913 1c18 8911     		asrs r1, r1, # 6
 3914 1c1a 3618     		adds r6, r6, r0	       @COS_R
 3915 1c1c 7F18     		adds r7, r7, r1	       @COS_I
 3916              	
 3917 1c1e 7546     	        mov r5, r14
 3918 1c20 2C88     	        ldrh r4, [r5]
 3919 1c22 0235     	        adds r5, r5, # 2
 3920 1c24 AE46     	        mov r14, r5
 3921 1c26 6243     	        muls r2, r2, r4         @R
ARM GAS  1.s 			page 70


 3922 1c28 6343     	        muls r3, r3, r4         @I
 3923 1c2a 9211     		asrs r2, r2, # 6
 3924 1c2c 9B11     		asrs r3, r3, # 6
 3925 1c2e 4446     		mov r4, r8
 3926 1c30 4D46     		mov r5, r9
 3927 1c32 A418     		adds r4, r4, r2        
 3928 1c34 ED18     		adds r5, r5, r3
 3929 1c36 A046     		mov r8, r4		@SIN_R
 3930 1c38 A946     		mov r9, r5		@SIN_I
 3931              		
 3932              		@3
 3933 1c3a 03BC     		pop {r0-r1}
 3934 1c3c 0246     		mov r2, r0
 3935 1c3e 0B46     		mov r3, r1
 3936              		
 3937 1c40 5546     		mov r5, r10
 3938 1c42 2C88     		ldrh r4, [r5]
 3939 1c44 0235     		adds r5, r5, # 2
 3940 1c46 AA46     		mov r10, r5
 3941 1c48 6043     		muls r0, r0, r4		@R
 3942 1c4a 6143     		muls r1, r1, r4		@I
 3943 1c4c 8011     		asrs r0, r0, # 6
 3944 1c4e 8911     		asrs r1, r1, # 6
 3945 1c50 3618     		adds r6, r6, r0	       @COS_R
 3946 1c52 7F18     		adds r7, r7, r1	       @COS_I
 3947              	
 3948 1c54 7546     	        mov r5, r14
 3949 1c56 2C88     	        ldrh r4, [r5]
 3950 1c58 0235     	        adds r5, r5, # 2
 3951 1c5a AE46     	        mov r14, r5
 3952 1c5c 6243     	        muls r2, r2, r4         @R
 3953 1c5e 6343     	        muls r3, r3, r4         @I
 3954 1c60 9211     		asrs r2, r2, # 6
 3955 1c62 9B11     		asrs r3, r3, # 6
 3956 1c64 4446     		mov r4, r8
 3957 1c66 4D46     		mov r5, r9
 3958 1c68 A418     		adds r4, r4, r2        
 3959 1c6a ED18     		adds r5, r5, r3
 3960 1c6c A046     		mov r8, r4		@SIN_R
 3961 1c6e A946     		mov r9, r5		@SIN_I
 3962              	
 3963              		@4
 3964 1c70 03BC     		pop {r0-r1}
 3965 1c72 0246     		mov r2, r0
 3966 1c74 0B46     		mov r3, r1
 3967              		
 3968 1c76 5546     		mov r5, r10
 3969 1c78 2C88     		ldrh r4, [r5]
 3970 1c7a 0235     		adds r5, r5, # 2
 3971 1c7c AA46     		mov r10, r5
 3972 1c7e 6043     		muls r0, r0, r4		@R
 3973 1c80 6143     		muls r1, r1, r4		@I
 3974 1c82 8011     		asrs r0, r0, # 6
 3975 1c84 8911     		asrs r1, r1, # 6
 3976 1c86 3618     		adds r6, r6, r0	       @COS_R
 3977 1c88 7F18     		adds r7, r7, r1	       @COS_I
 3978              	
ARM GAS  1.s 			page 71


 3979 1c8a 7546     	        mov r5, r14
 3980 1c8c 2C88     	        ldrh r4, [r5]
 3981 1c8e 0235     	        adds r5, r5, # 2
 3982 1c90 AE46     	        mov r14, r5
 3983 1c92 6243     	        muls r2, r2, r4         @R
 3984 1c94 6343     	        muls r3, r3, r4         @I
 3985 1c96 9211     		asrs r2, r2, # 6
 3986 1c98 9B11     		asrs r3, r3, # 6
 3987 1c9a 4446     		mov r4, r8
 3988 1c9c 4D46     		mov r5, r9
 3989 1c9e A418     		adds r4, r4, r2        
 3990 1ca0 ED18     		adds r5, r5, r3
 3991 1ca2 A046     		mov r8, r4		@SIN_R
 3992 1ca4 A946     		mov r9, r5		@SIN_I
 3993              	
 3994              		@5
 3995 1ca6 03BC     			pop {r0-r1}
 3996 1ca8 0246     		mov r2, r0
 3997 1caa 0B46     		mov r3, r1
 3998              		
 3999 1cac 5546     		mov r5, r10
 4000 1cae 2C88     		ldrh r4, [r5]
 4001 1cb0 0235     		adds r5, r5, # 2
 4002 1cb2 AA46     		mov r10, r5
 4003 1cb4 6043     		muls r0, r0, r4		@R
 4004 1cb6 6143     		muls r1, r1, r4		@I
 4005 1cb8 8011     		asrs r0, r0, # 6
 4006 1cba 8911     		asrs r1, r1, # 6
 4007 1cbc 3618     		adds r6, r6, r0	       @COS_R
 4008 1cbe 7F18     		adds r7, r7, r1	       @COS_I
 4009              	
 4010 1cc0 7546     	        mov r5, r14
 4011 1cc2 2C88     	        ldrh r4, [r5]
 4012 1cc4 0235     	        adds r5, r5, # 2
 4013 1cc6 AE46     	        mov r14, r5
 4014 1cc8 6243     	        muls r2, r2, r4         @R
 4015 1cca 6343     	        muls r3, r3, r4         @I
 4016 1ccc 9211     		asrs r2, r2, # 6
 4017 1cce 9B11     		asrs r3, r3, # 6
 4018 1cd0 4446     		mov r4, r8
 4019 1cd2 4D46     		mov r5, r9
 4020 1cd4 A418     		adds r4, r4, r2        
 4021 1cd6 ED18     		adds r5, r5, r3
 4022 1cd8 A046     		mov r8, r4		@SIN_R
 4023 1cda A946     		mov r9, r5		@SIN_I
 4024              		
 4025              		@6
 4026 1cdc 03BC     			pop {r0-r1}
 4027 1cde 0246     		mov r2, r0
 4028 1ce0 0B46     		mov r3, r1
 4029              		
 4030 1ce2 5546     		mov r5, r10
 4031 1ce4 2C88     		ldrh r4, [r5]
 4032 1ce6 0235     		adds r5, r5, # 2
 4033 1ce8 AA46     		mov r10, r5
 4034 1cea 6043     		muls r0, r0, r4		@R
 4035 1cec 6143     		muls r1, r1, r4		@I
ARM GAS  1.s 			page 72


 4036 1cee 8011     		asrs r0, r0, # 6
 4037 1cf0 8911     		asrs r1, r1, # 6
 4038 1cf2 3618     		adds r6, r6, r0	       @COS_R
 4039 1cf4 7F18     		adds r7, r7, r1	       @COS_I
 4040              	
 4041 1cf6 7546     	        mov r5, r14
 4042 1cf8 2C88     	        ldrh r4, [r5]
 4043 1cfa 0235     	        adds r5, r5, # 2
 4044 1cfc AE46     	        mov r14, r5
 4045 1cfe 6243     	        muls r2, r2, r4         @R
 4046 1d00 6343     	        muls r3, r3, r4         @I
 4047 1d02 9211     		asrs r2, r2, # 6
 4048 1d04 9B11     		asrs r3, r3, # 6
 4049 1d06 4446     		mov r4, r8
 4050 1d08 4D46     		mov r5, r9
 4051 1d0a A418     		adds r4, r4, r2        
 4052 1d0c ED18     		adds r5, r5, r3
 4053 1d0e A046     		mov r8, r4		@SIN_R
 4054 1d10 A946     		mov r9, r5		@SIN_I
 4055              	
 4056              		@7
 4057 1d12 03BC     			pop {r0-r1}
 4058 1d14 0246     		mov r2, r0
 4059 1d16 0B46     		mov r3, r1
 4060              		
 4061 1d18 5546     		mov r5, r10
 4062 1d1a 2C88     		ldrh r4, [r5]
 4063 1d1c 0235     		adds r5, r5, # 2
 4064 1d1e AA46     		mov r10, r5
 4065 1d20 6043     		muls r0, r0, r4		@R
 4066 1d22 6143     		muls r1, r1, r4		@I
 4067 1d24 8011     		asrs r0, r0, # 6
 4068 1d26 8911     		asrs r1, r1, # 6
 4069 1d28 3618     		adds r6, r6, r0	       @COS_R
 4070 1d2a 7F18     		adds r7, r7, r1	       @COS_I
 4071              	
 4072 1d2c 7546     	        mov r5, r14
 4073 1d2e 2C88     	        ldrh r4, [r5]
 4074 1d30 0235     	        adds r5, r5, # 2
 4075 1d32 AE46     	        mov r14, r5
 4076 1d34 6243     	        muls r2, r2, r4         @R
 4077 1d36 6343     	        muls r3, r3, r4         @I
 4078 1d38 9211     		asrs r2, r2, # 6
 4079 1d3a 9B11     		asrs r3, r3, # 6
 4080 1d3c 4446     		mov r4, r8
 4081 1d3e 4D46     		mov r5, r9
 4082 1d40 A418     		adds r4, r4, r2        
 4083 1d42 ED18     		adds r5, r5, r3
 4084 1d44 A046     		mov r8, r4		@SIN_R
 4085 1d46 A946     		mov r9, r5		@SIN_I
 4086              	
 4087              		@8
 4088 1d48 03BC     			pop {r0-r1}
 4089 1d4a 0246     		mov r2, r0
 4090 1d4c 0B46     		mov r3, r1
 4091              		
 4092 1d4e 5546     		mov r5, r10
ARM GAS  1.s 			page 73


 4093 1d50 2C88     		ldrh r4, [r5]
 4094 1d52 0235     		adds r5, r5, # 2
 4095 1d54 AA46     		mov r10, r5
 4096 1d56 6043     		muls r0, r0, r4		@R
 4097 1d58 6143     		muls r1, r1, r4		@I
 4098 1d5a 8011     		asrs r0, r0, # 6
 4099 1d5c 8911     		asrs r1, r1, # 6
 4100 1d5e 3618     		adds r6, r6, r0	       @COS_R
 4101 1d60 7F18     		adds r7, r7, r1	       @COS_I
 4102              	
 4103 1d62 7546     	        mov r5, r14
 4104 1d64 2C88     	        ldrh r4, [r5]
 4105 1d66 0235     	        adds r5, r5, # 2
 4106 1d68 AE46     	        mov r14, r5
 4107 1d6a 6243     	        muls r2, r2, r4         @R
 4108 1d6c 6343     	        muls r3, r3, r4         @I
 4109 1d6e 9211     		asrs r2, r2, # 6
 4110 1d70 9B11     		asrs r3, r3, # 6
 4111 1d72 4446     		mov r4, r8
 4112 1d74 4D46     		mov r5, r9
 4113 1d76 A418     		adds r4, r4, r2        
 4114 1d78 ED18     		adds r5, r5, r3
 4115 1d7a A046     		mov r8, r4		@SIN_R
 4116 1d7c A946     		mov r9, r5		@SIN_I
 4117              	
 4118              		@9
 4119 1d7e 03BC     			pop {r0-r1}
 4120 1d80 0246     		mov r2, r0
 4121 1d82 0B46     		mov r3, r1
 4122              		
 4123 1d84 5546     		mov r5, r10
 4124 1d86 2C88     		ldrh r4, [r5]
 4125 1d88 0235     		adds r5, r5, # 2
 4126 1d8a AA46     		mov r10, r5
 4127 1d8c 6043     		muls r0, r0, r4		@R
 4128 1d8e 6143     		muls r1, r1, r4		@I
 4129 1d90 8011     		asrs r0, r0, # 6
 4130 1d92 8911     		asrs r1, r1, # 6
 4131 1d94 3618     		adds r6, r6, r0	       @COS_R
 4132 1d96 7F18     		adds r7, r7, r1	       @COS_I
 4133              	
 4134 1d98 7546     	        mov r5, r14
 4135 1d9a 2C88     	        ldrh r4, [r5]
 4136 1d9c 0235     	        adds r5, r5, # 2
 4137 1d9e AE46     	        mov r14, r5
 4138 1da0 6243     	        muls r2, r2, r4         @R
 4139 1da2 6343     	        muls r3, r3, r4         @I
 4140 1da4 9211     		asrs r2, r2, # 6
 4141 1da6 9B11     		asrs r3, r3, # 6
 4142 1da8 4446     		mov r4, r8
 4143 1daa 4D46     		mov r5, r9
 4144 1dac A418     		adds r4, r4, r2        
 4145 1dae ED18     		adds r5, r5, r3
 4146 1db0 A046     		mov r8, r4		@SIN_R
 4147 1db2 A946     		mov r9, r5		@SIN_I
 4148              	
 4149              	
ARM GAS  1.s 			page 74


 4150              	
 4151              	
 4152              	
 4153              		
 4154              	
 4155              	
 4156              	
 4157              	
 4158              	
 4159              	
 4160              	
 4161              	
 4162              		
 4163              	
 4164              	
 4165 1db4 0A48     		ldr r0, = 0x200008d0	@0x200001c8
 4166 1db6 8245     		cmp r10, r0
 4167 1db8 02D0     		beq __dft_fanhuile
 4168 1dba 0A48     		ldr r0, = __dft_xunhuan
 4169 1dbc 0130     		adds r0, r0, # 1
 4170 1dbe 8746     		mov pc, r0
 4171              	__dft_fanhuile:
 4172 1dc0 3046     		mov r0, r6	@cos_r
 4173 1dc2 3946     		mov r1, r7	@cos_i
 4174 1dc4 4246     		mov r2, r8	@sin_r
 4175 1dc6 4B46     		mov r3, r9	@sin_i
 4176 1dc8 4012     		asrs r0, r0, # 9	@dfdf
 4177 1dca 4912     		asrs r1, r1, # 9
 4178 1dcc 5212     		asrs r2, r2, # 9
 4179 1dce 5B12     		asrs r3, r3, # 9
 4180 1dd0 E546     		mov sp, r12
 4181 1dd2 F0BC     		pop {r4-r7}
 4182 1dd4 A046     		mov r8, r4
 4183 1dd6 A946     		mov r9, r5
 4184 1dd8 B246     		mov r10, r6
 4185 1dda BC46     		mov r12, r7
 4186 1ddc F0BD     		pop {r4-r7,pc}
 4187 1dde 0000D008 		.ltorg
 4187      00209C08 
 4187      0000
 4188              	
 4189              	
 4190              	
 4191              	
 4192              	
 4193              	
 4194              	__lv_bo_qi:
 4195              		@地址顺序：指针，累加值，缓冲区
 4196              		@入口R0=缓冲区，R1=数据, r2,=指针
 4197              		@出口R0
 4198 1de8 F8B5     		push {r3-r7,lr}
 4199 1dea 0B4C     		ldr r4, = lvbo_changdu
 4200 1dec 0B4F     		ldr r7, = lvbo_youyi
 4201 1dee 2468     		ldr r4, [r4]
 4202 1df0 3F68     		ldr r7, [r7]
 4203 1df2 1568     		ldr r5, [r2]
 4204 1df4 2B46     		mov r3, r5
ARM GAS  1.s 			page 75


 4205 1df6 AB00     		lsls r3, r5, # 2
 4206 1df8 C658     		ldr r6, [r0, r3]
 4207 1dfa C150     		str r1, [r0, r3]
 4208 1dfc 0135     		adds r5, r5, # 1
 4209 1dfe 1560     		str r5, [r2]
 4210 1e00 A542     		cmp r5, r4
 4211 1e02 01D1     		bne __huanchong_leijia
 4212 1e04 0025     		movs r5, # 0
 4213 1e06 1560     		str r5, [r2]
 4214              	__huanchong_leijia:
 4215 1e08 0438     		subs r0, r0, # 4
 4216 1e0a 0568     		ldr r5, [r0]
 4217 1e0c 4919     		adds r1, r1, r5
 4218 1e0e 891B     		subs r1, r1, r6
 4219 1e10 0160     		str r1, [r0]
 4220 1e12 3941     		asrs r1, r1, r7	 @# 12 @12 @  7	@128
 4221 1e14 0846     		mov r0, r1
 4222 1e16 F8BD     		pop {r3-r7,pc}
 4223 1e18 D41F0020 		.ltorg
 4223      D81F0020 
 4224              	
 4225              	
 4226              	
 4227              	
 4228              	
 4229              	
 4230              		
 4231              	
 4232              	__xie_i2c_8_wei:
 4233 1e20 F8B5     		push {r3-r7,lr}
 4234              		@r0=从地址，r1=数据地址，r2=数据
 4235 1e22 224F     		ldr r7, = 0x48000000
 4236 1e24 224B     		ldr r3, = 0x10 		@pa4=SDA
 4237 1e26 234C     		ldr r4, = 0x08		@pb3=SCL
 4238              	__i2c_qi_8:	
 4239 1e28 FB65     		str r3, [r7, # 0x5c]	@ SDA=1
 4240 1e2a FC65     		str r4, [r7, # 0x5c]	@ SCL=1
 4241 1e2c 00F039F8 		bl __i2c_yan_shi
 4242 1e30 BB65     		str r3, [r7, # 0x58]	@ SDA=0
 4243 1e32 00F036F8 		bl __i2c_yan_shi
 4244 1e36 BC65     		str r4, [r7, # 0x58]	@ SCL=0
 4245 1e38 00F033F8 		bl __i2c_yan_shi
 4246 1e3c 0026     		movs r6, # 0
 4247              	__xie_cong_di_zhi_8:
 4248 1e3e 0825     		movs r5, # 8
 4249 1e40 C005     		lsls r0, r0, # 23
 4250 1e42 06E0     		b __xie_shu_ju_8
 4251              	__xie_cong_ji_di_zhi:
 4252 1e44 0846     		mov r0, r1
 4253 1e46 0825     		movs r5, # 8
 4254 1e48 C005     		lsls r0, r0, # 23
 4255 1e4a 02E0     		b __xie_shu_ju_8
 4256              	__xie_cong_ji_shu_ju:
 4257 1e4c 1046     		mov r0, r2
 4258 1e4e 0825     		movs r5, # 8
 4259 1e50 C005     		lsls r0, r0, # 23
 4260              	__xie_shu_ju_8:
ARM GAS  1.s 			page 76


 4261 1e52 4000     		lsls r0, r0, # 1
 4262 1e54 01D5     		bpl __SDA_8_deng_yu_0
 4263 1e56 FB65     		str r3, [r7, # 0x5c]	@SDA=1
 4264 1e58 00E0     		b __SCL_8_gao
 4265              	__SDA_8_deng_yu_0:
 4266 1e5a BB65     		str r3, [r7, # 0x58]	@SDA=0
 4267              	__SCL_8_gao:	
 4268 1e5c FC65     		str r4, [r7, # 0x5c]	@SCL=1
 4269 1e5e 00F020F8 		bl __i2c_yan_shi
 4270 1e62 BC65     		str r4, [r7, # 0x58]	@SCL=0
 4271 1e64 00F01DF8 		bl __i2c_yan_shi
 4272 1e68 013D     		subs r5, r5, # 1
 4273 1e6a F2D1     		bne __xie_shu_ju_8
 4274 1e6c FB65     		str r3, [r7, # 0x5c]	@SDA=1
 4275 1e6e 00F018F8 		bl __i2c_yan_shi
 4276 1e72 FC65     		str r4, [r7, # 0x5c]	@SCL=1
 4277 1e74 00F015F8 		bl __i2c_yan_shi
 4278              	__du_apk_8:
 4279 1e78 3D69     		ldr r5, [r7, # 0x10]	@读APK
 4280 1e7a ED06     		lsls r5, r5, # 27	@pa4 sda	
 4281 1e7c 01D5     		bpl __apk_di_8
 4282              	__apk_gao_8:
 4283 1e7e F021     		movs r1, # 0xf0
 4284 1e80 07E0     		b __i2c_ting_8
 4285              	__apk_di_8:
 4286 1e82 BC65     		str r4, [r7, # 0x58]	@SCL=0
 4287 1e84 00F00DF8 		bl __i2c_yan_shi
 4288 1e88 0136     		adds r6, r6, # 1
 4289 1e8a 012E     		cmp r6, # 1
 4290 1e8c DAD0     		beq __xie_cong_ji_di_zhi
 4291 1e8e 022E     		cmp r6, # 2
 4292 1e90 DCD0     		beq __xie_cong_ji_shu_ju
 4293              	__i2c_ting_8:
 4294 1e92 BB65     		str r3, [r7, # 0x58]	@SDA=0
 4295 1e94 00F005F8 		bl __i2c_yan_shi
 4296 1e98 FC65     		str r4, [r7, # 0x5c]	@SCL=1
 4297 1e9a 00F002F8 		bl __i2c_yan_shi
 4298 1e9e FB65     		str r3, [r7, # 0x5c]	@SDA=1
 4299 1ea0 F8BD     		pop {r3-r7,pc}
 4300              		__i2c_yan_shi:
 4301 1ea2 08B5     		push {r3, lr}
 4302 1ea4 044B     		ldr r3, = 0x500
 4303              	__i2c_yan_shi_xun_huan:
 4304 1ea6 013B     		subs r3, r3, # 1
 4305 1ea8 FDD1     		bne __i2c_yan_shi_xun_huan
 4306 1eaa 08BD     		pop {r3, pc}
 4307              	
 4308 1eac 00000048 		.ltorg
 4308      10000000 
 4308      08000000 
 4308      00050000 
 4309              	
 4310              	
 4311              	
 4312              	
 4313              	
 4314              	
ARM GAS  1.s 			page 77


 4315              	
 4316              	
 4317              	
 4318              	
 4319              	
 4320              		
 4321              	
 4322              	__du_24c64:	
 4323              		@r0=结果
 4324 1ebc 00B5     		push {lr}
 4325 1ebe 00F025F8 	        bl __fasong_i2c_qishi
 4326 1ec2 A020     	        movs r0, # 0xa0
 4327 1ec4 00F02BF8 	        bl __xie_i2c8wei
 4328 1ec8 0020     	        movs r0, # 0x00
 4329 1eca 00F028F8 	        bl __xie_i2c8wei
 4330 1ece 0020     	        movs r0, # 0x00
 4331 1ed0 00F025F8 	        bl __xie_i2c8wei
 4332 1ed4 00F01AF8 	        bl __fasong_i2c_qishi
 4333 1ed8 A120     	        movs r0, # 0xa1
 4334 1eda 00F020F8 	        bl __xie_i2c8wei
 4335 1ede 00F028F8 	        bl __du_i2c8wei
 4336 1ee2 00F035F8 	        bl __i2c1_ting
 4337 1ee6 00BD     		pop {pc}
 4338              	
 4339              	__xie_24c64:
 4340 1ee8 01B5     		push {r0,lr}
 4341 1eea 00F00FF8 	        bl __fasong_i2c_qishi
 4342 1eee A020     	        movs r0, # 0xa0
 4343 1ef0 00F015F8 	        bl __xie_i2c8wei
 4344 1ef4 0020     	        movs r0, # 0x00		@要写的地址
 4345 1ef6 00F012F8 	        bl __xie_i2c8wei
 4346 1efa 0020     	        movs r0, # 0x00		@要写的地址
 4347 1efc 00F00FF8 	        bl __xie_i2c8wei
 4348 1f00 0800     	        movs r0, r1		@要写的数据
 4349 1f02 00F00CF8 	        bl __xie_i2c8wei
 4350 1f06 00F023F8 	        bl __i2c1_ting
 4351 1f0a 01BD     		pop {r0,pc}
 4352              	
 4353              		
 4354              	
 4355              	__fasong_i2c_qishi:
 4356 1f0c 03B4     		push {r0-r1}
 4357 1f0e CE48     		ldr r0, = 0x40005400
 4358 1f10 6021     	        movs r1, # 0x60
 4359 1f12 8160     	        str r1, [r0, # 0x08]    @发送START
 4360              	__du_si:
 4361 1f14 8168     	        ldr r1, [r0, # 0x08]
 4362 1f16 0907     	        lsls r1, r1, # 28
 4363 1f18 FCD5     	        bpl __du_si
 4364 1f1a 03BC     		pop {r0-r1}
 4365 1f1c 7047     		bx lr
 4366              			
 4367              	__xie_i2c8wei:
 4368 1f1e 02B4     		push {r1}
 4369 1f20 C949     		ldr r1, = 0x40005400
 4370 1f22 C860     	        str r0, [r1, # 0x0c]    @要写的数据
 4371              	
ARM GAS  1.s 			page 78


 4372 1f24 4020     		movs r0, # 0x40
 4373 1f26 8860     		str r0, [r1, # 0x08]
 4374              	
 4375              	__du_si1:
 4376 1f28 8868     	        ldr r0, [r1, # 0x08]
 4377 1f2a 0007     	        lsls r0, r0, # 28
 4378 1f2c FCD5     	        bpl __du_si1
 4379 1f2e 02BC     		pop {r1}
 4380 1f30 7047     		bx lr
 4381              	__du_i2c8wei:
 4382 1f32 02B4     		push {r1}
 4383 1f34 C449     		ldr r1, = 0x40005400
 4384 1f36 4C20     		movs r0, # 0x4c
 4385 1f38 8860     		str r0, [r1, # 0x08]
 4386 1f3a C448     		ldr r0, = 0xff
 4387              	__i2c_yanshi:
 4388 1f3c 0138     		subs r0, r0, # 1
 4389 1f3e FDD1     		bne __i2c_yanshi
 4390 1f40 4420     		movs r0, # 0x44
 4391 1f42 8860     		str r0, [r1, # 0x08]
 4392              	__du_si2:
 4393 1f44 8868     		ldr r0, [r1, # 0x08]
 4394 1f46 0007     	        lsls r0, r0, # 28
 4395 1f48 FCD5     		bpl __du_si2
 4396 1f4a C868     		ldr r0, [r1, # 0x0c]
 4397 1f4c 02BC     		pop {r1}
 4398 1f4e 7047     		bx lr
 4399              	
 4400              	
 4401              	__i2c1_ting:
 4402 1f50 03B4     		push {r0-r1}
 4403 1f52 BD48     		ldr r0, = 0x40005400
 4404 1f54 5021     		movs r1, # 0x50
 4405 1f56 8160     		str r1, [r0, # 0x08]    @i2c1停止
 4406 1f58 03BC     		pop {r0-r1}
 4407 1f5a 7047     		bx lr
 4408              	
 4409              	
 4410              	
 4411              	
 4412              		
 4413              	
 4414              	__lcd_chushihua:
 4415 1f5c 07B5     		push {r0-r2,lr}
 4416 1f5e BC48     		ldr r0,  = 0x48000400
 4417 1f60 1021     		movs r1, # 0x10
 4418 1f62 C165     		str r1, [r0, 0x5c]            @RST=1
 4419 1f64 BB4A     		ldr r2, = 0x1ffff
 4420 1f66 00F027F8 		bl __lcd_yanshi
 4421              	
 4422 1f6a 8165     		str r1, [r0, 0x58]            @RST=0
 4423 1f6c B94A     		ldr r2, = 0x1ffff
 4424 1f6e 00F023F8 		bl __lcd_yanshi
 4425              	
 4426 1f72 C165     		str r1, [r0, # 0x5c]            @RST=1
 4427 1f74 B74A     		ldr r2, = 0x1ffff
 4428 1f76 00F01FF8 		bl __lcd_yanshi
ARM GAS  1.s 			page 79


 4429              	
 4430 1f7a B748     		ldr r0, = 0x40013000
 4431 1f7c 0021     		movs r1, # 0x00
 4432 1f7e C160     		str r1, [r0, # 0x0c]		@A0=0
 4433              		
 4434 1f80 B44A     		ldr r2, = 0x1ffff
 4435 1f82 00F019F8 		bl __lcd_yanshi
 4436              	
 4437 1f86 A220     		movs r0, # 0xa2         @ 偏置选择
 4438 1f88 00F019F8 		bl __xie_spi1
 4439 1f8c A020     		movs r0, # 0xa0         @SEG方向（横 0=0到131，1=131到0）
 4440 1f8e 00F016F8 		bl __xie_spi1
 4441 1f92 C820     		movs r0, # 0xc8         @选择COM方向（竖 0=0到63, 1=63到1）
 4442 1f94 00F013F8 		bl __xie_spi1
 4443 1f98 2F20     		movs r0, # 0x2f         @选择调节率
 4444 1f9a 00F010F8 		bl __xie_spi1
 4445 1f9e 8120     		movs r0, # 0x81         @设置EV命令
 4446 1fa0 00F00DF8 		bl __xie_spi1
 4447 1fa4 2520     		movs r0, # 0x25         @设置EV（0x00-0x3f 对比度）
 4448 1fa6 00F00AF8 		bl __xie_spi1
 4449 1faa 2F20     		movs r0, # 0x2f         @助推器开启
 4450 1fac 00F007F8 		bl __xie_spi1           @调节器开、追踪器开
 4451 1fb0 AF20     		movs r0, # 0xaf         @显示开
 4452 1fb2 00F004F8 		bl __xie_spi1
 4453 1fb6 07BD     		pop {r0-r2,pc}
 4454              	
 4455              	__lcd_yanshi:
 4456 1fb8 013A     		subs r2, r2, # 1
 4457 1fba FDD1     		bne __lcd_yanshi
 4458 1fbc 7047     		bx lr
 4459              		
 4460              	__xie_spi1:
 4461 1fbe 06B4     		push {r1-r2}
 4462 1fc0 A549     		ldr r1, = 0x40013000
 4463              	@	movs r2, # 0x00
 4464              	@	str r2, [r1, # 0x0c]
 4465              	__deng_huan_chong_kong:
 4466 1fc2 0A69     		ldr r2, [r1, # 0x10]
 4467 1fc4 D207     		lsls r2, r2, # 31
 4468 1fc6 FCD5     		bpl __deng_huan_chong_kong
 4469 1fc8 8861     		str r0, [r1, # 0x18]
 4470              	__deng_huan_chong_kong1:
 4471 1fca 0A69     		ldr r2, [r1, # 0x10]
 4472 1fcc D207     		lsls r2, r2, # 31
 4473 1fce FCD5     		bpl __deng_huan_chong_kong1
 4474              	__busy_zong_xian_mang:
 4475 1fd0 0A69     		ldr r2, [r1, # 0x10]
 4476 1fd2 D205     		lsls r2, r2, # 23
 4477 1fd4 FCD4     		bmi __busy_zong_xian_mang
 4478              	@	movs r2, # 0x01
 4479              	@	str r2, [r1, # 0x0c]
 4480 1fd6 06BC     		pop {r1-r2}
 4481 1fd8 7047     		bx lr
 4482              	
 4483              	__xie_lcd_ye:
 4484              		@入口R0=数据首地址
 4485 1fda 1EB5     		push {r1-r4,lr}
ARM GAS  1.s 			page 80


 4486 1fdc B023     		movs r3, # 0xb0
 4487 1fde 013B     		subs r3, r3, # 1
 4488 1fe0 0446     		mov r4, r0
 4489              	__ye_jia:
 4490 1fe2 9D48     	        ldr r0, = 0x40013000
 4491 1fe4 0121     		movs r1, # 0x01
 4492 1fe6 C160     		str r1, [r0, # 0x0c]            @A0=1
 4493 1fe8 984A     		ldr r2, = 0xff
 4494 1fea FFF7E5FF 		bl __lcd_yanshi
 4495 1fee 0133     		adds r3, r3, # 1
 4496 1ff0 B92B     		cmp r3, # 0xb9
 4497 1ff2 00D1     		bne __xie_ye_dizhi
 4498 1ff4 1EBD     		pop {r1-r4,pc}
 4499              		@       movs r3, # 0xb0
 4500              		@       mvns r4, r4
 4501              		@       lsls r4, r4, # 24
 4502              		@       lsrs r4, r4, # 24
 4503              	__xie_ye_dizhi:
 4504 1ff6 1020     		movs r0, # 0x10
 4505 1ff8 FFF7E1FF 		bl __xie_spi1
 4506 1ffc 0020     		movs r0, # 0
 4507 1ffe FFF7DEFF 		bl __xie_spi1
 4508 2002 1846     		mov r0, r3
 4509 2004 FFF7DBFF 		bl __xie_spi1
 4510              	
 4511 2008 9348     	        ldr r0, = 0x40013000
 4512 200a 0121     		movs r1, # 0x01
 4513 200c C160     		str r1, [r0, # 0x0c]            @A0=1
 4514 200e 8F4A     		ldr r2, = 0xff
 4515 2010 FFF7D2FF 		bl __lcd_yanshi
 4516              	
 4517 2014 8421     		movs r1, # 132
 4518              	__heng_sao:
 4519 2016 2078     		ldrb r0, [r4]
 4520              		@       mov r0, r4
 4521 2018 FFF7D1FF 		bl __xie_spi1
 4522 201c 0134     		adds r4, r4, # 1
 4523 201e 0139     		subs r1, r1, # 1
 4524 2020 F9D1     		bne __heng_sao
 4525 2022 DEE7     		b __ye_jia
 4526              	
 4527              	__lcd_qingping:
 4528 2024 1FB5     		push {r0-r4,lr}
 4529 2026 B023     		movs r3, # 0xb0
 4530 2028 013B     		subs r3, r3, # 1
 4531 202a 0024     		movs r4, # 0
 4532              	__ye_jia1:
 4533 202c 8A48     	        ldr r0, = 0x40013000
 4534 202e 0021     		movs r1, # 0x00
 4535 2030 C160     		str r1, [r0, # 0x0c]            @A0=0
 4536 2032 864A     		ldr r2, = 0xff
 4537 2034 FFF7C0FF 		bl __lcd_yanshi
 4538 2038 0133     		adds r3, r3, # 1
 4539 203a B92B     		cmp r3, # 0xb9
 4540 203c 00D1     		bne __xie_ye_dizhi1
 4541 203e 1FBD     		pop {r0-r4,pc}
 4542              	__xie_ye_dizhi1:
ARM GAS  1.s 			page 81


 4543 2040 1020     		movs r0, # 0x10
 4544 2042 FFF7BCFF 		bl __xie_spi1
 4545 2046 0020     		movs r0, # 0
 4546 2048 FFF7B9FF 		bl __xie_spi1
 4547 204c 1846     		mov r0, r3
 4548 204e FFF7B6FF 		bl __xie_spi1
 4549 2052 FF22     		movs r2, # 0xff
 4550 2054 FFF7B0FF 		bl __lcd_yanshi
 4551              	
 4552 2058 7F48     	        ldr r0, = 0x40013000
 4553 205a 0121     		movs r1, # 0x01
 4554 205c C160     		str r1, [r0, # 0x0c]            @A0=1
 4555 205e 7B4A     		ldr r2, = 0xff
 4556 2060 FFF7AAFF 		bl __lcd_yanshi
 4557 2064 8521     		movs r1, # 133
 4558              	__heng_sao1:
 4559 2066 2046     		mov r0, r4
 4560 2068 FFF7A9FF 		bl __xie_spi1
 4561 206c 0139     		subs r1, r1, # 1
 4562 206e FAD1     		bne __heng_sao1
 4563 2070 DCE7     		b __ye_jia1
 4564              	
 4565              	
 4566              	__xie_lcd_weizhi:
 4567              		@入口R0=要写的地址(低8=X，高8=Y=（0-131(r5=高4,R4=低4))
 4568 2072 3EB5     		push {r1-r5,lr}
 4569 2074 0546     		mov r5, r0
 4570 2076 0446     		mov r4, r0
 4571 2078 0006     		lsls r0, r0, # 24
 4572 207a 000E     		lsrs r0, r0, # 24
 4573 207c 2D0B     		lsrs r5, r5, # 12	@高4
 4574 207e 2405     		lsls r4, r4, # 20
 4575 2080 240F     		lsrs r4, r4, # 28
 4576 2082 7549     	        ldr r1, = 0x40013000
 4577 2084 0023     		movs r3, # 0x00
 4578 2086 CB60     		str r3, [r1, # 0x0c]            @A0=0
 4579 2088 704A     		ldr r2, = 0xff
 4580 208a FFF795FF 		bl __lcd_yanshi
 4581 208e B030     		adds r0, r0, # 0xb0     @写页命令0XB0
 4582 2090 FFF795FF 		bl __xie_spi1		@写页地址0-8页
 4583              	
 4584 2094 1020     		movs r0, # 0x10
 4585 2096 2843     		orrs r0, r0, r5
 4586 2098 FFF791FF 		bl __xie_spi1
 4587              	
 4588 209c 2046     		mov r0, r4
 4589 209e FFF78EFF 		bl __xie_spi1
 4590              	
 4591 20a2 0123     		movs r3, # 0x01
 4592 20a4 8B81     		strh r3, [r1, # 0x0c]            @A0=1
 4593 20a6 694A     		ldr r2, = 0xff
 4594 20a8 FFF786FF 		bl __lcd_yanshi
 4595 20ac 3EBD     		pop {r1-r5,pc}
 4596              	
 4597              	
 4598              	__xie_ascii:
 4599 20ae F8B5     		push {r3-r7,lr}
ARM GAS  1.s 			page 82


 4600              		@入口r0=ascii地址
 4601              		@r1=写几个字
 4602              		@r2=要写的地址
 4603 20b0 4E46     		mov r6, r9
 4604 20b2 40B4     		push {r6}
 4605 20b4 9146     		mov r9, r2
 4606 20b6 0F46     		mov r7, r1
 4607 20b8 0621     		movs r1, # 6
 4608 20ba 0122     		movs r2, # 1
 4609 20bc 0546     		mov r5, r0
 4610 20be 0026     		movs r6, # 0
 4611              	__xie_lcd_dizhi2:
 4612 20c0 4846     		mov r0, r9
 4613 20c2 FFF7D6FF 		bl __xie_lcd_weizhi
 4614              	__du_ascii2:
 4615 20c6 A85D     		ldrb r0, [r5, r6]
 4616 20c8 2038     		subs r0, r0, # 32
 4617 20ca 4843     		muls r0, r0, r1
 4618 20cc 634B     		ldr r3, = ascii_biao
 4619 20ce 0344     		add r3, r3, r0
 4620              	__du_ziku_chushihua2:
 4621 20d0 0024     		movs r4, # 0
 4622              	__du_ziku1:
 4623 20d2 185D     		ldrb r0, [r3, r4]
 4624 20d4 1444     		add r4, r4, r2
 4625 20d6 8C42     		cmp r4, r1
 4626 20d8 02D8     		bhi __duwan_ziku1
 4627 20da FFF770FF 		bl __xie_spi1
 4628 20de F8E7     		b __du_ziku1
 4629              	__duwan_ziku1:
 4630 20e0 0136     		adds r6, r6, # 1
 4631 20e2 BE42     		cmp r6, r7
 4632 20e4 EFD1     		bne __du_ascii2
 4633 20e6 40BC     		pop {r6}
 4634 20e8 4E46     		mov r6, r9
 4635 20ea F8BD     		pop {r3-r7,pc}
 4636              	
 4637              	__xie_alabo:
 4638 20ec E0B5     		push {r5-r7,lr}
 4639              		@入口r0=写几个字
 4640              		@r1=字库单字长度
 4641              		@r2=y宽（几行）
 4642              		@r3=要写的地址
 4643 20ee 4D46     		mov r5, r9
 4644 20f0 5646     		mov r6, r10
 4645 20f2 5F46     		mov r7, r11
 4646 20f4 E0B4     		push {r5-r7}
 4647 20f6 6546     		mov r5, r12
 4648 20f8 20B4     		push {r5}
 4649 20fa 594D     		ldr r5, = asciibiao
 4650 20fc A446     		mov r12, r4
 4651 20fe 9946     		mov r9, r3
 4652 2100 0026     		movs r6, # 0
 4653 2102 3746     		mov r7, r6
 4654 2104 8246     		mov r10, r0
 4655 2106 9346     		mov r11, r2
 4656              	__xie_lcd_dizhi1:
ARM GAS  1.s 			page 83


 4657 2108 4846     		mov r0, r9
 4658 210a FFF7B2FF 		bl __xie_lcd_weizhi
 4659              	__du_ascii1:
 4660 210e A85D     		ldrb r0, [r5, r6]
 4661 2110 4843     		muls r0, r0, r1
 4662 2112 6346     		mov r3, r12
 4663 2114 0344     		add r3, r3, r0
 4664 2116 DB19     		adds r3, r3, r7
 4665              	__du_ziku_chushihua1:
 4666 2118 0024     		movs r4, # 0
 4667              	__du_ziku:
 4668 211a 185D     		ldrb r0, [r3, r4]
 4669 211c 1444     		add r4, r4, r2
 4670 211e 8C42     		cmp r4, r1
 4671 2120 02D8     		bhi __duwan_ziku
 4672 2122 FFF74CFF 		bl __xie_spi1
 4673 2126 F8E7     		b __du_ziku
 4674              	__duwan_ziku:
 4675 2128 0136     		adds r6, r6, # 1
 4676 212a 5645     		cmp r6, r10
 4677 212c EFD1     		bne __du_ascii1
 4678 212e 0026     		movs r6, # 0
 4679 2130 0137     		adds r7, r7, # 1        @字库地址偏移
 4680 2132 4846     		mov r0, r9
 4681 2134 0130     		adds r0, r0, # 1        @Y偏移
 4682 2136 8146     		mov r9, r0
 4683 2138 5F45     		cmp r7, r11
 4684 213a E5D1     		bne __xie_lcd_dizhi1
 4685 213c 20BC     		pop {r5}
 4686 213e AC46     		mov r12, r5
 4687 2140 E0BC     		pop {r5-r7}
 4688 2142 A946     		mov r9, r5
 4689 2144 B246     		mov r10, r6
 4690 2146 BB46     		mov r11, r7
 4691 2148 E0BD     		pop {r5-r7,pc}
 4692              	
 4693              	
 4694              	
 4695              	__xie_lcd_ascii:
 4696 214a F0B5     		push {r4-r7,lr}
 4697              		@入口r0=写几个字
 4698              		@r1=字库单字长度
 4699              		@r2=y宽（几行）
 4700              		@r3=要写的地址
 4701 214c 4C46     		mov r4, r9
 4702 214e 5546     		mov r5, r10
 4703 2150 5E46     		mov r6, r11
 4704 2152 6746     		mov r7, r12
 4705 2154 F0B4     		push {r4-r7}
 4706 2156 424D     		ldr r5, = asciibiao
 4707 2158 9946     		mov r9, r3
 4708 215a 0026     		movs r6, # 0
 4709 215c 3746     		mov r7, r6
 4710 215e B446     		mov r12, r6
 4711 2160 8246     		mov r10, r0
 4712 2162 9346     		mov r11, r2
 4713              	__xie_lcd_dizhi:
ARM GAS  1.s 			page 84


 4714 2164 4846     		mov r0, r9
 4715 2166 FFF784FF 		bl __xie_lcd_weizhi
 4716              	__du_ascii:
 4717 216a A85D     		ldrb r0, [r5, r6]
 4718 216c 2E28     		cmp r0, # 0x2e
 4719 216e 1BD0     		beq __xie_ascii_xiaoshudian
 4720 2170 4843     		muls r0, r0, r1
 4721              	
 4722 2172 3C4B     		ldr r3, = da_a_labo_hack  @da_a_labo_shuzi
 4723 2174 0344     		add r3, r3, r0
 4724 2176 DB19     		adds r3, r3, r7
 4725              	__du_ziku_16_chushihua:
 4726 2178 0024     		movs r4, # 0
 4727              	__du_ziku_16:
 4728 217a 185D     		ldrb r0, [r3, r4]
 4729 217c 1444     		add r4, r4, r2
 4730 217e 8C42     		cmp r4, r1
 4731 2180 02D8     		bhi __duwan_16
 4732 2182 FFF71CFF 		bl __xie_spi1
 4733 2186 F8E7     		b __du_ziku_16
 4734              	__duwan_16:
 4735 2188 0136     		adds r6, r6, # 1
 4736 218a 5645     		cmp r6, r10
 4737 218c EDD1     		bne __du_ascii
 4738 218e 0026     		movs r6, # 0
 4739 2190 0137     		adds r7, r7, # 1	@字库地址偏移
 4740 2192 4846     		mov r0, r9
 4741 2194 0130     		adds r0, r0, # 1	@Y偏移
 4742 2196 8146     		mov r9, r0
 4743 2198 5F45     		cmp r7, r11
 4744 219a E3D1     		bne __xie_lcd_dizhi
 4745 219c F0BC     		pop {r4-r7}
 4746 219e A146     		mov r9, r4
 4747 21a0 AA46     		mov r10, r5
 4748 21a2 B346     		mov r11, r6
 4749 21a4 BC46     		mov r12, r7
 4750 21a6 F0BD     		pop {r4-r7,pc}
 4751              	
 4752              	__xie_ascii_xiaoshudian:
 4753 21a8 6046     		mov r0, r12
 4754 21aa 0130     		adds r0, r0, # 1
 4755 21ac 8446     		mov r12, r0
 4756 21ae 9445     		cmp r12, r2
 4757 21b0 0CD0     		beq __xie_ru_xiaoshudian
 4758 21b2 0020     		movs r0, # 0
 4759 21b4 FFF703FF 		bl __xie_spi1
 4760 21b8 0020     		movs r0, # 0
 4761 21ba FFF700FF 		bl __xie_spi1
 4762 21be 0020     		movs r0, # 0
 4763 21c0 FFF7FDFE 		bl __xie_spi1
 4764 21c4 0020     		movs r0, # 0
 4765 21c6 FFF7FAFE 		bl __xie_spi1
 4766              	
 4767 21ca DDE7     		b __duwan_16
 4768              	__xie_ru_xiaoshudian:
 4769 21cc 0020     		movs r0, # 0
 4770 21ce FFF7F6FE 		bl __xie_spi1
ARM GAS  1.s 			page 85


 4771 21d2 7020     		movs r0, # 0x70
 4772 21d4 FFF7F3FE 		bl __xie_spi1
 4773 21d8 7020     		movs r0, # 0x70
 4774 21da FFF7F0FE 		bl __xie_spi1
 4775 21de 7020     		movs r0, # 0x70
 4776 21e0 FFF7EDFE 		bl __xie_spi1
 4777 21e4 D0E7     		b __duwan_16
 4778              	
 4779              	_zhuanascii:														@ 16进制转ASCII
 4780              		@ R0要转的数据， R1长度，R2结果表首地址, r3=小数点位置
 4781 21e6 F0B5     		push {r4-r7,lr}
 4782 21e8 1F46     		mov r7, r3
 4783 21ea 0546     		mov r5, r0
 4784 21ec 0E46     		mov r6, r1
 4785 21ee 0A21     		movs r1, # 10
 4786              	_xunhuanqiuma:
 4787 21f0 00F03AF8 		bl _chufa
 4788 21f4 0446     		mov r4, r0
 4789 21f6 4C43     		muls r4, r1
 4790 21f8 2B1B     		subs r3, r5, r4
 4791              		@	adds r3, r3, # 0x30	@ascii偏移
 4792 21fa 0546     		mov r5, r0
 4793 21fc 013E     		subs r6, r6, # 1
 4794 21fe 08D0     		beq _qiumafanhui
 4795 2200 BE42     		cmp r6, r7
 4796 2202 02D1     		bne _meidaoxiaoshudian
 4797 2204 2E24     		movs r4, # 0x2e		@小数点
 4798 2206 9455     		strb r4, [r2,r6]	@插入小数点
 4799 2208 013E     		subs r6, r6, # 1
 4800              	_meidaoxiaoshudian:
 4801 220a 9355     		strb r3, [r2,r6]
 4802 220c 3600     		movs r6, r6
 4803 220e EFD1     		bne _xunhuanqiuma
 4804 2210 F0BD     		pop {r4-r7,pc}
 4805              	_qiumafanhui:
 4806 2212 9355     		strb r3, [r2, r6]
 4807 2214 F0BD     		pop {r4-r7,pc}
 4808              	
 4809              	__zhuanascii:								              @ 转ASCII
 4810              		@ R0要转的数据， R1长度，R2结果表首地址, r3=小数点位置
 4811 2216 F0B5     		push {r4-r7,lr}
 4812 2218 1F46     		mov r7, r3
 4813 221a 0546     		mov r5, r0
 4814 221c 0E46     		mov r6, r1
 4815 221e 0A21     		movs r1, # 10
 4816              	__xunhuanqiuma:
 4817 2220 00F022F8 		bl _chufa
 4818 2224 0446     		mov r4, r0
 4819 2226 4C43     		muls r4, r1
 4820 2228 2B1B     		subs r3, r5, r4
 4821 222a 3033     		adds r3, r3, # 0x30     @ascii偏移
 4822 222c 0546     		mov r5, r0
 4823 222e 013E     		subs r6, r6, # 1
 4824 2230 08D0     		beq __qiumafanhui
 4825 2232 BE42     		cmp r6, r7
 4826 2234 02D1     		bne __meidaoxiaoshudian
 4827 2236 2E24     		movs r4, # 0x2e         @小数点
ARM GAS  1.s 			page 86


 4828 2238 9455     		strb r4, [r2,r6]        @插入小数点
 4829 223a 013E     		subs r6, r6, # 1
 4830              	__meidaoxiaoshudian:
 4831 223c 9355     		strb r3, [r2,r6]
 4832 223e 3600     		movs r6, r6
 4833 2240 EED1     		bne __xunhuanqiuma
 4834 2242 F0BD     		pop {r4-r7,pc}
 4835              	__qiumafanhui:
 4836 2244 9355     		strb r3, [r2, r6]
 4837 2246 F0BD     		pop {r4-r7,pc}
 4838 2248 00540040 		.ltorg
 4838      FF000000 
 4838      00040048 
 4838      FFFF0100 
 4838      00300140 
 4839              	
 4840              	_chufa:						@软件除法
 4841              		@ r0 除以 r1 等于 商(r0)
 4842 2268 1EB5     		push {r1-r4,lr}
 4843 226a 0028     		cmp r0, # 0
 4844 226c 0ED0     		beq _chufafanhui
 4845 226e 0029     		cmp r1, # 0
 4846 2270 0CD0     		beq _chufafanhui
 4847 2272 0246     		mov r2, r0
 4848 2274 0123     		movs r3, # 1
 4849 2276 DB07     		lsls r3, r3, # 31
 4850 2278 0020     		movs r0, # 0
 4851 227a 0446     		mov r4, r0
 4852              	_chufaxunhuan:
 4853 227c 5200     		lsls r2, r2, # 1
 4854 227e 6441     		adcs r4, r4, r4
 4855 2280 8C42     		cmp r4, r1
 4856 2282 01D3     		bcc _chufaweishubudao0
 4857 2284 C018     		adds r0, r0, r3
 4858 2286 641A     		subs r4, r4, r1
 4859              	_chufaweishubudao0:
 4860 2288 5B08     		lsrs r3, r3, # 1
 4861 228a F7D1     		bne _chufaxunhuan
 4862              	_chufafanhui:
 4863 228c 1EBD     		pop {r1-r4,pc}
 4864              		.ltorg
 4865              	__fu_shu_chu_fa:
 4866              		@入口R0=a R1=b,R2=c R3=d
 4867              		@出口R2=实部 R1=虚部
 4868 228e F0B5     		push {r4-r7,lr}
 4869 2290 002A     		cmp r2, # 0
 4870 2292 03D1     		bne __tiao_guo_bei_chu_shu_0_pan_duan
 4871 2294 002B     		cmp r3, # 0
 4872 2296 01D1     		bne __tiao_guo_bei_chu_shu_0_pan_duan
 4873 2298 0246     		mov r2, r0
 4874 229a F0BD     		pop {r4-r7,pc}
 4875              	__tiao_guo_bei_chu_shu_0_pan_duan:
 4876 229c 4446     		mov r4, r8
 4877 229e 4D46     		mov r5, r9
 4878 22a0 5646     		mov r6, r10
 4879 22a2 5F46     		mov r7, r11
 4880 22a4 F0B4     		push {r4-r7}
ARM GAS  1.s 			page 87


 4881              	__ji_suan_chu_fa:
 4882 22a6 8046     		mov r8, r0	@a
 4883 22a8 8946     		mov r9, r1	@b
 4884 22aa 9246     		mov r10, r2	@c
 4885 22ac 9B46     		mov r11, r3	@d
 4886 22ae 0027     		movs r7, # 0
 4887              		@ (a+bi)/(c+di)=(ac+bd)/(c*c+d*d)+(bc-ad)/(c*c+d*d)
 4888 22b0 0000     		movs r0, r0
 4889 22b2 02D5     		bpl b1
 4890 22b4 C043     		mvns r0, r0
 4891 22b6 0130     		adds r0, r0, # 1
 4892 22b8 0127     		movs r7, # 1
 4893              	b1:
 4894 22ba 5146     		mov r1, r10
 4895 22bc 0900     		movs r1, r1
 4896 22be 02D5     		bpl b2
 4897 22c0 C943     		mvns r1, r1
 4898 22c2 0131     		adds r1, r1, # 1
 4899 22c4 0137     		adds r7, r7, # 1
 4900              	b2:
 4901 22c6 00F0A1F8 		bl __chengfa
 4902              	b3:
 4903 22ca 012F     		cmp r7, # 1
 4904 22cc 01D1     		bne a1
 4905 22ce C043     		mvns r0, r0
 4906 22d0 C943     		mvns r1, r1
 4907              	a1:
 4908 22d2 0446     		mov r4, r0	@a*c高32
 4909 22d4 0D46     		mov r5, r1	@a*c低32
 4910 22d6 0027     		movs r7, # 0
 4911 22d8 4846     		mov r0, r9
 4912 22da 5946     		mov r1, r11
 4913 22dc 0000     		movs r0, r0
 4914 22de 02D5     		bpl b4
 4915 22e0 C043     		mvns r0, r0
 4916 22e2 0130     		adds r0, r0, # 1
 4917 22e4 0137     		adds r7, r7, # 1
 4918              	b4:
 4919 22e6 0900     		movs r1, r1
 4920 22e8 02D5     		bpl b5
 4921 22ea C943     		mvns r1, r1
 4922 22ec 0131     		adds r1, r1, # 1
 4923 22ee 0137     		adds r7, r7, # 1
 4924              	b5:
 4925 22f0 00F08CF8 		bl __chengfa
 4926              	b6:
 4927 22f4 012F     		cmp r7, # 1
 4928 22f6 01D1     		bne a2
 4929 22f8 C043     		mvns r0, r0
 4930 22fa C943     		mvns r1, r1
 4931              	a2:
 4932 22fc 4919     		adds r1, r1, r5	@ac+bd低32
 4933 22fe 6041     		adcs r0, r0, r4	@ac+bd高32
 4934 2300 0646     		mov r6, r0
 4935 2302 0F46     		mov r7, r1
 4936 2304 5046     		mov r0, r10
 4937 2306 4043     		muls r0, r0, r0
ARM GAS  1.s 			page 88


 4938 2308 0446     		mov r4, r0	@c*c
 4939 230a 5846     		mov r0, r11
 4940 230c 4043     		muls r0, r0, r0
 4941 230e 0019     		adds r0, r0, r4
 4942 2310 01B4     		push {r0}
 4943 2312 3946     		mov r1, r7
 4944 2314 0027     		movs r7, # 0
 4945 2316 0200     		movs r2, r0
 4946 2318 02D5     		bpl b7
 4947 231a D243     		mvns r2, r2
 4948 231c 0132     		adds r2, r2, # 1
 4949 231e 0137     		adds r7, r7, # 1
 4950              	b7:
 4951 2320 3000     		movs r0, r6
 4952 2322 02D5     		bpl b8
 4953 2324 C043     		mvns r0, r0
 4954 2326 C943     		mvns r1, r1
 4955 2328 0137     		adds r7, r7, # 1
 4956              	b8:
 4957 232a 00F04BF8 		bl __chufa64
 4958 232e 012F     		cmp r7, # 1
 4959 2330 01D1     		bne __bao_cun_chu_fa_shi_bu_jie_guo
 4960 2332 C043     		mvns r0, r0
 4961 2334 C943     		mvns r1, r1
 4962              	__bao_cun_chu_fa_shi_bu_jie_guo:
 4963 2336 0646     		mov r6, r0	@实部高32
 4964 2338 0F46     		mov r7, r1	@实部低32
 4965              		@r8=a, r9=b, r10=c, r11=d
 4966              		@(b*c-a*d)/(c*c+d*d)
 4967 233a 0025     		movs r5, # 0
 4968 233c 4846     		mov r0, r9
 4969 233e 0000     		movs r0, r0
 4970 2340 02D5     		bpl b9
 4971 2342 C043     		mvns r0, r0
 4972 2344 0130     		adds r0, r0, # 1
 4973 2346 0135     		adds r5, r5, # 1
 4974              	b9:
 4975 2348 5146     		mov r1, r10
 4976 234a 0900     		movs r1, r1
 4977 234c 02D5     		bpl b10
 4978 234e C943     		mvns r1, r1
 4979 2350 0131     		adds r1, r1, # 1
 4980 2352 0135     		adds r5, r5, # 1
 4981              	b10:
 4982 2354 00F05AF8 		bl __chengfa
 4983 2358 012D     		cmp r5, # 1
 4984 235a 01D1     		bne a3
 4985 235c C043     		mvns r0, r0
 4986 235e C943     		mvns r1, r1
 4987              	a3:
 4988 2360 0446     		mov r4, r0      @b*c高32
 4989 2362 0D46     		mov r5, r1      @b*c低32
 4990 2364 0023     		movs r3, # 0
 4991 2366 4046     		mov r0, r8
 4992 2368 0000     		movs r0, r0
 4993 236a 02D5     		bpl b11
 4994 236c C043     		mvns r0, r0
ARM GAS  1.s 			page 89


 4995 236e 0130     		adds r0, r0, # 1
 4996 2370 0133     		adds r3, r3, # 1
 4997              	b11:
 4998 2372 5946     		mov r1, r11
 4999 2374 0900     		movs r1, r1
 5000 2376 02D5     		bpl b12
 5001 2378 C943     		mvns r1, r1
 5002 237a 0131     		adds r1, r1, # 1
 5003 237c 0133     		adds r3, r3, # 1
 5004              	b12:
 5005 237e 00F045F8 		bl __chengfa
 5006 2382 012B     		cmp r3, # 1
 5007 2384 01D1     		bne a4
 5008 2386 C043     		mvns r0, r0
 5009 2388 C943     		mvns r1, r1
 5010              	a4:
 5011 238a 6D1A     		subs r5, r5, r1 @bc-ad低32
 5012 238c 8441     		sbcs r4, r4, r0 @bc-ad高32
 5013 238e 04BC     		pop {r2}
 5014 2390 2946     		mov r1, r5
 5015 2392 0025     		movs r5, # 0
 5016 2394 1200     		movs r2, r2
 5017 2396 02D5     		bpl b13
 5018 2398 D243     		mvns r2, r2
 5019 239a 0132     		adds r2, r2, # 1
 5020 239c 0135     		adds r5, r5, # 1
 5021              	b13:
 5022 239e 2000     		movs r0, r4
 5023 23a0 02D5     		bpl b14
 5024 23a2 C043     		mvns r0, r0
 5025 23a4 C943     		mvns r1, r1
 5026 23a6 0135     		adds r5, r5, # 1
 5027              	b14:
 5028 23a8 00F00CF8 		bl __chufa64
 5029 23ac 012D     		cmp r5, # 1
 5030 23ae 02D1     		bne __bao_cun_chu_fa_xu_bu_jie_guo
 5031 23b0 C943     		mvns r1, r1
 5032 23b2 C043     		mvns r0, r0
 5033 23b4 0131     		adds r1, r1, # 1
 5034              	__bao_cun_chu_fa_xu_bu_jie_guo:
 5035 23b6 3A46     		mov r2, r7
 5036 23b8 F0BC     		pop {r4-r7}
 5037 23ba A046     		mov r8, r4
 5038 23bc A946     		mov r9, r5
 5039 23be B246     		mov r10, r6
 5040 23c0 BB46     		mov r11, r7
 5041 23c2 F0BD     		pop {r4-r7,pc}
 5042              	
 5043              	__chufa64:
 5044              		@64位除32位
 5045              		@ （R0=高32位R1=低32位）除（R2)= （R0高32）（R1低32）
 5046 23c4 F8B5     		push {r3-r7,lr}
 5047 23c6 002A     		cmp r2, # 0
 5048 23c8 1DD0     		beq __chu_fa64_fan_hui0
 5049 23ca 0029     		cmp r1, # 0
 5050 23cc 01D1     		bne __chu_fa64_ji_suan
 5051 23ce 0028     		cmp r0, # 0
ARM GAS  1.s 			page 90


 5052 23d0 19D0     		beq __chu_fa64_fan_hui0
 5053              	__chu_fa64_ji_suan:
 5054 23d2 0024     		movs r4, # 0
 5055 23d4 2746     		mov r7, r4
 5056 23d6 2346     		mov r3, r4
 5057 23d8 2546     		mov r5, r4
 5058 23da 0126     		movs r6, # 1
 5059 23dc F607     		lsls r6, r6, # 31
 5060              	__chu_fa64_xun_huan:
 5061 23de 4900     		lsls r1, r1, # 1
 5062 23e0 4041     		adcs r0, r0, r0
 5063 23e2 6441     		adcs r4, r4, r4
 5064 23e4 9442     		cmp r4, r2
 5065 23e6 02D3     		bcc __chu_fa_yi_wei
 5066 23e8 9B19     		adds r3, r3, r6
 5067 23ea 7D41     		adcs r5, r5, r7
 5068 23ec A41A     		subs r4, r4, r2
 5069              	__chu_fa_yi_wei:
 5070 23ee 3600     		movs r6, r6
 5071 23f0 04D0     		beq __di_yi_wei
 5072 23f2 7608     		lsrs r6, r6, # 1        @高32位移位
 5073 23f4 F3D1     		bne __chu_fa64_xun_huan
 5074 23f6 0127     		movs r7, # 1
 5075 23f8 FF07     		lsls r7, r7, # 31
 5076 23fa F0E7     		b __chu_fa64_xun_huan
 5077              	__di_yi_wei:	            @低32位移位
 5078 23fc 7F08     		lsrs r7, r7, # 1
 5079 23fe EED1     		bne __chu_fa64_xun_huan
 5080 2400 1846     		mov r0, r3
 5081 2402 2946     		mov r1, r5
 5082 2404 F8BD     		pop {r3-r7,pc}
 5083              	__chu_fa64_fan_hui0:
 5084 2406 0020     		movs r0, # 0
 5085 2408 0021     		movs r1, # 0
 5086 240a F8BD     		pop {r3-r7,pc}
 5087              	__chengfa:
 5088              		@入R0 乘以 R1
 5089              		@出 R0高32 ， R1低32
 5090              		@0xffffffff*0xffffffff
 5091              		@4        F F F E 0 0 0 1                       @4
 5092              		@3                F F F E 0 0 0 1               @3
 5093              		@2                F F F E 0 0 0 1               @2
 5094              		@1                        F F F E 0 0 0 1       @1
 5095              		@         F F F F F F F E 0 0 0 0 0 0 0 1
 5096 240c FCB5     		push {r2-r7,lr}
 5097 240e 0028     		cmp r0, # 0
 5098 2410 1ED0     		beq __cheng_fa_fan_hui
 5099 2412 0029     		cmp r1, # 0
 5100 2414 1CD0     		beq __cheng_fa_fan_hui
 5101              	__ji_suan_cheng_fa:
 5102 2416 0246     		mov r2, r0
 5103 2418 0B46     		mov r3, r1
 5104 241a 000C     		lsrs r0, r0, # 16       @高16
 5105 241c 1204     		lsls r2, r2, # 16       @ 低16
 5106 241e 120C     		lsrs r2, r2, # 16
 5107 2420 090C     		lsrs r1, r1, # 16       @高16
 5108 2422 1B04     		lsls r3, r3, # 16       @低16
ARM GAS  1.s 			page 91


 5109 2424 1B0C     		lsrs r3, r3, # 16
 5110 2426 1446     		mov r4, r2
 5111 2428 0546     		mov r5, r0
 5112 242a 5A43     		muls r2, r2, r3         @1
 5113 242c 5843     		muls r0, r0, r3         @2
 5114 242e 4C43     		muls r4, r4, r1         @3
 5115 2430 4D43     		muls r5, r5, r1         @4
 5116 2432 0646     		mov r6, r0
 5117 2434 2746     		mov r7, r4
 5118 2436 0004     		lsls r0, r0, # 16       @2低32
 5119 2438 2404     		lsls r4, r4, # 16       @3低32
 5120 243a 360C     		lsrs r6, r6, # 16       @2高32
 5121 243c 3F0C     		lsrs r7, r7, # 16       @3高32
 5122 243e 0021     		movs r1, # 0
 5123 2440 1218     		adds r2, r2, r0         @低32
 5124 2442 4E41     		adcs r6, r6, r1         @高32
 5125 2444 1219     		adds r2, r2, r4
 5126 2446 7E41     		adcs r6, r6, r7
 5127 2448 7619     		adds r6, r6, r5
 5128 244a 3046     		mov r0, r6
 5129 244c 1146     		mov r1, r2
 5130 244e FCBD     		pop {r2-r7,pc}
 5131              	__cheng_fa_fan_hui:
 5132 2450 0020     		movs r0, # 0
 5133 2452 0021     		movs r1, # 0
 5134 2454 FCBD     		pop {r2-r7,pc}
 5135              		
 5136              	
 5137              	
 5138              		__chu_fa:	@带符号
 5139 2456 FEB5     		push {r1-r7,lr}
 5140 2458 0028     	        cmp r0, # 0
 5141 245a 1DD0     	        beq _chufafanhui1
 5142 245c 0029     	        cmp r1, # 0
 5143 245e 1BD0     	        beq _chufafanhui1
 5144 2460 0025     		movs r5, # 0
 5145 2462 0000     		movs r0, r0
 5146 2464 02D5     		bpl __pan_duan_bei_chu_shu
 5147 2466 0135     		adds r5, r5, # 1
 5148 2468 C043     		mvns r0, r0
 5149 246a 0130     		adds r0, r0, # 1
 5150              	__pan_duan_bei_chu_shu:
 5151 246c 0900     		movs r1, r1
 5152 246e 02D5     		bpl __ji_suan_chu_fa11
 5153 2470 0135     		adds r5, r5, # 1
 5154 2472 C943     		mvns r1, r1
 5155 2474 0131     		adds r1, r1, # 1
 5156              	__ji_suan_chu_fa11:	
 5157 2476 0246     	        mov r2, r0
 5158 2478 0123     	        movs r3, # 1
 5159 247a DB07     	        lsls r3, r3, # 31
 5160 247c 0020     	        movs r0, # 0
 5161 247e 0446     	        mov r4, r0
 5162              	_chufaxunhuan1:
 5163 2480 5200     	        lsls r2, r2, # 1
 5164 2482 6441     	        adcs r4, r4, r4
 5165 2484 8C42     	        cmp r4, r1
ARM GAS  1.s 			page 92


 5166 2486 01D3     		bcc _chufaweishubudao00
 5167 2488 C018     		adds r0, r0, r3
 5168 248a 641A     		subs r4, r4, r1
 5169              	_chufaweishubudao00:
 5170 248c 5B08     		lsrs r3, r3, # 1
 5171 248e F7D1     		bne _chufaxunhuan1
 5172 2490 012D     		cmp r5, # 1
 5173 2492 01D1     		bne _chufafanhui1
 5174 2494 C043     		mvns r0, r0
 5175 2496 0130     		adds r0, r0, # 1
 5176              	_chufafanhui1:
 5177 2498 FEBD     		pop {r1-r7,pc}
 5178              		
 5179              	_nmi:
 5180              	_Hard_Fault:
 5181              	_svc_handler:
 5182              	_pendsv_handler:
 5183              	aaa:
 5184 249a 7047     		bx lr
 5185              		
 5186              	_systickzhongduan:
 5187 249c 7FB5     			push {r0-r6,lr}
 5188              	
 5189 249e 1A48     		ldr r0, = 0x40020000
 5190 24a0 1A49     		ldr r1, = 0x103e8
 5191 24a2 4162     		str r1, [r0, # 0x24]    @传输数量
 5192 24a4 1A49     		ldr r1, = dianyabiao
 5193 24a6 C162     		str r1, [r0, # 0x2c]    @目的地
 5194 24a8 6921     		movs r1, # 0x69
 5195 24aa 0162     		str r1, [r0, # 0x20]    @模式设置和开DMA
 5196              	
 5197 24ac 1749     	        ldr r1, = 0x103e8
 5198 24ae 4164     	        str r1, [r0, # 0x44]    @传输数量
 5199 24b0 1849     		ldr r1, = dianyabiao1
 5200 24b2 C164     		str r1, [r0, # 0x4c]    @目的地
 5201 24b4 6921     		movs r1, # 0x69
 5202 24b6 0164     	        str r1, [r0, # 0x40]    @模式设置和开DMA
 5203              	
 5204              	
 5205 24b8 FEF77DF9 		bl __dft
 5206 24bc 0011     		asrs r0, r0, # 4
 5207 24be 0911     		asrs r1, r1, # 4
 5208 24c0 1211     		asrs r2, r2, # 4
 5209 24c2 1B11     		asrs r3, r3, # 4
 5210              	
 5211 24c4 0446     		mov r4, r0
 5212 24c6 1546     		mov r5, r2
 5213 24c8 1E46     		mov r6, r3
 5214              	
 5215 24ca 134A     	        ldr r2, = lvboqizhizhen1
 5216 24cc 1348     	        ldr r0, =lvboqihuanchong1
 5217 24ce FFF78BFC 	        bl __lv_bo_qi
 5218 24d2 1349     	        ldr r1, = vr_i
 5219 24d4 0860     	        str r0, [r1]
 5220              	
 5221 24d6 2146     		mov r1, r4
 5222 24d8 124A     	        ldr r2, = lvboqizhizhen0
ARM GAS  1.s 			page 93


 5223 24da 1348     	        ldr r0, =lvboqihuanchong0
 5224 24dc FFF784FC 	        bl __lv_bo_qi
 5225 24e0 1249     	        ldr r1, = vr_r
 5226 24e2 0860     	        str r0, [r1]
 5227              		
 5228 24e4 2946     		mov r1, r5
 5229 24e6 124A     		ldr r2, = lvboqizhizhen2
 5230 24e8 1248     		ldr r0, =lvboqihuanchong2
 5231 24ea FFF77DFC 		bl __lv_bo_qi
 5232 24ee 1249     	        ldr r1, = vt_r
 5233 24f0 0860     		str r0, [r1]
 5234              	
 5235 24f2 3146     		mov r1, r6
 5236 24f4 114A     		ldr r2, = lvboqizhizhen3
 5237 24f6 1248     		ldr r0, =lvboqihuanchong3
 5238 24f8 FFF776FC 		bl __lv_bo_qi
 5239 24fc 1149     	        ldr r1, = vt_i
 5240 24fe 0860     	        str r0, [r1]
 5241              	
 5242              	__systick_fanhui:
 5243 2500 1148     		ldr r0, = 0xe0000d04
 5244 2502 1249     		ldr r1, = 0x02000000
 5245 2504 0160     		str r1, [r0]                 @ 清除SYSTICK中断
 5246 2506 7FBD     		pop {r0-r6,pc}
 5247              	
 5248              	
 5249              		.section .data
 5250              		.equ kai_lu_r,			0xf000
 5251              		.equ kai_lu_i,			0xf004
 5252              		.equ duan_lu_r,			0xf008
 5253              		.equ duan_lu_i,			0xf00c
 5254              		.equ pi_pei_r,			0xf010
 5255              		.equ pi_pei_i,			0xf014
 5256              		
 5257              		.equ zhanding,			0x200000fc
 5258              		.equ dianyabiao,		0x20000100
 5259              		.equ dianyabiao1,		0x200008e0
 5260              	
 5261              		.equ lvboqizhizhen0,            0x200010c0
 5262              		.equ lvboqihuanchong0,          0x200010c8
 5263              		.equ lvboqizhizhen1,            0x200012c0
 5264              		.equ lvboqihuanchong1,          0x200012c8
 5265              	        .equ lvboqizhizhen2,            0x200014c0
 5266              	        .equ lvboqihuanchong2,          0x200014c8
 5267              		.equ lvboqizhizhen3,            0x20001600
 5268              	        .equ lvboqihuanchong3,          0x20001608
 5269              	
 5270              	
 5271              	
 5272              	
 5273              	
 5274              	
 5275              	
 5276              	
 5277              		.equ jiaozhun_caidan_zhizhen,	0x20001f58
 5278              		
 5279              		.equ kailu_r,			0x20001f5c
ARM GAS  1.s 			page 94


 5280              		.equ kailu_i,			0x20001f60
 5281              		.equ duanlu_r,			0x20001f64
 5282              		.equ duanlu_i,			0x20001f68
 5283              		.equ pipei_r,			0x20001f6c
 5284              		.equ pipei_i,			0x20001f70
 5285              		.equ pm1,			0x20001f74
 5286              		.equ pm1i,			0x20001f78
 5287              		.equ pm2,			0x20001f7c
 5288              		.equ pm2i,			0x20001f80
 5289              		.equ pm3,			0x20001f84
 5290              		.equ pm3i,			0x20001f88
 5291              		
 5292              		.equ p_jz_r,			0x20001f8c
 5293              		.equ p_jz_i,			0x20001f90
 5294              		.equ p_shibu,			0x20001f94
 5295              		.equ p_xubu,			0x20001f98
 5296              		.equ z_r,			0x20001fb4
 5297              		.equ z_i,			0x20001fb8
 5298              		.equ s11_r,			0x20001fbc
 5299              		.equ s11_i,			0x20001fc0
 5300              		.equ vr_r,			0x20001fc4	
 5301              		.equ vr_i,			0x20001fc8
 5302              		.equ vt_r,			0x20001fcc
 5303              		.equ vt_i,			0x20001fd0
 5304              		.equ lvbo_changdu,		0x20001fd4
 5305              		.equ lvbo_youyi,		0x20001fd8
 5306              		.equ cossin,			0x20001fdc 
 5307              		.equ asciibiao,			0x20001fe0
 5308              	
 5309              		.align 4
 5310              	yjmwxwx:
 5311 0000 796A6D77 		.ascii "yjmwxwx 2024 10 01"
 5311      78777820 
 5311      32303234 
 5311      20313020 
 5311      3031
 5312              	
 5313              	akong:
 5314 0012 20202020 		.int 0x20202020
 5315 0016 20202020 		.int 0x20202020
 5316 001a 20202020 		.int 0x20202020
 5317 001e 20202020 		.int 0x20202020
 5318 0022 20202020 		.int 0x20202020
 5319 0026 20202020 		.int 0x20202020
 5320              	afu:
 5321 002a 2121     		.ascii "!!"
 5322              	a_fu:
 5323 002c 2D       		.ascii "-"
 5324              	aCs:
 5325 002d 4373     		.ascii "Cs"
 5326              	aLs:
 5327 002f 4C73     		.ascii "Ls"
 5328              	aD:
 5329 0031 44       		.ascii "D"
 5330              	aQ:
 5331 0032 51       		.ascii "Q"
 5332              	kai_shi_jiao_zhun:
ARM GAS  1.s 			page 95


 5333 0033 6B616920 		.ascii "kai shi  jiao zhun"
 5333      73686920 
 5333      206A6961 
 5333      6F207A68 
 5333      756E
 5334              	ok:
 5335 0045 3D3D3D3D 		.ascii "========OK========"
 5335      3D3D3D3D 
 5335      4F4B3D3D 
 5335      3D3D3D3D 
 5335      3D3D
 5336              	a_kai_lu_jiao_zhun:
 5337 0057 6B616920 		.ascii "kai  lu  jiao zhun"
 5337      206C7520 
 5337      206A6961 
 5337      6F207A68 
 5337      756E
 5338              	a_duan_lu_jiao_zhun:
 5339 0069 6475616E 		.ascii "duan lu   jiao zhun"
 5339      206C7520 
 5339      20206A69 
 5339      616F207A 
 5339      68756E
 5340              	a_50_ou_jiao_zhun:
 5341 007c 6469616E 		.ascii "dianzu 50R jiaozhun"
 5341      7A752035 
 5341      3052206A 
 5341      69616F7A 
 5341      68756E
 5342              	a_jiao_zhun_wan_cheng:
 5343 008f 6A69616F 		.ascii "jiao zhun wancheng!"
 5343      207A6875 
 5343      6E207761 
 5343      6E636865 
 5343      6E6721
 5344              	
 5345 00a2 00000000 		.align 4
 5345      00000000 
 5345      00000000 
 5345      0000
 5346              	jiao_zhun_bao_cun_biao:
 5347 00b0 741F0020 		.word pm1
 5348 00b4 7C1F0020 		.word pm2
 5349 00b8 841F0020 		.word pm3
 5350              	jiao_zhun_xian_shi_biao:
 5351 00bc 57000000 		.word a_kai_lu_jiao_zhun
 5352 00c0 69000000 		.word a_duan_lu_jiao_zhun
 5353 00c4 7C000000 		.word a_50_ou_jiao_zhun
 5354 00c8 8F000000 		.word a_jiao_zhun_wan_cheng
 5355              	
 5356 00cc 00000000 		.align 4
 5357              	an_jian_biao:
 5358 00d0 C9010000 		.word __anjian0	+1
 5359 00d4 CB010000 		.word __anjian1	+1
 5360 00d8 D7010000 		.word __anjian2	+1
 5361 00dc D9010000 		.word __anjian3	+1
 5362              	
ARM GAS  1.s 			page 96


 5363              	
 5364              	
 5365              		
 5366              		.align 4
 5367              	cos_sin_biao_1khz:
 5368 00e0 00800000 		.int 0x8000,0x0000,0x7FFD,0xFFFFFE65,0x7FF5,0xFFFFFCC9,0x7FE8,0xFFFFFB2D,0x7FD6,0xFFFFF992,0x7FBF,
 5368      00000000 
 5368      FD7F0000 
 5368      65FEFFFF 
 5368      F57F0000 
 5369              	
 5370              		.align 4
 5371              	
 5372              	si5351:	 @0=148999000, 1=149000000,2=24000000
 5373 2020 00       	.byte 0x00
 5374 2021 0213     	.byte 0x0002, 0x13
 5375 2023 0300     	.byte 0x0003, 0x00
 5376 2025 0400     	.byte 0x0004, 0x00
 5377 2027 0700     	.byte 0x0007, 0x00
 5378 2029 0F00     	.byte 0x000F, 0x00
 5379 202b 106F     	.byte 0x0010, 0x6F
 5380 202d 114F     	.byte 0x0011, 0x4F
 5381 202f 120F     	.byte 0x0012, 0x0F
 5382 2031 138C     	.byte 0x0013, 0x8C
 5383 2033 148C     	.byte 0x0014, 0x8C
 5384 2035 158C     	.byte 0x0015, 0x8C
 5385 2037 168C     	.byte 0x0016, 0x8C
 5386 2039 178C     	.byte 0x0017, 0x8C
 5387 203b 1A00     	.byte 0x001A, 0x00
 5388 203d 1B19     	.byte 0x001B, 0x19
 5389 203f 1C00     	.byte 0x001C, 0x00
 5390 2041 1D0F     	.byte 0x001D, 0x0F
 5391 2043 1EE1     	.byte 0x001E, 0xE1
 5392 2045 1F00     	.byte 0x001F, 0x00
 5393 2047 2000     	.byte 0x0020, 0x00
 5394 2049 2107     	.byte 0x0021, 0x07
 5395 204b 2230     	.byte 0x0022, 0x30
 5396 204d 23D4     	.byte 0x0023, 0xD4
 5397 204f 2400     	.byte 0x0024, 0x00
 5398 2051 250F     	.byte 0x0025, 0x0F
 5399 2053 26E1     	.byte 0x0026, 0xE1
 5400 2055 2700     	.byte 0x0027, 0x00
 5401 2057 280C     	.byte 0x0028, 0x0C
 5402 2059 292C     	.byte 0x0029, 0x2C
 5403 205b 2A00     	.byte 0x002A, 0x00
 5404 205d 2B01     	.byte 0x002B, 0x01
 5405 205f 2C00     	.byte 0x002C, 0x00
 5406 2061 2D01     	.byte 0x002D, 0x01
 5407 2063 2E00     	.byte 0x002E, 0x00
 5408 2065 2F00     	.byte 0x002F, 0x00
 5409 2067 3000     	.byte 0x0030, 0x00
 5410 2069 3100     	.byte 0x0031, 0x00
 5411 206b 3200     	.byte 0x0032, 0x00
 5412 206d 3301     	.byte 0x0033, 0x01
 5413 206f 3400     	.byte 0x0034, 0x00
 5414 2071 3501     	.byte 0x0035, 0x01
 5415 2073 3600     	.byte 0x0036, 0x00
ARM GAS  1.s 			page 97


 5416 2075 3700     	.byte 0x0037, 0x00
 5417 2077 3800     	.byte 0x0038, 0x00
 5418 2079 3900     	.byte 0x0039, 0x00
 5419 207b 3A00     	.byte 0x003A, 0x00
 5420 207d 3B04     	.byte 0x003B, 0x04
 5421 207f 3C00     	.byte 0x003C, 0x00
 5422 2081 3D10     	.byte 0x003D, 0x10
 5423 2083 3EA0     	.byte 0x003E, 0xA0
 5424 2085 3F00     	.byte 0x003F, 0x00
 5425 2087 4000     	.byte 0x0040, 0x00
 5426 2089 4100     	.byte 0x0041, 0x00
 5427 208b 5A00     	.byte 0x005A, 0x00
 5428 208d 5B00     	.byte 0x005B, 0x00
 5429 208f 9500     	.byte 0x0095, 0x00
 5430 2091 9600     	.byte 0x0096, 0x00
 5431 2093 9700     	.byte 0x0097, 0x00
 5432 2095 9800     	.byte 0x0098, 0x00
 5433 2097 9900     	.byte 0x0099, 0x00
 5434 2099 9A00     	.byte 0x009A, 0x00
 5435 209b 9B00     	.byte 0x009B, 0x00
 5436 209d A200     	.byte 0x00A2, 0x00
 5437 209f A300     	.byte 0x00A3, 0x00
 5438 20a1 A400     	.byte 0x00A4, 0x00
 5439 20a3 A500     	.byte 0x00A5, 0x00
 5440 20a5 A600     	.byte 0x00A6, 0x00
 5441 20a7 A700     	.byte 0x00A7, 0x00
 5442 20a9 B792     	.byte 0x00B7, 0x92
 5443              	
 5444              		
 5445              	@si5351:	@0=148999000,1=149000000,2=28000000
 5446 20ab 00021303 		.byte 0x00,2,0x13,3,0,4,0,7,0,15,0,16,0x7F,17,0x5F,18,0x1F
 5446      00040007 
 5446      000F0010 
 5446      7F115F12 
 5446      1F
 5447 20bc 138C148C 		.byte 19,0x8C,20,0x8C,21,0x8C,22,0x8C,23,0x8C,26,0,27,0x19,28,0
 5447      158C168C 
 5447      178C1A00 
 5447      1B191C00 
 5448 20cc 1D0F1EE1 		.byte 29,0x0F,30,0xE1,31,0,32,0,33,0x07,34,0x30,35,0xD4,36,0
 5448      1F002000 
 5448      21072230 
 5448      23D42400 
 5449 20dc 250F26E1 		.byte 37,0x0F,38,0xE1,39,0,40,0x0C,41,0x2C,42,0,43,0x01,44,0
 5449      2700280C 
 5449      292C2A00 
 5449      2B012C00 
 5450 20ec 2D012E00 		.byte 45,0x01,46,0,47,0,48,0,49,0,50,0,51,0x01,52,0
 5450      2F003000 
 5450      31003200 
 5450      33013400 
 5451 20fc 35013600 		.byte 53,0x01,54,0,55,0,56,0,57,0,58,0,59,0x0E,60,0
 5451      37003800 
 5451      39003A00 
 5451      3B0E3C00 
 5452 210c 3D0D3EF6 		.byte 61,0x0D,62,0xF6,63,0,64,0,65,0x0C,90,0,91,0,149,0
 5452      3F004000 
ARM GAS  1.s 			page 98


 5452      410C5A00 
 5452      5B009500 
 5453 211c 96009700 		.byte 150,0,151,0,152,0,153,0,154,0,155,0,162,0,163,0
 5453      98009900 
 5453      9A009B00 
 5453      A200A300 
 5454 212c A400A500 		.byte 164,0,165,0,166,0,167,0,183,0x92
 5454      A600A700 
 5454      B792
 5455              	
 5456              		
 5457              	
 5458 2136 00000000 		.align 4
 5458      00000000 
 5458      0000
 5459              	da_a_labo_hack:			 @16*24
 5460 2140 00000080 		.byte 0x00, 0x00, 0x00, 0x80, 0xFF, 0x01, 0xF0, 0xFF, 0x0F, 0xF8, 0xFF, 0x1F, 0x7C, 0x00, 0x3E, 0x
 5460      FF01F0FF 
 5460      0FF8FF1F 
 5460      7C003E1E 
 5460      00780E00 
 5461 2170 00000000 		.byte 0x00, 0x00, 0x00, 0x00, 0x00, 0x00, 0x00, 0x00, 0x00, 0x70, 0x00, 0x70, 0x70, 0x00, 0x70, 0x
 5461      00000000 
 5461      00700070 
 5461      70007070 
 5461      00707800 
 5462 21a0 00000000 		.byte 0x00, 0x00, 0x00, 0x00, 0x00, 0x78, 0x1C, 0x00, 0x7C, 0x1C, 0x00, 0x7E, 0x0E, 0x00, 0x77, 0x
 5462      00781C00 
 5462      7C1C007E 
 5462      0E00770E 
 5462      00770E80 
 5463 21d0 00000000 		.byte 0x00, 0x00, 0x00, 0x00, 0x00, 0x38, 0x1C, 0x00, 0x38, 0x1C, 0x00, 0x70, 0x0E, 0x00, 0x70, 0x
 5463      00381C00 
 5463      381C0070 
 5463      0E00700E 
 5463      00700E1C 
 5464 2200 00E00100 		.byte 0x00, 0xE0, 0x01, 0x00, 0xF0, 0x01, 0x00, 0xFC, 0x01, 0x00, 0xFE, 0x01, 0x00, 0xDF, 0x01, 0x
 5464      F00100FC 
 5464      0100FE01 
 5464      00DF0180 
 5464      CF01E0C3 
 5465 2230 00000000 		.byte 0x00, 0x00, 0x00, 0x00, 0x00, 0x00, 0x00, 0x00, 0x38, 0xFE, 0x1F, 0x38, 0xFE, 0x0F, 0x70, 0x
 5465      00000000 
 5465      38FE1F38 
 5465      FE0F70FE 
 5465      0F700E0E 
 5466 2260 00000000 		.byte 0x00, 0x00, 0x00, 0x00, 0xFE, 0x03, 0xC0, 0xFF, 0x0F, 0xF0, 0xFF, 0x1F, 0xF8, 0x1C, 0x3E, 0x
 5466      FE03C0FF 
 5466      0FF0FF1F 
 5466      F81C3E3C 
 5466      0C781C0E 
 5467 2290 0000000E 		.byte 0x00, 0x00, 0x00, 0x0E, 0x00, 0x00, 0x0E, 0x00, 0x00, 0x0E, 0x00, 0x40, 0x0E, 0x00, 0x70, 0x
 5467      00000E00 
 5467      000E0040 
 5467      0E00700E 
 5467      007C0E00 
 5468 22c0 00000000 		.byte 0x00, 0x00, 0x00, 0x00, 0xC0, 0x07, 0xF0, 0xE1, 0x1F, 0xF8, 0xF3, 0x3F, 0xFC, 0x3F, 0x3C, 0x
ARM GAS  1.s 			page 99


 5468      C007F0E1 
 5468      1FF8F33F 
 5468      FC3F3C1E 
 5468      1F780E0E 
 5469 22f0 000000E0 		.byte 0x00, 0x00, 0x00, 0xE0, 0x07, 0x00, 0xF0, 0x1F, 0x00, 0xF8, 0x3F, 0x78, 0x3C, 0x3C, 0x70, 0x
 5469      0700F01F 
 5469      00F83F78 
 5469      3C3C701E 
 5469      78700E70 
 5470              		.align 4
 5471              	ascii_biao:				@6*8
 5472 2320 00000000 		.byte 0x00, 0x00, 0x00, 0x00, 0x00, 0x00 @
 5472      0000
 5473              		@	.byte 0x00, 0x00, 0x00, 0x4F, 0x00, 0x00 @ !	
 5474 2326 3C3C3C3C 		.byte 0x3c, 0x3c, 0x3c, 0x3c, 0x3c, 0x3c @ !		@上面是对的
 5474      3C3C
 5475 232c 00000700 		.byte 0x00, 0x00, 0x07, 0x00, 0x07, 0x00 @ "
 5475      0700
 5476 2332 00147F14 		.byte 0x00, 0x14, 0x7F, 0x14, 0x7F, 0x14 @ #
 5476      7F14
 5477 2338 00242A7F 		.byte 0x00, 0x24, 0x2A, 0x7F, 0x2A, 0x12 @ $
 5477      2A12
 5478 233e 00231308 		.byte 0x00, 0x23, 0x13, 0x08, 0x64, 0x62 @ %
 5478      6462
 5479 2344 00364955 		.byte 0x00, 0x36, 0x49, 0x55, 0x22, 0x50 @ &
 5479      2250
 5480 234a 00000503 		.byte 0x00, 0x00, 0x05, 0x03, 0x00, 0x00 @ '
 5480      0000
 5481 2350 00001C22 		.byte 0x00, 0x00, 0x1C, 0x22, 0x41, 0x00 @ (
 5481      4100
 5482 2356 00004122 		.byte 0x00, 0x00, 0x41, 0x22, 0x1C, 0x00 @ )
 5482      1C00
 5483 235c 0014083E 		.byte 0x00, 0x14, 0x08, 0x3E, 0x08, 0x14 @ *
 5483      0814
 5484 2362 0008083E 		.byte 0x00, 0x08, 0x08, 0x3E, 0x08, 0x08 @ +
 5484      0808
 5485 2368 00005030 		.byte 0x00, 0x00, 0x50, 0x30, 0x00, 0x00 @ ,
 5485      0000
 5486 236e 00080808 		.byte 0x00, 0x08, 0x08, 0x08, 0x08, 0x08 @ -
 5486      0808
 5487 2374 00006060 		.byte 0x00, 0x00, 0x60, 0x60, 0x00, 0x00 @ .
 5487      0000
 5488 237a 00201008 		.byte 0x00, 0x20, 0x10, 0x08, 0x04, 0x02 @ /
 5488      0402
 5489 2380 003E5149 		.byte 0x00, 0x3E, 0x51, 0x49, 0x45, 0x3E @ 0
 5489      453E
 5490 2386 0000427F 		.byte 0x00, 0x00, 0x42, 0x7F, 0x40, 0x00 @ 1
 5490      4000
 5491 238c 00426151 		.byte 0x00, 0x42, 0x61, 0x51, 0x49, 0x46 @ 2
 5491      4946
 5492 2392 00214145 		.byte 0x00, 0x21, 0x41, 0x45, 0x4B, 0x31 @ 3
 5492      4B31
 5493 2398 00181412 		.byte 0x00, 0x18, 0x14, 0x12, 0x7F, 0x10 @ 4
 5493      7F10
 5494 239e 00274545 		.byte 0x00, 0x27, 0x45, 0x45, 0x45, 0x39 @ 5
 5494      4539
 5495 23a4 003C4A49 		.byte 0x00, 0x3C, 0x4A, 0x49, 0x49, 0x30 @ 6
ARM GAS  1.s 			page 100


 5495      4930
 5496 23aa 00010179 		.byte 0x00, 0x01, 0x01, 0x79, 0x05, 0x03 @ 7
 5496      0503
 5497 23b0 00364949 		.byte 0x00, 0x36, 0x49, 0x49, 0x49, 0x36 @ 8
 5497      4936
 5498 23b6 00064949 		.byte 0x00, 0x06, 0x49, 0x49, 0x29, 0x1E @ 9
 5498      291E
 5499 23bc 00003636 		.byte 0x00, 0x00, 0x36, 0x36, 0x00, 0x00 @ :
 5499      0000
 5500 23c2 00005636 		.byte 0x00, 0x00, 0x56, 0x36, 0x00, 0x00 @ ;
 5500      0000
 5501 23c8 00081422 		.byte 0x00, 0x08, 0x14, 0x22, 0x41, 0x00 @ <
 5501      4100
 5502 23ce 00141414 		.byte 0x00, 0x14, 0x14, 0x14, 0x14, 0x14 @ =
 5502      1414
 5503 23d4 00004122 		.byte 0x00, 0x00, 0x41, 0x22, 0x14, 0x08 @ >
 5503      1408
 5504 23da 02015109 		.byte 0x02, 0x01, 0x51, 0x09, 0x06, 0x00 @ ?
 5504      0600
 5505 23e0 00324979 		.byte 0x00, 0x32, 0x49, 0x79, 0x41, 0x3E @ @
 5505      413E
 5506 23e6 007E1111 		.byte 0x00, 0x7E, 0x11, 0x11, 0x11, 0x7E @ A
 5506      117E
 5507 23ec 00417F49 		.byte 0x00, 0x41, 0x7F, 0x49, 0x49, 0x36 @ B
 5507      4936
 5508 23f2 003E4141 		.byte 0x00, 0x3E, 0x41, 0x41, 0x41, 0x22 @ C
 5508      4122
 5509 23f8 00417F41 		.byte 0x00, 0x41, 0x7F, 0x41, 0x41, 0x3E @ D
 5509      413E
 5510 23fe 007F4949 		.byte 0x00, 0x7F, 0x49, 0x49, 0x49, 0x49 @ E
 5510      4949
 5511 2404 007F0909 		.byte 0x00, 0x7F, 0x09, 0x09, 0x09, 0x09 @ F
 5511      0909
 5512 240a 003E4141 		.byte 0x00, 0x3E, 0x41, 0x41, 0x51, 0x72 @ G
 5512      5172
 5513 2410 007F0808 		.byte 0x00, 0x7F, 0x08, 0x08, 0x08, 0x7F @ H
 5513      087F
 5514 2416 0000417F 		.byte 0x00, 0x00, 0x41, 0x7F, 0x41, 0x00 @ I
 5514      4100
 5515 241c 00204041 		.byte 0x00, 0x20, 0x40, 0x41, 0x3F, 0x01 @ J
 5515      3F01
 5516 2422 007F0814 		.byte 0x00, 0x7F, 0x08, 0x14, 0x22, 0x41 @ K
 5516      2241
 5517 2428 007F4040 		.byte 0x00, 0x7F, 0x40, 0x40, 0x40, 0x40 @ L
 5517      4040
 5518 242e 007F020C 		.byte 0x00, 0x7F, 0x02, 0x0C, 0x02, 0x7F @ M
 5518      027F
 5519 2434 817F0608 		.byte 0x81, 0x7F, 0x06, 0x08, 0x30, 0x7F @ N
 5519      307F
 5520 243a 003E4141 		.byte 0x00, 0x3E, 0x41, 0x41, 0x41, 0x3E @ O
 5520      413E
 5521 2440 007F0909 		.byte 0x00, 0x7F, 0x09, 0x09, 0x09, 0x06 @ P
 5521      0906
 5522 2446 003E4151 		.byte 0x00, 0x3E, 0x41, 0x51, 0x21, 0x5E @ Q
 5522      215E
 5523 244c 007F0919 		.byte 0x00, 0x7F, 0x09, 0x19, 0x29, 0x46 @ R
 5523      2946
ARM GAS  1.s 			page 101


 5524 2452 00264949 		.byte 0x00, 0x26, 0x49, 0x49, 0x49, 0x32 @ S
 5524      4932
 5525 2458 0001017F 		.byte 0x00, 0x01, 0x01, 0x7F, 0x01, 0x01 @ T
 5525      0101
 5526 245e 003F4040 		.byte 0x00, 0x3F, 0x40, 0x40, 0x40, 0x3F @ U
 5526      403F
 5527 2464 001F2040 		.byte 0x00, 0x1F, 0x20, 0x40, 0x20, 0x1F @ V
 5527      201F
 5528 246a 007F2018 		.byte 0x00, 0x7F, 0x20, 0x18, 0x20, 0x7F @ W
 5528      207F
 5529 2470 00631408 		.byte 0x00, 0x63, 0x14, 0x08, 0x14, 0x63 @ X
 5529      1463
 5530 2476 00070870 		.byte 0x00, 0x07, 0x08, 0x70, 0x08, 0x07 @ Y
 5530      0807
 5531 247c 00615149 		.byte 0x00, 0x61, 0x51, 0x49, 0x45, 0x43 @ Z
 5531      4543
 5532 2482 00007F41 		.byte 0x00, 0x00, 0x7F, 0x41, 0x41, 0x00 @ [
 5532      4100
 5533 2488 00020408 		.byte 0x00, 0x02, 0x04, 0x08, 0x10, 0x20 @ BackSlash
 5533      1020
 5534 248e 00004141 		.byte 0x00, 0x00, 0x41, 0x41, 0x7F, 0x00 @ ]
 5534      7F00
 5535 2494 00040201 		.byte 0x00, 0x04, 0x02, 0x01, 0x02, 0x04 @ ^
 5535      0204
 5536 249a 00404040 		.byte 0x00, 0x40, 0x40, 0x40, 0x40, 0x40 @ _
 5536      4040
 5537 24a0 00010204 		.byte 0x00, 0x01, 0x02, 0x04, 0x00, 0x00 @ `
 5537      0000
 5538 24a6 00205454 		.byte 0x00, 0x20, 0x54, 0x54, 0x54, 0x78 @ a
 5538      5478
 5539 24ac 007F4844 		.byte 0x00, 0x7F, 0x48, 0x44, 0x44, 0x38 @ b
 5539      4438
 5540 24b2 00384444 		.byte 0x00, 0x38, 0x44, 0x44, 0x44, 0x28 @ c
 5540      4428
 5541 24b8 00384444 		.byte 0x00, 0x38, 0x44, 0x44, 0x48, 0x7F @ d
 5541      487F
 5542 24be 00385454 		.byte 0x00, 0x38, 0x54, 0x54, 0x54, 0x18 @ e
 5542      5418
 5543 24c4 0000087E 		.byte 0x00, 0x00, 0x08, 0x7E, 0x09, 0x02 @ f
 5543      0902
 5544 24ca 000C5252 		.byte 0x00, 0x0C, 0x52, 0x52, 0x4C, 0x3E @ g
 5544      4C3E
 5545 24d0 007F0804 		.byte 0x00, 0x7F, 0x08, 0x04, 0x04, 0x78 @ h
 5545      0478
 5546 24d6 0000447D 		.byte 0x00, 0x00, 0x44, 0x7D, 0x40, 0x00 @ i
 5546      4000
 5547 24dc 00204044 		.byte 0x00, 0x20, 0x40, 0x44, 0x3D, 0x00 @ j
 5547      3D00
 5548 24e2 00007F10 		.byte 0x00, 0x00, 0x7F, 0x10, 0x28, 0x44 @ k
 5548      2844
 5549 24e8 0000417F 		.byte 0x00, 0x00, 0x41, 0x7F, 0x40, 0x00 @ l
 5549      4000
 5550 24ee 00780478 		.byte 0x00, 0x78, 0x04, 0x78, 0x04, 0x78 @ m
 5550      0478
 5551 24f4 007C0804 		.byte 0x00, 0x7C, 0x08, 0x04, 0x04, 0x78 @ n
 5551      0478
 5552 24fa 00387C7C 		.byte 0x00, 0x38, 0x7C, 0x7C, 0x7C, 0x38 @ o
ARM GAS  1.s 			page 102


 5552      7C38
 5553 2500 007E0C12 		.byte 0x00, 0x7E, 0x0C, 0x12, 0x12, 0x0C @ p
 5553      120C
 5554 2506 000C1212 		.byte 0x00, 0x0C, 0x12, 0x12, 0x0C, 0x7E @ q
 5554      0C7E
 5555 250c 007C0804 		.byte 0x00, 0x7C, 0x08, 0x04, 0x04, 0x08 @ r
 5555      0408
 5556 2512 00585454 		.byte 0x00, 0x58, 0x54, 0x54, 0x54, 0x64 @ s
 5556      5464
 5557 2518 00043F44 		.byte 0x00, 0x04, 0x3F, 0x44, 0x40, 0x20 @ t
 5557      4020
 5558 251e 003C4040 		.byte 0x00, 0x3C, 0x40, 0x40, 0x3C, 0x40 @ u
 5558      3C40
 5559 2524 001C2040 		.byte 0x00, 0x1C, 0x20, 0x40, 0x20, 0x1C @ v
 5559      201C
 5560 252a 003C4030 		.byte 0x00, 0x3C, 0x40, 0x30, 0x40, 0x3C @ w
 5560      403C
 5561 2530 00442810 		.byte 0x00, 0x44, 0x28, 0x10, 0x28, 0x44 @ x
 5561      2844
 5562 2536 001CA0A0 		.byte 0x00, 0x1C, 0xA0, 0xA0, 0x90, 0x7C @ y
 5562      907C
 5563 253c 00446454 		.byte 0x00, 0x44, 0x64, 0x54, 0x4C, 0x44 @ z
 5563      4C44
 5564 2542 00000836 		.byte 0x00, 0x00, 0x08, 0x36, 0x41, 0x00 @ {
 5564      4100
 5565 2548 00000077 		.byte 0x00, 0x00, 0x00, 0x77, 0x00, 0x00 @ |
 5565      0000
 5566 254e 00004136 		.byte 0x00, 0x00, 0x41, 0x36, 0x08, 0x00 @ }
 5566      0800
 5567 2554 00020102 		.byte 0x00, 0x02, 0x01, 0x02, 0x04, 0x02 @ ~
 5567      0402
 5568 255a 00000000 		.byte 0x00, 0x00, 0x00, 0x00, 0x00, 0x00 @
 5568      0000
 5569              	
 5570              		.align 4
 5571              	
 5572              	danweibiao:			 @15*24
 5573 2560 000000FE 		.byte 0x00, 0x00, 0x00, 0xFE, 0xFF, 0x7F, 0xFE, 0xFF, 0x7F, 0xFE, 0xFF, 0x7F, 0x00, 0xC0, 0x00, 0x
 5573      FF7FFEFF 
 5573      7FFEFF7F 
 5573      00C00000 
 5573      80010080 
 5574 258d 007F70E0 		.byte 0x00, 0x7F, 0x70, 0xE0, 0xFF, 0x73, 0xF0, 0xFF, 0x77, 0xF8, 0x00, 0x7F, 0x38, 0x00, 0x7C, 0x
 5574      FF73F0FF 
 5574      77F8007F 
 5574      38007C3C 
 5574      00701C00 
 5575 25ba 000000FE 		.byte 0x00, 0x00, 0x00, 0xFE, 0xFF, 0x7F, 0xFE, 0xFF, 0x7F, 0xFE, 0xFF, 0x7F, 0x0E, 0x1C, 0x00, 0x
 5575      FF7FFEFF 
 5575      7FFEFF7F 
 5575      0E1C000E 
 5575      1C000E1C 
 5576 25e7 00F87F00 		.byte 0x00, 0xF8, 0x7F, 0x00, 0xFC, 0x7F, 0x00, 0x1E, 0x00, 0x00, 0x0E, 0x00, 0x00, 0x0C, 0x00, 0x
 5576      FC7F001E 
 5576      00000E00 
 5576      000C0000 
 5576      1C0000F8 
ARM GAS  1.s 			page 103


 5577 2614 000000FC 		.byte 0x00, 0x00, 0x00, 0xFC, 0xFF, 0x0F, 0xFC, 0xFF, 0x0F, 0x3C, 0x00, 0x00, 0xF0, 0x01, 0x00, 0x
 5577      FF0FFCFF 
 5577      0F3C0000 
 5577      F0010080 
 5577      0F00003C 
 5578 2641 00000080 		.byte 0x00, 0x00, 0x00, 0x80, 0xFF, 0x7F, 0x80, 0xFF, 0x7F, 0x80, 0xFF, 0x7F, 0x00, 0x07, 0x00, 0x
 5578      FF7F80FF 
 5578      7F80FF7F 
 5578      00070080 
 5578      0300C001 
 5579 266e 000000FE 		.byte 0x00, 0x00, 0x00, 0xFE, 0xFF, 0x7F, 0xFE, 0xFF, 0x7F, 0xFE, 0xFF, 0x7F, 0x1C, 0xE0, 0x00, 0x
 5579      FF7FFEFF 
 5579      7FFEFF7F 
 5579      1CE0000E 
 5579      C0000680 
 5580 269b 000000FE 		.byte 0x00, 0x00, 0x00, 0xFE, 0xFF, 0x7F, 0xFE, 0xFF, 0x7F, 0xFE, 0xFF, 0x7F, 0x00, 0x1C, 0x00, 0x
 5580      FF7FFEFF 
 5580      7FFEFF7F 
 5580      001C0000 
 5580      1C00001C 
 5581 26c8 000000FC 		.byte 0x00, 0x00, 0x00, 0xFC, 0xFF, 0x7F, 0xFC, 0xFF, 0x7F, 0xFC, 0xFF, 0x7F, 0x00, 0x7C, 0x00, 0x
 5581      FF7FFCFF 
 5581      7FFCFF7F 
 5581      007C0000 
 5581      FE0000EF 
 5582 26f5 00000000 		.byte 0x00, 0x00, 0x00, 0x00, 0x00, 0x00, 0x00, 0x00, 0x00, 0x00, 0x00, 0x00, 0x00, 0x00, 0x00, 0x
 5582      00000000 
 5582      00000000 
 5582      00000000 
 5582      00000000 
 5583              		
ARM GAS  1.s 			page 104


DEFINED SYMBOLS
                 1.s:7      .text:00000000 vectors
                            *ABS*:200000fc zhanding
                 1.s:56     .text:000000c0 kaishi
                 1.s:5179   .text:0000249a _nmi
                 1.s:5180   .text:0000249a _Hard_Fault
                 1.s:5181   .text:0000249a _svc_handler
                 1.s:5182   .text:0000249a _pendsv_handler
                 1.s:5186   .text:0000249c _systickzhongduan
                 1.s:5183   .text:0000249a aaa
                 1.s:59     .text:000000c0 __wai_she_shi_zhong
                            .text:00000000 $d
                 1.s:60     .text:000000c0 $t
                 1.s:78     .text:000000ce _neicunqingling
                 1.s:82     .text:000000d4 _neicunqinglingxunhuan
                 1.s:87     .text:000000dc __pa_chu_shi_hua
                 1.s:106    .text:000000ee __pb_chu_shi_hua
                 1.s:127    .text:00000104 __pc_chu_shi_hua
                 1.s:133    .text:0000010c __si5351_chu_shi_hua
                 1.s:5372   .data:00002020 si5351
                 1.s:137    .text:00000112 __xie_si5351_xun_huan
                 1.s:152    .text:0000012e __xie_wan_si5351
                 1.s:4232   .text:00001e20 __xie_i2c_8_wei
                 1.s:149    .text:0000012a __si5351_mang
                 1.s:154    .text:0000012e __pf_00_OSC_IN
                 1.s:159    .text:00000134 __si5351_zuowei_mcu_shizhong
                 1.s:166    .text:0000013e __deng_HSE_wending
                 1.s:217    .text:0000014c __adc_chu_shi_hua
                 1.s:223    .text:00000152 __deng_chu_shi_hua
                 1.s:246    .text:00000170 __DMA_chu_shi_hua
                            *ABS*:20000100 dianyabiao
                            *ABS*:200008e0 dianyabiao1
                            *ABS*:20001fd4 lvbo_changdu
                            *ABS*:20001fd8 lvbo_youyi
                            *ABS*:20001fdc cossin
                 1.s:5367   .data:000000e0 cos_sin_biao_1khz
                 1.s:283    .text:000001ac __spi1_chu_shi_hua
                 1.s:4414   .text:00001f5c __lcd_chushihua
                 1.s:4527   .text:00002024 __lcd_qingping
                 1.s:5310   .data:00000000 yjmwxwx
                 1.s:4598   .text:000020ae __xie_ascii
                 1.s:300    .text:000001c8 __anjian0
                 1.s:505    .text:0000042a ting
                 1.s:302    .text:000001ca __anjian1
                 1.s:390    .text:0000027c __ren_wu_diao_du
                 1.s:309    .text:000001d6 __anjian2
                 1.s:311    .text:000001d8 __anjian3
                 1.s:398    .text:00000288 __an_jian
                 1.s:315    .text:000001e0 __deng_anjian_3_song_kai
                 1.s:5332   .data:00000033 kai_shi_jiao_zhun
                 1.s:380    .text:00000270 __anjian3_yanshi
                 1.s:332    .text:00000206 __anjian3_xunhuan
                 1.s:973    .text:00000770 __jisuan_s11
                            *ABS*:20001fbc s11_r
                            *ABS*:20001fc0 s11_i
                 1.s:911    .text:000006fc __xianshi_zukang1
                 1.s:5350   .data:000000bc jiao_zhun_xian_shi_biao
ARM GAS  1.s 			page 105


                            *ABS*:20001f58 jiaozhun_caidan_zhizhen
                 1.s:5334   .data:00000045 ok
                 1.s:5346   .data:000000b0 jiao_zhun_bao_cun_biao
                 1.s:550    .text:000004c8 __jiaozhun
                 1.s:408    .text:00000294 __xie_flash
                 1.s:383    .text:00000274 __anjian3_yanshi_xunhuan
                 1.s:5357   .data:000000d0 an_jian_biao
                 1.s:447    .text:000002d6 __flash_mang
                            *ABS*:20001f5c kailu_r
                 1.s:427    .text:000002b6 __xie_flash_xun_huan
                 1.s:456    .text:000002e2 $d
                 1.s:456    .text:000002e4 $d
                 1.s:460    .text:000003e0 shiyan
                            *ABS*:20001f74 pm1
                 1.s:461    .text:000003e0 $t
                            *ABS*:20001f78 pm1i
                            *ABS*:20001f7c pm2
                            *ABS*:20001f80 pm2i
                            *ABS*:20001f84 pm3
                            *ABS*:20001f88 pm3i
                 1.s:794    .text:00000634 __osm_jiao_zhun
                 1.s:990    .text:00000790 __jisuan_zukang
                            *ABS*:20001fb4 z_r
                            *ABS*:20001fb8 z_i
                 1.s:845    .text:00000684 __xianshi_zukang
                 1.s:525    .text:0000049c __xianshi_zukang_danwei
                 1.s:522    .text:00000454 $d
                 1.s:526    .text:0000049c $t
                            *ABS*:20001fe0 asciibiao
                 1.s:4779   .text:000021e6 _zhuanascii
                 1.s:5572   .data:00002560 danweibiao
                 1.s:4637   .text:000020ec __xie_alabo
                 1.s:583    .text:00000516 __det
                 1.s:612    .text:0000052e __det1
                 1.s:4865   .text:0000228e __fu_shu_chu_fa
                            *ABS*:20001f60 kailu_i
                 1.s:655    .text:00000566 __det2
                            *ABS*:20001f64 duanlu_r
                            *ABS*:20001f68 duanlu_i
                 1.s:704    .text:000005a6 __det3
                            *ABS*:20001f6c pipei_r
                            *ABS*:20001f70 pipei_i
                 1.s:775    .text:0000061a __fu_shu_cheng_fa
                            *ABS*:0000f000 kai_lu_r
                            *ABS*:0000f004 kai_lu_i
                            *ABS*:0000f008 duan_lu_r
                            *ABS*:0000f00c duan_lu_i
                            *ABS*:0000f010 pi_pei_r
                            *ABS*:0000f014 pi_pei_i
                            *ABS*:20001f8c p_jz_r
                            *ABS*:20001f90 p_jz_i
                 1.s:859    .text:0000069e __xianshi_zr
                 1.s:851    .text:0000068e __z_r_shi_fu
                 1.s:5320   .data:0000002a afu
                 1.s:864    .text:000006a8 __xianshi_z_r
                 1.s:5313   .data:00000012 akong
                 1.s:4695   .text:0000214a __xie_lcd_ascii
ARM GAS  1.s 			page 106


                 1.s:889    .text:000006d8 __xianshi_zi
                 1.s:881    .text:000006c8 __z_i_shi_fu
                 1.s:894    .text:000006e2 __xianshi_z_i
                 1.s:925    .text:00000716 __shangbi_r_shi_fu1
                 1.s:919    .text:0000070a __shangbi_r_bushi_fu1
                 1.s:932    .text:00000724 __xianshi_shangbi_r1
                 1.s:5322   .data:0000002c a_fu
                 1.s:4809   .text:00002216 __zhuanascii
                 1.s:951    .text:0000074a __shangbi_i_shi_fu1
                 1.s:945    .text:0000073e __shangbi_i_bushi_fu1
                 1.s:958    .text:00000758 __xianshi_shangbi_i1
                            *ABS*:20001fc4 vr_r
                            *ABS*:20001fc8 vr_i
                            *ABS*:20001fcc vt_r
                            *ABS*:20001fd0 vt_i
                 1.s:1018   .text:000007b6 __dft
                 1.s:1039   .text:0000089c __dft_xunhuan
                 1.s:1038   .text:000007dc $d
                 1.s:1041   .text:0000089c $t
                 1.s:4171   .text:00001dc0 __dft_fanhuile
                 1.s:4187   .text:00001dde $d
                 1.s:4187   .text:00001de0 $d
                 1.s:4194   .text:00001de8 __lv_bo_qi
                 1.s:4198   .text:00001de8 $t
                 1.s:4214   .text:00001e08 __huanchong_leijia
                 1.s:4223   .text:00001e18 $d
                 1.s:4233   .text:00001e20 $t
                 1.s:4238   .text:00001e28 __i2c_qi_8
                 1.s:4300   .text:00001ea2 __i2c_yan_shi
                 1.s:4247   .text:00001e3e __xie_cong_di_zhi_8
                 1.s:4260   .text:00001e52 __xie_shu_ju_8
                 1.s:4251   .text:00001e44 __xie_cong_ji_di_zhi
                 1.s:4256   .text:00001e4c __xie_cong_ji_shu_ju
                 1.s:4265   .text:00001e5a __SDA_8_deng_yu_0
                 1.s:4267   .text:00001e5c __SCL_8_gao
                 1.s:4278   .text:00001e78 __du_apk_8
                 1.s:4285   .text:00001e82 __apk_di_8
                 1.s:4282   .text:00001e7e __apk_gao_8
                 1.s:4293   .text:00001e92 __i2c_ting_8
                 1.s:4303   .text:00001ea6 __i2c_yan_shi_xun_huan
                 1.s:4308   .text:00001eac $d
                 1.s:4322   .text:00001ebc __du_24c64
                 1.s:4324   .text:00001ebc $t
                 1.s:4355   .text:00001f0c __fasong_i2c_qishi
                 1.s:4367   .text:00001f1e __xie_i2c8wei
                 1.s:4381   .text:00001f32 __du_i2c8wei
                 1.s:4401   .text:00001f50 __i2c1_ting
                 1.s:4339   .text:00001ee8 __xie_24c64
                 1.s:4360   .text:00001f14 __du_si
                 1.s:4375   .text:00001f28 __du_si1
                 1.s:4387   .text:00001f3c __i2c_yanshi
                 1.s:4392   .text:00001f44 __du_si2
                 1.s:4455   .text:00001fb8 __lcd_yanshi
                 1.s:4460   .text:00001fbe __xie_spi1
                 1.s:4465   .text:00001fc2 __deng_huan_chong_kong
                 1.s:4470   .text:00001fca __deng_huan_chong_kong1
                 1.s:4474   .text:00001fd0 __busy_zong_xian_mang
ARM GAS  1.s 			page 107


                 1.s:4483   .text:00001fda __xie_lcd_ye
                 1.s:4489   .text:00001fe2 __ye_jia
                 1.s:4503   .text:00001ff6 __xie_ye_dizhi
                 1.s:4518   .text:00002016 __heng_sao
                 1.s:4532   .text:0000202c __ye_jia1
                 1.s:4542   .text:00002040 __xie_ye_dizhi1
                 1.s:4558   .text:00002066 __heng_sao1
                 1.s:4566   .text:00002072 __xie_lcd_weizhi
                 1.s:4611   .text:000020c0 __xie_lcd_dizhi2
                 1.s:4614   .text:000020c6 __du_ascii2
                 1.s:5471   .data:00002320 ascii_biao
                 1.s:4620   .text:000020d0 __du_ziku_chushihua2
                 1.s:4622   .text:000020d2 __du_ziku1
                 1.s:4629   .text:000020e0 __duwan_ziku1
                 1.s:4656   .text:00002108 __xie_lcd_dizhi1
                 1.s:4659   .text:0000210e __du_ascii1
                 1.s:4665   .text:00002118 __du_ziku_chushihua1
                 1.s:4667   .text:0000211a __du_ziku
                 1.s:4674   .text:00002128 __duwan_ziku
                 1.s:4713   .text:00002164 __xie_lcd_dizhi
                 1.s:4716   .text:0000216a __du_ascii
                 1.s:4752   .text:000021a8 __xie_ascii_xiaoshudian
                 1.s:5459   .data:00002140 da_a_labo_hack
                 1.s:4725   .text:00002178 __du_ziku_16_chushihua
                 1.s:4727   .text:0000217a __du_ziku_16
                 1.s:4734   .text:00002188 __duwan_16
                 1.s:4768   .text:000021cc __xie_ru_xiaoshudian
                 1.s:4786   .text:000021f0 _xunhuanqiuma
                 1.s:4840   .text:00002268 _chufa
                 1.s:4805   .text:00002212 _qiumafanhui
                 1.s:4800   .text:0000220a _meidaoxiaoshudian
                 1.s:4816   .text:00002220 __xunhuanqiuma
                 1.s:4835   .text:00002244 __qiumafanhui
                 1.s:4830   .text:0000223c __meidaoxiaoshudian
                 1.s:4838   .text:00002248 $d
                 1.s:4842   .text:00002268 $t
                 1.s:4862   .text:0000228c _chufafanhui
                 1.s:4852   .text:0000227c _chufaxunhuan
                 1.s:4859   .text:00002288 _chufaweishubudao0
                 1.s:4875   .text:0000229c __tiao_guo_bei_chu_shu_0_pan_duan
                 1.s:4881   .text:000022a6 __ji_suan_chu_fa
                 1.s:4893   .text:000022ba b1
                 1.s:4900   .text:000022c6 b2
                 1.s:5087   .text:0000240c __chengfa
                 1.s:4902   .text:000022ca b3
                 1.s:4907   .text:000022d2 a1
                 1.s:4918   .text:000022e6 b4
                 1.s:4924   .text:000022f0 b5
                 1.s:4926   .text:000022f4 b6
                 1.s:4931   .text:000022fc a2
                 1.s:4950   .text:00002320 b7
                 1.s:4956   .text:0000232a b8
                 1.s:5043   .text:000023c4 __chufa64
                 1.s:4962   .text:00002336 __bao_cun_chu_fa_shi_bu_jie_guo
                 1.s:4974   .text:00002348 b9
                 1.s:4981   .text:00002354 b10
                 1.s:4987   .text:00002360 a3
ARM GAS  1.s 			page 108


                 1.s:4997   .text:00002372 b11
                 1.s:5004   .text:0000237e b12
                 1.s:5010   .text:0000238a a4
                 1.s:5021   .text:0000239e b13
                 1.s:5027   .text:000023a8 b14
                 1.s:5034   .text:000023b6 __bao_cun_chu_fa_xu_bu_jie_guo
                 1.s:5083   .text:00002406 __chu_fa64_fan_hui0
                 1.s:5053   .text:000023d2 __chu_fa64_ji_suan
                 1.s:5060   .text:000023de __chu_fa64_xun_huan
                 1.s:5069   .text:000023ee __chu_fa_yi_wei
                 1.s:5077   .text:000023fc __di_yi_wei
                 1.s:5131   .text:00002450 __cheng_fa_fan_hui
                 1.s:5101   .text:00002416 __ji_suan_cheng_fa
                 1.s:5138   .text:00002456 __chu_fa
                 1.s:5176   .text:00002498 _chufafanhui1
                 1.s:5150   .text:0000246c __pan_duan_bei_chu_shu
                 1.s:5156   .text:00002476 __ji_suan_chu_fa11
                 1.s:5162   .text:00002480 _chufaxunhuan1
                 1.s:5169   .text:0000248c _chufaweishubudao00
                            *ABS*:200012c0 lvboqizhizhen1
                            *ABS*:200012c8 lvboqihuanchong1
                            *ABS*:200010c0 lvboqizhizhen0
                            *ABS*:200010c8 lvboqihuanchong0
                            *ABS*:200014c0 lvboqizhizhen2
                            *ABS*:200014c8 lvboqihuanchong2
                            *ABS*:20001600 lvboqizhizhen3
                            *ABS*:20001608 lvboqihuanchong3
                 1.s:5242   .text:00002500 __systick_fanhui
                 1.s:5294   *ABS*:20001f94 p_shibu
                 1.s:5295   *ABS*:20001f98 p_xubu
                 1.s:5309   .data:00000000 $d
                 1.s:5324   .data:0000002d aCs
                 1.s:5326   .data:0000002f aLs
                 1.s:5328   .data:00000031 aD
                 1.s:5330   .data:00000032 aQ
                 1.s:5336   .data:00000057 a_kai_lu_jiao_zhun
                 1.s:5338   .data:00000069 a_duan_lu_jiao_zhun
                 1.s:5340   .data:0000007c a_50_ou_jiao_zhun
                 1.s:5342   .data:0000008f a_jiao_zhun_wan_cheng
                 1.s:5583   .text:00002508 $d

NO UNDEFINED SYMBOLS
