ARM GAS  1.s 			page 1


   1              		@cw32f030c8t6
   2              		@编译器ARM-NONE-EABI
   3              		@SPI接收，LCD显示
   4              		@yjmwxwx-2024-02-04
   5              		.thumb
   6              		.syntax unified
   7              		.section .text
   8              	vectors:
   9 0000 FC000020 		.word zhanding
  10 0004 C1000000 		.word kaishi + 1
  11 0008 91210000 		.word _nmi	+1
  12 000c 91210000 		.word _Hard_Fault +1
  13 0010 00000000 		.word 0
  14 0014 00000000 		.word 0
  15 0018 00000000 		.word 0
  16 001c 00000000 		.word 0
  17 0020 00000000 		.word 0
  18 0024 00000000 		.word 0
  19 0028 00000000 		.word 0
  20 002c 91210000 		.word _svc_handler +1
  21 0030 00000000 		.word 0
  22 0034 00000000 		.word 0
  23 0038 91210000 		.word _pendsv_handler +1
  24 003c 93210000 		.word _systick_zhongduan +1  @ 15
  25 0040 91210000 		.word aaa +1                @ 0		WDT
  26 0044 91210000 		.word aaa +1                @ 1		LVD
  27 0048 91210000 		.word aaa +1                @ 2		RTC
  28 004c 91210000 		.word aaa +1                @ 3		FLASHRAM
  29 0050 91210000 		.word aaa +1                @ 4		RCC
  30 0054 91210000 		.word aaa +1         	    @ 5		GPIOA
  31 0058 91210000 		.word aaa +1                @ 6		GPIOB
  32 005c 91210000 		.word aaa +1                @ 7		GPIOC
  33 0060 91210000 		.word aaa +1                @ 8		GPIOF
  34 0064 91210000 		.word aaa +1		    @ 9		DMA1
  35 0068 91210000 		.word aaa +1                @ 10	DMA23
  36 006c 91210000 		.word aaa +1                @ 11	DMA45
  37 0070 91210000 		.word aaa +1                @ 12	ADC
  38 0074 91210000 		.word aaa +1                @ 13	ATIM
  39 0078 91210000 		.word aaa +1                @ 14	VC1
  40 007c 91210000 		.word aaa +1                @ 15	VC2
  41 0080 91210000 		.word aaa +1                @ 16	GTIM1
  42 0084 91210000 		.word aaa +1                @ 17	GITM2
  43 0088 91210000 		.word aaa +1                @ 18	GTIM3
  44 008c 91210000 		.word aaa +1                @ 19	GTIM4
  45 0090 91210000 		.word aaa +1                @ 20	BTIM1
  46 0094 91210000 		.word aaa +1                @ 21	BTIM2
  47 0098 91210000 		.word aaa +1                @ 22	BTIM3
  48 009c 91210000 		.word aaa +1                @ 23	I2C1
  49 00a0 91210000 		.word aaa +1                @ 24	I2C2
  50 00a4 91210000 		.word aaa +1                @ 25	SPI1
  51 00a8 91210000 		.word aaa +1                @ 26	SPI2
  52 00ac 91210000 		.word aaa +1                @ 27	UART1
  53 00b0 91210000 		.word aaa +1		    @ 28	UART2
  54 00b4 91210000 		.word aaa +1		    @ 29	UART3
  55 00b8 91210000 		.word aaa +1		    @ 30	AWT
  56 00bc 91210000 	 	.word aaa +1		    @ 31	FAULT
  57              	kaishi:
ARM GAS  1.s 			page 2


  58              	__wai_she_shi_zhong:
  59 00c0 7F48     	        ldr r0, = 0x40010000
  60              	        @+0x30 0=DMA,1=FLASH,2=CRC,4=PA,5=PB,6=PC,9=PF
  61 00c2 8049     	        ldr r1, = 0x273
  62 00c4 0163     	        str r1, [r0, # 0x30]
  63              	
  64              	        @+0X34 2=ADC,4=VC,7=ATIM,8=SPI1,9=UART1,10=GTIM3
  65              	        @11=GTIM4,12=BTIM,13=AWT
  66              	
  67 00c6 8049     	        ldr r1, = 0x504
  68 00c8 4163     	        str r1, [r0, # 0x34]
  69              	
  70              	        @+0X38 1=GTIM1,2=GTIM2,3=RTC,4=WWDT,5=IWDT,6=SPI2
  71              	        @7=UART2,8=UART3,11=I2C1,12=I2C2
  72              	
  73 00ca 8049     		ldr r1, = 0x40
  74 00cc 8163     		str r1, [r0, # 0x38]
  75              	
  76              		
  77              	
  78              	
  79              		
  80 00ce 8048     		ldr r0, = 0x40022000   @FLASH访问控制
  81 00d0 8049     		ldr r1, = 0x5a5a0019   @0x5a5a0019
  82 00d2 4160     		str r1, [r0, # 0x04]           @FLASH缓冲 缓冲开启
  83              		
  84              	shizhong:	
  85 00d4 7A48     		ldr r0, = 0x40010000 @ rcc
  86 00d6 8049     		ldr r1, = 0x5a5a0183
  87 00d8 4160     		str r1, [r0, # 0x04]
  88              	deng_hse:
  89 00da C169     		ldr r1, [r0, # 0x1c]
  90 00dc 0903     		lsls r1, r1, # 12
  91 00de FCD5     		bpl deng_hse
  92 00e0 7E49     		ldr r1, = 0x53864	@48MHZ (64MHZ=0x53884)
  93 00e2 8162     		str r1, [r0, # 0x28]
  94 00e4 7E49     		ldr r1, = 0x5a5a0187
  95 00e6 4160     		str r1, [r0, # 0x04]
  96              	deng_pll:	
  97 00e8 816A     		ldr r1, [r0, # 0x28]
  98 00ea 0904     		lsls r1, r1, # 16
  99 00ec FCD5     		bpl deng_pll
 100 00ee 7D49     		ldr r1, = 0x5a5a0002	@0x5a5a002a
 101 00f0 0160     		str r1, [r0]	@pll作为系统时钟	
 102 00f2 7D49     		ldr r1, = 0x5a5a0186
 103 00f4 4160     		str r1, [r0, # 0x04]	@关HSI
 104              		
 105              	
 106              	_neicunqingling:
 107 00f6 7D48     		ldr r0, = 0x20002000
 108 00f8 7D4A     		ldr r2, = 0x20000000
 109 00fa 0021     		movs r1, # 0
 110              	_neicunqinglingxunhuan:
 111 00fc 0438     		subs r0, r0, # 4
 112 00fe 0160     		str r1, [r0]
 113 0100 9042     		cmp r0, r2
 114 0102 FBD1     		bne _neicunqinglingxunhuan
ARM GAS  1.s 			page 3


 115              	__pa_chu_shi_hua:
 116 0104 7B48     		ldr r0, = 0x48000000 @pa
 117 0106 7C49     		ldr r1, = 0x7fff
 118 0108 0160     		str r1, [r0]		@0=输出，1=输入
 119 010a 7C49     		ldr r1, = 0x1fff
 120 010c C161     		str r1, [r0, # 0x1c]	@0=数字，1=模拟
 121              	
 122              	
 123              	
 124              	
 125              		
 126 010e 7C49     		ldr r1, = 0x50000000
 127 0110 4161     		str r1, [r0, # 0x14]	@复用8-15
 128              		@str r1, [r0, # 0x18]	@复用0-7
 129              	
 130              	
 131              	
 132              	__pb_chu_shi_hua:
 133              	
 134 0112 7C48     		ldr r0, = 0x48000400 @pb
 135 0114 7C49     		ldr r1, = 0xfdc7
 136 0116 0160     		str r1, [r0]            @0=输出，1=输入
 137 0118 7C49     		ldr r1, = 0x4d07
 138 011a C161     		str r1, [r0, # 0x1c]    @0=数字，1=模拟
 139              	
 140 011c C021     		movs r1, # 0xc0
 141 011e 0161     		str r1, [r0, # 0x10]	@上拉
 142              	
 143 0120 7B49     		ldr r1, = 0x505000
 144 0122 8161     		str r1, [r0, # 0x18]	@复用0-7
 145              	
 146 0124 7B49     		ldr r1, = 0x40440000
 147 0126 4161     		str r1, [r0, # 0x14]
 148              		
 149              		
 150              	__pc_chu_shi_hua:	
 151 0128 7B4B     		ldr r3, = 0xc000	
 152 012a 7C48     		ldr r0, = 0x48000800 @pc
 153 012c C361     		str r3, [r0, # 0x1c]
 154 012e 0360     		str r3, [r0]
 155              	
 156              	
 157              	__spi1_chu_shi_hua:
 158 0130 7B48     	        ldr r0, = 0x40013000
 159 0132 7C49     	        ldr r1, = 0x5e74        @8位    @0x7e74 16位
 160 0134 0160     	        str r1, [r0]
 161              	
 162              	
 163              	__spi2_chu_shi_hua:
 164 0136 7C48     		ldr r0, = 0x40003800
 165 0138 7C49     	        ldr r1, = 0xbc40
 166 013a 0160     	        str r1, [r0]
 167              	
 168              	
 169              	
 170              	
 171              	
ARM GAS  1.s 			page 4


 172              		
 173 013c 00F09AFB 	        bl __lcd_chushihua
 174 0140 00F018FC 		bl __lcd_qingping
 175              	
 176 0144 7A48     		ldr r0, = yjmwxwx
 177 0146 1221     		movs r1, # 18           @显示几个字符
 178 0148 7A4A     		ldr r2, = 0x0000         @LCD位置lcd位置(高8位0-0x83,低8位0-7)
 179 014a 00F058FC 		bl __xie_ascii
 180              	
 181              	@        bl __lcd_qingping
 182              	
 183              	
 184 014e 6D49     		ldr r1, = 0x48000400
 185 0150 794A     		ldr r2, = 0x200
 186              	
 187 0152 8A65     		str r2, [r1, # 0x58]
 188              	
 189              	__xian_shi:
 190 0154 7948     	        ldr r0, = 0x40003818
 191 0156 0068     	        ldr r0, [r0]
 192 0158 00F052F9 	        bl __xian_shi_jiao_du
 193 015c FAE7     	        b __xian_shi
 194              	
 195              	
 196              		
 197              	tingting:
 198 015e 7748     		ldr r0, = 0x40003818
 199 0160 0068     	        ldr r0, [r0]
 200 0162 774B     		ldr r3, =100
 201 0164 6749     		ldr r1, = 0x48000400
 202 0166 744A     		ldr r2, = 0x200
 203 0168 9842     		cmp r0, r3
 204 016a 01D3     		bcc __zheng_shi_deng_liang1
 205 016c 8A65     		str r2, [r1, # 0x58]
 206 016e F6E7     		b tingting
 207              	__zheng_shi_deng_liang1:
 208 0170 CA65     		str r2, [r1, # 0x5c]
 209 0172 F4E7     		b tingting
 210              	
 211              	
 212              	
 213              	
 214              	
 215              	
 216              	
 217              	
 218              	
 219              	
 220              	
 221              	
 222              		
 223              	__GTIM3_chu_shi_hua:
 224 0174 7348     		ldr r0, = 0x40014000
 225 0176 7449     		ldr r1, = 2399	
 226 0178 744A     		ldr r2, = 0x300
 227 017a 8150     		str r1, [r0, r2]	@ARR
 228 017c 744A     		ldr r2, = 0x320
ARM GAS  1.s 			page 5


 229 017e 7549     		ldr r1, = 1200		@15999
 230 0180 8150     		str r1, [r0, r2]	@CCR1
 231 0182 7549     		ldr r1, = 0x0e
 232 0184 754A     		ldr r2, = 0x308
 233 0186 8150     		str r1, [r0, r2]	@CCMR
 234 0188 0121     		movs r1, # 0x01
 235 018a 754A     		ldr r2, = 0x310
 236 018c 8150     		str r1, [r0, r2]		@CR0
 237              		
 238              	
 239              	__adc_chu_shi_hua:
 240 018e 7548     		ldr r0, = 0x40012400
 241 0190 7549     		ldr r1, = 0x1c7 	@0xc1	@0xc5
 242 0192 0160     		str r1, [r0]			@开ADC
 243              		@	movs r1, # 0x01
 244              		@	str r1, [r0, # 0x1c]		@ATIM触发ADC
 245              	__deng_chu_shi_hua:
 246 0194 C16B     		ldr r1, [r0, # 0x3c]
 247 0196 0906     		lsls r1, r1, # 24
 248 0198 FCD5     		bpl __deng_chu_shi_hua		@等ADC初始化完成
 249 019a 8021     		movs r1, # 0x80
 250 019c 4160     		str r1, [r0, # 0x04]		@开DMA和通道选择
 251 019e 7349     		ldr r1, = 0x10010
 252 01a0 C160     		str r1, [r0, # 0x0c]
 253 01a2 0121     		movs r1, # 0x01
 254 01a4 8160     		str r1, [r0, # 0x08]		@开ADC转换
 255              	
 256 01a6 724C     		ldr r4, = 0xe000e010
 257 01a8 724B     		ldr r3, =  4799  @0xffffff @ 4799
 258 01aa 6360     		str r3, [r4, # 4]
 259 01ac A360     		str r3, [r4, # 8]
 260 01ae 0723     		movs r3, # 0x07
 261 01b0 2360     		str r3, [r4]    @systick 开
 262              	
 263              	@	bl __atan2_ji_suan
 264              	@	ldr r0, = 0xe000e018
 265              	@	ldr r1, [r0]
 266              	@	bkpt # 1
 267              	
 268              	__DMA_chu_shi_hua:
 269 01b2 7148     		ldr r0, = 0x40020000
 270 01b4 7149     		ldr r1, = 0x10064	@0x103e8
 271 01b6 4162     		str r1, [r0, # 0x24]    @传输数量
 272 01b8 7149     		ldr r1, = 0x40012420
 273 01ba 8162     		str r1, [r0, # 0x28]    @传输源
 274 01bc 7149     		ldr r1, = dianyabiao
 275 01be C162     		str r1, [r0, # 0x2c]    @目的地
 276 01c0 2921     		movs r1, # 0x29
 277 01c2 0163     		str r1, [r0, # 0x30]    @触发源
 278 01c4 6921     		movs r1, # 0x69
 279 01c6 0162     		str r1, [r0, # 0x20]    @模式设置和开DMA	
 280              	
 281 01c8 6C49     		ldr r1, = 0x10064       @0x103e8
 282 01ca 4164     	        str r1, [r0, # 0x44]    @传输数量
 283 01cc 6E49     		ldr r1, = 0x40012424
 284 01ce 8164     	        str r1, [r0, # 0x48]    @传输源
 285 01d0 6E49     		ldr r1, = dianyabiao1
ARM GAS  1.s 			page 6


 286 01d2 C164     		str r1, [r0, # 0x4c]    @目的地
 287 01d4 2921     		movs r1, # 0x29
 288 01d6 0165     		str r1, [r0, # 0x50]    @触发源
 289 01d8 6921     	        movs r1, # 0x69
 290 01da 0164     	        str r1, [r0, # 0x40]    @模式设置和开DMA
 291              	
 292              		
 293 01dc 6C48     		ldr r0, = lvbo_changdu
 294 01de 6D49     		ldr r1, = lvbo_youyi
 295 01e0 6D4A     		ldr r2, =  8
 296 01e2 0260     		str r2, [r0]
 297 01e4 0322     		movs r2, # 3
 298 01e6 0A60     		str r2, [r1]
 299              	
 300 01e8 6C48     		ldr r0, = cossin
 301 01ea 6D49     		ldr r1, = cos_sin_biao_20k
 302 01ec 0160     		str r1, [r0]
 303              	
 304              	
 305              	
 306              	
 307              	
 308              	
 309              		
 310              	
 311              	__chuchuang_chushihua:
 312 01ee 6D48     		ldr r0, = 0xf000
 313 01f0 6D4A     		ldr r2, = 0xffffffff
 314 01f2 0168     		ldr r1, [r0]
 315 01f4 9142     		cmp r1, r2
 316 01f6 01D1     		bne __flash_jiaozhun_shuju
 317 01f8 6C4F     		ldr r7, = chuchang_cos_jiaodu_r
 318 01fa 00E0     		b __du_jiaozhun_biao_dao_nei_cun
 319              	__flash_jiaozhun_shuju:
 320 01fc 6C4F     		ldr r7, = flash_cos_jiaodu_r
 321              	__du_jiaozhun_biao_dao_nei_cun:	
 322 01fe 6D4E     		ldr r6, = cos_jiaodu_r
 323 0200 3868     		ldr r0, [r7]
 324 0202 7968     		ldr r1, [r7, # 0x04]
 325 0204 BA68     		ldr r2, [r7, # 0x08]
 326 0206 FB68     		ldr r3, [r7, # 0x0c]
 327 0208 3C69     		ldr r4, [r7, # 0x10]
 328 020a 7D69     		ldr r5, [r7, # 0x14]
 329 020c 3060     		str r0, [r6]
 330 020e 7160     		str r1, [r6, # 0x04]
 331 0210 B260     		str r2, [r6, # 0x08]
 332 0212 F360     		str r3, [r6, # 0x0c]
 333 0214 3461     		str r4, [r6, # 0x10]
 334 0216 7561     		str r5, [r6, # 0x14]
 335              	
 336              		
 337              	
 338              	__anjian0:
 339              		
 340 0218 3DE0     		b ting
 341              	__anjian1:
 342 021a 01BE     		bkpt # 1
ARM GAS  1.s 			page 7


 343              	__anjian2:
 344 021c 00F035F8 		bl __an_jian
 345 0220 0228     		cmp r0, # 2
 346 0222 03D0     		beq __anjian_2
 347 0224 0028     		cmp r0, # 0
 348 0226 F9D1     		bne __anjian2
 349 0228 00F01FF9 		bl __xie_flash
 350              	__anjian_2:	
 351 022c 6248     	        ldr r0, = cos_r
 352 022e 6349     	        ldr r1, = cos_i
 353 0230 0068     	        ldr r0, [r0]
 354 0232 0968     	        ldr r1, [r1]
 355              	
 356 0234 00F0DFFA 	        bl __atan2_ji_suan
 357 0238 C013     	        asrs r0, r0, # 15
 358 023a 00F087FA 		bl __jisuan_cos_sin
 359 023e 5D4A     		ldr r2, = cos_jiaodu_r
 360 0240 5F4B     	        ldr r3, = cos_jiaodu_i
 361 0242 1060     		str r0, [r2]
 362 0244 1960     		str r1, [r3]
 363              	
 364 0246 5F48     	        ldr r0, = sin_r
 365 0248 5F49     	        ldr r1, = sin_i
 366 024a 0068     	        ldr r0, [r0]
 367 024c 0968     	        ldr r1, [r1]
 368              	
 369 024e 00F0D2FA 		bl __atan2_ji_suan
 370 0252 C013     	        asrs r0, r0, # 15
 371 0254 00F07AFA 	        bl __jisuan_cos_sin
 372 0258 5C4A     	        ldr r2, = sin_jiaodu_r
 373 025a 5D4B     	        ldr r3, = sin_jiaodu_i
 374 025c 1060     	        str r0, [r2]
 375 025e 1960     	        str r1, [r3]
 376              	
 377              	
 378 0260 5C48     		ldr r0, = cos
 379 0262 5D49     	        ldr r1, = sin
 380 0264 0068     	        ldr r0, [r0]
 381 0266 0968     	        ldr r1, [r1]
 382 0268 00F0C5FA 		bl __atan2_ji_suan
 383 026c C013     	        asrs r0, r0, # 15
 384 026e 00F06DFA 	        bl __jisuan_cos_sin
 385 0272 5A4A     	        ldr r2, = xuanzhuan_jiaodu_r
 386 0274 5A4B     	        ldr r3, = xuanzhuan_jiaodu_i
 387 0276 1060     	        str r0, [r2]
 388 0278 1960     	        str r1, [r3]
 389              	
 390              		
 391 027a CFE7     		b __anjian2
 392              	
 393              		
 394              	__anjian3:
 395 027c 03BE     		bkpt # 3
 396              	       	
 397              	__ren_wu_diao_du:
 398 027e 00F004F8 		bl __an_jian
 399 0282 8000     		lsls r0, r0, # 2
ARM GAS  1.s 			page 8


 400 0284 5749     		ldr r1, = an_jian_biao
 401 0286 0A58     		ldr r2, [r1, r0]
 402 0288 9746     		mov pc, r2
 403              		
 404              		
 405              	__an_jian:
 406              		@入口PA2=按键1，PA3=按键2
 407              		@出口R0
 408 028a 5748     		ldr r0, = 0x48000450
 409 028c 0068     		ldr r0, [r0]	@pb6 pb7
 410 028e C043     		mvns r0, r0
 411 0290 0006     		lsls r0, r0, # 24
 412 0292 800F     		lsrs r0, r0, # 30
 413 0294 7047     		bx lr
 414              	ting:
 415 0296 00F0D0F8 		bl __xiang_yi
 416              	
 417              		
 418              		
 419              	@	bl __xianshi_shangxia_bi
 420              	
 421              	
 422 029a 5448     	       ldr r0, = jiao_sudu
 423 029c 0068     	       ldr r0, [r0]
 424 029e 5449     	       ldr r1, = 13653333      @10000/360*60
 425 02a0 4843     	       muls r0, r0, r1
 426 02a2 400B     	       lsrs r0, r0, # 13
 427              	
 428              	
 429 02a4 5348     		ldr r0, = xiang_yi
 430 02a6 0068     		ldr r0, [r0]
 431 02a8 0821     		movs r1, # 8
 432 02aa 534A     		ldr r2, = asciibiao
 433 02ac 0523     	        movs r3, # 5            @小数点位置
 434 02ae 00F042FC 		bl _zhuanascii
 435 02b2 0820     	        movs r0, # 8            @写几个字
 436 02b4 3021     		movs r1, # 48           @字库单字长度
 437 02b6 0322     	        movs r2, # 3            @宽度
 438 02b8 504B     	        ldr r3, = 0x1102              @lcd位置
 439 02ba 00F0EEFB 	        bl __xie_lcd_ascii
 440              	
 441              	
 442              	
 443              	
 444              	
 445              	
 446              	
 447              	
 448              		
 449 02be DEE7     	        b __ren_wu_diao_du
 450              		
 451 02c0 00000140 		.ltorg
 451      73020000 
 451      04050000 
 451      40000000 
 451      00200240 
 452              	
ARM GAS  1.s 			page 9


 453              	
 454              	__xian_shi_jiao_du:
 455              		@入口R0
 456 0400 1EB5     		push {r1-r4,lr}
 457 0402 0400     	        movs r4, r0
 458 0404 07D5     	        bpl __xianshi_zr
 459              	__z_r_shi_fu:
 460 0406 E443     	        mvns r4, r4
 461 0408 0134     	        adds r4, r4, # 1
 462 040a 4B48     	        ldr r0, = fu
 463 040c 0221     	        movs r1, # 2           @显示几个字符
 464 040e 4B4A     	        ldr r2, = 0x0006         @LCD位置lcd位置(高8位0-0x83,低8位0-7)
 465 0410 00F0F5FA 	        bl __xie_ascii
 466 0414 04E0     	        b __xianshi_z_r
 467              	__xianshi_zr:
 468 0416 4A48     	        ldr r0, = kong
 469 0418 0221     	        movs r1, # 2           @显示几个字符
 470 041a 484A     	        ldr r2, = 0x0006         @LCD位置lcd位置(高8位0-0x83,低8位0-7)
 471 041c 00F0EFFA 	        bl __xie_ascii
 472              	__xianshi_z_r:
 473 0420 2046     	        mov r0, r4
 474 0422 0621     	        movs r1, # 6
 475 0424 474A     	        ldr r2, = asciibiao
 476 0426 0323     	        movs r3, # 3            @小数点位置
 477 0428 00F085FB 	        bl _zhuanascii
 478 042c 0620     	        movs r0, # 6            @写几个字
 479 042e 3021     	        movs r1, # 48           @字库单字长度
 480 0430 0322     	        movs r2, # 3            @宽度
 481 0432 454B     	        ldr r3, = 0x1105              @lcd位置
 482 0434 00F031FB 	        bl __xie_lcd_ascii
 483 0438 1EBD     		pop {r1-r4,pc}
 484              	
 485              	
 486              	
 487              		
 488              	
 489              	
 490              	__xiang_yi:
 491 043a 0FB5     		push {r0-r3,lr}
 492 043c 4349     	        ldr r1, = jiao_sudu
 493 043e 0968     	        ldr r1, [r1]
 494 0440 0529     	        cmp r1, # 5
 495 0442 0BD3     		bcc __tiao_guo_xiang_wei_bu_chang
 496 0444 0A00     		movs r2, r1
 497 0446 03D5     		bpl __tiaoguo_jingtai_panduan
 498 0448 D243     		mvns r2, r2
 499 044a 0132     		adds r2, r2, # 1
 500 044c 052A     		cmp r2, # 5
 501 044e 05D3     		bcc __tiao_guo_xiang_wei_bu_chang
 502              	__tiaoguo_jingtai_panduan:	
 503              	
 504              		
 505              	
 506              	  @      ldr r0, = 113778   @ 10000 / 360
 507              	   @     muls r1, r1, r0
 508              	    @    lsrs r1, r1, # 12
 509              	     @   ldr r0, = 159154943      @159155/(zhuansu/60)
ARM GAS  1.s 			page 10


 510              	      @  bl _chufa
 511              	       @ mov r1, r0
 512              	       @ ldr r0, = 1000
 513              	       @ bl __atan2_ji_suan
 514              	       @ asrs r0, r0, # 15
 515 0450 3F4A     		ldr r2, = xiang_yi
 516              	 @       ldr r1, = 9000 @ 90.00
 517              		@      subs r0, r1, r0
 518 0452 0846     		mov r0, r1
 519 0454 1060     		str r0, [r2]
 520              	
 521              		
 522              	@	ldr r2, = fangxiang
 523              	@	ldr r2, [r2]
 524              	@	cmp r2, # 0
 525              	@	beq __ni_shi_zhen
 526              	@	b __jisuan_zhuansu_xuanzhuan_yinzi
 527              	@__ni_shi_zhen:
 528              	@	mvns r0, r0
 529              	@	adds r0, r0, # 1
 530              	@__jisuan_zhuansu_xuanzhuan_yinzi:	
 531 0456 00F079F9 	        bl __jisuan_cos_sin
 532 045a 01E0     		b __bao_cun_zhuansu_jiaodu_xuanzhuan_yinzi
 533              	__tiao_guo_xiang_wei_bu_chang:
 534 045c 0021     		movs r1, # 0
 535 045e 3D48     		ldr r0, = 32768
 536              	__bao_cun_zhuansu_jiaodu_xuanzhuan_yinzi:	
 537 0460 3D4A     		ldr r2, = zhuansu_jiaodu_r
 538 0462 3E4B     	        ldr r3, = zhuansu_jiaodu_i
 539 0464 1060     	        str r0, [r2]
 540 0466 1960     	        str r1, [r3]
 541 0468 0FBD     		pop {r0-r3,pc}
 542              	
 543              	
 544              	
 545              	
 546              		
 547              	
 548              	__xie_flash:
 549 046a 72B6     		cpsid i
 550 046c 3C48     		ldr r0, = 0x40022000
 551 046e 3D49     		ldr r1, = 0x5a5a0001
 552 0470 4160     		str r1, [r0, # 0x04]
 553 0472 3D49     		ldr r1, = 0x5a5a0002
 554 0474 0160     		str r1, [r0]
 555 0476 3D49     		ldr r1, = 0x5a5a8000	@#15
 556 0478 8160     		str r1, [r0, # 0x08]	@页解锁
 557 047a AA21     		movs r1, # 0xaa
 558 047c 3C4A     		ldr r2, = 0xf000
 559 047e 1160     		str r1, [r2]
 560 0480 00F015F8 		bl __flash_mang
 561              		
 562 0484 3749     		ldr r1, = 0x5a5a0001
 563 0486 0160     		str r1, [r0]
 564 0488 394A     		ldr r2, = 0xf000
 565 048a 3A49     		ldr r1, = cos_jiaodu_r
 566 048c 0A23     		movs r3, # 10
ARM GAS  1.s 			page 11


 567              	__xie_flash_xun_huan:
 568 048e 0C68     		ldr r4, [r1]
 569 0490 1460     		str r4, [r2]
 570 0492 0431     		adds r1, r1, # 0x04
 571 0494 0432     		adds r2, r2, # 0x04
 572 0496 00F00AF8 		bl __flash_mang
 573 049a 013B     		subs r3, r3, # 1
 574 049c F7D1     		bne __xie_flash_xun_huan
 575              	
 576              		
 577 049e 3649     	        ldr r1, = 0x5a5a0000
 578 04a0 0160     		str r1, [r0]
 579 04a2 3549     		ldr r1, = 0x5a5a0000    @#15
 580 04a4 8160     		str r1, [r0, # 0x08]    @页上锁
 581              	
 582 04a6 3548     		ldr r0, = 0xe000ed0c
 583 04a8 3549     		ldr r1, = 0x05fa0004
 584 04aa 0160     		str r1, [r0]          		@复位
 585 04ac 21BE     		bkpt # 33
 586              	
 587              	__flash_mang:
 588 04ae 02B4     		push {r1}
 589 04b0 0168     		ldr r1, [r0]
 590 04b2 8906     		lsls r1, r1, # 26
 591 04b4 FBD4     		bmi __flash_mang
 592 04b6 02BC     		pop {r1}
 593 04b8 7047     		bx lr
 594              		
 595              	
 596              	
 597              	__ji_suan_fu_du:				    @ 计算幅度
 598              		@ 入r0= 实部，r1= 虚部
 599              		@ 出r0 = 幅度
 600              		@ Mag ~=Alpha * max(|I|, |Q|) + Beta * min(|I|, |Q|)
 601              		@ Alpha * Max + Beta * Min
 602 04ba 0CB5     		push {r2-r3,lr}
 603 04bc 0000     		movs r0, r0
 604 04be 01D5     		bpl _shibubushifushu
 605 04c0 C043     		mvns r0, r0                             @ 是负数转成正数
 606 04c2 0130     		adds r0, r0, # 1
 607              	_shibubushifushu:				                               @ 实部不是负数
 608 04c4 0900     		movs r1, r1
 609 04c6 01D5     		bpl _xububushifushu
 610 04c8 C943     		mvns r1, r1                             @ 是负数转成正数
 611 04ca 0131     		adds r1, r1, # 1
 612              	_xububushifushu:				                                @ 虚部不是负数
 613 04cc 0028     		cmp r0, # 0
 614 04ce 01D1     		bne _panduanxubushibushi0
 615 04d0 0846     		mov r0, r1
 616 04d2 0CBD     		pop {r2-r3,pc}
 617              	_panduanxubushibushi0:
 618 04d4 0029     		cmp r1, # 0
 619 04d6 00D1     		bne _jisuanfudu1
 620 04d8 0CBD     		pop {r2-r3,pc}
 621              	_jisuanfudu1:
 622 04da 2A4A     		ldr r2, = 31066		@ Alpha q15 0.948059448969
 623 04dc 2A4B     		ldr r3, = 12867		@ Beta q15 0.392699081699
ARM GAS  1.s 			page 12


 624 04de 8142     		cmp r1, r0
 625 04e0 06D8     		bhi _alpha_min_beta_max
 626              	_alpha_max_beta_min:
 627 04e2 5043     		muls r0, r0, r2
 628 04e4 5943     		muls r1, r1, r3
 629 04e6 C013     		asrs r0, r0, # 15
 630 04e8 C913     		asrs r1, r1, # 15
 631 04ea 4018     		adds r0, r0, r1
 632 04ec 0121     		movs r1, # 1
 633 04ee 0CBD     		pop {r2-r3,pc}
 634              	_alpha_min_beta_max:
 635 04f0 5843     		muls r0, r0, r3
 636 04f2 5143     		muls r1, r1, r2
 637 04f4 C013     		asrs r0, r0, # 15
 638 04f6 C913     		asrs r1, r1, # 15
 639 04f8 4018     		adds r0, r0, r1
 640 04fa 0021     		movs r1, # 0
 641 04fc 0CBD     		pop {r2-r3,pc}
 642              	
 643              	
 644              	
 645              	
 646              	__xianshi_fudu:
 647 04fe 1EB5     	        push {r1-r4,lr}
 648 0500 0400     	        movs r4, r0
 649 0502 05D4     	        bmi __fudu_shi_fu
 650              	__fudu_bushi_fu:
 651 0504 0E48     	        ldr r0, = kong
 652 0506 0121     	        movs r1, # 1           @显示几个字符
 653 0508 0122     	        movs r2, # 0x01         @LCD位置lcd位置(高8位0-0x83,低8位0-7)
 654 050a 00F078FA 	        bl __xie_ascii
 655 050e 06E0     	        b __xianshi_z_fudu
 656              	__fudu_shi_fu:
 657 0510 1E48     	        ldr r0, = _fu
 658 0512 0121     	        movs r1, # 1           @显示几个字符
 659 0514 0122     	        movs r2, # 0x01         @LCD位置lcd位置(高8位0-0x83,低8位0-7)
 660 0516 00F072FA 	        bl __xie_ascii
 661 051a E443     	        mvns r4, r4
 662 051c 0134     	        adds r4, r4, # 1
 663              	__xianshi_z_fudu:
 664 051e 2046     	        mov r0, r4
 665 0520 0621     	        movs r1, # 6    @转换几个字符
 666 0522 084A     	        ldr r2, = asciibiao
 667 0524 0323     	        movs r3, # 3             @小数点位置
 668 0526 00F01EFB 	        bl __zhuanascii
 669 052a 0648     	        ldr r0, = asciibiao
 670 052c 0621     	        movs r1, # 6           @显示几个字符
 671 052e 184A     	        ldr r2, = 0x1001         @LCD位置lcd位置(高8位0-0x83,低8位0-7)
 672 0530 00F065FA 	        bl __xie_ascii
 673 0534 1EBD     	        pop {r1-r4,pc}
 674 0536 00002E00 	        .ltorg
 674      00000600 
 674      00002A00 
 674      0000E01F 
 674      00200511 
 675              	
 676              	
ARM GAS  1.s 			page 13


 677              	__xianshi_cos_sin_fudu:
 678 0594 0FB5     	        push {r0-r3,lr}
 679 0596 5448     	        ldr r0, = cos_fudu
 680 0598 0068     	        ldr r0, [r0]
 681 059a 0821     	        movs r1, # 8             @转换几个字符
 682 059c 534A     	        ldr r2, = asciibiao
 683 059e FF23     	        movs r3, # 0xff             @小数点位置
 684 05a0 00F0E1FA 	        bl __zhuanascii
 685 05a4 5148     	        ldr r0, = asciibiao
 686 05a6 0821     	        movs r1, # 8           @显示几个字符
 687 05a8 514A     	        ldr r2, = 0x802         @LCD位置lcd位置(高8位0-0x83,低8位0-7)
 688 05aa 00F028FA 	        bl __xie_ascii
 689              	
 690 05ae 5148     		ldr r0, = sin_fudu
 691 05b0 0068     		ldr r0, [r0]
 692 05b2 0821     	        movs r1, # 8             @转换几个字符
 693 05b4 4D4A     	        ldr r2, = asciibiao
 694 05b6 FF23     	        movs r3, # 0xff             @小数点位置
 695 05b8 00F0D5FA 	        bl __zhuanascii
 696 05bc 4B48     	        ldr r0, = asciibiao
 697 05be 0821     	        movs r1, # 8           @显示几个字符
 698 05c0 4D4A     	        ldr r2, = 0x4a02         @LCD位置lcd位置(高8位0-0x83,低8位0-7)
 699 05c2 00F01CFA 	        bl __xie_ascii
 700 05c6 0FBD     		pop {r0-r3,pc}
 701              	
 702              	
 703              	
 704              	
 705              	
 706              	
 707              	
 708              	
 709              	
 710              	
 711              		
 712              	
 713              	
 714              	__xianshi_shangxia_bi:
 715 05c8 FFB5     		push {r0-r7,lr}
 716 05ca 4C48     		ldr r0, = cos_r
 717 05cc 4C49     		ldr r1, = cos_i
 718 05ce 0068     		ldr r0, [r0]
 719 05d0 0F68     		ldr r7, [r1]
 720 05d2 0600     		movs r6, r0
 721 05d4 05D4     		bmi __shangbi_r_shi_fu
 722              	__shangbi_r_bushi_fu:
 723 05d6 4B48     		ldr r0, = kong
 724 05d8 0121     		movs r1, # 1           @显示几个字符
 725 05da 0022     		movs r2, # 0x00         @LCD位置lcd位置(高8位0-0x83,低8位0-7)
 726 05dc 00F00FFA 		bl __xie_ascii
 727 05e0 06E0     		b __xianshi_shangbi_r
 728              	__shangbi_r_shi_fu:
 729 05e2 4948     		ldr r0, = _fu
 730 05e4 0121     		movs r1, # 1           @显示几个字符
 731 05e6 0022     		movs r2, # 0x00         @LCD位置lcd位置(高8位0-0x83,低8位0-7)
 732 05e8 00F009FA 		bl __xie_ascii
 733 05ec F643     		mvns r6, r6
ARM GAS  1.s 			page 14


 734 05ee 0136     		adds r6, r6, # 1
 735              	__xianshi_shangbi_r:
 736 05f0 3046     		mov r0, r6
 737 05f2 0821     		movs r1, # 8             @转换几个字符
 738 05f4 3D4A     		ldr r2, = asciibiao
 739 05f6 FF23     		movs r3, # 0xff             @小数点位置
 740 05f8 00F0B5FA 		bl __zhuanascii
 741 05fc 3B48     		ldr r0, = asciibiao
 742 05fe 0821     		movs r1, # 8           @显示几个字符
 743 0600 424A     		ldr r2, = 0x800         @LCD位置lcd位置(高8位0-0x83,低8位0-7)
 744 0602 00F0FCF9 		bl __xie_ascii
 745              	
 746 0606 3E00     	        movs r6, r7
 747 0608 05D4     		bmi __shangbi_i_shi_fu
 748              	__shangbi_i_bushi_fu:
 749 060a 3E48     		ldr r0, = kong
 750 060c 0121     		movs r1, # 1           @显示几个字符
 751 060e 404A     		ldr r2, = 0x4200         @LCD位置lcd位置(高8位0-0x83,低8位0-7)
 752 0610 00F0F5F9 		bl __xie_ascii
 753 0614 06E0     		b __xianshi_shangbi_i
 754              	__shangbi_i_shi_fu:
 755 0616 3C48     		ldr r0, = _fu
 756 0618 0121     		movs r1, # 1           @显示几个字符
 757 061a 3D4A     		ldr r2, = 0x4200         @LCD位置lcd位置(高8位0-0x83,低8位0-7)
 758 061c 00F0EFF9 		bl __xie_ascii
 759 0620 F643     		mvns r6, r6
 760 0622 0136     		adds r6, r6, # 1
 761              	__xianshi_shangbi_i:
 762 0624 3046     		mov r0, r6
 763 0626 0821     		movs r1, # 8             @转换几个字符
 764 0628 304A     		ldr r2, = asciibiao
 765 062a FF23     		movs r3, # 0xff             @小数点位置
 766 062c 00F09BFA 		bl __zhuanascii
 767 0630 2E48     		ldr r0, = asciibiao
 768 0632 0821     		movs r1, # 8           @显示几个字符
 769 0634 374A     		ldr r2, = 0x4a00         @LCD位置lcd位置(高8位0-0x83,低8位0-7)
 770 0636 00F0E2F9 		bl __xie_ascii
 771              	
 772 063a 3748     	        ldr r0, = sin_r
 773 063c 3749     		ldr r1, = sin_i
 774 063e 0068     		ldr r0, [r0]
 775 0640 0F68     		ldr r7, [r1]
 776 0642 0600     		movs r6, r0
 777 0644 05D4     		bmi __xiabi_r_shi_fu
 778              	__xiabi_r_bushi_fu:
 779 0646 2F48     		ldr r0, = kong
 780 0648 0121     		movs r1, # 1           @显示几个字符
 781 064a 0122     		movs r2, # 0x01         @LCD位置lcd位置(高8位0-0x83,低8位0-7)
 782 064c 00F0D7F9 		bl __xie_ascii
 783 0650 06E0     		b __xianshi_xiabi_r
 784              	__xiabi_r_shi_fu:
 785 0652 2D48     		ldr r0, = _fu
 786 0654 0121     		movs r1, # 1           @显示几个字符
 787 0656 0122     		movs r2, # 0x01         @LCD位置lcd位置(高8位0-0x83,低8位0-7)
 788 0658 00F0D1F9 		bl __xie_ascii
 789 065c F643     		mvns r6, r6
 790 065e 0136     		adds r6, r6, # 1
ARM GAS  1.s 			page 15


 791              	__xianshi_xiabi_r:
 792 0660 3046     		mov r0, r6
 793 0662 0821     		movs r1, # 8             @转换几个字符
 794 0664 214A     		ldr r2, = asciibiao
 795 0666 FF23     		movs r3, # 0xff             @小数点位置
 796 0668 00F07DFA 		bl __zhuanascii
 797 066c 1F48     		ldr r0, = asciibiao
 798 066e 0821     		movs r1, # 8           @显示几个字符
 799 0670 2B4A     		ldr r2, = 0x801         @LCD位置lcd位置(高8位0-0x83,低8位0-7)
 800 0672 00F0C4F9 		bl __xie_ascii
 801              	
 802 0676 3E00     		movs r6, r7
 803 0678 05D4     		bmi __xiabi_i_shi_fu
 804              	__xiabi_i_bushi_fu:
 805 067a 2248     		ldr r0, = kong
 806 067c 0121     		movs r1, # 1           @显示几个字符
 807 067e 294A     		ldr r2, = 0x4201         @LCD位置lcd位置(高8位0-0x83,低8位0-7)
 808 0680 00F0BDF9 		bl __xie_ascii
 809 0684 06E0     		b __xianshi_xiabi_i
 810              	__xiabi_i_shi_fu:
 811 0686 2048     		ldr r0, = _fu
 812 0688 0121     		movs r1, # 1           @显示几个字符
 813 068a 264A     		ldr r2, = 0x4201         @LCD位置lcd位置(高8位0-0x83,低8位0-7)
 814 068c 00F0B7F9 		bl __xie_ascii
 815 0690 F643     		mvns r6, r6
 816 0692 0136     		adds r6, r6, # 1
 817              	__xianshi_xiabi_i:
 818 0694 3046     		mov r0, r6
 819 0696 0821     		movs r1, # 8             @转换几个字符
 820 0698 144A     		ldr r2, = asciibiao
 821 069a FF23     		movs r3, # 0xff             @小数点位置
 822 069c 00F063FA 		bl __zhuanascii
 823 06a0 1248     		ldr r0, = asciibiao
 824 06a2 0821     		movs r1, # 8           @显示几个字符
 825 06a4 204A     		ldr r2, = 0x4a01         @LCD位置lcd位置(高8位0-0x83,低8位0-7)
 826 06a6 00F0AAF9 		bl __xie_ascii
 827 06aa FFBD     		pop {r0-r7,pc}
 828              		
 829              	
 830              	__xianshi_jiaodu:
 831 06ac 1FB5     		push {r0-r4,lr}
 832 06ae 1F48     		ldr r0, = z_jiao_du
 833 06b0 0068     		ldr r0, [r0]
 834 06b2 0400     		movs r4, r0
 835 06b4 05D4     		bmi __z_jiaodu_shi_fu
 836              	__z_jiaodu_bushi_fu:
 837 06b6 1348     		ldr r0, = kong
 838 06b8 0121     		movs r1, # 1           @显示几个字符
 839 06ba 0022     		movs r2, # 0x00         @LCD位置lcd位置(高8位0-0x83,低8位0-7)
 840 06bc 00F09FF9 		bl __xie_ascii
 841 06c0 06E0     		b __xianshi_z_jiaodu
 842              	__z_jiaodu_shi_fu:
 843 06c2 1148     		ldr r0, = _fu
 844 06c4 0121     		movs r1, # 1           @显示几个字符
 845 06c6 0022     		movs r2, # 0x00         @LCD位置lcd位置(高8位0-0x83,低8位0-7)
 846 06c8 00F099F9 		bl __xie_ascii
 847 06cc E443     		mvns r4, r4
ARM GAS  1.s 			page 16


 848 06ce 0134     		adds r4, r4, # 1
 849              	__xianshi_z_jiaodu:
 850 06d0 2046     		mov r0, r4
 851 06d2 0621     		movs r1, # 6    @转换几个字符
 852 06d4 054A     		ldr r2, = asciibiao
 853 06d6 0323     		movs r3, # 3             @小数点位置
 854 06d8 00F045FA 		bl __zhuanascii
 855 06dc 0348     		ldr r0, = asciibiao
 856 06de 0621     		movs r1, # 6           @显示几个字符
 857 06e0 134A     		ldr r2, = 0x1000         @LCD位置lcd位置(高8位0-0x83,低8位0-7)
 858 06e2 00F08CF9 		bl __xie_ascii
 859 06e6 1FBD     		pop {r0-r4,pc}
 860 06e8 8C1F0020 		.ltorg
 860      E01F0020 
 860      02080000 
 860      901F0020 
 860      024A0000 
 861              		
 862              	
 863              	
 864              	__xiangwei_xuanzhuan:
 865              		@入口旋转因子R0=R，R1=I
 866              		@入口R2=被旋转R, R3=被旋转I
 867              		@出口R0,=R，R1=I
 868 0734 30B5     		push {r4-r5,lr}
 869 0736 0446     		mov r4, r0
 870 0738 0D46     		mov r5, r1
 871 073a 5043     		muls r0, r0, r2 @X*COS
 872 073c 5D43     		muls r5, r5, r3 @Y*SIN
 873 073e 5143     		muls r1, r1, r2 @X*SIN
 874 0740 5C43     		muls r4, r4, r3 @Y*COS
 875 0742 4019     		adds r0, r0, r5
 876 0744 611A     		subs r1, r4, r1
 877 0746 C013     		asrs r0, r0, # 15
 878 0748 C913     		asrs r1, r1, # 15
 879 074a 30BD     		pop {r4-r5,pc}
 880              	
 881              		
 882              	__jisuan_cos_sin:								@jd
 883              		@入口R0=角度 （-18000到+18000）
 884              		@出口R0=COS，R1=SIN
 885 074c FCB5     		push {r2-r7,lr}
 886 074e 4249     		ldr r1, = 18000
 887 0750 8842     		cmp r0, r1
 888 0752 02D9     		bls __xiaoyu_180
 889 0754 4018     		adds r0, r0, r1
 890 0756 0127     		movs r7, # 1
 891 0758 00E0     		b __js_cos_sin
 892              	__xiaoyu_180:
 893 075a 0027     		movs r7, # 0
 894              	__js_cos_sin:
 895 075c 3F49     		ldr r1, = 9000
 896 075e 404A     		ldr r2, = 51471
 897 0760 0000     		movs r0, r0
 898 0762 03D5     		bpl __jisuan_jiaodu_bushi0
 899 0764 C043     		mvns r0, r0
 900 0766 0130     		adds r0, r0, # 1
ARM GAS  1.s 			page 17


 901 0768 0124     		movs r4, # 1
 902 076a 00E0     		b __jiance_chao90
 903              	__jisuan_jiaodu_bushi0:
 904 076c 0024     		movs r4, # 0
 905              	__jiance_chao90:
 906 076e 8842     		cmp r0, r1
 907 0770 03D9     		bls __xiaoyu_90
 908 0772 394E     		ldr r6, = 18000
 909 0774 301A     		subs r0, r6, r0
 910 0776 0126     		movs r6, # 1
 911 0778 00E0     		b __suan_cossin
 912              	__xiaoyu_90:
 913 077a 0026     		movs r6, # 0
 914              	__suan_cossin:
 915 077c 394D     		ldr r5, = 10000
 916 077e 6843     		muls r0, r0, r5
 917              		@bl _chufa
 918 0780 00F018FA 		bl _chufa
 919 0784 5043     		muls r0, r0, r2
 920 0786 2946     		mov r1, r5
 921              		@bl _chufa
 922 0788 00F014FA 		bl _chufa
 923 078c 012C     		cmp r4, # 1
 924 078e 01D1     		bne __suan_cos_sin1
 925 0790 C043     		mvns r0, r0
 926 0792 0130     		adds r0, r0, # 1
 927              	__suan_cos_sin1:
 928 0794 00F00BF8 		bl __cordic_cos_sin
 929 0798 012E     		cmp r6, # 1
 930 079a 01D1     		bne __cos_sin_fanhui
 931 079c C043     		mvns r0, r0
 932 079e 0130     		adds r0, r0, # 1
 933              	__cos_sin_fanhui:
 934 07a0 012F     		cmp r7, # 1
 935 07a2 03D1     		bne __cossin_fh
 936 07a4 C043     		mvns r0, r0
 937 07a6 C943     		mvns r1, r1
 938 07a8 0130     		adds r0, r0, # 1
 939 07aa 0131     		adds r1, r1, # 1
 940              	__cossin_fh:
 941 07ac FCBD     		pop {r2-r7,pc}
 942              	__cordic_cos_sin:
 943              		@入口R0
 944              		@出口R0=COS，R1=SIN
 945              		@ x= 0x4dba
 946              		@ r1=x,r2=y,r0=z,r4=d,r5=k,r6=cordic_mabiao
 947              	
 948 07ae FCB5     		push {r2-r7,lr}
 949 07b0 4246     		mov r2, r8
 950 07b2 4B46     		mov r3, r9
 951 07b4 0CB4     		push {r2-r3}
 952 07b6 0025     		movs r5, # 0
 953 07b8 2A46     		mov r2, r5
 954 07ba 2C46     		mov r4, r5
 955 07bc 2A49     		ldr r1, = 0x4dba
 956              	cordicxunhuan:								 @ 循环
 957 07be C413     		asrs r4, r0, # 15
ARM GAS  1.s 			page 18


 958              		@ x
 959 07c0 1746     		mov r7, r2
 960 07c2 2A41     		asrs r2, r2, r5
 961 07c4 6240     		eors r2, r2, r4
 962 07c6 121B     		subs r2, r2, r4
 963 07c8 8B1A     		subs r3, r1, r2
 964              		@ y
 965 07ca 0E46     		mov r6, r1
 966 07cc 2941     		asrs r1, r1, r5
 967 07ce 6140     		eors r1, r1, r4
 968 07d0 091B     		subs r1, r1, r4
 969 07d2 7F18     		adds r7, r7, r1
 970              		@ z
 971 07d4 254E     		ldr r6, = cordic_yong_atan_biao
 972 07d6 AA00     		lsls r2, r5, # 2
 973 07d8 B158     		ldr r1, [r6, r2]
 974 07da 6140     		eors r1, r1, r4
 975 07dc 091B     		subs r1, r1, r4
 976 07de 401A     		subs r0, r0, r1
 977 07e0 1946     		mov r1, r3
 978 07e2 3A46     		mov r2, r7
 979 07e4 0135     		adds r5, # 1
 980 07e6 102D     		cmp r5, # 16
 981 07e8 E9D1     		bne cordicxunhuan
 982 07ea 1846     		mov r0, r3
 983 07ec 3946     		mov r1, r7
 984 07ee 0CBC     		pop {r2-r3}
 985 07f0 9046     		mov r8, r2
 986 07f2 9946     		mov r9, r3
 987 07f4 FCBD     		pop {r2-r7,pc}
 988              	__atan2_ji_suan:							@jt
 989              		@入口R0=实部，R1=虚部，结果=R0
 990 07f6 FCB5     		push {r2-r7,lr}
 991 07f8 4246     		mov r2, r8
 992 07fa 04B4     		push {r2}
 993 07fc 1C4B     		ldr r3, = cordic_yong_cos_sin
 994              	
 995 07fe 0022     		movs r2, # 0
 996 0800 9046     		mov r8, r2
 997 0802 164C     		ldr r4, = 9000
 998 0804 E403     		lsls r4, r4, # 15
 999              	__cordic_atan2_xun_huan:
 1000              	__du_cos_sin:
 1001 0806 1D68     		ldr r5, [r3]	@cos
 1002 0808 0433     		adds r3, r3, # 4
 1003 080a 2F46     		mov r7, r5
 1004 080c 1E68     		ldr r6, [r3]	@sin
 1005 080e 0433     		adds r3, r3, # 4
 1006 0810 3246     		mov r2, r6
 1007 0812 4543     		muls r5, r5, r0         @x*cos
 1008 0814 4243     		muls r2, r2, r0         @x*sin
 1009 0816 4E43     		muls r6, r6, r1         @y*sin
 1010 0818 4F43     		muls r7, r7, r1         @y*cos
 1011 081a 0900     		movs r1, r1
 1012 081c 05D5     		bpl __ni_shi_zhen_zhuan
 1013              	__shun_shi_zhen_zhuan:
 1014 081e AD1B     		subs r5, r5, r6
ARM GAS  1.s 			page 19


 1015 0820 BF18     		adds r7, r7, r2
 1016 0822 4646     		mov r6, r8
 1017 0824 3619     		adds r6, r6, r4
 1018 0826 B046     		mov r8, r6
 1019 0828 04E0     		b __xuan_zhuan_wan
 1020              	__ni_shi_zhen_zhuan:
 1021 082a AD19     		adds r5, r5, r6
 1022 082c BF1A     		subs r7, r7, r2
 1023 082e 4646     		mov r6, r8
 1024 0830 361B     		subs r6, r6, r4
 1025 0832 B046     		mov r8, r6
 1026              	__xuan_zhuan_wan:
 1027 0834 0E4E     		ldr r6, = cordic_yong_cos_sin
 1028 0836 2022     		movs r2, # 32
 1029 0838 9200     		lsls r2, r2, # 2
 1030 083a B618     		adds r6, r6, r2
 1031 083c AD13     		asrs r5, r5, # 14
 1032 083e BF13     		asrs r7, r7, # 14
 1033 0840 2846     		mov r0, r5
 1034 0842 3946     		mov r1, r7
 1035 0844 6408     		lsrs r4, r4, # 1	@旋转
 1036 0846 B342     		cmp r3,	r6
 1037 0848 DDD1     		bne __cordic_atan2_xun_huan
 1038 084a 4046     		mov r0, r8
 1039 084c C043     		mvns r0, r0
 1040 084e 0130     		adds r0, r0, # 1
 1041              		@	asrs r0, r0, # 15      @除32768等于角度
 1042 0850 04BC     		pop {r2}
 1043 0852 9046     		mov r8, r2
 1044 0854 FCBD     		pop {r2-r7,pc}
 1045 0856 00005046 		.ltorg
 1045      00002823 
 1045      00000FC9 
 1045      00001027 
 1045      0000BA4D 
 1046              	
 1047              	
 1048              	
 1049              	
 1050              	
 1051              	
 1052              	
 1053              	
 1054              	
 1055              		
 1056              	__lcd_chushihua:
 1057 0874 07B5     		push {r0-r2,lr}
 1058 0876 C848     		ldr r0,  = 0x48000400
 1059 0878 1021     		movs r1, # 0x10
 1060 087a C165     		str r1, [r0, 0x5c]            @RST=1
 1061 087c C74A     		ldr r2, = 0x1ffff
 1062 087e 00F027F8 		bl __lcd_yanshi
 1063              	
 1064 0882 8165     		str r1, [r0, 0x58]            @RST=0
 1065 0884 C54A     		ldr r2, = 0x1ffff
 1066 0886 00F023F8 		bl __lcd_yanshi
 1067              	
ARM GAS  1.s 			page 20


 1068 088a C165     		str r1, [r0, # 0x5c]            @RST=1
 1069 088c C34A     		ldr r2, = 0x1ffff
 1070 088e 00F01FF8 		bl __lcd_yanshi
 1071              	
 1072 0892 C348     		ldr r0, = 0x40013000
 1073 0894 0021     		movs r1, # 0x00
 1074 0896 C160     		str r1, [r0, # 0x0c]		@A0=0
 1075              		
 1076 0898 C04A     		ldr r2, = 0x1ffff
 1077 089a 00F019F8 		bl __lcd_yanshi
 1078              	
 1079 089e A220     		movs r0, # 0xa2         @ 偏置选择
 1080 08a0 00F019F8 		bl __xie_spi1
 1081 08a4 A020     		movs r0, # 0xa0         @SEG方向（横 0=0到131，1=131到0）
 1082 08a6 00F016F8 		bl __xie_spi1
 1083 08aa C820     		movs r0, # 0xc8         @选择COM方向（竖 0=0到63, 1=63到1）
 1084 08ac 00F013F8 		bl __xie_spi1
 1085 08b0 2F20     		movs r0, # 0x2f         @选择调节率
 1086 08b2 00F010F8 		bl __xie_spi1
 1087 08b6 8120     		movs r0, # 0x81         @设置EV命令
 1088 08b8 00F00DF8 		bl __xie_spi1
 1089 08bc 2520     		movs r0, # 0x25         @设置EV（0x00-0x3f 对比度）
 1090 08be 00F00AF8 		bl __xie_spi1
 1091 08c2 2F20     		movs r0, # 0x2f         @助推器开启
 1092 08c4 00F007F8 		bl __xie_spi1           @调节器开、追踪器开
 1093 08c8 AF20     		movs r0, # 0xaf         @显示开
 1094 08ca 00F004F8 		bl __xie_spi1
 1095 08ce 07BD     		pop {r0-r2,pc}
 1096              	
 1097              	__lcd_yanshi:
 1098 08d0 013A     		subs r2, r2, # 1
 1099 08d2 FDD1     		bne __lcd_yanshi
 1100 08d4 7047     		bx lr
 1101              		
 1102              	__xie_spi1:
 1103 08d6 06B4     		push {r1-r2}
 1104 08d8 B149     		ldr r1, = 0x40013000
 1105              	@	movs r2, # 0x00
 1106              	@	str r2, [r1, # 0x0c]
 1107              	__deng_huan_chong_kong:
 1108 08da 0A69     		ldr r2, [r1, # 0x10]
 1109 08dc D207     		lsls r2, r2, # 31
 1110 08de FCD5     		bpl __deng_huan_chong_kong
 1111 08e0 8861     		str r0, [r1, # 0x18]
 1112              	__deng_huan_chong_kong1:
 1113 08e2 0A69     		ldr r2, [r1, # 0x10]
 1114 08e4 D207     		lsls r2, r2, # 31
 1115 08e6 FCD5     		bpl __deng_huan_chong_kong1
 1116              	__busy_zong_xian_mang:
 1117 08e8 0A69     		ldr r2, [r1, # 0x10]
 1118 08ea D205     		lsls r2, r2, # 23
 1119 08ec FCD4     		bmi __busy_zong_xian_mang
 1120              	@	movs r2, # 0x01
 1121              	@	str r2, [r1, # 0x0c]
 1122 08ee 06BC     		pop {r1-r2}
 1123 08f0 7047     		bx lr
 1124              	
ARM GAS  1.s 			page 21


 1125              	
 1126              	
 1127              	__xie_spi2:
 1128              		@发送R0，R1，16位
 1129 08f2 0CB4     	        push {r2-r3}
 1130 08f4 AA4B     	        ldr r3, = 0x40013000
 1131 08f6 0022     	       movs r2, # 0x00
 1132 08f8 DA60     	       str r2, [r3, # 0x0c]
 1133              	__deng_huan_chong_kong2:
 1134 08fa 1A69     	        ldr r2, [r3, # 0x10]
 1135 08fc D207     	        lsls r2, r2, # 31
 1136 08fe FCD5     	        bpl __deng_huan_chong_kong2
 1137 0900 9861     	        str r0, [r3, # 0x18]
 1138              	__deng_huan_chong_kong3:
 1139 0902 1A69     	        ldr r2, [r3, # 0x10]
 1140 0904 D207     	        lsls r2, r2, # 31
 1141 0906 FCD5     	        bpl __deng_huan_chong_kong3
 1142              	__busy_zong_xian_mang1:
 1143 0908 1A69     	        ldr r2, [r3, # 0x10]
 1144 090a D205     	        lsls r2, r2, # 23
 1145 090c FCD4     	        bmi __busy_zong_xian_mang1
 1146              	
 1147              	__deng_huan_chong_kong4:
 1148 090e 1A69     		ldr r2, [r3, # 0x10]
 1149 0910 D207     		lsls r2, r2, # 31
 1150 0912 FCD5     		bpl __deng_huan_chong_kong4
 1151 0914 9961     		str r1, [r3, # 0x18]
 1152              	__deng_huan_chong_kong5:
 1153 0916 1A69     		ldr r2, [r3, # 0x10]
 1154 0918 D207     		lsls r2, r2, # 31
 1155 091a FCD5     	        bpl __deng_huan_chong_kong5
 1156              	__busy_zong_xian_mang2:
 1157 091c 1A69     	        ldr r2, [r3, # 0x10]
 1158 091e D205     		lsls r2, r2, # 23
 1159 0920 FCD4     		bmi __busy_zong_xian_mang2
 1160              	
 1161 0922 0122     	       movs r2, # 0x01
 1162 0924 DA60     	       str r2, [r3, # 0x0c]
 1163 0926 0CBC     	        pop {r2-r3}
 1164 0928 7047     	        bx lr
 1165              	
 1166              	
 1167              	
 1168              	
 1169              	
 1170              	
 1171              		
 1172              	__xie_lcd_ye:
 1173              		@入口R0=数据首地址
 1174 092a 1EB5     		push {r1-r4,lr}
 1175 092c B023     		movs r3, # 0xb0
 1176 092e 013B     		subs r3, r3, # 1
 1177 0930 0446     		mov r4, r0
 1178              	__ye_jia:
 1179 0932 9B48     	        ldr r0, = 0x40013000
 1180 0934 0121     		movs r1, # 0x01
 1181 0936 C160     		str r1, [r0, # 0x0c]            @A0=1
ARM GAS  1.s 			page 22


 1182 0938 9A4A     		ldr r2, = 0xff
 1183 093a FFF7C9FF 		bl __lcd_yanshi
 1184 093e 0133     		adds r3, r3, # 1
 1185 0940 B92B     		cmp r3, # 0xb9
 1186 0942 00D1     		bne __xie_ye_dizhi
 1187 0944 1EBD     		pop {r1-r4,pc}
 1188              		@       movs r3, # 0xb0
 1189              		@       mvns r4, r4
 1190              		@       lsls r4, r4, # 24
 1191              		@       lsrs r4, r4, # 24
 1192              	__xie_ye_dizhi:
 1193 0946 1020     		movs r0, # 0x10
 1194 0948 FFF7C5FF 		bl __xie_spi1
 1195 094c 0020     		movs r0, # 0
 1196 094e FFF7C2FF 		bl __xie_spi1
 1197 0952 1846     		mov r0, r3
 1198 0954 FFF7BFFF 		bl __xie_spi1
 1199              	
 1200 0958 9148     	        ldr r0, = 0x40013000
 1201 095a 0121     		movs r1, # 0x01
 1202 095c C160     		str r1, [r0, # 0x0c]            @A0=1
 1203 095e 914A     		ldr r2, = 0xff
 1204 0960 FFF7B6FF 		bl __lcd_yanshi
 1205              	
 1206 0964 8421     		movs r1, # 132
 1207              	__heng_sao:
 1208 0966 2078     		ldrb r0, [r4]
 1209              		@       mov r0, r4
 1210 0968 FFF7B5FF 		bl __xie_spi1
 1211 096c 0134     		adds r4, r4, # 1
 1212 096e 0139     		subs r1, r1, # 1
 1213 0970 F9D1     		bne __heng_sao
 1214 0972 DEE7     		b __ye_jia
 1215              	
 1216              	__lcd_qingping:
 1217 0974 1FB5     		push {r0-r4,lr}
 1218 0976 B023     		movs r3, # 0xb0
 1219 0978 013B     		subs r3, r3, # 1
 1220 097a 0024     		movs r4, # 0
 1221              	__ye_jia1:
 1222 097c 8848     	        ldr r0, = 0x40013000
 1223 097e 0021     		movs r1, # 0x00
 1224 0980 C160     		str r1, [r0, # 0x0c]            @A0=0
 1225 0982 884A     		ldr r2, = 0xff
 1226 0984 FFF7A4FF 		bl __lcd_yanshi
 1227 0988 0133     		adds r3, r3, # 1
 1228 098a B92B     		cmp r3, # 0xb9
 1229 098c 00D1     		bne __xie_ye_dizhi1
 1230 098e 1FBD     		pop {r0-r4,pc}
 1231              	__xie_ye_dizhi1:
 1232 0990 1020     		movs r0, # 0x10
 1233 0992 FFF7A0FF 		bl __xie_spi1
 1234 0996 0020     		movs r0, # 0
 1235 0998 FFF79DFF 		bl __xie_spi1
 1236 099c 1846     		mov r0, r3
 1237 099e FFF79AFF 		bl __xie_spi1
 1238 09a2 FF22     		movs r2, # 0xff
ARM GAS  1.s 			page 23


 1239 09a4 FFF794FF 		bl __lcd_yanshi
 1240              	
 1241 09a8 7D48     	        ldr r0, = 0x40013000
 1242 09aa 0121     		movs r1, # 0x01
 1243 09ac C160     		str r1, [r0, # 0x0c]            @A0=1
 1244 09ae 7D4A     		ldr r2, = 0xff
 1245 09b0 FFF78EFF 		bl __lcd_yanshi
 1246 09b4 8521     		movs r1, # 133
 1247              	__heng_sao1:
 1248 09b6 2046     		mov r0, r4
 1249 09b8 FFF78DFF 		bl __xie_spi1
 1250 09bc 0139     		subs r1, r1, # 1
 1251 09be FAD1     		bne __heng_sao1
 1252 09c0 DCE7     		b __ye_jia1
 1253              	
 1254              	
 1255              	__xie_lcd_weizhi:
 1256              		@入口R0=要写的地址(低8=X，高8=Y=（0-131(r5=高4,R4=低4))
 1257 09c2 3EB5     		push {r1-r5,lr}
 1258 09c4 0546     		mov r5, r0
 1259 09c6 0446     		mov r4, r0
 1260 09c8 0006     		lsls r0, r0, # 24
 1261 09ca 000E     		lsrs r0, r0, # 24
 1262 09cc 2D0B     		lsrs r5, r5, # 12	@高4
 1263 09ce 2405     		lsls r4, r4, # 20
 1264 09d0 240F     		lsrs r4, r4, # 28
 1265 09d2 7349     	        ldr r1, = 0x40013000
 1266 09d4 0023     		movs r3, # 0x00
 1267 09d6 CB60     		str r3, [r1, # 0x0c]            @A0=0
 1268 09d8 724A     		ldr r2, = 0xff
 1269 09da FFF779FF 		bl __lcd_yanshi
 1270 09de B030     		adds r0, r0, # 0xb0     @写页命令0XB0
 1271 09e0 FFF779FF 		bl __xie_spi1		@写页地址0-8页
 1272              	
 1273 09e4 1020     		movs r0, # 0x10
 1274 09e6 2843     		orrs r0, r0, r5
 1275 09e8 FFF775FF 		bl __xie_spi1
 1276              	
 1277 09ec 2046     		mov r0, r4
 1278 09ee FFF772FF 		bl __xie_spi1
 1279              	
 1280 09f2 0123     		movs r3, # 0x01
 1281 09f4 8B81     		strh r3, [r1, # 0x0c]            @A0=1
 1282 09f6 6B4A     		ldr r2, = 0xff
 1283 09f8 FFF76AFF 		bl __lcd_yanshi
 1284 09fc 3EBD     		pop {r1-r5,pc}
 1285              	
 1286              	
 1287              	__xie_ascii:
 1288 09fe F8B5     		push {r3-r7,lr}
 1289              		@入口r0=ascii地址
 1290              		@r1=写几个字
 1291              		@r2=要写的地址
 1292 0a00 4E46     		mov r6, r9
 1293 0a02 40B4     		push {r6}
 1294 0a04 9146     		mov r9, r2
 1295 0a06 0F46     		mov r7, r1
ARM GAS  1.s 			page 24


 1296 0a08 0621     		movs r1, # 6
 1297 0a0a 0122     		movs r2, # 1
 1298 0a0c 0546     		mov r5, r0
 1299 0a0e 0026     		movs r6, # 0
 1300              	__xie_lcd_dizhi2:
 1301 0a10 4846     		mov r0, r9
 1302 0a12 FFF7D6FF 		bl __xie_lcd_weizhi
 1303              	__du_ascii2:
 1304 0a16 A85D     		ldrb r0, [r5, r6]
 1305 0a18 2038     		subs r0, r0, # 32
 1306 0a1a 4843     		muls r0, r0, r1
 1307 0a1c 624B     		ldr r3, = ascii_biao
 1308 0a1e 0344     		add r3, r3, r0
 1309              	__du_ziku_chushihua2:
 1310 0a20 0024     		movs r4, # 0
 1311              	__du_ziku1:
 1312 0a22 185D     		ldrb r0, [r3, r4]
 1313 0a24 1444     		add r4, r4, r2
 1314 0a26 8C42     		cmp r4, r1
 1315 0a28 02D8     		bhi __duwan_ziku1
 1316 0a2a FFF754FF 		bl __xie_spi1
 1317 0a2e F8E7     		b __du_ziku1
 1318              	__duwan_ziku1:
 1319 0a30 0136     		adds r6, r6, # 1
 1320 0a32 BE42     		cmp r6, r7
 1321 0a34 EFD1     		bne __du_ascii2
 1322 0a36 40BC     		pop {r6}
 1323 0a38 4E46     		mov r6, r9
 1324 0a3a F8BD     		pop {r3-r7,pc}
 1325              	
 1326              	__xie_alabo:
 1327 0a3c E0B5     		push {r5-r7,lr}
 1328              		@入口r0=写几个字
 1329              		@r1=字库单字长度
 1330              		@r2=y宽（几行）
 1331              		@r3=要写的地址
 1332 0a3e 4D46     		mov r5, r9
 1333 0a40 5646     		mov r6, r10
 1334 0a42 5F46     		mov r7, r11
 1335 0a44 E0B4     		push {r5-r7}
 1336 0a46 6546     		mov r5, r12
 1337 0a48 20B4     		push {r5}
 1338 0a4a 584D     		ldr r5, = asciibiao
 1339 0a4c A446     		mov r12, r4
 1340 0a4e 9946     		mov r9, r3
 1341 0a50 0026     		movs r6, # 0
 1342 0a52 3746     		mov r7, r6
 1343 0a54 8246     		mov r10, r0
 1344 0a56 9346     		mov r11, r2
 1345              	__xie_lcd_dizhi1:
 1346 0a58 4846     		mov r0, r9
 1347 0a5a FFF7B2FF 		bl __xie_lcd_weizhi
 1348              	__du_ascii1:
 1349 0a5e A85D     		ldrb r0, [r5, r6]
 1350 0a60 4843     		muls r0, r0, r1
 1351 0a62 6346     		mov r3, r12
 1352 0a64 0344     		add r3, r3, r0
ARM GAS  1.s 			page 25


 1353 0a66 DB19     		adds r3, r3, r7
 1354              	__du_ziku_chushihua1:
 1355 0a68 0024     		movs r4, # 0
 1356              	__du_ziku:
 1357 0a6a 185D     		ldrb r0, [r3, r4]
 1358 0a6c 1444     		add r4, r4, r2
 1359 0a6e 8C42     		cmp r4, r1
 1360 0a70 02D8     		bhi __duwan_ziku
 1361 0a72 FFF730FF 		bl __xie_spi1
 1362 0a76 F8E7     		b __du_ziku
 1363              	__duwan_ziku:
 1364 0a78 0136     		adds r6, r6, # 1
 1365 0a7a 5645     		cmp r6, r10
 1366 0a7c EFD1     		bne __du_ascii1
 1367 0a7e 0026     		movs r6, # 0
 1368 0a80 0137     		adds r7, r7, # 1        @字库地址偏移
 1369 0a82 4846     		mov r0, r9
 1370 0a84 0130     		adds r0, r0, # 1        @Y偏移
 1371 0a86 8146     		mov r9, r0
 1372 0a88 5F45     		cmp r7, r11
 1373 0a8a E5D1     		bne __xie_lcd_dizhi1
 1374 0a8c 20BC     		pop {r5}
 1375 0a8e AC46     		mov r12, r5
 1376 0a90 E0BC     		pop {r5-r7}
 1377 0a92 A946     		mov r9, r5
 1378 0a94 B246     		mov r10, r6
 1379 0a96 BB46     		mov r11, r7
 1380 0a98 E0BD     		pop {r5-r7,pc}
 1381              	
 1382              	
 1383              	
 1384              	__xie_lcd_ascii:
 1385 0a9a F0B5     		push {r4-r7,lr}
 1386              		@入口r0=写几个字
 1387              		@r1=字库单字长度
 1388              		@r2=y宽（几行）
 1389              		@r3=要写的地址
 1390 0a9c 4C46     		mov r4, r9
 1391 0a9e 5546     		mov r5, r10
 1392 0aa0 5E46     		mov r6, r11
 1393 0aa2 6746     		mov r7, r12
 1394 0aa4 F0B4     		push {r4-r7}
 1395 0aa6 414D     		ldr r5, = asciibiao
 1396 0aa8 9946     		mov r9, r3
 1397 0aaa 0026     		movs r6, # 0
 1398 0aac 3746     		mov r7, r6
 1399 0aae B446     		mov r12, r6
 1400 0ab0 8246     		mov r10, r0
 1401 0ab2 9346     		mov r11, r2
 1402              	__xie_lcd_dizhi:
 1403 0ab4 4846     		mov r0, r9
 1404 0ab6 FFF784FF 		bl __xie_lcd_weizhi
 1405              	__du_ascii:
 1406 0aba A85D     		ldrb r0, [r5, r6]
 1407 0abc 2E28     		cmp r0, # 0x2e
 1408 0abe 1BD0     		beq __xie_ascii_xiaoshudian
 1409 0ac0 4843     		muls r0, r0, r1
ARM GAS  1.s 			page 26


 1410              	
 1411 0ac2 3B4B     		ldr r3, = da_a_labo_hack  @da_a_labo_shuzi
 1412 0ac4 0344     		add r3, r3, r0
 1413 0ac6 DB19     		adds r3, r3, r7
 1414              	__du_ziku_16_chushihua:
 1415 0ac8 0024     		movs r4, # 0
 1416              	__du_ziku_16:
 1417 0aca 185D     		ldrb r0, [r3, r4]
 1418 0acc 1444     		add r4, r4, r2
 1419 0ace 8C42     		cmp r4, r1
 1420 0ad0 02D8     		bhi __duwan_16
 1421 0ad2 FFF700FF 		bl __xie_spi1
 1422 0ad6 F8E7     		b __du_ziku_16
 1423              	__duwan_16:
 1424 0ad8 0136     		adds r6, r6, # 1
 1425 0ada 5645     		cmp r6, r10
 1426 0adc EDD1     		bne __du_ascii
 1427 0ade 0026     		movs r6, # 0
 1428 0ae0 0137     		adds r7, r7, # 1	@字库地址偏移
 1429 0ae2 4846     		mov r0, r9
 1430 0ae4 0130     		adds r0, r0, # 1	@Y偏移
 1431 0ae6 8146     		mov r9, r0
 1432 0ae8 5F45     		cmp r7, r11
 1433 0aea E3D1     		bne __xie_lcd_dizhi
 1434 0aec F0BC     		pop {r4-r7}
 1435 0aee A146     		mov r9, r4
 1436 0af0 AA46     		mov r10, r5
 1437 0af2 B346     		mov r11, r6
 1438 0af4 BC46     		mov r12, r7
 1439 0af6 F0BD     		pop {r4-r7,pc}
 1440              	
 1441              	__xie_ascii_xiaoshudian:
 1442 0af8 6046     		mov r0, r12
 1443 0afa 0130     		adds r0, r0, # 1
 1444 0afc 8446     		mov r12, r0
 1445 0afe 9445     		cmp r12, r2
 1446 0b00 0CD0     		beq __xie_ru_xiaoshudian
 1447 0b02 0020     		movs r0, # 0
 1448 0b04 FFF7E7FE 		bl __xie_spi1
 1449 0b08 0020     		movs r0, # 0
 1450 0b0a FFF7E4FE 		bl __xie_spi1
 1451 0b0e 0020     		movs r0, # 0
 1452 0b10 FFF7E1FE 		bl __xie_spi1
 1453 0b14 0020     		movs r0, # 0
 1454 0b16 FFF7DEFE 		bl __xie_spi1
 1455              	
 1456 0b1a DDE7     		b __duwan_16
 1457              	__xie_ru_xiaoshudian:
 1458 0b1c 0020     		movs r0, # 0
 1459 0b1e FFF7DAFE 		bl __xie_spi1
 1460 0b22 7020     		movs r0, # 0x70
 1461 0b24 FFF7D7FE 		bl __xie_spi1
 1462 0b28 7020     		movs r0, # 0x70
 1463 0b2a FFF7D4FE 		bl __xie_spi1
 1464 0b2e 7020     		movs r0, # 0x70
 1465 0b30 FFF7D1FE 		bl __xie_spi1
 1466 0b34 D0E7     		b __duwan_16
ARM GAS  1.s 			page 27


 1467              	
 1468              	_zhuanascii:														@ 16进制转ASCII
 1469              		@ R0要转的数据， R1长度，R2结果表首地址, r3=小数点位置
 1470 0b36 F0B5     		push {r4-r7,lr}
 1471 0b38 1F46     		mov r7, r3
 1472 0b3a 0546     		mov r5, r0
 1473 0b3c 0E46     		mov r6, r1
 1474 0b3e 0A21     		movs r1, # 10
 1475              	_xunhuanqiuma:
 1476 0b40 00F038F8 		bl _chufa
 1477 0b44 0446     		mov r4, r0
 1478 0b46 4C43     		muls r4, r1
 1479 0b48 2B1B     		subs r3, r5, r4
 1480              		@	adds r3, r3, # 0x30	@ascii偏移
 1481 0b4a 0546     		mov r5, r0
 1482 0b4c 013E     		subs r6, r6, # 1
 1483 0b4e 08D0     		beq _qiumafanhui
 1484 0b50 BE42     		cmp r6, r7
 1485 0b52 02D1     		bne _meidaoxiaoshudian
 1486 0b54 2E24     		movs r4, # 0x2e		@小数点
 1487 0b56 9455     		strb r4, [r2,r6]	@插入小数点
 1488 0b58 013E     		subs r6, r6, # 1
 1489              	_meidaoxiaoshudian:
 1490 0b5a 9355     		strb r3, [r2,r6]
 1491 0b5c 3600     		movs r6, r6
 1492 0b5e EFD1     		bne _xunhuanqiuma
 1493 0b60 F0BD     		pop {r4-r7,pc}
 1494              	_qiumafanhui:
 1495 0b62 9355     		strb r3, [r2, r6]
 1496 0b64 F0BD     		pop {r4-r7,pc}
 1497              	
 1498              	__zhuanascii:								              @ 转ASCII
 1499              		@ R0要转的数据， R1长度，R2结果表首地址, r3=小数点位置
 1500 0b66 F0B5     		push {r4-r7,lr}
 1501 0b68 1F46     		mov r7, r3
 1502 0b6a 0546     		mov r5, r0
 1503 0b6c 0E46     		mov r6, r1
 1504 0b6e 0A21     		movs r1, # 10
 1505              	__xunhuanqiuma:
 1506 0b70 00F020F8 		bl _chufa
 1507 0b74 0446     		mov r4, r0
 1508 0b76 4C43     		muls r4, r1
 1509 0b78 2B1B     		subs r3, r5, r4
 1510 0b7a 3033     		adds r3, r3, # 0x30     @ascii偏移
 1511 0b7c 0546     		mov r5, r0
 1512 0b7e 013E     		subs r6, r6, # 1
 1513 0b80 08D0     		beq __qiumafanhui
 1514 0b82 BE42     		cmp r6, r7
 1515 0b84 02D1     		bne __meidaoxiaoshudian
 1516 0b86 2E24     		movs r4, # 0x2e         @小数点
 1517 0b88 9455     		strb r4, [r2,r6]        @插入小数点
 1518 0b8a 013E     		subs r6, r6, # 1
 1519              	__meidaoxiaoshudian:
 1520 0b8c 9355     		strb r3, [r2,r6]
 1521 0b8e 3600     		movs r6, r6
 1522 0b90 EED1     		bne __xunhuanqiuma
 1523 0b92 F0BD     		pop {r4-r7,pc}
ARM GAS  1.s 			page 28


 1524              	__qiumafanhui:
 1525 0b94 9355     		strb r3, [r2, r6]
 1526 0b96 F0BD     		pop {r4-r7,pc}
 1527 0b98 00040048 		.ltorg
 1527      FFFF0100 
 1527      00300140 
 1527      FF000000 
 1527      30220000 
 1528              	
 1529              	_chufa:						@软件除法
 1530              		@ r0 除以 r1 等于 商(r0)
 1531 0bb4 1EB5     		push {r1-r4,lr}
 1532 0bb6 0028     		cmp r0, # 0
 1533 0bb8 0ED0     		beq _chufafanhui
 1534 0bba 0029     		cmp r1, # 0
 1535 0bbc 0CD0     		beq _chufafanhui
 1536 0bbe 0246     		mov r2, r0
 1537 0bc0 0123     		movs r3, # 1
 1538 0bc2 DB07     		lsls r3, r3, # 31
 1539 0bc4 0020     		movs r0, # 0
 1540 0bc6 0446     		mov r4, r0
 1541              	_chufaxunhuan:
 1542 0bc8 5200     		lsls r2, r2, # 1
 1543 0bca 6441     		adcs r4, r4, r4
 1544 0bcc 8C42     		cmp r4, r1
 1545 0bce 01D3     		bcc _chufaweishubudao0
 1546 0bd0 C018     		adds r0, r0, r3
 1547 0bd2 641A     		subs r4, r4, r1
 1548              	_chufaweishubudao0:
 1549 0bd4 5B08     		lsrs r3, r3, # 1
 1550 0bd6 F7D1     		bne _chufaxunhuan
 1551              	_chufafanhui:
 1552 0bd8 1EBD     		pop {r1-r4,pc}
 1553              		.ltorg
 1554              	
 1555              	
 1556              	
 1557              	
 1558              	__dft:
 1559 0bda F0B5     		push {r4-r7,lr}
 1560 0bdc 4446     		mov r4, r8
 1561 0bde 4D46     		mov r5, r9
 1562 0be0 5646     		mov r6, r10
 1563 0be2 6746     		mov r7, r12
 1564 0be4 F0B4     		push {r4-r7}
 1565 0be6 0648     		ldr r0, = cossin
 1566 0be8 0649     		ldr r1, = dianyabiao
 1567 0bea 074A     		ldr r2, = dianyabiao1
 1568 0bec 0068     		ldr r0, [r0]
 1569 0bee 0026     		movs r6, # 0
 1570 0bf0 3746     		mov r7, r6
 1571 0bf2 B046     		mov r8, r6
 1572 0bf4 B146     		mov r9, r6
 1573 0bf6 EC46     		mov r12, sp
 1574 0bf8 8A46     		mov r10, r1
 1575 0bfa 9646     		mov r14, r2
 1576 0bfc 8546     		mov sp, r0
ARM GAS  1.s 			page 29


 1577 0bfe 05E0     		b __dft_xunhuan
 1578 0c00 DC1F0020 		.ltorg
 1578      00010020 
 1578      D0010020 
 1579              	__dft_xunhuan:
 1580              		@0
 1581 0c0c 03BC     		pop {r0-r1}
 1582 0c0e 0246     		mov r2, r0
 1583 0c10 0B46     		mov r3, r1
 1584              		
 1585 0c12 5546     		mov r5, r10
 1586 0c14 2C88     		ldrh r4, [r5]
 1587 0c16 0235     		adds r5, r5, # 2
 1588 0c18 AA46     		mov r10, r5
 1589 0c1a 6043     		muls r0, r0, r4		@R
 1590 0c1c 6143     		muls r1, r1, r4		@I
 1591 0c1e 8011     		asrs r0, r0, # 6
 1592 0c20 8911     		asrs r1, r1, # 6
 1593 0c22 3618     		adds r6, r6, r0	       @COS_R
 1594 0c24 7F18     		adds r7, r7, r1	       @COS_I
 1595              	
 1596 0c26 7546     	        mov r5, r14
 1597 0c28 2C88     	        ldrh r4, [r5]
 1598 0c2a 0235     	        adds r5, r5, # 2
 1599 0c2c AE46     	        mov r14, r5
 1600 0c2e 6243     	        muls r2, r2, r4         @R
 1601 0c30 6343     	        muls r3, r3, r4         @I
 1602 0c32 9211     		asrs r2, r2, # 6
 1603 0c34 9B11     		asrs r3, r3, # 6
 1604 0c36 4446     		mov r4, r8
 1605 0c38 4D46     		mov r5, r9
 1606 0c3a A418     		adds r4, r4, r2        
 1607 0c3c ED18     		adds r5, r5, r3
 1608 0c3e A046     		mov r8, r4		@SIN_R
 1609 0c40 A946     		mov r9, r5		@SIN_I
 1610              	
 1611              		@1
 1612 0c42 03BC     		pop {r0-r1}
 1613 0c44 0246     		mov r2, r0
 1614 0c46 0B46     		mov r3, r1
 1615              		
 1616 0c48 5546     		mov r5, r10
 1617 0c4a 2C88     		ldrh r4, [r5]
 1618 0c4c 0235     		adds r5, r5, # 2
 1619 0c4e AA46     		mov r10, r5
 1620 0c50 6043     		muls r0, r0, r4		@R
 1621 0c52 6143     		muls r1, r1, r4		@I
 1622 0c54 8011     		asrs r0, r0, # 6
 1623 0c56 8911     		asrs r1, r1, # 6
 1624 0c58 3618     		adds r6, r6, r0	       @COS_R
 1625 0c5a 7F18     		adds r7, r7, r1	       @COS_I
 1626              	
 1627 0c5c 7546     	        mov r5, r14
 1628 0c5e 2C88     	        ldrh r4, [r5]
 1629 0c60 0235     	        adds r5, r5, # 2
 1630 0c62 AE46     	        mov r14, r5
 1631 0c64 6243     	        muls r2, r2, r4         @R
ARM GAS  1.s 			page 30


 1632 0c66 6343     	        muls r3, r3, r4         @I
 1633 0c68 9211     		asrs r2, r2, # 6
 1634 0c6a 9B11     		asrs r3, r3, # 6
 1635 0c6c 4446     		mov r4, r8
 1636 0c6e 4D46     		mov r5, r9
 1637 0c70 A418     		adds r4, r4, r2        
 1638 0c72 ED18     		adds r5, r5, r3
 1639 0c74 A046     		mov r8, r4		@SIN_R
 1640 0c76 A946     		mov r9, r5		@SIN_I
 1641              	
 1642              		@2
 1643 0c78 03BC     		pop {r0-r1}
 1644 0c7a 0246     		mov r2, r0
 1645 0c7c 0B46     		mov r3, r1
 1646              		
 1647 0c7e 5546     		mov r5, r10
 1648 0c80 2C88     		ldrh r4, [r5]
 1649 0c82 0235     		adds r5, r5, # 2
 1650 0c84 AA46     		mov r10, r5
 1651 0c86 6043     		muls r0, r0, r4		@R
 1652 0c88 6143     		muls r1, r1, r4		@I
 1653 0c8a 8011     		asrs r0, r0, # 6
 1654 0c8c 8911     		asrs r1, r1, # 6
 1655 0c8e 3618     		adds r6, r6, r0	       @COS_R
 1656 0c90 7F18     		adds r7, r7, r1	       @COS_I
 1657              	
 1658 0c92 7546     	        mov r5, r14
 1659 0c94 2C88     	        ldrh r4, [r5]
 1660 0c96 0235     	        adds r5, r5, # 2
 1661 0c98 AE46     	        mov r14, r5
 1662 0c9a 6243     	        muls r2, r2, r4         @R
 1663 0c9c 6343     	        muls r3, r3, r4         @I
 1664 0c9e 9211     		asrs r2, r2, # 6
 1665 0ca0 9B11     		asrs r3, r3, # 6
 1666 0ca2 4446     		mov r4, r8
 1667 0ca4 4D46     		mov r5, r9
 1668 0ca6 A418     		adds r4, r4, r2        
 1669 0ca8 ED18     		adds r5, r5, r3
 1670 0caa A046     		mov r8, r4		@SIN_R
 1671 0cac A946     		mov r9, r5		@SIN_I
 1672              		
 1673              		@3
 1674 0cae 03BC     		pop {r0-r1}
 1675 0cb0 0246     		mov r2, r0
 1676 0cb2 0B46     		mov r3, r1
 1677              		
 1678 0cb4 5546     		mov r5, r10
 1679 0cb6 2C88     		ldrh r4, [r5]
 1680 0cb8 0235     		adds r5, r5, # 2
 1681 0cba AA46     		mov r10, r5
 1682 0cbc 6043     		muls r0, r0, r4		@R
 1683 0cbe 6143     		muls r1, r1, r4		@I
 1684 0cc0 8011     		asrs r0, r0, # 6
 1685 0cc2 8911     		asrs r1, r1, # 6
 1686 0cc4 3618     		adds r6, r6, r0	       @COS_R
 1687 0cc6 7F18     		adds r7, r7, r1	       @COS_I
 1688              	
ARM GAS  1.s 			page 31


 1689 0cc8 7546     	        mov r5, r14
 1690 0cca 2C88     	        ldrh r4, [r5]
 1691 0ccc 0235     	        adds r5, r5, # 2
 1692 0cce AE46     	        mov r14, r5
 1693 0cd0 6243     	        muls r2, r2, r4         @R
 1694 0cd2 6343     	        muls r3, r3, r4         @I
 1695 0cd4 9211     		asrs r2, r2, # 6
 1696 0cd6 9B11     		asrs r3, r3, # 6
 1697 0cd8 4446     		mov r4, r8
 1698 0cda 4D46     		mov r5, r9
 1699 0cdc A418     		adds r4, r4, r2        
 1700 0cde ED18     		adds r5, r5, r3
 1701 0ce0 A046     		mov r8, r4		@SIN_R
 1702 0ce2 A946     		mov r9, r5		@SIN_I
 1703              	
 1704              		@4
 1705 0ce4 03BC     		pop {r0-r1}
 1706 0ce6 0246     		mov r2, r0
 1707 0ce8 0B46     		mov r3, r1
 1708              		
 1709 0cea 5546     		mov r5, r10
 1710 0cec 2C88     		ldrh r4, [r5]
 1711 0cee 0235     		adds r5, r5, # 2
 1712 0cf0 AA46     		mov r10, r5
 1713 0cf2 6043     		muls r0, r0, r4		@R
 1714 0cf4 6143     		muls r1, r1, r4		@I
 1715 0cf6 8011     		asrs r0, r0, # 6
 1716 0cf8 8911     		asrs r1, r1, # 6
 1717 0cfa 3618     		adds r6, r6, r0	       @COS_R
 1718 0cfc 7F18     		adds r7, r7, r1	       @COS_I
 1719              	
 1720 0cfe 7546     	        mov r5, r14
 1721 0d00 2C88     	        ldrh r4, [r5]
 1722 0d02 0235     	        adds r5, r5, # 2
 1723 0d04 AE46     	        mov r14, r5
 1724 0d06 6243     	        muls r2, r2, r4         @R
 1725 0d08 6343     	        muls r3, r3, r4         @I
 1726 0d0a 9211     		asrs r2, r2, # 6
 1727 0d0c 9B11     		asrs r3, r3, # 6
 1728 0d0e 4446     		mov r4, r8
 1729 0d10 4D46     		mov r5, r9
 1730 0d12 A418     		adds r4, r4, r2        
 1731 0d14 ED18     		adds r5, r5, r3
 1732 0d16 A046     		mov r8, r4		@SIN_R
 1733 0d18 A946     		mov r9, r5		@SIN_I
 1734              	
 1735              		@5
 1736 0d1a 03BC     			pop {r0-r1}
 1737 0d1c 0246     		mov r2, r0
 1738 0d1e 0B46     		mov r3, r1
 1739              		
 1740 0d20 5546     		mov r5, r10
 1741 0d22 2C88     		ldrh r4, [r5]
 1742 0d24 0235     		adds r5, r5, # 2
 1743 0d26 AA46     		mov r10, r5
 1744 0d28 6043     		muls r0, r0, r4		@R
 1745 0d2a 6143     		muls r1, r1, r4		@I
ARM GAS  1.s 			page 32


 1746 0d2c 8011     		asrs r0, r0, # 6
 1747 0d2e 8911     		asrs r1, r1, # 6
 1748 0d30 3618     		adds r6, r6, r0	       @COS_R
 1749 0d32 7F18     		adds r7, r7, r1	       @COS_I
 1750              	
 1751 0d34 7546     	        mov r5, r14
 1752 0d36 2C88     	        ldrh r4, [r5]
 1753 0d38 0235     	        adds r5, r5, # 2
 1754 0d3a AE46     	        mov r14, r5
 1755 0d3c 6243     	        muls r2, r2, r4         @R
 1756 0d3e 6343     	        muls r3, r3, r4         @I
 1757 0d40 9211     		asrs r2, r2, # 6
 1758 0d42 9B11     		asrs r3, r3, # 6
 1759 0d44 4446     		mov r4, r8
 1760 0d46 4D46     		mov r5, r9
 1761 0d48 A418     		adds r4, r4, r2        
 1762 0d4a ED18     		adds r5, r5, r3
 1763 0d4c A046     		mov r8, r4		@SIN_R
 1764 0d4e A946     		mov r9, r5		@SIN_I
 1765              		
 1766              		@6
 1767 0d50 03BC     			pop {r0-r1}
 1768 0d52 0246     		mov r2, r0
 1769 0d54 0B46     		mov r3, r1
 1770              		
 1771 0d56 5546     		mov r5, r10
 1772 0d58 2C88     		ldrh r4, [r5]
 1773 0d5a 0235     		adds r5, r5, # 2
 1774 0d5c AA46     		mov r10, r5
 1775 0d5e 6043     		muls r0, r0, r4		@R
 1776 0d60 6143     		muls r1, r1, r4		@I
 1777 0d62 8011     		asrs r0, r0, # 6
 1778 0d64 8911     		asrs r1, r1, # 6
 1779 0d66 3618     		adds r6, r6, r0	       @COS_R
 1780 0d68 7F18     		adds r7, r7, r1	       @COS_I
 1781              	
 1782 0d6a 7546     	        mov r5, r14
 1783 0d6c 2C88     	        ldrh r4, [r5]
 1784 0d6e 0235     	        adds r5, r5, # 2
 1785 0d70 AE46     	        mov r14, r5
 1786 0d72 6243     	        muls r2, r2, r4         @R
 1787 0d74 6343     	        muls r3, r3, r4         @I
 1788 0d76 9211     		asrs r2, r2, # 6
 1789 0d78 9B11     		asrs r3, r3, # 6
 1790 0d7a 4446     		mov r4, r8
 1791 0d7c 4D46     		mov r5, r9
 1792 0d7e A418     		adds r4, r4, r2        
 1793 0d80 ED18     		adds r5, r5, r3
 1794 0d82 A046     		mov r8, r4		@SIN_R
 1795 0d84 A946     		mov r9, r5		@SIN_I
 1796              	
 1797              		@7
 1798 0d86 03BC     			pop {r0-r1}
 1799 0d88 0246     		mov r2, r0
 1800 0d8a 0B46     		mov r3, r1
 1801              		
 1802 0d8c 5546     		mov r5, r10
ARM GAS  1.s 			page 33


 1803 0d8e 2C88     		ldrh r4, [r5]
 1804 0d90 0235     		adds r5, r5, # 2
 1805 0d92 AA46     		mov r10, r5
 1806 0d94 6043     		muls r0, r0, r4		@R
 1807 0d96 6143     		muls r1, r1, r4		@I
 1808 0d98 8011     		asrs r0, r0, # 6
 1809 0d9a 8911     		asrs r1, r1, # 6
 1810 0d9c 3618     		adds r6, r6, r0	       @COS_R
 1811 0d9e 7F18     		adds r7, r7, r1	       @COS_I
 1812              	
 1813 0da0 7546     	        mov r5, r14
 1814 0da2 2C88     	        ldrh r4, [r5]
 1815 0da4 0235     	        adds r5, r5, # 2
 1816 0da6 AE46     	        mov r14, r5
 1817 0da8 6243     	        muls r2, r2, r4         @R
 1818 0daa 6343     	        muls r3, r3, r4         @I
 1819 0dac 9211     		asrs r2, r2, # 6
 1820 0dae 9B11     		asrs r3, r3, # 6
 1821 0db0 4446     		mov r4, r8
 1822 0db2 4D46     		mov r5, r9
 1823 0db4 A418     		adds r4, r4, r2        
 1824 0db6 ED18     		adds r5, r5, r3
 1825 0db8 A046     		mov r8, r4		@SIN_R
 1826 0dba A946     		mov r9, r5		@SIN_I
 1827              	
 1828              		@8
 1829 0dbc 03BC     			pop {r0-r1}
 1830 0dbe 0246     		mov r2, r0
 1831 0dc0 0B46     		mov r3, r1
 1832              		
 1833 0dc2 5546     		mov r5, r10
 1834 0dc4 2C88     		ldrh r4, [r5]
 1835 0dc6 0235     		adds r5, r5, # 2
 1836 0dc8 AA46     		mov r10, r5
 1837 0dca 6043     		muls r0, r0, r4		@R
 1838 0dcc 6143     		muls r1, r1, r4		@I
 1839 0dce 8011     		asrs r0, r0, # 6
 1840 0dd0 8911     		asrs r1, r1, # 6
 1841 0dd2 3618     		adds r6, r6, r0	       @COS_R
 1842 0dd4 7F18     		adds r7, r7, r1	       @COS_I
 1843              	
 1844 0dd6 7546     	        mov r5, r14
 1845 0dd8 2C88     	        ldrh r4, [r5]
 1846 0dda 0235     	        adds r5, r5, # 2
 1847 0ddc AE46     	        mov r14, r5
 1848 0dde 6243     	        muls r2, r2, r4         @R
 1849 0de0 6343     	        muls r3, r3, r4         @I
 1850 0de2 9211     		asrs r2, r2, # 6
 1851 0de4 9B11     		asrs r3, r3, # 6
 1852 0de6 4446     		mov r4, r8
 1853 0de8 4D46     		mov r5, r9
 1854 0dea A418     		adds r4, r4, r2        
 1855 0dec ED18     		adds r5, r5, r3
 1856 0dee A046     		mov r8, r4		@SIN_R
 1857 0df0 A946     		mov r9, r5		@SIN_I
 1858              	
 1859              		@9
ARM GAS  1.s 			page 34


 1860 0df2 03BC     			pop {r0-r1}
 1861 0df4 0246     		mov r2, r0
 1862 0df6 0B46     		mov r3, r1
 1863              		
 1864 0df8 5546     		mov r5, r10
 1865 0dfa 2C88     		ldrh r4, [r5]
 1866 0dfc 0235     		adds r5, r5, # 2
 1867 0dfe AA46     		mov r10, r5
 1868 0e00 6043     		muls r0, r0, r4		@R
 1869 0e02 6143     		muls r1, r1, r4		@I
 1870 0e04 8011     		asrs r0, r0, # 6
 1871 0e06 8911     		asrs r1, r1, # 6
 1872 0e08 3618     		adds r6, r6, r0	       @COS_R
 1873 0e0a 7F18     		adds r7, r7, r1	       @COS_I
 1874              	
 1875 0e0c 7546     	        mov r5, r14
 1876 0e0e 2C88     	        ldrh r4, [r5]
 1877 0e10 0235     	        adds r5, r5, # 2
 1878 0e12 AE46     	        mov r14, r5
 1879 0e14 6243     	        muls r2, r2, r4         @R
 1880 0e16 6343     	        muls r3, r3, r4         @I
 1881 0e18 9211     		asrs r2, r2, # 6
 1882 0e1a 9B11     		asrs r3, r3, # 6
 1883 0e1c 4446     		mov r4, r8
 1884 0e1e 4D46     		mov r5, r9
 1885 0e20 A418     		adds r4, r4, r2        
 1886 0e22 ED18     		adds r5, r5, r3
 1887 0e24 A046     		mov r8, r4		@SIN_R
 1888 0e26 A946     		mov r9, r5		@SIN_I
 1889              	
 1890              	@yjm1
 1891              			@0
 1892 0e28 03BC     		pop {r0-r1}
 1893 0e2a 0246     		mov r2, r0
 1894 0e2c 0B46     		mov r3, r1
 1895              		
 1896 0e2e 5546     		mov r5, r10
 1897 0e30 2C88     		ldrh r4, [r5]
 1898 0e32 0235     		adds r5, r5, # 2
 1899 0e34 AA46     		mov r10, r5
 1900 0e36 6043     		muls r0, r0, r4		@R
 1901 0e38 6143     		muls r1, r1, r4		@I
 1902 0e3a 8011     		asrs r0, r0, # 6
 1903 0e3c 8911     		asrs r1, r1, # 6
 1904 0e3e 3618     		adds r6, r6, r0	       @COS_R
 1905 0e40 7F18     		adds r7, r7, r1	       @COS_I
 1906              	
 1907 0e42 7546     	        mov r5, r14
 1908 0e44 2C88     	        ldrh r4, [r5]
 1909 0e46 0235     	        adds r5, r5, # 2
 1910 0e48 AE46     	        mov r14, r5
 1911 0e4a 6243     	        muls r2, r2, r4         @R
 1912 0e4c 6343     	        muls r3, r3, r4         @I
 1913 0e4e 9211     		asrs r2, r2, # 6
 1914 0e50 9B11     		asrs r3, r3, # 6
 1915 0e52 4446     		mov r4, r8
 1916 0e54 4D46     		mov r5, r9
ARM GAS  1.s 			page 35


 1917 0e56 A418     		adds r4, r4, r2        
 1918 0e58 ED18     		adds r5, r5, r3
 1919 0e5a A046     		mov r8, r4		@SIN_R
 1920 0e5c A946     		mov r9, r5		@SIN_I
 1921              	
 1922              		@1
 1923 0e5e 03BC     		pop {r0-r1}
 1924 0e60 0246     		mov r2, r0
 1925 0e62 0B46     		mov r3, r1
 1926              		
 1927 0e64 5546     		mov r5, r10
 1928 0e66 2C88     		ldrh r4, [r5]
 1929 0e68 0235     		adds r5, r5, # 2
 1930 0e6a AA46     		mov r10, r5
 1931 0e6c 6043     		muls r0, r0, r4		@R
 1932 0e6e 6143     		muls r1, r1, r4		@I
 1933 0e70 8011     		asrs r0, r0, # 6
 1934 0e72 8911     		asrs r1, r1, # 6
 1935 0e74 3618     		adds r6, r6, r0	       @COS_R
 1936 0e76 7F18     		adds r7, r7, r1	       @COS_I
 1937              	
 1938 0e78 7546     	        mov r5, r14
 1939 0e7a 2C88     	        ldrh r4, [r5]
 1940 0e7c 0235     	        adds r5, r5, # 2
 1941 0e7e AE46     	        mov r14, r5
 1942 0e80 6243     	        muls r2, r2, r4         @R
 1943 0e82 6343     	        muls r3, r3, r4         @I
 1944 0e84 9211     		asrs r2, r2, # 6
 1945 0e86 9B11     		asrs r3, r3, # 6
 1946 0e88 4446     		mov r4, r8
 1947 0e8a 4D46     		mov r5, r9
 1948 0e8c A418     		adds r4, r4, r2        
 1949 0e8e ED18     		adds r5, r5, r3
 1950 0e90 A046     		mov r8, r4		@SIN_R
 1951 0e92 A946     		mov r9, r5		@SIN_I
 1952              	
 1953              		@2
 1954 0e94 03BC     		pop {r0-r1}
 1955 0e96 0246     		mov r2, r0
 1956 0e98 0B46     		mov r3, r1
 1957              		
 1958 0e9a 5546     		mov r5, r10
 1959 0e9c 2C88     		ldrh r4, [r5]
 1960 0e9e 0235     		adds r5, r5, # 2
 1961 0ea0 AA46     		mov r10, r5
 1962 0ea2 6043     		muls r0, r0, r4		@R
 1963 0ea4 6143     		muls r1, r1, r4		@I
 1964 0ea6 8011     		asrs r0, r0, # 6
 1965 0ea8 8911     		asrs r1, r1, # 6
 1966 0eaa 3618     		adds r6, r6, r0	       @COS_R
 1967 0eac 7F18     		adds r7, r7, r1	       @COS_I
 1968              	
 1969 0eae 7546     	        mov r5, r14
 1970 0eb0 2C88     	        ldrh r4, [r5]
 1971 0eb2 0235     	        adds r5, r5, # 2
 1972 0eb4 AE46     	        mov r14, r5
 1973 0eb6 6243     	        muls r2, r2, r4         @R
ARM GAS  1.s 			page 36


 1974 0eb8 6343     	        muls r3, r3, r4         @I
 1975 0eba 9211     		asrs r2, r2, # 6
 1976 0ebc 9B11     		asrs r3, r3, # 6
 1977 0ebe 4446     		mov r4, r8
 1978 0ec0 4D46     		mov r5, r9
 1979 0ec2 A418     		adds r4, r4, r2        
 1980 0ec4 ED18     		adds r5, r5, r3
 1981 0ec6 A046     		mov r8, r4		@SIN_R
 1982 0ec8 A946     		mov r9, r5		@SIN_I
 1983              		
 1984              		@3
 1985 0eca 03BC     		pop {r0-r1}
 1986 0ecc 0246     		mov r2, r0
 1987 0ece 0B46     		mov r3, r1
 1988              		
 1989 0ed0 5546     		mov r5, r10
 1990 0ed2 2C88     		ldrh r4, [r5]
 1991 0ed4 0235     		adds r5, r5, # 2
 1992 0ed6 AA46     		mov r10, r5
 1993 0ed8 6043     		muls r0, r0, r4		@R
 1994 0eda 6143     		muls r1, r1, r4		@I
 1995 0edc 8011     		asrs r0, r0, # 6
 1996 0ede 8911     		asrs r1, r1, # 6
 1997 0ee0 3618     		adds r6, r6, r0	       @COS_R
 1998 0ee2 7F18     		adds r7, r7, r1	       @COS_I
 1999              	
 2000 0ee4 7546     	        mov r5, r14
 2001 0ee6 2C88     	        ldrh r4, [r5]
 2002 0ee8 0235     	        adds r5, r5, # 2
 2003 0eea AE46     	        mov r14, r5
 2004 0eec 6243     	        muls r2, r2, r4         @R
 2005 0eee 6343     	        muls r3, r3, r4         @I
 2006 0ef0 9211     		asrs r2, r2, # 6
 2007 0ef2 9B11     		asrs r3, r3, # 6
 2008 0ef4 4446     		mov r4, r8
 2009 0ef6 4D46     		mov r5, r9
 2010 0ef8 A418     		adds r4, r4, r2        
 2011 0efa ED18     		adds r5, r5, r3
 2012 0efc A046     		mov r8, r4		@SIN_R
 2013 0efe A946     		mov r9, r5		@SIN_I
 2014              	
 2015              		@4
 2016 0f00 03BC     		pop {r0-r1}
 2017 0f02 0246     		mov r2, r0
 2018 0f04 0B46     		mov r3, r1
 2019              		
 2020 0f06 5546     		mov r5, r10
 2021 0f08 2C88     		ldrh r4, [r5]
 2022 0f0a 0235     		adds r5, r5, # 2
 2023 0f0c AA46     		mov r10, r5
 2024 0f0e 6043     		muls r0, r0, r4		@R
 2025 0f10 6143     		muls r1, r1, r4		@I
 2026 0f12 8011     		asrs r0, r0, # 6
 2027 0f14 8911     		asrs r1, r1, # 6
 2028 0f16 3618     		adds r6, r6, r0	       @COS_R
 2029 0f18 7F18     		adds r7, r7, r1	       @COS_I
 2030              	
ARM GAS  1.s 			page 37


 2031 0f1a 7546     	        mov r5, r14
 2032 0f1c 2C88     	        ldrh r4, [r5]
 2033 0f1e 0235     	        adds r5, r5, # 2
 2034 0f20 AE46     	        mov r14, r5
 2035 0f22 6243     	        muls r2, r2, r4         @R
 2036 0f24 6343     	        muls r3, r3, r4         @I
 2037 0f26 9211     		asrs r2, r2, # 6
 2038 0f28 9B11     		asrs r3, r3, # 6
 2039 0f2a 4446     		mov r4, r8
 2040 0f2c 4D46     		mov r5, r9
 2041 0f2e A418     		adds r4, r4, r2        
 2042 0f30 ED18     		adds r5, r5, r3
 2043 0f32 A046     		mov r8, r4		@SIN_R
 2044 0f34 A946     		mov r9, r5		@SIN_I
 2045              	
 2046              		@5
 2047 0f36 03BC     			pop {r0-r1}
 2048 0f38 0246     		mov r2, r0
 2049 0f3a 0B46     		mov r3, r1
 2050              		
 2051 0f3c 5546     		mov r5, r10
 2052 0f3e 2C88     		ldrh r4, [r5]
 2053 0f40 0235     		adds r5, r5, # 2
 2054 0f42 AA46     		mov r10, r5
 2055 0f44 6043     		muls r0, r0, r4		@R
 2056 0f46 6143     		muls r1, r1, r4		@I
 2057 0f48 8011     		asrs r0, r0, # 6
 2058 0f4a 8911     		asrs r1, r1, # 6
 2059 0f4c 3618     		adds r6, r6, r0	       @COS_R
 2060 0f4e 7F18     		adds r7, r7, r1	       @COS_I
 2061              	
 2062 0f50 7546     	        mov r5, r14
 2063 0f52 2C88     	        ldrh r4, [r5]
 2064 0f54 0235     	        adds r5, r5, # 2
 2065 0f56 AE46     	        mov r14, r5
 2066 0f58 6243     	        muls r2, r2, r4         @R
 2067 0f5a 6343     	        muls r3, r3, r4         @I
 2068 0f5c 9211     		asrs r2, r2, # 6
 2069 0f5e 9B11     		asrs r3, r3, # 6
 2070 0f60 4446     		mov r4, r8
 2071 0f62 4D46     		mov r5, r9
 2072 0f64 A418     		adds r4, r4, r2        
 2073 0f66 ED18     		adds r5, r5, r3
 2074 0f68 A046     		mov r8, r4		@SIN_R
 2075 0f6a A946     		mov r9, r5		@SIN_I
 2076              		
 2077              		@6
 2078 0f6c 03BC     			pop {r0-r1}
 2079 0f6e 0246     		mov r2, r0
 2080 0f70 0B46     		mov r3, r1
 2081              		
 2082 0f72 5546     		mov r5, r10
 2083 0f74 2C88     		ldrh r4, [r5]
 2084 0f76 0235     		adds r5, r5, # 2
 2085 0f78 AA46     		mov r10, r5
 2086 0f7a 6043     		muls r0, r0, r4		@R
 2087 0f7c 6143     		muls r1, r1, r4		@I
ARM GAS  1.s 			page 38


 2088 0f7e 8011     		asrs r0, r0, # 6
 2089 0f80 8911     		asrs r1, r1, # 6
 2090 0f82 3618     		adds r6, r6, r0	       @COS_R
 2091 0f84 7F18     		adds r7, r7, r1	       @COS_I
 2092              	
 2093 0f86 7546     	        mov r5, r14
 2094 0f88 2C88     	        ldrh r4, [r5]
 2095 0f8a 0235     	        adds r5, r5, # 2
 2096 0f8c AE46     	        mov r14, r5
 2097 0f8e 6243     	        muls r2, r2, r4         @R
 2098 0f90 6343     	        muls r3, r3, r4         @I
 2099 0f92 9211     		asrs r2, r2, # 6
 2100 0f94 9B11     		asrs r3, r3, # 6
 2101 0f96 4446     		mov r4, r8
 2102 0f98 4D46     		mov r5, r9
 2103 0f9a A418     		adds r4, r4, r2        
 2104 0f9c ED18     		adds r5, r5, r3
 2105 0f9e A046     		mov r8, r4		@SIN_R
 2106 0fa0 A946     		mov r9, r5		@SIN_I
 2107              	
 2108              		@7
 2109 0fa2 03BC     			pop {r0-r1}
 2110 0fa4 0246     		mov r2, r0
 2111 0fa6 0B46     		mov r3, r1
 2112              		
 2113 0fa8 5546     		mov r5, r10
 2114 0faa 2C88     		ldrh r4, [r5]
 2115 0fac 0235     		adds r5, r5, # 2
 2116 0fae AA46     		mov r10, r5
 2117 0fb0 6043     		muls r0, r0, r4		@R
 2118 0fb2 6143     		muls r1, r1, r4		@I
 2119 0fb4 8011     		asrs r0, r0, # 6
 2120 0fb6 8911     		asrs r1, r1, # 6
 2121 0fb8 3618     		adds r6, r6, r0	       @COS_R
 2122 0fba 7F18     		adds r7, r7, r1	       @COS_I
 2123              	
 2124 0fbc 7546     	        mov r5, r14
 2125 0fbe 2C88     	        ldrh r4, [r5]
 2126 0fc0 0235     	        adds r5, r5, # 2
 2127 0fc2 AE46     	        mov r14, r5
 2128 0fc4 6243     	        muls r2, r2, r4         @R
 2129 0fc6 6343     	        muls r3, r3, r4         @I
 2130 0fc8 9211     		asrs r2, r2, # 6
 2131 0fca 9B11     		asrs r3, r3, # 6
 2132 0fcc 4446     		mov r4, r8
 2133 0fce 4D46     		mov r5, r9
 2134 0fd0 A418     		adds r4, r4, r2        
 2135 0fd2 ED18     		adds r5, r5, r3
 2136 0fd4 A046     		mov r8, r4		@SIN_R
 2137 0fd6 A946     		mov r9, r5		@SIN_I
 2138              	
 2139              		@8
 2140 0fd8 03BC     			pop {r0-r1}
 2141 0fda 0246     		mov r2, r0
 2142 0fdc 0B46     		mov r3, r1
 2143              		
 2144 0fde 5546     		mov r5, r10
ARM GAS  1.s 			page 39


 2145 0fe0 2C88     		ldrh r4, [r5]
 2146 0fe2 0235     		adds r5, r5, # 2
 2147 0fe4 AA46     		mov r10, r5
 2148 0fe6 6043     		muls r0, r0, r4		@R
 2149 0fe8 6143     		muls r1, r1, r4		@I
 2150 0fea 8011     		asrs r0, r0, # 6
 2151 0fec 8911     		asrs r1, r1, # 6
 2152 0fee 3618     		adds r6, r6, r0	       @COS_R
 2153 0ff0 7F18     		adds r7, r7, r1	       @COS_I
 2154              	
 2155 0ff2 7546     	        mov r5, r14
 2156 0ff4 2C88     	        ldrh r4, [r5]
 2157 0ff6 0235     	        adds r5, r5, # 2
 2158 0ff8 AE46     	        mov r14, r5
 2159 0ffa 6243     	        muls r2, r2, r4         @R
 2160 0ffc 6343     	        muls r3, r3, r4         @I
 2161 0ffe 9211     		asrs r2, r2, # 6
 2162 1000 9B11     		asrs r3, r3, # 6
 2163 1002 4446     		mov r4, r8
 2164 1004 4D46     		mov r5, r9
 2165 1006 A418     		adds r4, r4, r2        
 2166 1008 ED18     		adds r5, r5, r3
 2167 100a A046     		mov r8, r4		@SIN_R
 2168 100c A946     		mov r9, r5		@SIN_I
 2169              	
 2170              		@9
 2171 100e 03BC     			pop {r0-r1}
 2172 1010 0246     		mov r2, r0
 2173 1012 0B46     		mov r3, r1
 2174              		
 2175 1014 5546     		mov r5, r10
 2176 1016 2C88     		ldrh r4, [r5]
 2177 1018 0235     		adds r5, r5, # 2
 2178 101a AA46     		mov r10, r5
 2179 101c 6043     		muls r0, r0, r4		@R
 2180 101e 6143     		muls r1, r1, r4		@I
 2181 1020 8011     		asrs r0, r0, # 6
 2182 1022 8911     		asrs r1, r1, # 6
 2183 1024 3618     		adds r6, r6, r0	       @COS_R
 2184 1026 7F18     		adds r7, r7, r1	       @COS_I
 2185              	
 2186 1028 7546     	        mov r5, r14
 2187 102a 2C88     	        ldrh r4, [r5]
 2188 102c 0235     	        adds r5, r5, # 2
 2189 102e AE46     	        mov r14, r5
 2190 1030 6243     	        muls r2, r2, r4         @R
 2191 1032 6343     	        muls r3, r3, r4         @I
 2192 1034 9211     		asrs r2, r2, # 6
 2193 1036 9B11     		asrs r3, r3, # 6
 2194 1038 4446     		mov r4, r8
 2195 103a 4D46     		mov r5, r9
 2196 103c A418     		adds r4, r4, r2        
 2197 103e ED18     		adds r5, r5, r3
 2198 1040 A046     		mov r8, r4		@SIN_R
 2199 1042 A946     		mov r9, r5		@SIN_I
 2200              	
 2201              	@yjm2
ARM GAS  1.s 			page 40


 2202              			@0
 2203 1044 03BC     		pop {r0-r1}
 2204 1046 0246     		mov r2, r0
 2205 1048 0B46     		mov r3, r1
 2206              		
 2207 104a 5546     		mov r5, r10
 2208 104c 2C88     		ldrh r4, [r5]
 2209 104e 0235     		adds r5, r5, # 2
 2210 1050 AA46     		mov r10, r5
 2211 1052 6043     		muls r0, r0, r4		@R
 2212 1054 6143     		muls r1, r1, r4		@I
 2213 1056 8011     		asrs r0, r0, # 6
 2214 1058 8911     		asrs r1, r1, # 6
 2215 105a 3618     		adds r6, r6, r0	       @COS_R
 2216 105c 7F18     		adds r7, r7, r1	       @COS_I
 2217              	
 2218 105e 7546     	        mov r5, r14
 2219 1060 2C88     	        ldrh r4, [r5]
 2220 1062 0235     	        adds r5, r5, # 2
 2221 1064 AE46     	        mov r14, r5
 2222 1066 6243     	        muls r2, r2, r4         @R
 2223 1068 6343     	        muls r3, r3, r4         @I
 2224 106a 9211     		asrs r2, r2, # 6
 2225 106c 9B11     		asrs r3, r3, # 6
 2226 106e 4446     		mov r4, r8
 2227 1070 4D46     		mov r5, r9
 2228 1072 A418     		adds r4, r4, r2        
 2229 1074 ED18     		adds r5, r5, r3
 2230 1076 A046     		mov r8, r4		@SIN_R
 2231 1078 A946     		mov r9, r5		@SIN_I
 2232              	
 2233              		@1
 2234 107a 03BC     		pop {r0-r1}
 2235 107c 0246     		mov r2, r0
 2236 107e 0B46     		mov r3, r1
 2237              		
 2238 1080 5546     		mov r5, r10
 2239 1082 2C88     		ldrh r4, [r5]
 2240 1084 0235     		adds r5, r5, # 2
 2241 1086 AA46     		mov r10, r5
 2242 1088 6043     		muls r0, r0, r4		@R
 2243 108a 6143     		muls r1, r1, r4		@I
 2244 108c 8011     		asrs r0, r0, # 6
 2245 108e 8911     		asrs r1, r1, # 6
 2246 1090 3618     		adds r6, r6, r0	       @COS_R
 2247 1092 7F18     		adds r7, r7, r1	       @COS_I
 2248              	
 2249 1094 7546     	        mov r5, r14
 2250 1096 2C88     	        ldrh r4, [r5]
 2251 1098 0235     	        adds r5, r5, # 2
 2252 109a AE46     	        mov r14, r5
 2253 109c 6243     	        muls r2, r2, r4         @R
 2254 109e 6343     	        muls r3, r3, r4         @I
 2255 10a0 9211     		asrs r2, r2, # 6
 2256 10a2 9B11     		asrs r3, r3, # 6
 2257 10a4 4446     		mov r4, r8
 2258 10a6 4D46     		mov r5, r9
ARM GAS  1.s 			page 41


 2259 10a8 A418     		adds r4, r4, r2        
 2260 10aa ED18     		adds r5, r5, r3
 2261 10ac A046     		mov r8, r4		@SIN_R
 2262 10ae A946     		mov r9, r5		@SIN_I
 2263              	
 2264              		@2
 2265 10b0 03BC     		pop {r0-r1}
 2266 10b2 0246     		mov r2, r0
 2267 10b4 0B46     		mov r3, r1
 2268              		
 2269 10b6 5546     		mov r5, r10
 2270 10b8 2C88     		ldrh r4, [r5]
 2271 10ba 0235     		adds r5, r5, # 2
 2272 10bc AA46     		mov r10, r5
 2273 10be 6043     		muls r0, r0, r4		@R
 2274 10c0 6143     		muls r1, r1, r4		@I
 2275 10c2 8011     		asrs r0, r0, # 6
 2276 10c4 8911     		asrs r1, r1, # 6
 2277 10c6 3618     		adds r6, r6, r0	       @COS_R
 2278 10c8 7F18     		adds r7, r7, r1	       @COS_I
 2279              	
 2280 10ca 7546     	        mov r5, r14
 2281 10cc 2C88     	        ldrh r4, [r5]
 2282 10ce 0235     	        adds r5, r5, # 2
 2283 10d0 AE46     	        mov r14, r5
 2284 10d2 6243     	        muls r2, r2, r4         @R
 2285 10d4 6343     	        muls r3, r3, r4         @I
 2286 10d6 9211     		asrs r2, r2, # 6
 2287 10d8 9B11     		asrs r3, r3, # 6
 2288 10da 4446     		mov r4, r8
 2289 10dc 4D46     		mov r5, r9
 2290 10de A418     		adds r4, r4, r2        
 2291 10e0 ED18     		adds r5, r5, r3
 2292 10e2 A046     		mov r8, r4		@SIN_R
 2293 10e4 A946     		mov r9, r5		@SIN_I
 2294              		
 2295              		@3
 2296 10e6 03BC     		pop {r0-r1}
 2297 10e8 0246     		mov r2, r0
 2298 10ea 0B46     		mov r3, r1
 2299              		
 2300 10ec 5546     		mov r5, r10
 2301 10ee 2C88     		ldrh r4, [r5]
 2302 10f0 0235     		adds r5, r5, # 2
 2303 10f2 AA46     		mov r10, r5
 2304 10f4 6043     		muls r0, r0, r4		@R
 2305 10f6 6143     		muls r1, r1, r4		@I
 2306 10f8 8011     		asrs r0, r0, # 6
 2307 10fa 8911     		asrs r1, r1, # 6
 2308 10fc 3618     		adds r6, r6, r0	       @COS_R
 2309 10fe 7F18     		adds r7, r7, r1	       @COS_I
 2310              	
 2311 1100 7546     	        mov r5, r14
 2312 1102 2C88     	        ldrh r4, [r5]
 2313 1104 0235     	        adds r5, r5, # 2
 2314 1106 AE46     	        mov r14, r5
 2315 1108 6243     	        muls r2, r2, r4         @R
ARM GAS  1.s 			page 42


 2316 110a 6343     	        muls r3, r3, r4         @I
 2317 110c 9211     		asrs r2, r2, # 6
 2318 110e 9B11     		asrs r3, r3, # 6
 2319 1110 4446     		mov r4, r8
 2320 1112 4D46     		mov r5, r9
 2321 1114 A418     		adds r4, r4, r2        
 2322 1116 ED18     		adds r5, r5, r3
 2323 1118 A046     		mov r8, r4		@SIN_R
 2324 111a A946     		mov r9, r5		@SIN_I
 2325              	
 2326              		@4
 2327 111c 03BC     		pop {r0-r1}
 2328 111e 0246     		mov r2, r0
 2329 1120 0B46     		mov r3, r1
 2330              		
 2331 1122 5546     		mov r5, r10
 2332 1124 2C88     		ldrh r4, [r5]
 2333 1126 0235     		adds r5, r5, # 2
 2334 1128 AA46     		mov r10, r5
 2335 112a 6043     		muls r0, r0, r4		@R
 2336 112c 6143     		muls r1, r1, r4		@I
 2337 112e 8011     		asrs r0, r0, # 6
 2338 1130 8911     		asrs r1, r1, # 6
 2339 1132 3618     		adds r6, r6, r0	       @COS_R
 2340 1134 7F18     		adds r7, r7, r1	       @COS_I
 2341              	
 2342 1136 7546     	        mov r5, r14
 2343 1138 2C88     	        ldrh r4, [r5]
 2344 113a 0235     	        adds r5, r5, # 2
 2345 113c AE46     	        mov r14, r5
 2346 113e 6243     	        muls r2, r2, r4         @R
 2347 1140 6343     	        muls r3, r3, r4         @I
 2348 1142 9211     		asrs r2, r2, # 6
 2349 1144 9B11     		asrs r3, r3, # 6
 2350 1146 4446     		mov r4, r8
 2351 1148 4D46     		mov r5, r9
 2352 114a A418     		adds r4, r4, r2        
 2353 114c ED18     		adds r5, r5, r3
 2354 114e A046     		mov r8, r4		@SIN_R
 2355 1150 A946     		mov r9, r5		@SIN_I
 2356              	
 2357              		@5
 2358 1152 03BC     			pop {r0-r1}
 2359 1154 0246     		mov r2, r0
 2360 1156 0B46     		mov r3, r1
 2361              		
 2362 1158 5546     		mov r5, r10
 2363 115a 2C88     		ldrh r4, [r5]
 2364 115c 0235     		adds r5, r5, # 2
 2365 115e AA46     		mov r10, r5
 2366 1160 6043     		muls r0, r0, r4		@R
 2367 1162 6143     		muls r1, r1, r4		@I
 2368 1164 8011     		asrs r0, r0, # 6
 2369 1166 8911     		asrs r1, r1, # 6
 2370 1168 3618     		adds r6, r6, r0	       @COS_R
 2371 116a 7F18     		adds r7, r7, r1	       @COS_I
 2372              	
ARM GAS  1.s 			page 43


 2373 116c 7546     	        mov r5, r14
 2374 116e 2C88     	        ldrh r4, [r5]
 2375 1170 0235     	        adds r5, r5, # 2
 2376 1172 AE46     	        mov r14, r5
 2377 1174 6243     	        muls r2, r2, r4         @R
 2378 1176 6343     	        muls r3, r3, r4         @I
 2379 1178 9211     		asrs r2, r2, # 6
 2380 117a 9B11     		asrs r3, r3, # 6
 2381 117c 4446     		mov r4, r8
 2382 117e 4D46     		mov r5, r9
 2383 1180 A418     		adds r4, r4, r2        
 2384 1182 ED18     		adds r5, r5, r3
 2385 1184 A046     		mov r8, r4		@SIN_R
 2386 1186 A946     		mov r9, r5		@SIN_I
 2387              		
 2388              		@6
 2389 1188 03BC     			pop {r0-r1}
 2390 118a 0246     		mov r2, r0
 2391 118c 0B46     		mov r3, r1
 2392              		
 2393 118e 5546     		mov r5, r10
 2394 1190 2C88     		ldrh r4, [r5]
 2395 1192 0235     		adds r5, r5, # 2
 2396 1194 AA46     		mov r10, r5
 2397 1196 6043     		muls r0, r0, r4		@R
 2398 1198 6143     		muls r1, r1, r4		@I
 2399 119a 8011     		asrs r0, r0, # 6
 2400 119c 8911     		asrs r1, r1, # 6
 2401 119e 3618     		adds r6, r6, r0	       @COS_R
 2402 11a0 7F18     		adds r7, r7, r1	       @COS_I
 2403              	
 2404 11a2 7546     	        mov r5, r14
 2405 11a4 2C88     	        ldrh r4, [r5]
 2406 11a6 0235     	        adds r5, r5, # 2
 2407 11a8 AE46     	        mov r14, r5
 2408 11aa 6243     	        muls r2, r2, r4         @R
 2409 11ac 6343     	        muls r3, r3, r4         @I
 2410 11ae 9211     		asrs r2, r2, # 6
 2411 11b0 9B11     		asrs r3, r3, # 6
 2412 11b2 4446     		mov r4, r8
 2413 11b4 4D46     		mov r5, r9
 2414 11b6 A418     		adds r4, r4, r2        
 2415 11b8 ED18     		adds r5, r5, r3
 2416 11ba A046     		mov r8, r4		@SIN_R
 2417 11bc A946     		mov r9, r5		@SIN_I
 2418              	
 2419              		@7
 2420 11be 03BC     			pop {r0-r1}
 2421 11c0 0246     		mov r2, r0
 2422 11c2 0B46     		mov r3, r1
 2423              		
 2424 11c4 5546     		mov r5, r10
 2425 11c6 2C88     		ldrh r4, [r5]
 2426 11c8 0235     		adds r5, r5, # 2
 2427 11ca AA46     		mov r10, r5
 2428 11cc 6043     		muls r0, r0, r4		@R
 2429 11ce 6143     		muls r1, r1, r4		@I
ARM GAS  1.s 			page 44


 2430 11d0 8011     		asrs r0, r0, # 6
 2431 11d2 8911     		asrs r1, r1, # 6
 2432 11d4 3618     		adds r6, r6, r0	       @COS_R
 2433 11d6 7F18     		adds r7, r7, r1	       @COS_I
 2434              	
 2435 11d8 7546     	        mov r5, r14
 2436 11da 2C88     	        ldrh r4, [r5]
 2437 11dc 0235     	        adds r5, r5, # 2
 2438 11de AE46     	        mov r14, r5
 2439 11e0 6243     	        muls r2, r2, r4         @R
 2440 11e2 6343     	        muls r3, r3, r4         @I
 2441 11e4 9211     		asrs r2, r2, # 6
 2442 11e6 9B11     		asrs r3, r3, # 6
 2443 11e8 4446     		mov r4, r8
 2444 11ea 4D46     		mov r5, r9
 2445 11ec A418     		adds r4, r4, r2        
 2446 11ee ED18     		adds r5, r5, r3
 2447 11f0 A046     		mov r8, r4		@SIN_R
 2448 11f2 A946     		mov r9, r5		@SIN_I
 2449              	
 2450              		@8
 2451 11f4 03BC     			pop {r0-r1}
 2452 11f6 0246     		mov r2, r0
 2453 11f8 0B46     		mov r3, r1
 2454              		
 2455 11fa 5546     		mov r5, r10
 2456 11fc 2C88     		ldrh r4, [r5]
 2457 11fe 0235     		adds r5, r5, # 2
 2458 1200 AA46     		mov r10, r5
 2459 1202 6043     		muls r0, r0, r4		@R
 2460 1204 6143     		muls r1, r1, r4		@I
 2461 1206 8011     		asrs r0, r0, # 6
 2462 1208 8911     		asrs r1, r1, # 6
 2463 120a 3618     		adds r6, r6, r0	       @COS_R
 2464 120c 7F18     		adds r7, r7, r1	       @COS_I
 2465              	
 2466 120e 7546     	        mov r5, r14
 2467 1210 2C88     	        ldrh r4, [r5]
 2468 1212 0235     	        adds r5, r5, # 2
 2469 1214 AE46     	        mov r14, r5
 2470 1216 6243     	        muls r2, r2, r4         @R
 2471 1218 6343     	        muls r3, r3, r4         @I
 2472 121a 9211     		asrs r2, r2, # 6
 2473 121c 9B11     		asrs r3, r3, # 6
 2474 121e 4446     		mov r4, r8
 2475 1220 4D46     		mov r5, r9
 2476 1222 A418     		adds r4, r4, r2        
 2477 1224 ED18     		adds r5, r5, r3
 2478 1226 A046     		mov r8, r4		@SIN_R
 2479 1228 A946     		mov r9, r5		@SIN_I
 2480              	
 2481              		@9
 2482 122a 03BC     			pop {r0-r1}
 2483 122c 0246     		mov r2, r0
 2484 122e 0B46     		mov r3, r1
 2485              		
 2486 1230 5546     		mov r5, r10
ARM GAS  1.s 			page 45


 2487 1232 2C88     		ldrh r4, [r5]
 2488 1234 0235     		adds r5, r5, # 2
 2489 1236 AA46     		mov r10, r5
 2490 1238 6043     		muls r0, r0, r4		@R
 2491 123a 6143     		muls r1, r1, r4		@I
 2492 123c 8011     		asrs r0, r0, # 6
 2493 123e 8911     		asrs r1, r1, # 6
 2494 1240 3618     		adds r6, r6, r0	       @COS_R
 2495 1242 7F18     		adds r7, r7, r1	       @COS_I
 2496              	
 2497 1244 7546     	        mov r5, r14
 2498 1246 2C88     	        ldrh r4, [r5]
 2499 1248 0235     	        adds r5, r5, # 2
 2500 124a AE46     	        mov r14, r5
 2501 124c 6243     	        muls r2, r2, r4         @R
 2502 124e 6343     	        muls r3, r3, r4         @I
 2503 1250 9211     		asrs r2, r2, # 6
 2504 1252 9B11     		asrs r3, r3, # 6
 2505 1254 4446     		mov r4, r8
 2506 1256 4D46     		mov r5, r9
 2507 1258 A418     		adds r4, r4, r2        
 2508 125a ED18     		adds r5, r5, r3
 2509 125c A046     		mov r8, r4		@SIN_R
 2510 125e A946     		mov r9, r5		@SIN_I
 2511              	
 2512              	@yjm3
 2513              			@0
 2514 1260 03BC     		pop {r0-r1}
 2515 1262 0246     		mov r2, r0
 2516 1264 0B46     		mov r3, r1
 2517              		
 2518 1266 5546     		mov r5, r10
 2519 1268 2C88     		ldrh r4, [r5]
 2520 126a 0235     		adds r5, r5, # 2
 2521 126c AA46     		mov r10, r5
 2522 126e 6043     		muls r0, r0, r4		@R
 2523 1270 6143     		muls r1, r1, r4		@I
 2524 1272 8011     		asrs r0, r0, # 6
 2525 1274 8911     		asrs r1, r1, # 6
 2526 1276 3618     		adds r6, r6, r0	       @COS_R
 2527 1278 7F18     		adds r7, r7, r1	       @COS_I
 2528              	
 2529 127a 7546     	        mov r5, r14
 2530 127c 2C88     	        ldrh r4, [r5]
 2531 127e 0235     	        adds r5, r5, # 2
 2532 1280 AE46     	        mov r14, r5
 2533 1282 6243     	        muls r2, r2, r4         @R
 2534 1284 6343     	        muls r3, r3, r4         @I
 2535 1286 9211     		asrs r2, r2, # 6
 2536 1288 9B11     		asrs r3, r3, # 6
 2537 128a 4446     		mov r4, r8
 2538 128c 4D46     		mov r5, r9
 2539 128e A418     		adds r4, r4, r2        
 2540 1290 ED18     		adds r5, r5, r3
 2541 1292 A046     		mov r8, r4		@SIN_R
 2542 1294 A946     		mov r9, r5		@SIN_I
 2543              	
ARM GAS  1.s 			page 46


 2544              		@1
 2545 1296 03BC     		pop {r0-r1}
 2546 1298 0246     		mov r2, r0
 2547 129a 0B46     		mov r3, r1
 2548              		
 2549 129c 5546     		mov r5, r10
 2550 129e 2C88     		ldrh r4, [r5]
 2551 12a0 0235     		adds r5, r5, # 2
 2552 12a2 AA46     		mov r10, r5
 2553 12a4 6043     		muls r0, r0, r4		@R
 2554 12a6 6143     		muls r1, r1, r4		@I
 2555 12a8 8011     		asrs r0, r0, # 6
 2556 12aa 8911     		asrs r1, r1, # 6
 2557 12ac 3618     		adds r6, r6, r0	       @COS_R
 2558 12ae 7F18     		adds r7, r7, r1	       @COS_I
 2559              	
 2560 12b0 7546     	        mov r5, r14
 2561 12b2 2C88     	        ldrh r4, [r5]
 2562 12b4 0235     	        adds r5, r5, # 2
 2563 12b6 AE46     	        mov r14, r5
 2564 12b8 6243     	        muls r2, r2, r4         @R
 2565 12ba 6343     	        muls r3, r3, r4         @I
 2566 12bc 9211     		asrs r2, r2, # 6
 2567 12be 9B11     		asrs r3, r3, # 6
 2568 12c0 4446     		mov r4, r8
 2569 12c2 4D46     		mov r5, r9
 2570 12c4 A418     		adds r4, r4, r2        
 2571 12c6 ED18     		adds r5, r5, r3
 2572 12c8 A046     		mov r8, r4		@SIN_R
 2573 12ca A946     		mov r9, r5		@SIN_I
 2574              	
 2575              		@2
 2576 12cc 03BC     		pop {r0-r1}
 2577 12ce 0246     		mov r2, r0
 2578 12d0 0B46     		mov r3, r1
 2579              		
 2580 12d2 5546     		mov r5, r10
 2581 12d4 2C88     		ldrh r4, [r5]
 2582 12d6 0235     		adds r5, r5, # 2
 2583 12d8 AA46     		mov r10, r5
 2584 12da 6043     		muls r0, r0, r4		@R
 2585 12dc 6143     		muls r1, r1, r4		@I
 2586 12de 8011     		asrs r0, r0, # 6
 2587 12e0 8911     		asrs r1, r1, # 6
 2588 12e2 3618     		adds r6, r6, r0	       @COS_R
 2589 12e4 7F18     		adds r7, r7, r1	       @COS_I
 2590              	
 2591 12e6 7546     	        mov r5, r14
 2592 12e8 2C88     	        ldrh r4, [r5]
 2593 12ea 0235     	        adds r5, r5, # 2
 2594 12ec AE46     	        mov r14, r5
 2595 12ee 6243     	        muls r2, r2, r4         @R
 2596 12f0 6343     	        muls r3, r3, r4         @I
 2597 12f2 9211     		asrs r2, r2, # 6
 2598 12f4 9B11     		asrs r3, r3, # 6
 2599 12f6 4446     		mov r4, r8
 2600 12f8 4D46     		mov r5, r9
ARM GAS  1.s 			page 47


 2601 12fa A418     		adds r4, r4, r2        
 2602 12fc ED18     		adds r5, r5, r3
 2603 12fe A046     		mov r8, r4		@SIN_R
 2604 1300 A946     		mov r9, r5		@SIN_I
 2605              		
 2606              		@3
 2607 1302 03BC     		pop {r0-r1}
 2608 1304 0246     		mov r2, r0
 2609 1306 0B46     		mov r3, r1
 2610              		
 2611 1308 5546     		mov r5, r10
 2612 130a 2C88     		ldrh r4, [r5]
 2613 130c 0235     		adds r5, r5, # 2
 2614 130e AA46     		mov r10, r5
 2615 1310 6043     		muls r0, r0, r4		@R
 2616 1312 6143     		muls r1, r1, r4		@I
 2617 1314 8011     		asrs r0, r0, # 6
 2618 1316 8911     		asrs r1, r1, # 6
 2619 1318 3618     		adds r6, r6, r0	       @COS_R
 2620 131a 7F18     		adds r7, r7, r1	       @COS_I
 2621              	
 2622 131c 7546     	        mov r5, r14
 2623 131e 2C88     	        ldrh r4, [r5]
 2624 1320 0235     	        adds r5, r5, # 2
 2625 1322 AE46     	        mov r14, r5
 2626 1324 6243     	        muls r2, r2, r4         @R
 2627 1326 6343     	        muls r3, r3, r4         @I
 2628 1328 9211     		asrs r2, r2, # 6
 2629 132a 9B11     		asrs r3, r3, # 6
 2630 132c 4446     		mov r4, r8
 2631 132e 4D46     		mov r5, r9
 2632 1330 A418     		adds r4, r4, r2        
 2633 1332 ED18     		adds r5, r5, r3
 2634 1334 A046     		mov r8, r4		@SIN_R
 2635 1336 A946     		mov r9, r5		@SIN_I
 2636              	
 2637              		@4
 2638 1338 03BC     		pop {r0-r1}
 2639 133a 0246     		mov r2, r0
 2640 133c 0B46     		mov r3, r1
 2641              		
 2642 133e 5546     		mov r5, r10
 2643 1340 2C88     		ldrh r4, [r5]
 2644 1342 0235     		adds r5, r5, # 2
 2645 1344 AA46     		mov r10, r5
 2646 1346 6043     		muls r0, r0, r4		@R
 2647 1348 6143     		muls r1, r1, r4		@I
 2648 134a 8011     		asrs r0, r0, # 6
 2649 134c 8911     		asrs r1, r1, # 6
 2650 134e 3618     		adds r6, r6, r0	       @COS_R
 2651 1350 7F18     		adds r7, r7, r1	       @COS_I
 2652              	
 2653 1352 7546     	        mov r5, r14
 2654 1354 2C88     	        ldrh r4, [r5]
 2655 1356 0235     	        adds r5, r5, # 2
 2656 1358 AE46     	        mov r14, r5
 2657 135a 6243     	        muls r2, r2, r4         @R
ARM GAS  1.s 			page 48


 2658 135c 6343     	        muls r3, r3, r4         @I
 2659 135e 9211     		asrs r2, r2, # 6
 2660 1360 9B11     		asrs r3, r3, # 6
 2661 1362 4446     		mov r4, r8
 2662 1364 4D46     		mov r5, r9
 2663 1366 A418     		adds r4, r4, r2        
 2664 1368 ED18     		adds r5, r5, r3
 2665 136a A046     		mov r8, r4		@SIN_R
 2666 136c A946     		mov r9, r5		@SIN_I
 2667              	
 2668              		@5
 2669 136e 03BC     			pop {r0-r1}
 2670 1370 0246     		mov r2, r0
 2671 1372 0B46     		mov r3, r1
 2672              		
 2673 1374 5546     		mov r5, r10
 2674 1376 2C88     		ldrh r4, [r5]
 2675 1378 0235     		adds r5, r5, # 2
 2676 137a AA46     		mov r10, r5
 2677 137c 6043     		muls r0, r0, r4		@R
 2678 137e 6143     		muls r1, r1, r4		@I
 2679 1380 8011     		asrs r0, r0, # 6
 2680 1382 8911     		asrs r1, r1, # 6
 2681 1384 3618     		adds r6, r6, r0	       @COS_R
 2682 1386 7F18     		adds r7, r7, r1	       @COS_I
 2683              	
 2684 1388 7546     	        mov r5, r14
 2685 138a 2C88     	        ldrh r4, [r5]
 2686 138c 0235     	        adds r5, r5, # 2
 2687 138e AE46     	        mov r14, r5
 2688 1390 6243     	        muls r2, r2, r4         @R
 2689 1392 6343     	        muls r3, r3, r4         @I
 2690 1394 9211     		asrs r2, r2, # 6
 2691 1396 9B11     		asrs r3, r3, # 6
 2692 1398 4446     		mov r4, r8
 2693 139a 4D46     		mov r5, r9
 2694 139c A418     		adds r4, r4, r2        
 2695 139e ED18     		adds r5, r5, r3
 2696 13a0 A046     		mov r8, r4		@SIN_R
 2697 13a2 A946     		mov r9, r5		@SIN_I
 2698              		
 2699              		@6
 2700 13a4 03BC     			pop {r0-r1}
 2701 13a6 0246     		mov r2, r0
 2702 13a8 0B46     		mov r3, r1
 2703              		
 2704 13aa 5546     		mov r5, r10
 2705 13ac 2C88     		ldrh r4, [r5]
 2706 13ae 0235     		adds r5, r5, # 2
 2707 13b0 AA46     		mov r10, r5
 2708 13b2 6043     		muls r0, r0, r4		@R
 2709 13b4 6143     		muls r1, r1, r4		@I
 2710 13b6 8011     		asrs r0, r0, # 6
 2711 13b8 8911     		asrs r1, r1, # 6
 2712 13ba 3618     		adds r6, r6, r0	       @COS_R
 2713 13bc 7F18     		adds r7, r7, r1	       @COS_I
 2714              	
ARM GAS  1.s 			page 49


 2715 13be 7546     	        mov r5, r14
 2716 13c0 2C88     	        ldrh r4, [r5]
 2717 13c2 0235     	        adds r5, r5, # 2
 2718 13c4 AE46     	        mov r14, r5
 2719 13c6 6243     	        muls r2, r2, r4         @R
 2720 13c8 6343     	        muls r3, r3, r4         @I
 2721 13ca 9211     		asrs r2, r2, # 6
 2722 13cc 9B11     		asrs r3, r3, # 6
 2723 13ce 4446     		mov r4, r8
 2724 13d0 4D46     		mov r5, r9
 2725 13d2 A418     		adds r4, r4, r2        
 2726 13d4 ED18     		adds r5, r5, r3
 2727 13d6 A046     		mov r8, r4		@SIN_R
 2728 13d8 A946     		mov r9, r5		@SIN_I
 2729              	
 2730              		@7
 2731 13da 03BC     			pop {r0-r1}
 2732 13dc 0246     		mov r2, r0
 2733 13de 0B46     		mov r3, r1
 2734              		
 2735 13e0 5546     		mov r5, r10
 2736 13e2 2C88     		ldrh r4, [r5]
 2737 13e4 0235     		adds r5, r5, # 2
 2738 13e6 AA46     		mov r10, r5
 2739 13e8 6043     		muls r0, r0, r4		@R
 2740 13ea 6143     		muls r1, r1, r4		@I
 2741 13ec 8011     		asrs r0, r0, # 6
 2742 13ee 8911     		asrs r1, r1, # 6
 2743 13f0 3618     		adds r6, r6, r0	       @COS_R
 2744 13f2 7F18     		adds r7, r7, r1	       @COS_I
 2745              	
 2746 13f4 7546     	        mov r5, r14
 2747 13f6 2C88     	        ldrh r4, [r5]
 2748 13f8 0235     	        adds r5, r5, # 2
 2749 13fa AE46     	        mov r14, r5
 2750 13fc 6243     	        muls r2, r2, r4         @R
 2751 13fe 6343     	        muls r3, r3, r4         @I
 2752 1400 9211     		asrs r2, r2, # 6
 2753 1402 9B11     		asrs r3, r3, # 6
 2754 1404 4446     		mov r4, r8
 2755 1406 4D46     		mov r5, r9
 2756 1408 A418     		adds r4, r4, r2        
 2757 140a ED18     		adds r5, r5, r3
 2758 140c A046     		mov r8, r4		@SIN_R
 2759 140e A946     		mov r9, r5		@SIN_I
 2760              	
 2761              		@8
 2762 1410 03BC     			pop {r0-r1}
 2763 1412 0246     		mov r2, r0
 2764 1414 0B46     		mov r3, r1
 2765              		
 2766 1416 5546     		mov r5, r10
 2767 1418 2C88     		ldrh r4, [r5]
 2768 141a 0235     		adds r5, r5, # 2
 2769 141c AA46     		mov r10, r5
 2770 141e 6043     		muls r0, r0, r4		@R
 2771 1420 6143     		muls r1, r1, r4		@I
ARM GAS  1.s 			page 50


 2772 1422 8011     		asrs r0, r0, # 6
 2773 1424 8911     		asrs r1, r1, # 6
 2774 1426 3618     		adds r6, r6, r0	       @COS_R
 2775 1428 7F18     		adds r7, r7, r1	       @COS_I
 2776              	
 2777 142a 7546     	        mov r5, r14
 2778 142c 2C88     	        ldrh r4, [r5]
 2779 142e 0235     	        adds r5, r5, # 2
 2780 1430 AE46     	        mov r14, r5
 2781 1432 6243     	        muls r2, r2, r4         @R
 2782 1434 6343     	        muls r3, r3, r4         @I
 2783 1436 9211     		asrs r2, r2, # 6
 2784 1438 9B11     		asrs r3, r3, # 6
 2785 143a 4446     		mov r4, r8
 2786 143c 4D46     		mov r5, r9
 2787 143e A418     		adds r4, r4, r2        
 2788 1440 ED18     		adds r5, r5, r3
 2789 1442 A046     		mov r8, r4		@SIN_R
 2790 1444 A946     		mov r9, r5		@SIN_I
 2791              	
 2792              		@9
 2793 1446 03BC     			pop {r0-r1}
 2794 1448 0246     		mov r2, r0
 2795 144a 0B46     		mov r3, r1
 2796              		
 2797 144c 5546     		mov r5, r10
 2798 144e 2C88     		ldrh r4, [r5]
 2799 1450 0235     		adds r5, r5, # 2
 2800 1452 AA46     		mov r10, r5
 2801 1454 6043     		muls r0, r0, r4		@R
 2802 1456 6143     		muls r1, r1, r4		@I
 2803 1458 8011     		asrs r0, r0, # 6
 2804 145a 8911     		asrs r1, r1, # 6
 2805 145c 3618     		adds r6, r6, r0	       @COS_R
 2806 145e 7F18     		adds r7, r7, r1	       @COS_I
 2807              	
 2808 1460 7546     	        mov r5, r14
 2809 1462 2C88     	        ldrh r4, [r5]
 2810 1464 0235     	        adds r5, r5, # 2
 2811 1466 AE46     	        mov r14, r5
 2812 1468 6243     	        muls r2, r2, r4         @R
 2813 146a 6343     	        muls r3, r3, r4         @I
 2814 146c 9211     		asrs r2, r2, # 6
 2815 146e 9B11     		asrs r3, r3, # 6
 2816 1470 4446     		mov r4, r8
 2817 1472 4D46     		mov r5, r9
 2818 1474 A418     		adds r4, r4, r2        
 2819 1476 ED18     		adds r5, r5, r3
 2820 1478 A046     		mov r8, r4		@SIN_R
 2821 147a A946     		mov r9, r5		@SIN_I
 2822              	
 2823              	@yjm4
 2824              			@0
 2825 147c 03BC     		pop {r0-r1}
 2826 147e 0246     		mov r2, r0
 2827 1480 0B46     		mov r3, r1
 2828              		
ARM GAS  1.s 			page 51


 2829 1482 5546     		mov r5, r10
 2830 1484 2C88     		ldrh r4, [r5]
 2831 1486 0235     		adds r5, r5, # 2
 2832 1488 AA46     		mov r10, r5
 2833 148a 6043     		muls r0, r0, r4		@R
 2834 148c 6143     		muls r1, r1, r4		@I
 2835 148e 8011     		asrs r0, r0, # 6
 2836 1490 8911     		asrs r1, r1, # 6
 2837 1492 3618     		adds r6, r6, r0	       @COS_R
 2838 1494 7F18     		adds r7, r7, r1	       @COS_I
 2839              	
 2840 1496 7546     	        mov r5, r14
 2841 1498 2C88     	        ldrh r4, [r5]
 2842 149a 0235     	        adds r5, r5, # 2
 2843 149c AE46     	        mov r14, r5
 2844 149e 6243     	        muls r2, r2, r4         @R
 2845 14a0 6343     	        muls r3, r3, r4         @I
 2846 14a2 9211     		asrs r2, r2, # 6
 2847 14a4 9B11     		asrs r3, r3, # 6
 2848 14a6 4446     		mov r4, r8
 2849 14a8 4D46     		mov r5, r9
 2850 14aa A418     		adds r4, r4, r2        
 2851 14ac ED18     		adds r5, r5, r3
 2852 14ae A046     		mov r8, r4		@SIN_R
 2853 14b0 A946     		mov r9, r5		@SIN_I
 2854              	
 2855              		@1
 2856 14b2 03BC     		pop {r0-r1}
 2857 14b4 0246     		mov r2, r0
 2858 14b6 0B46     		mov r3, r1
 2859              		
 2860 14b8 5546     		mov r5, r10
 2861 14ba 2C88     		ldrh r4, [r5]
 2862 14bc 0235     		adds r5, r5, # 2
 2863 14be AA46     		mov r10, r5
 2864 14c0 6043     		muls r0, r0, r4		@R
 2865 14c2 6143     		muls r1, r1, r4		@I
 2866 14c4 8011     		asrs r0, r0, # 6
 2867 14c6 8911     		asrs r1, r1, # 6
 2868 14c8 3618     		adds r6, r6, r0	       @COS_R
 2869 14ca 7F18     		adds r7, r7, r1	       @COS_I
 2870              	
 2871 14cc 7546     	        mov r5, r14
 2872 14ce 2C88     	        ldrh r4, [r5]
 2873 14d0 0235     	        adds r5, r5, # 2
 2874 14d2 AE46     	        mov r14, r5
 2875 14d4 6243     	        muls r2, r2, r4         @R
 2876 14d6 6343     	        muls r3, r3, r4         @I
 2877 14d8 9211     		asrs r2, r2, # 6
 2878 14da 9B11     		asrs r3, r3, # 6
 2879 14dc 4446     		mov r4, r8
 2880 14de 4D46     		mov r5, r9
 2881 14e0 A418     		adds r4, r4, r2        
 2882 14e2 ED18     		adds r5, r5, r3
 2883 14e4 A046     		mov r8, r4		@SIN_R
 2884 14e6 A946     		mov r9, r5		@SIN_I
 2885              	
ARM GAS  1.s 			page 52


 2886              		@2
 2887 14e8 03BC     		pop {r0-r1}
 2888 14ea 0246     		mov r2, r0
 2889 14ec 0B46     		mov r3, r1
 2890              		
 2891 14ee 5546     		mov r5, r10
 2892 14f0 2C88     		ldrh r4, [r5]
 2893 14f2 0235     		adds r5, r5, # 2
 2894 14f4 AA46     		mov r10, r5
 2895 14f6 6043     		muls r0, r0, r4		@R
 2896 14f8 6143     		muls r1, r1, r4		@I
 2897 14fa 8011     		asrs r0, r0, # 6
 2898 14fc 8911     		asrs r1, r1, # 6
 2899 14fe 3618     		adds r6, r6, r0	       @COS_R
 2900 1500 7F18     		adds r7, r7, r1	       @COS_I
 2901              	
 2902 1502 7546     	        mov r5, r14
 2903 1504 2C88     	        ldrh r4, [r5]
 2904 1506 0235     	        adds r5, r5, # 2
 2905 1508 AE46     	        mov r14, r5
 2906 150a 6243     	        muls r2, r2, r4         @R
 2907 150c 6343     	        muls r3, r3, r4         @I
 2908 150e 9211     		asrs r2, r2, # 6
 2909 1510 9B11     		asrs r3, r3, # 6
 2910 1512 4446     		mov r4, r8
 2911 1514 4D46     		mov r5, r9
 2912 1516 A418     		adds r4, r4, r2        
 2913 1518 ED18     		adds r5, r5, r3
 2914 151a A046     		mov r8, r4		@SIN_R
 2915 151c A946     		mov r9, r5		@SIN_I
 2916              		
 2917              		@3
 2918 151e 03BC     		pop {r0-r1}
 2919 1520 0246     		mov r2, r0
 2920 1522 0B46     		mov r3, r1
 2921              		
 2922 1524 5546     		mov r5, r10
 2923 1526 2C88     		ldrh r4, [r5]
 2924 1528 0235     		adds r5, r5, # 2
 2925 152a AA46     		mov r10, r5
 2926 152c 6043     		muls r0, r0, r4		@R
 2927 152e 6143     		muls r1, r1, r4		@I
 2928 1530 8011     		asrs r0, r0, # 6
 2929 1532 8911     		asrs r1, r1, # 6
 2930 1534 3618     		adds r6, r6, r0	       @COS_R
 2931 1536 7F18     		adds r7, r7, r1	       @COS_I
 2932              	
 2933 1538 7546     	        mov r5, r14
 2934 153a 2C88     	        ldrh r4, [r5]
 2935 153c 0235     	        adds r5, r5, # 2
 2936 153e AE46     	        mov r14, r5
 2937 1540 6243     	        muls r2, r2, r4         @R
 2938 1542 6343     	        muls r3, r3, r4         @I
 2939 1544 9211     		asrs r2, r2, # 6
 2940 1546 9B11     		asrs r3, r3, # 6
 2941 1548 4446     		mov r4, r8
 2942 154a 4D46     		mov r5, r9
ARM GAS  1.s 			page 53


 2943 154c A418     		adds r4, r4, r2        
 2944 154e ED18     		adds r5, r5, r3
 2945 1550 A046     		mov r8, r4		@SIN_R
 2946 1552 A946     		mov r9, r5		@SIN_I
 2947              	
 2948              		@4
 2949 1554 03BC     		pop {r0-r1}
 2950 1556 0246     		mov r2, r0
 2951 1558 0B46     		mov r3, r1
 2952              		
 2953 155a 5546     		mov r5, r10
 2954 155c 2C88     		ldrh r4, [r5]
 2955 155e 0235     		adds r5, r5, # 2
 2956 1560 AA46     		mov r10, r5
 2957 1562 6043     		muls r0, r0, r4		@R
 2958 1564 6143     		muls r1, r1, r4		@I
 2959 1566 8011     		asrs r0, r0, # 6
 2960 1568 8911     		asrs r1, r1, # 6
 2961 156a 3618     		adds r6, r6, r0	       @COS_R
 2962 156c 7F18     		adds r7, r7, r1	       @COS_I
 2963              	
 2964 156e 7546     	        mov r5, r14
 2965 1570 2C88     	        ldrh r4, [r5]
 2966 1572 0235     	        adds r5, r5, # 2
 2967 1574 AE46     	        mov r14, r5
 2968 1576 6243     	        muls r2, r2, r4         @R
 2969 1578 6343     	        muls r3, r3, r4         @I
 2970 157a 9211     		asrs r2, r2, # 6
 2971 157c 9B11     		asrs r3, r3, # 6
 2972 157e 4446     		mov r4, r8
 2973 1580 4D46     		mov r5, r9
 2974 1582 A418     		adds r4, r4, r2        
 2975 1584 ED18     		adds r5, r5, r3
 2976 1586 A046     		mov r8, r4		@SIN_R
 2977 1588 A946     		mov r9, r5		@SIN_I
 2978              	
 2979              		@5
 2980 158a 03BC     			pop {r0-r1}
 2981 158c 0246     		mov r2, r0
 2982 158e 0B46     		mov r3, r1
 2983              		
 2984 1590 5546     		mov r5, r10
 2985 1592 2C88     		ldrh r4, [r5]
 2986 1594 0235     		adds r5, r5, # 2
 2987 1596 AA46     		mov r10, r5
 2988 1598 6043     		muls r0, r0, r4		@R
 2989 159a 6143     		muls r1, r1, r4		@I
 2990 159c 8011     		asrs r0, r0, # 6
 2991 159e 8911     		asrs r1, r1, # 6
 2992 15a0 3618     		adds r6, r6, r0	       @COS_R
 2993 15a2 7F18     		adds r7, r7, r1	       @COS_I
 2994              	
 2995 15a4 7546     	        mov r5, r14
 2996 15a6 2C88     	        ldrh r4, [r5]
 2997 15a8 0235     	        adds r5, r5, # 2
 2998 15aa AE46     	        mov r14, r5
 2999 15ac 6243     	        muls r2, r2, r4         @R
ARM GAS  1.s 			page 54


 3000 15ae 6343     	        muls r3, r3, r4         @I
 3001 15b0 9211     		asrs r2, r2, # 6
 3002 15b2 9B11     		asrs r3, r3, # 6
 3003 15b4 4446     		mov r4, r8
 3004 15b6 4D46     		mov r5, r9
 3005 15b8 A418     		adds r4, r4, r2        
 3006 15ba ED18     		adds r5, r5, r3
 3007 15bc A046     		mov r8, r4		@SIN_R
 3008 15be A946     		mov r9, r5		@SIN_I
 3009              		
 3010              		@6
 3011 15c0 03BC     			pop {r0-r1}
 3012 15c2 0246     		mov r2, r0
 3013 15c4 0B46     		mov r3, r1
 3014              		
 3015 15c6 5546     		mov r5, r10
 3016 15c8 2C88     		ldrh r4, [r5]
 3017 15ca 0235     		adds r5, r5, # 2
 3018 15cc AA46     		mov r10, r5
 3019 15ce 6043     		muls r0, r0, r4		@R
 3020 15d0 6143     		muls r1, r1, r4		@I
 3021 15d2 8011     		asrs r0, r0, # 6
 3022 15d4 8911     		asrs r1, r1, # 6
 3023 15d6 3618     		adds r6, r6, r0	       @COS_R
 3024 15d8 7F18     		adds r7, r7, r1	       @COS_I
 3025              	
 3026 15da 7546     	        mov r5, r14
 3027 15dc 2C88     	        ldrh r4, [r5]
 3028 15de 0235     	        adds r5, r5, # 2
 3029 15e0 AE46     	        mov r14, r5
 3030 15e2 6243     	        muls r2, r2, r4         @R
 3031 15e4 6343     	        muls r3, r3, r4         @I
 3032 15e6 9211     		asrs r2, r2, # 6
 3033 15e8 9B11     		asrs r3, r3, # 6
 3034 15ea 4446     		mov r4, r8
 3035 15ec 4D46     		mov r5, r9
 3036 15ee A418     		adds r4, r4, r2        
 3037 15f0 ED18     		adds r5, r5, r3
 3038 15f2 A046     		mov r8, r4		@SIN_R
 3039 15f4 A946     		mov r9, r5		@SIN_I
 3040              	
 3041              		@7
 3042 15f6 03BC     			pop {r0-r1}
 3043 15f8 0246     		mov r2, r0
 3044 15fa 0B46     		mov r3, r1
 3045              		
 3046 15fc 5546     		mov r5, r10
 3047 15fe 2C88     		ldrh r4, [r5]
 3048 1600 0235     		adds r5, r5, # 2
 3049 1602 AA46     		mov r10, r5
 3050 1604 6043     		muls r0, r0, r4		@R
 3051 1606 6143     		muls r1, r1, r4		@I
 3052 1608 8011     		asrs r0, r0, # 6
 3053 160a 8911     		asrs r1, r1, # 6
 3054 160c 3618     		adds r6, r6, r0	       @COS_R
 3055 160e 7F18     		adds r7, r7, r1	       @COS_I
 3056              	
ARM GAS  1.s 			page 55


 3057 1610 7546     	        mov r5, r14
 3058 1612 2C88     	        ldrh r4, [r5]
 3059 1614 0235     	        adds r5, r5, # 2
 3060 1616 AE46     	        mov r14, r5
 3061 1618 6243     	        muls r2, r2, r4         @R
 3062 161a 6343     	        muls r3, r3, r4         @I
 3063 161c 9211     		asrs r2, r2, # 6
 3064 161e 9B11     		asrs r3, r3, # 6
 3065 1620 4446     		mov r4, r8
 3066 1622 4D46     		mov r5, r9
 3067 1624 A418     		adds r4, r4, r2        
 3068 1626 ED18     		adds r5, r5, r3
 3069 1628 A046     		mov r8, r4		@SIN_R
 3070 162a A946     		mov r9, r5		@SIN_I
 3071              	
 3072              		@8
 3073 162c 03BC     			pop {r0-r1}
 3074 162e 0246     		mov r2, r0
 3075 1630 0B46     		mov r3, r1
 3076              		
 3077 1632 5546     		mov r5, r10
 3078 1634 2C88     		ldrh r4, [r5]
 3079 1636 0235     		adds r5, r5, # 2
 3080 1638 AA46     		mov r10, r5
 3081 163a 6043     		muls r0, r0, r4		@R
 3082 163c 6143     		muls r1, r1, r4		@I
 3083 163e 8011     		asrs r0, r0, # 6
 3084 1640 8911     		asrs r1, r1, # 6
 3085 1642 3618     		adds r6, r6, r0	       @COS_R
 3086 1644 7F18     		adds r7, r7, r1	       @COS_I
 3087              	
 3088 1646 7546     	        mov r5, r14
 3089 1648 2C88     	        ldrh r4, [r5]
 3090 164a 0235     	        adds r5, r5, # 2
 3091 164c AE46     	        mov r14, r5
 3092 164e 6243     	        muls r2, r2, r4         @R
 3093 1650 6343     	        muls r3, r3, r4         @I
 3094 1652 9211     		asrs r2, r2, # 6
 3095 1654 9B11     		asrs r3, r3, # 6
 3096 1656 4446     		mov r4, r8
 3097 1658 4D46     		mov r5, r9
 3098 165a A418     		adds r4, r4, r2        
 3099 165c ED18     		adds r5, r5, r3
 3100 165e A046     		mov r8, r4		@SIN_R
 3101 1660 A946     		mov r9, r5		@SIN_I
 3102              	
 3103              		@9
 3104 1662 03BC     			pop {r0-r1}
 3105 1664 0246     		mov r2, r0
 3106 1666 0B46     		mov r3, r1
 3107              		
 3108 1668 5546     		mov r5, r10
 3109 166a 2C88     		ldrh r4, [r5]
 3110 166c 0235     		adds r5, r5, # 2
 3111 166e AA46     		mov r10, r5
 3112 1670 6043     		muls r0, r0, r4		@R
 3113 1672 6143     		muls r1, r1, r4		@I
ARM GAS  1.s 			page 56


 3114 1674 8011     		asrs r0, r0, # 6
 3115 1676 8911     		asrs r1, r1, # 6
 3116 1678 3618     		adds r6, r6, r0	       @COS_R
 3117 167a 7F18     		adds r7, r7, r1	       @COS_I
 3118              	
 3119 167c 7546     	        mov r5, r14
 3120 167e 2C88     	        ldrh r4, [r5]
 3121 1680 0235     	        adds r5, r5, # 2
 3122 1682 AE46     	        mov r14, r5
 3123 1684 6243     	        muls r2, r2, r4         @R
 3124 1686 6343     	        muls r3, r3, r4         @I
 3125 1688 9211     		asrs r2, r2, # 6
 3126 168a 9B11     		asrs r3, r3, # 6
 3127 168c 4446     		mov r4, r8
 3128 168e 4D46     		mov r5, r9
 3129 1690 A418     		adds r4, r4, r2        
 3130 1692 ED18     		adds r5, r5, r3
 3131 1694 A046     		mov r8, r4		@SIN_R
 3132 1696 A946     		mov r9, r5		@SIN_I
 3133              	
 3134              	@yjm5
 3135              			@0
 3136 1698 03BC     		pop {r0-r1}
 3137 169a 0246     		mov r2, r0
 3138 169c 0B46     		mov r3, r1
 3139              		
 3140 169e 5546     		mov r5, r10
 3141 16a0 2C88     		ldrh r4, [r5]
 3142 16a2 0235     		adds r5, r5, # 2
 3143 16a4 AA46     		mov r10, r5
 3144 16a6 6043     		muls r0, r0, r4		@R
 3145 16a8 6143     		muls r1, r1, r4		@I
 3146 16aa 8011     		asrs r0, r0, # 6
 3147 16ac 8911     		asrs r1, r1, # 6
 3148 16ae 3618     		adds r6, r6, r0	       @COS_R
 3149 16b0 7F18     		adds r7, r7, r1	       @COS_I
 3150              	
 3151 16b2 7546     	        mov r5, r14
 3152 16b4 2C88     	        ldrh r4, [r5]
 3153 16b6 0235     	        adds r5, r5, # 2
 3154 16b8 AE46     	        mov r14, r5
 3155 16ba 6243     	        muls r2, r2, r4         @R
 3156 16bc 6343     	        muls r3, r3, r4         @I
 3157 16be 9211     		asrs r2, r2, # 6
 3158 16c0 9B11     		asrs r3, r3, # 6
 3159 16c2 4446     		mov r4, r8
 3160 16c4 4D46     		mov r5, r9
 3161 16c6 A418     		adds r4, r4, r2        
 3162 16c8 ED18     		adds r5, r5, r3
 3163 16ca A046     		mov r8, r4		@SIN_R
 3164 16cc A946     		mov r9, r5		@SIN_I
 3165              	
 3166              		@1
 3167 16ce 03BC     		pop {r0-r1}
 3168 16d0 0246     		mov r2, r0
 3169 16d2 0B46     		mov r3, r1
 3170              		
ARM GAS  1.s 			page 57


 3171 16d4 5546     		mov r5, r10
 3172 16d6 2C88     		ldrh r4, [r5]
 3173 16d8 0235     		adds r5, r5, # 2
 3174 16da AA46     		mov r10, r5
 3175 16dc 6043     		muls r0, r0, r4		@R
 3176 16de 6143     		muls r1, r1, r4		@I
 3177 16e0 8011     		asrs r0, r0, # 6
 3178 16e2 8911     		asrs r1, r1, # 6
 3179 16e4 3618     		adds r6, r6, r0	       @COS_R
 3180 16e6 7F18     		adds r7, r7, r1	       @COS_I
 3181              	
 3182 16e8 7546     	        mov r5, r14
 3183 16ea 2C88     	        ldrh r4, [r5]
 3184 16ec 0235     	        adds r5, r5, # 2
 3185 16ee AE46     	        mov r14, r5
 3186 16f0 6243     	        muls r2, r2, r4         @R
 3187 16f2 6343     	        muls r3, r3, r4         @I
 3188 16f4 9211     		asrs r2, r2, # 6
 3189 16f6 9B11     		asrs r3, r3, # 6
 3190 16f8 4446     		mov r4, r8
 3191 16fa 4D46     		mov r5, r9
 3192 16fc A418     		adds r4, r4, r2        
 3193 16fe ED18     		adds r5, r5, r3
 3194 1700 A046     		mov r8, r4		@SIN_R
 3195 1702 A946     		mov r9, r5		@SIN_I
 3196              	
 3197              		@2
 3198 1704 03BC     		pop {r0-r1}
 3199 1706 0246     		mov r2, r0
 3200 1708 0B46     		mov r3, r1
 3201              		
 3202 170a 5546     		mov r5, r10
 3203 170c 2C88     		ldrh r4, [r5]
 3204 170e 0235     		adds r5, r5, # 2
 3205 1710 AA46     		mov r10, r5
 3206 1712 6043     		muls r0, r0, r4		@R
 3207 1714 6143     		muls r1, r1, r4		@I
 3208 1716 8011     		asrs r0, r0, # 6
 3209 1718 8911     		asrs r1, r1, # 6
 3210 171a 3618     		adds r6, r6, r0	       @COS_R
 3211 171c 7F18     		adds r7, r7, r1	       @COS_I
 3212              	
 3213 171e 7546     	        mov r5, r14
 3214 1720 2C88     	        ldrh r4, [r5]
 3215 1722 0235     	        adds r5, r5, # 2
 3216 1724 AE46     	        mov r14, r5
 3217 1726 6243     	        muls r2, r2, r4         @R
 3218 1728 6343     	        muls r3, r3, r4         @I
 3219 172a 9211     		asrs r2, r2, # 6
 3220 172c 9B11     		asrs r3, r3, # 6
 3221 172e 4446     		mov r4, r8
 3222 1730 4D46     		mov r5, r9
 3223 1732 A418     		adds r4, r4, r2        
 3224 1734 ED18     		adds r5, r5, r3
 3225 1736 A046     		mov r8, r4		@SIN_R
 3226 1738 A946     		mov r9, r5		@SIN_I
 3227              		
ARM GAS  1.s 			page 58


 3228              		@3
 3229 173a 03BC     		pop {r0-r1}
 3230 173c 0246     		mov r2, r0
 3231 173e 0B46     		mov r3, r1
 3232              		
 3233 1740 5546     		mov r5, r10
 3234 1742 2C88     		ldrh r4, [r5]
 3235 1744 0235     		adds r5, r5, # 2
 3236 1746 AA46     		mov r10, r5
 3237 1748 6043     		muls r0, r0, r4		@R
 3238 174a 6143     		muls r1, r1, r4		@I
 3239 174c 8011     		asrs r0, r0, # 6
 3240 174e 8911     		asrs r1, r1, # 6
 3241 1750 3618     		adds r6, r6, r0	       @COS_R
 3242 1752 7F18     		adds r7, r7, r1	       @COS_I
 3243              	
 3244 1754 7546     	        mov r5, r14
 3245 1756 2C88     	        ldrh r4, [r5]
 3246 1758 0235     	        adds r5, r5, # 2
 3247 175a AE46     	        mov r14, r5
 3248 175c 6243     	        muls r2, r2, r4         @R
 3249 175e 6343     	        muls r3, r3, r4         @I
 3250 1760 9211     		asrs r2, r2, # 6
 3251 1762 9B11     		asrs r3, r3, # 6
 3252 1764 4446     		mov r4, r8
 3253 1766 4D46     		mov r5, r9
 3254 1768 A418     		adds r4, r4, r2        
 3255 176a ED18     		adds r5, r5, r3
 3256 176c A046     		mov r8, r4		@SIN_R
 3257 176e A946     		mov r9, r5		@SIN_I
 3258              	
 3259              		@4
 3260 1770 03BC     		pop {r0-r1}
 3261 1772 0246     		mov r2, r0
 3262 1774 0B46     		mov r3, r1
 3263              		
 3264 1776 5546     		mov r5, r10
 3265 1778 2C88     		ldrh r4, [r5]
 3266 177a 0235     		adds r5, r5, # 2
 3267 177c AA46     		mov r10, r5
 3268 177e 6043     		muls r0, r0, r4		@R
 3269 1780 6143     		muls r1, r1, r4		@I
 3270 1782 8011     		asrs r0, r0, # 6
 3271 1784 8911     		asrs r1, r1, # 6
 3272 1786 3618     		adds r6, r6, r0	       @COS_R
 3273 1788 7F18     		adds r7, r7, r1	       @COS_I
 3274              	
 3275 178a 7546     	        mov r5, r14
 3276 178c 2C88     	        ldrh r4, [r5]
 3277 178e 0235     	        adds r5, r5, # 2
 3278 1790 AE46     	        mov r14, r5
 3279 1792 6243     	        muls r2, r2, r4         @R
 3280 1794 6343     	        muls r3, r3, r4         @I
 3281 1796 9211     		asrs r2, r2, # 6
 3282 1798 9B11     		asrs r3, r3, # 6
 3283 179a 4446     		mov r4, r8
 3284 179c 4D46     		mov r5, r9
ARM GAS  1.s 			page 59


 3285 179e A418     		adds r4, r4, r2        
 3286 17a0 ED18     		adds r5, r5, r3
 3287 17a2 A046     		mov r8, r4		@SIN_R
 3288 17a4 A946     		mov r9, r5		@SIN_I
 3289              	
 3290              		@5
 3291 17a6 03BC     			pop {r0-r1}
 3292 17a8 0246     		mov r2, r0
 3293 17aa 0B46     		mov r3, r1
 3294              		
 3295 17ac 5546     		mov r5, r10
 3296 17ae 2C88     		ldrh r4, [r5]
 3297 17b0 0235     		adds r5, r5, # 2
 3298 17b2 AA46     		mov r10, r5
 3299 17b4 6043     		muls r0, r0, r4		@R
 3300 17b6 6143     		muls r1, r1, r4		@I
 3301 17b8 8011     		asrs r0, r0, # 6
 3302 17ba 8911     		asrs r1, r1, # 6
 3303 17bc 3618     		adds r6, r6, r0	       @COS_R
 3304 17be 7F18     		adds r7, r7, r1	       @COS_I
 3305              	
 3306 17c0 7546     	        mov r5, r14
 3307 17c2 2C88     	        ldrh r4, [r5]
 3308 17c4 0235     	        adds r5, r5, # 2
 3309 17c6 AE46     	        mov r14, r5
 3310 17c8 6243     	        muls r2, r2, r4         @R
 3311 17ca 6343     	        muls r3, r3, r4         @I
 3312 17cc 9211     		asrs r2, r2, # 6
 3313 17ce 9B11     		asrs r3, r3, # 6
 3314 17d0 4446     		mov r4, r8
 3315 17d2 4D46     		mov r5, r9
 3316 17d4 A418     		adds r4, r4, r2        
 3317 17d6 ED18     		adds r5, r5, r3
 3318 17d8 A046     		mov r8, r4		@SIN_R
 3319 17da A946     		mov r9, r5		@SIN_I
 3320              		
 3321              		@6
 3322 17dc 03BC     			pop {r0-r1}
 3323 17de 0246     		mov r2, r0
 3324 17e0 0B46     		mov r3, r1
 3325              		
 3326 17e2 5546     		mov r5, r10
 3327 17e4 2C88     		ldrh r4, [r5]
 3328 17e6 0235     		adds r5, r5, # 2
 3329 17e8 AA46     		mov r10, r5
 3330 17ea 6043     		muls r0, r0, r4		@R
 3331 17ec 6143     		muls r1, r1, r4		@I
 3332 17ee 8011     		asrs r0, r0, # 6
 3333 17f0 8911     		asrs r1, r1, # 6
 3334 17f2 3618     		adds r6, r6, r0	       @COS_R
 3335 17f4 7F18     		adds r7, r7, r1	       @COS_I
 3336              	
 3337 17f6 7546     	        mov r5, r14
 3338 17f8 2C88     	        ldrh r4, [r5]
 3339 17fa 0235     	        adds r5, r5, # 2
 3340 17fc AE46     	        mov r14, r5
 3341 17fe 6243     	        muls r2, r2, r4         @R
ARM GAS  1.s 			page 60


 3342 1800 6343     	        muls r3, r3, r4         @I
 3343 1802 9211     		asrs r2, r2, # 6
 3344 1804 9B11     		asrs r3, r3, # 6
 3345 1806 4446     		mov r4, r8
 3346 1808 4D46     		mov r5, r9
 3347 180a A418     		adds r4, r4, r2        
 3348 180c ED18     		adds r5, r5, r3
 3349 180e A046     		mov r8, r4		@SIN_R
 3350 1810 A946     		mov r9, r5		@SIN_I
 3351              	
 3352              		@7
 3353 1812 03BC     			pop {r0-r1}
 3354 1814 0246     		mov r2, r0
 3355 1816 0B46     		mov r3, r1
 3356              		
 3357 1818 5546     		mov r5, r10
 3358 181a 2C88     		ldrh r4, [r5]
 3359 181c 0235     		adds r5, r5, # 2
 3360 181e AA46     		mov r10, r5
 3361 1820 6043     		muls r0, r0, r4		@R
 3362 1822 6143     		muls r1, r1, r4		@I
 3363 1824 8011     		asrs r0, r0, # 6
 3364 1826 8911     		asrs r1, r1, # 6
 3365 1828 3618     		adds r6, r6, r0	       @COS_R
 3366 182a 7F18     		adds r7, r7, r1	       @COS_I
 3367              	
 3368 182c 7546     	        mov r5, r14
 3369 182e 2C88     	        ldrh r4, [r5]
 3370 1830 0235     	        adds r5, r5, # 2
 3371 1832 AE46     	        mov r14, r5
 3372 1834 6243     	        muls r2, r2, r4         @R
 3373 1836 6343     	        muls r3, r3, r4         @I
 3374 1838 9211     		asrs r2, r2, # 6
 3375 183a 9B11     		asrs r3, r3, # 6
 3376 183c 4446     		mov r4, r8
 3377 183e 4D46     		mov r5, r9
 3378 1840 A418     		adds r4, r4, r2        
 3379 1842 ED18     		adds r5, r5, r3
 3380 1844 A046     		mov r8, r4		@SIN_R
 3381 1846 A946     		mov r9, r5		@SIN_I
 3382              	
 3383              		@8
 3384 1848 03BC     			pop {r0-r1}
 3385 184a 0246     		mov r2, r0
 3386 184c 0B46     		mov r3, r1
 3387              		
 3388 184e 5546     		mov r5, r10
 3389 1850 2C88     		ldrh r4, [r5]
 3390 1852 0235     		adds r5, r5, # 2
 3391 1854 AA46     		mov r10, r5
 3392 1856 6043     		muls r0, r0, r4		@R
 3393 1858 6143     		muls r1, r1, r4		@I
 3394 185a 8011     		asrs r0, r0, # 6
 3395 185c 8911     		asrs r1, r1, # 6
 3396 185e 3618     		adds r6, r6, r0	       @COS_R
 3397 1860 7F18     		adds r7, r7, r1	       @COS_I
 3398              	
ARM GAS  1.s 			page 61


 3399 1862 7546     	        mov r5, r14
 3400 1864 2C88     	        ldrh r4, [r5]
 3401 1866 0235     	        adds r5, r5, # 2
 3402 1868 AE46     	        mov r14, r5
 3403 186a 6243     	        muls r2, r2, r4         @R
 3404 186c 6343     	        muls r3, r3, r4         @I
 3405 186e 9211     		asrs r2, r2, # 6
 3406 1870 9B11     		asrs r3, r3, # 6
 3407 1872 4446     		mov r4, r8
 3408 1874 4D46     		mov r5, r9
 3409 1876 A418     		adds r4, r4, r2        
 3410 1878 ED18     		adds r5, r5, r3
 3411 187a A046     		mov r8, r4		@SIN_R
 3412 187c A946     		mov r9, r5		@SIN_I
 3413              	
 3414              		@9
 3415 187e 03BC     			pop {r0-r1}
 3416 1880 0246     		mov r2, r0
 3417 1882 0B46     		mov r3, r1
 3418              		
 3419 1884 5546     		mov r5, r10
 3420 1886 2C88     		ldrh r4, [r5]
 3421 1888 0235     		adds r5, r5, # 2
 3422 188a AA46     		mov r10, r5
 3423 188c 6043     		muls r0, r0, r4		@R
 3424 188e 6143     		muls r1, r1, r4		@I
 3425 1890 8011     		asrs r0, r0, # 6
 3426 1892 8911     		asrs r1, r1, # 6
 3427 1894 3618     		adds r6, r6, r0	       @COS_R
 3428 1896 7F18     		adds r7, r7, r1	       @COS_I
 3429              	
 3430 1898 7546     	        mov r5, r14
 3431 189a 2C88     	        ldrh r4, [r5]
 3432 189c 0235     	        adds r5, r5, # 2
 3433 189e AE46     	        mov r14, r5
 3434 18a0 6243     	        muls r2, r2, r4         @R
 3435 18a2 6343     	        muls r3, r3, r4         @I
 3436 18a4 9211     		asrs r2, r2, # 6
 3437 18a6 9B11     		asrs r3, r3, # 6
 3438 18a8 4446     		mov r4, r8
 3439 18aa 4D46     		mov r5, r9
 3440 18ac A418     		adds r4, r4, r2        
 3441 18ae ED18     		adds r5, r5, r3
 3442 18b0 A046     		mov r8, r4		@SIN_R
 3443 18b2 A946     		mov r9, r5		@SIN_I
 3444              	
 3445              	@yjm6
 3446              			@0
 3447 18b4 03BC     		pop {r0-r1}
 3448 18b6 0246     		mov r2, r0
 3449 18b8 0B46     		mov r3, r1
 3450              		
 3451 18ba 5546     		mov r5, r10
 3452 18bc 2C88     		ldrh r4, [r5]
 3453 18be 0235     		adds r5, r5, # 2
 3454 18c0 AA46     		mov r10, r5
 3455 18c2 6043     		muls r0, r0, r4		@R
ARM GAS  1.s 			page 62


 3456 18c4 6143     		muls r1, r1, r4		@I
 3457 18c6 8011     		asrs r0, r0, # 6
 3458 18c8 8911     		asrs r1, r1, # 6
 3459 18ca 3618     		adds r6, r6, r0	       @COS_R
 3460 18cc 7F18     		adds r7, r7, r1	       @COS_I
 3461              	
 3462 18ce 7546     	        mov r5, r14
 3463 18d0 2C88     	        ldrh r4, [r5]
 3464 18d2 0235     	        adds r5, r5, # 2
 3465 18d4 AE46     	        mov r14, r5
 3466 18d6 6243     	        muls r2, r2, r4         @R
 3467 18d8 6343     	        muls r3, r3, r4         @I
 3468 18da 9211     		asrs r2, r2, # 6
 3469 18dc 9B11     		asrs r3, r3, # 6
 3470 18de 4446     		mov r4, r8
 3471 18e0 4D46     		mov r5, r9
 3472 18e2 A418     		adds r4, r4, r2        
 3473 18e4 ED18     		adds r5, r5, r3
 3474 18e6 A046     		mov r8, r4		@SIN_R
 3475 18e8 A946     		mov r9, r5		@SIN_I
 3476              	
 3477              		@1
 3478 18ea 03BC     		pop {r0-r1}
 3479 18ec 0246     		mov r2, r0
 3480 18ee 0B46     		mov r3, r1
 3481              		
 3482 18f0 5546     		mov r5, r10
 3483 18f2 2C88     		ldrh r4, [r5]
 3484 18f4 0235     		adds r5, r5, # 2
 3485 18f6 AA46     		mov r10, r5
 3486 18f8 6043     		muls r0, r0, r4		@R
 3487 18fa 6143     		muls r1, r1, r4		@I
 3488 18fc 8011     		asrs r0, r0, # 6
 3489 18fe 8911     		asrs r1, r1, # 6
 3490 1900 3618     		adds r6, r6, r0	       @COS_R
 3491 1902 7F18     		adds r7, r7, r1	       @COS_I
 3492              	
 3493 1904 7546     	        mov r5, r14
 3494 1906 2C88     	        ldrh r4, [r5]
 3495 1908 0235     	        adds r5, r5, # 2
 3496 190a AE46     	        mov r14, r5
 3497 190c 6243     	        muls r2, r2, r4         @R
 3498 190e 6343     	        muls r3, r3, r4         @I
 3499 1910 9211     		asrs r2, r2, # 6
 3500 1912 9B11     		asrs r3, r3, # 6
 3501 1914 4446     		mov r4, r8
 3502 1916 4D46     		mov r5, r9
 3503 1918 A418     		adds r4, r4, r2        
 3504 191a ED18     		adds r5, r5, r3
 3505 191c A046     		mov r8, r4		@SIN_R
 3506 191e A946     		mov r9, r5		@SIN_I
 3507              	
 3508              		@2
 3509 1920 03BC     		pop {r0-r1}
 3510 1922 0246     		mov r2, r0
 3511 1924 0B46     		mov r3, r1
 3512              		
ARM GAS  1.s 			page 63


 3513 1926 5546     		mov r5, r10
 3514 1928 2C88     		ldrh r4, [r5]
 3515 192a 0235     		adds r5, r5, # 2
 3516 192c AA46     		mov r10, r5
 3517 192e 6043     		muls r0, r0, r4		@R
 3518 1930 6143     		muls r1, r1, r4		@I
 3519 1932 8011     		asrs r0, r0, # 6
 3520 1934 8911     		asrs r1, r1, # 6
 3521 1936 3618     		adds r6, r6, r0	       @COS_R
 3522 1938 7F18     		adds r7, r7, r1	       @COS_I
 3523              	
 3524 193a 7546     	        mov r5, r14
 3525 193c 2C88     	        ldrh r4, [r5]
 3526 193e 0235     	        adds r5, r5, # 2
 3527 1940 AE46     	        mov r14, r5
 3528 1942 6243     	        muls r2, r2, r4         @R
 3529 1944 6343     	        muls r3, r3, r4         @I
 3530 1946 9211     		asrs r2, r2, # 6
 3531 1948 9B11     		asrs r3, r3, # 6
 3532 194a 4446     		mov r4, r8
 3533 194c 4D46     		mov r5, r9
 3534 194e A418     		adds r4, r4, r2        
 3535 1950 ED18     		adds r5, r5, r3
 3536 1952 A046     		mov r8, r4		@SIN_R
 3537 1954 A946     		mov r9, r5		@SIN_I
 3538              		
 3539              		@3
 3540 1956 03BC     		pop {r0-r1}
 3541 1958 0246     		mov r2, r0
 3542 195a 0B46     		mov r3, r1
 3543              		
 3544 195c 5546     		mov r5, r10
 3545 195e 2C88     		ldrh r4, [r5]
 3546 1960 0235     		adds r5, r5, # 2
 3547 1962 AA46     		mov r10, r5
 3548 1964 6043     		muls r0, r0, r4		@R
 3549 1966 6143     		muls r1, r1, r4		@I
 3550 1968 8011     		asrs r0, r0, # 6
 3551 196a 8911     		asrs r1, r1, # 6
 3552 196c 3618     		adds r6, r6, r0	       @COS_R
 3553 196e 7F18     		adds r7, r7, r1	       @COS_I
 3554              	
 3555 1970 7546     	        mov r5, r14
 3556 1972 2C88     	        ldrh r4, [r5]
 3557 1974 0235     	        adds r5, r5, # 2
 3558 1976 AE46     	        mov r14, r5
 3559 1978 6243     	        muls r2, r2, r4         @R
 3560 197a 6343     	        muls r3, r3, r4         @I
 3561 197c 9211     		asrs r2, r2, # 6
 3562 197e 9B11     		asrs r3, r3, # 6
 3563 1980 4446     		mov r4, r8
 3564 1982 4D46     		mov r5, r9
 3565 1984 A418     		adds r4, r4, r2        
 3566 1986 ED18     		adds r5, r5, r3
 3567 1988 A046     		mov r8, r4		@SIN_R
 3568 198a A946     		mov r9, r5		@SIN_I
 3569              	
ARM GAS  1.s 			page 64


 3570              		@4
 3571 198c 03BC     		pop {r0-r1}
 3572 198e 0246     		mov r2, r0
 3573 1990 0B46     		mov r3, r1
 3574              		
 3575 1992 5546     		mov r5, r10
 3576 1994 2C88     		ldrh r4, [r5]
 3577 1996 0235     		adds r5, r5, # 2
 3578 1998 AA46     		mov r10, r5
 3579 199a 6043     		muls r0, r0, r4		@R
 3580 199c 6143     		muls r1, r1, r4		@I
 3581 199e 8011     		asrs r0, r0, # 6
 3582 19a0 8911     		asrs r1, r1, # 6
 3583 19a2 3618     		adds r6, r6, r0	       @COS_R
 3584 19a4 7F18     		adds r7, r7, r1	       @COS_I
 3585              	
 3586 19a6 7546     	        mov r5, r14
 3587 19a8 2C88     	        ldrh r4, [r5]
 3588 19aa 0235     	        adds r5, r5, # 2
 3589 19ac AE46     	        mov r14, r5
 3590 19ae 6243     	        muls r2, r2, r4         @R
 3591 19b0 6343     	        muls r3, r3, r4         @I
 3592 19b2 9211     		asrs r2, r2, # 6
 3593 19b4 9B11     		asrs r3, r3, # 6
 3594 19b6 4446     		mov r4, r8
 3595 19b8 4D46     		mov r5, r9
 3596 19ba A418     		adds r4, r4, r2        
 3597 19bc ED18     		adds r5, r5, r3
 3598 19be A046     		mov r8, r4		@SIN_R
 3599 19c0 A946     		mov r9, r5		@SIN_I
 3600              	
 3601              		@5
 3602 19c2 03BC     			pop {r0-r1}
 3603 19c4 0246     		mov r2, r0
 3604 19c6 0B46     		mov r3, r1
 3605              		
 3606 19c8 5546     		mov r5, r10
 3607 19ca 2C88     		ldrh r4, [r5]
 3608 19cc 0235     		adds r5, r5, # 2
 3609 19ce AA46     		mov r10, r5
 3610 19d0 6043     		muls r0, r0, r4		@R
 3611 19d2 6143     		muls r1, r1, r4		@I
 3612 19d4 8011     		asrs r0, r0, # 6
 3613 19d6 8911     		asrs r1, r1, # 6
 3614 19d8 3618     		adds r6, r6, r0	       @COS_R
 3615 19da 7F18     		adds r7, r7, r1	       @COS_I
 3616              	
 3617 19dc 7546     	        mov r5, r14
 3618 19de 2C88     	        ldrh r4, [r5]
 3619 19e0 0235     	        adds r5, r5, # 2
 3620 19e2 AE46     	        mov r14, r5
 3621 19e4 6243     	        muls r2, r2, r4         @R
 3622 19e6 6343     	        muls r3, r3, r4         @I
 3623 19e8 9211     		asrs r2, r2, # 6
 3624 19ea 9B11     		asrs r3, r3, # 6
 3625 19ec 4446     		mov r4, r8
 3626 19ee 4D46     		mov r5, r9
ARM GAS  1.s 			page 65


 3627 19f0 A418     		adds r4, r4, r2        
 3628 19f2 ED18     		adds r5, r5, r3
 3629 19f4 A046     		mov r8, r4		@SIN_R
 3630 19f6 A946     		mov r9, r5		@SIN_I
 3631              		
 3632              		@6
 3633 19f8 03BC     			pop {r0-r1}
 3634 19fa 0246     		mov r2, r0
 3635 19fc 0B46     		mov r3, r1
 3636              		
 3637 19fe 5546     		mov r5, r10
 3638 1a00 2C88     		ldrh r4, [r5]
 3639 1a02 0235     		adds r5, r5, # 2
 3640 1a04 AA46     		mov r10, r5
 3641 1a06 6043     		muls r0, r0, r4		@R
 3642 1a08 6143     		muls r1, r1, r4		@I
 3643 1a0a 8011     		asrs r0, r0, # 6
 3644 1a0c 8911     		asrs r1, r1, # 6
 3645 1a0e 3618     		adds r6, r6, r0	       @COS_R
 3646 1a10 7F18     		adds r7, r7, r1	       @COS_I
 3647              	
 3648 1a12 7546     	        mov r5, r14
 3649 1a14 2C88     	        ldrh r4, [r5]
 3650 1a16 0235     	        adds r5, r5, # 2
 3651 1a18 AE46     	        mov r14, r5
 3652 1a1a 6243     	        muls r2, r2, r4         @R
 3653 1a1c 6343     	        muls r3, r3, r4         @I
 3654 1a1e 9211     		asrs r2, r2, # 6
 3655 1a20 9B11     		asrs r3, r3, # 6
 3656 1a22 4446     		mov r4, r8
 3657 1a24 4D46     		mov r5, r9
 3658 1a26 A418     		adds r4, r4, r2        
 3659 1a28 ED18     		adds r5, r5, r3
 3660 1a2a A046     		mov r8, r4		@SIN_R
 3661 1a2c A946     		mov r9, r5		@SIN_I
 3662              	
 3663              		@7
 3664 1a2e 03BC     			pop {r0-r1}
 3665 1a30 0246     		mov r2, r0
 3666 1a32 0B46     		mov r3, r1
 3667              		
 3668 1a34 5546     		mov r5, r10
 3669 1a36 2C88     		ldrh r4, [r5]
 3670 1a38 0235     		adds r5, r5, # 2
 3671 1a3a AA46     		mov r10, r5
 3672 1a3c 6043     		muls r0, r0, r4		@R
 3673 1a3e 6143     		muls r1, r1, r4		@I
 3674 1a40 8011     		asrs r0, r0, # 6
 3675 1a42 8911     		asrs r1, r1, # 6
 3676 1a44 3618     		adds r6, r6, r0	       @COS_R
 3677 1a46 7F18     		adds r7, r7, r1	       @COS_I
 3678              	
 3679 1a48 7546     	        mov r5, r14
 3680 1a4a 2C88     	        ldrh r4, [r5]
 3681 1a4c 0235     	        adds r5, r5, # 2
 3682 1a4e AE46     	        mov r14, r5
 3683 1a50 6243     	        muls r2, r2, r4         @R
ARM GAS  1.s 			page 66


 3684 1a52 6343     	        muls r3, r3, r4         @I
 3685 1a54 9211     		asrs r2, r2, # 6
 3686 1a56 9B11     		asrs r3, r3, # 6
 3687 1a58 4446     		mov r4, r8
 3688 1a5a 4D46     		mov r5, r9
 3689 1a5c A418     		adds r4, r4, r2        
 3690 1a5e ED18     		adds r5, r5, r3
 3691 1a60 A046     		mov r8, r4		@SIN_R
 3692 1a62 A946     		mov r9, r5		@SIN_I
 3693              	
 3694              		@8
 3695 1a64 03BC     			pop {r0-r1}
 3696 1a66 0246     		mov r2, r0
 3697 1a68 0B46     		mov r3, r1
 3698              		
 3699 1a6a 5546     		mov r5, r10
 3700 1a6c 2C88     		ldrh r4, [r5]
 3701 1a6e 0235     		adds r5, r5, # 2
 3702 1a70 AA46     		mov r10, r5
 3703 1a72 6043     		muls r0, r0, r4		@R
 3704 1a74 6143     		muls r1, r1, r4		@I
 3705 1a76 8011     		asrs r0, r0, # 6
 3706 1a78 8911     		asrs r1, r1, # 6
 3707 1a7a 3618     		adds r6, r6, r0	       @COS_R
 3708 1a7c 7F18     		adds r7, r7, r1	       @COS_I
 3709              	
 3710 1a7e 7546     	        mov r5, r14
 3711 1a80 2C88     	        ldrh r4, [r5]
 3712 1a82 0235     	        adds r5, r5, # 2
 3713 1a84 AE46     	        mov r14, r5
 3714 1a86 6243     	        muls r2, r2, r4         @R
 3715 1a88 6343     	        muls r3, r3, r4         @I
 3716 1a8a 9211     		asrs r2, r2, # 6
 3717 1a8c 9B11     		asrs r3, r3, # 6
 3718 1a8e 4446     		mov r4, r8
 3719 1a90 4D46     		mov r5, r9
 3720 1a92 A418     		adds r4, r4, r2        
 3721 1a94 ED18     		adds r5, r5, r3
 3722 1a96 A046     		mov r8, r4		@SIN_R
 3723 1a98 A946     		mov r9, r5		@SIN_I
 3724              	
 3725              		@9
 3726 1a9a 03BC     			pop {r0-r1}
 3727 1a9c 0246     		mov r2, r0
 3728 1a9e 0B46     		mov r3, r1
 3729              		
 3730 1aa0 5546     		mov r5, r10
 3731 1aa2 2C88     		ldrh r4, [r5]
 3732 1aa4 0235     		adds r5, r5, # 2
 3733 1aa6 AA46     		mov r10, r5
 3734 1aa8 6043     		muls r0, r0, r4		@R
 3735 1aaa 6143     		muls r1, r1, r4		@I
 3736 1aac 8011     		asrs r0, r0, # 6
 3737 1aae 8911     		asrs r1, r1, # 6
 3738 1ab0 3618     		adds r6, r6, r0	       @COS_R
 3739 1ab2 7F18     		adds r7, r7, r1	       @COS_I
 3740              	
ARM GAS  1.s 			page 67


 3741 1ab4 7546     	        mov r5, r14
 3742 1ab6 2C88     	        ldrh r4, [r5]
 3743 1ab8 0235     	        adds r5, r5, # 2
 3744 1aba AE46     	        mov r14, r5
 3745 1abc 6243     	        muls r2, r2, r4         @R
 3746 1abe 6343     	        muls r3, r3, r4         @I
 3747 1ac0 9211     		asrs r2, r2, # 6
 3748 1ac2 9B11     		asrs r3, r3, # 6
 3749 1ac4 4446     		mov r4, r8
 3750 1ac6 4D46     		mov r5, r9
 3751 1ac8 A418     		adds r4, r4, r2        
 3752 1aca ED18     		adds r5, r5, r3
 3753 1acc A046     		mov r8, r4		@SIN_R
 3754 1ace A946     		mov r9, r5		@SIN_I
 3755              	
 3756              	@yjm7
 3757              			@0
 3758 1ad0 03BC     		pop {r0-r1}
 3759 1ad2 0246     		mov r2, r0
 3760 1ad4 0B46     		mov r3, r1
 3761              		
 3762 1ad6 5546     		mov r5, r10
 3763 1ad8 2C88     		ldrh r4, [r5]
 3764 1ada 0235     		adds r5, r5, # 2
 3765 1adc AA46     		mov r10, r5
 3766 1ade 6043     		muls r0, r0, r4		@R
 3767 1ae0 6143     		muls r1, r1, r4		@I
 3768 1ae2 8011     		asrs r0, r0, # 6
 3769 1ae4 8911     		asrs r1, r1, # 6
 3770 1ae6 3618     		adds r6, r6, r0	       @COS_R
 3771 1ae8 7F18     		adds r7, r7, r1	       @COS_I
 3772              	
 3773 1aea 7546     	        mov r5, r14
 3774 1aec 2C88     	        ldrh r4, [r5]
 3775 1aee 0235     	        adds r5, r5, # 2
 3776 1af0 AE46     	        mov r14, r5
 3777 1af2 6243     	        muls r2, r2, r4         @R
 3778 1af4 6343     	        muls r3, r3, r4         @I
 3779 1af6 9211     		asrs r2, r2, # 6
 3780 1af8 9B11     		asrs r3, r3, # 6
 3781 1afa 4446     		mov r4, r8
 3782 1afc 4D46     		mov r5, r9
 3783 1afe A418     		adds r4, r4, r2        
 3784 1b00 ED18     		adds r5, r5, r3
 3785 1b02 A046     		mov r8, r4		@SIN_R
 3786 1b04 A946     		mov r9, r5		@SIN_I
 3787              	
 3788              		@1
 3789 1b06 03BC     		pop {r0-r1}
 3790 1b08 0246     		mov r2, r0
 3791 1b0a 0B46     		mov r3, r1
 3792              		
 3793 1b0c 5546     		mov r5, r10
 3794 1b0e 2C88     		ldrh r4, [r5]
 3795 1b10 0235     		adds r5, r5, # 2
 3796 1b12 AA46     		mov r10, r5
 3797 1b14 6043     		muls r0, r0, r4		@R
ARM GAS  1.s 			page 68


 3798 1b16 6143     		muls r1, r1, r4		@I
 3799 1b18 8011     		asrs r0, r0, # 6
 3800 1b1a 8911     		asrs r1, r1, # 6
 3801 1b1c 3618     		adds r6, r6, r0	       @COS_R
 3802 1b1e 7F18     		adds r7, r7, r1	       @COS_I
 3803              	
 3804 1b20 7546     	        mov r5, r14
 3805 1b22 2C88     	        ldrh r4, [r5]
 3806 1b24 0235     	        adds r5, r5, # 2
 3807 1b26 AE46     	        mov r14, r5
 3808 1b28 6243     	        muls r2, r2, r4         @R
 3809 1b2a 6343     	        muls r3, r3, r4         @I
 3810 1b2c 9211     		asrs r2, r2, # 6
 3811 1b2e 9B11     		asrs r3, r3, # 6
 3812 1b30 4446     		mov r4, r8
 3813 1b32 4D46     		mov r5, r9
 3814 1b34 A418     		adds r4, r4, r2        
 3815 1b36 ED18     		adds r5, r5, r3
 3816 1b38 A046     		mov r8, r4		@SIN_R
 3817 1b3a A946     		mov r9, r5		@SIN_I
 3818              	
 3819              		@2
 3820 1b3c 03BC     		pop {r0-r1}
 3821 1b3e 0246     		mov r2, r0
 3822 1b40 0B46     		mov r3, r1
 3823              		
 3824 1b42 5546     		mov r5, r10
 3825 1b44 2C88     		ldrh r4, [r5]
 3826 1b46 0235     		adds r5, r5, # 2
 3827 1b48 AA46     		mov r10, r5
 3828 1b4a 6043     		muls r0, r0, r4		@R
 3829 1b4c 6143     		muls r1, r1, r4		@I
 3830 1b4e 8011     		asrs r0, r0, # 6
 3831 1b50 8911     		asrs r1, r1, # 6
 3832 1b52 3618     		adds r6, r6, r0	       @COS_R
 3833 1b54 7F18     		adds r7, r7, r1	       @COS_I
 3834              	
 3835 1b56 7546     	        mov r5, r14
 3836 1b58 2C88     	        ldrh r4, [r5]
 3837 1b5a 0235     	        adds r5, r5, # 2
 3838 1b5c AE46     	        mov r14, r5
 3839 1b5e 6243     	        muls r2, r2, r4         @R
 3840 1b60 6343     	        muls r3, r3, r4         @I
 3841 1b62 9211     		asrs r2, r2, # 6
 3842 1b64 9B11     		asrs r3, r3, # 6
 3843 1b66 4446     		mov r4, r8
 3844 1b68 4D46     		mov r5, r9
 3845 1b6a A418     		adds r4, r4, r2        
 3846 1b6c ED18     		adds r5, r5, r3
 3847 1b6e A046     		mov r8, r4		@SIN_R
 3848 1b70 A946     		mov r9, r5		@SIN_I
 3849              		
 3850              		@3
 3851 1b72 03BC     		pop {r0-r1}
 3852 1b74 0246     		mov r2, r0
 3853 1b76 0B46     		mov r3, r1
 3854              		
ARM GAS  1.s 			page 69


 3855 1b78 5546     		mov r5, r10
 3856 1b7a 2C88     		ldrh r4, [r5]
 3857 1b7c 0235     		adds r5, r5, # 2
 3858 1b7e AA46     		mov r10, r5
 3859 1b80 6043     		muls r0, r0, r4		@R
 3860 1b82 6143     		muls r1, r1, r4		@I
 3861 1b84 8011     		asrs r0, r0, # 6
 3862 1b86 8911     		asrs r1, r1, # 6
 3863 1b88 3618     		adds r6, r6, r0	       @COS_R
 3864 1b8a 7F18     		adds r7, r7, r1	       @COS_I
 3865              	
 3866 1b8c 7546     	        mov r5, r14
 3867 1b8e 2C88     	        ldrh r4, [r5]
 3868 1b90 0235     	        adds r5, r5, # 2
 3869 1b92 AE46     	        mov r14, r5
 3870 1b94 6243     	        muls r2, r2, r4         @R
 3871 1b96 6343     	        muls r3, r3, r4         @I
 3872 1b98 9211     		asrs r2, r2, # 6
 3873 1b9a 9B11     		asrs r3, r3, # 6
 3874 1b9c 4446     		mov r4, r8
 3875 1b9e 4D46     		mov r5, r9
 3876 1ba0 A418     		adds r4, r4, r2        
 3877 1ba2 ED18     		adds r5, r5, r3
 3878 1ba4 A046     		mov r8, r4		@SIN_R
 3879 1ba6 A946     		mov r9, r5		@SIN_I
 3880              	
 3881              		@4
 3882 1ba8 03BC     		pop {r0-r1}
 3883 1baa 0246     		mov r2, r0
 3884 1bac 0B46     		mov r3, r1
 3885              		
 3886 1bae 5546     		mov r5, r10
 3887 1bb0 2C88     		ldrh r4, [r5]
 3888 1bb2 0235     		adds r5, r5, # 2
 3889 1bb4 AA46     		mov r10, r5
 3890 1bb6 6043     		muls r0, r0, r4		@R
 3891 1bb8 6143     		muls r1, r1, r4		@I
 3892 1bba 8011     		asrs r0, r0, # 6
 3893 1bbc 8911     		asrs r1, r1, # 6
 3894 1bbe 3618     		adds r6, r6, r0	       @COS_R
 3895 1bc0 7F18     		adds r7, r7, r1	       @COS_I
 3896              	
 3897 1bc2 7546     	        mov r5, r14
 3898 1bc4 2C88     	        ldrh r4, [r5]
 3899 1bc6 0235     	        adds r5, r5, # 2
 3900 1bc8 AE46     	        mov r14, r5
 3901 1bca 6243     	        muls r2, r2, r4         @R
 3902 1bcc 6343     	        muls r3, r3, r4         @I
 3903 1bce 9211     		asrs r2, r2, # 6
 3904 1bd0 9B11     		asrs r3, r3, # 6
 3905 1bd2 4446     		mov r4, r8
 3906 1bd4 4D46     		mov r5, r9
 3907 1bd6 A418     		adds r4, r4, r2        
 3908 1bd8 ED18     		adds r5, r5, r3
 3909 1bda A046     		mov r8, r4		@SIN_R
 3910 1bdc A946     		mov r9, r5		@SIN_I
 3911              	
ARM GAS  1.s 			page 70


 3912              		@5
 3913 1bde 03BC     			pop {r0-r1}
 3914 1be0 0246     		mov r2, r0
 3915 1be2 0B46     		mov r3, r1
 3916              		
 3917 1be4 5546     		mov r5, r10
 3918 1be6 2C88     		ldrh r4, [r5]
 3919 1be8 0235     		adds r5, r5, # 2
 3920 1bea AA46     		mov r10, r5
 3921 1bec 6043     		muls r0, r0, r4		@R
 3922 1bee 6143     		muls r1, r1, r4		@I
 3923 1bf0 8011     		asrs r0, r0, # 6
 3924 1bf2 8911     		asrs r1, r1, # 6
 3925 1bf4 3618     		adds r6, r6, r0	       @COS_R
 3926 1bf6 7F18     		adds r7, r7, r1	       @COS_I
 3927              	
 3928 1bf8 7546     	        mov r5, r14
 3929 1bfa 2C88     	        ldrh r4, [r5]
 3930 1bfc 0235     	        adds r5, r5, # 2
 3931 1bfe AE46     	        mov r14, r5
 3932 1c00 6243     	        muls r2, r2, r4         @R
 3933 1c02 6343     	        muls r3, r3, r4         @I
 3934 1c04 9211     		asrs r2, r2, # 6
 3935 1c06 9B11     		asrs r3, r3, # 6
 3936 1c08 4446     		mov r4, r8
 3937 1c0a 4D46     		mov r5, r9
 3938 1c0c A418     		adds r4, r4, r2        
 3939 1c0e ED18     		adds r5, r5, r3
 3940 1c10 A046     		mov r8, r4		@SIN_R
 3941 1c12 A946     		mov r9, r5		@SIN_I
 3942              		
 3943              		@6
 3944 1c14 03BC     			pop {r0-r1}
 3945 1c16 0246     		mov r2, r0
 3946 1c18 0B46     		mov r3, r1
 3947              		
 3948 1c1a 5546     		mov r5, r10
 3949 1c1c 2C88     		ldrh r4, [r5]
 3950 1c1e 0235     		adds r5, r5, # 2
 3951 1c20 AA46     		mov r10, r5
 3952 1c22 6043     		muls r0, r0, r4		@R
 3953 1c24 6143     		muls r1, r1, r4		@I
 3954 1c26 8011     		asrs r0, r0, # 6
 3955 1c28 8911     		asrs r1, r1, # 6
 3956 1c2a 3618     		adds r6, r6, r0	       @COS_R
 3957 1c2c 7F18     		adds r7, r7, r1	       @COS_I
 3958              	
 3959 1c2e 7546     	        mov r5, r14
 3960 1c30 2C88     	        ldrh r4, [r5]
 3961 1c32 0235     	        adds r5, r5, # 2
 3962 1c34 AE46     	        mov r14, r5
 3963 1c36 6243     	        muls r2, r2, r4         @R
 3964 1c38 6343     	        muls r3, r3, r4         @I
 3965 1c3a 9211     		asrs r2, r2, # 6
 3966 1c3c 9B11     		asrs r3, r3, # 6
 3967 1c3e 4446     		mov r4, r8
 3968 1c40 4D46     		mov r5, r9
ARM GAS  1.s 			page 71


 3969 1c42 A418     		adds r4, r4, r2        
 3970 1c44 ED18     		adds r5, r5, r3
 3971 1c46 A046     		mov r8, r4		@SIN_R
 3972 1c48 A946     		mov r9, r5		@SIN_I
 3973              	
 3974              		@7
 3975 1c4a 03BC     			pop {r0-r1}
 3976 1c4c 0246     		mov r2, r0
 3977 1c4e 0B46     		mov r3, r1
 3978              		
 3979 1c50 5546     		mov r5, r10
 3980 1c52 2C88     		ldrh r4, [r5]
 3981 1c54 0235     		adds r5, r5, # 2
 3982 1c56 AA46     		mov r10, r5
 3983 1c58 6043     		muls r0, r0, r4		@R
 3984 1c5a 6143     		muls r1, r1, r4		@I
 3985 1c5c 8011     		asrs r0, r0, # 6
 3986 1c5e 8911     		asrs r1, r1, # 6
 3987 1c60 3618     		adds r6, r6, r0	       @COS_R
 3988 1c62 7F18     		adds r7, r7, r1	       @COS_I
 3989              	
 3990 1c64 7546     	        mov r5, r14
 3991 1c66 2C88     	        ldrh r4, [r5]
 3992 1c68 0235     	        adds r5, r5, # 2
 3993 1c6a AE46     	        mov r14, r5
 3994 1c6c 6243     	        muls r2, r2, r4         @R
 3995 1c6e 6343     	        muls r3, r3, r4         @I
 3996 1c70 9211     		asrs r2, r2, # 6
 3997 1c72 9B11     		asrs r3, r3, # 6
 3998 1c74 4446     		mov r4, r8
 3999 1c76 4D46     		mov r5, r9
 4000 1c78 A418     		adds r4, r4, r2        
 4001 1c7a ED18     		adds r5, r5, r3
 4002 1c7c A046     		mov r8, r4		@SIN_R
 4003 1c7e A946     		mov r9, r5		@SIN_I
 4004              	
 4005              		@8
 4006 1c80 03BC     			pop {r0-r1}
 4007 1c82 0246     		mov r2, r0
 4008 1c84 0B46     		mov r3, r1
 4009              		
 4010 1c86 5546     		mov r5, r10
 4011 1c88 2C88     		ldrh r4, [r5]
 4012 1c8a 0235     		adds r5, r5, # 2
 4013 1c8c AA46     		mov r10, r5
 4014 1c8e 6043     		muls r0, r0, r4		@R
 4015 1c90 6143     		muls r1, r1, r4		@I
 4016 1c92 8011     		asrs r0, r0, # 6
 4017 1c94 8911     		asrs r1, r1, # 6
 4018 1c96 3618     		adds r6, r6, r0	       @COS_R
 4019 1c98 7F18     		adds r7, r7, r1	       @COS_I
 4020              	
 4021 1c9a 7546     	        mov r5, r14
 4022 1c9c 2C88     	        ldrh r4, [r5]
 4023 1c9e 0235     	        adds r5, r5, # 2
 4024 1ca0 AE46     	        mov r14, r5
 4025 1ca2 6243     	        muls r2, r2, r4         @R
ARM GAS  1.s 			page 72


 4026 1ca4 6343     	        muls r3, r3, r4         @I
 4027 1ca6 9211     		asrs r2, r2, # 6
 4028 1ca8 9B11     		asrs r3, r3, # 6
 4029 1caa 4446     		mov r4, r8
 4030 1cac 4D46     		mov r5, r9
 4031 1cae A418     		adds r4, r4, r2        
 4032 1cb0 ED18     		adds r5, r5, r3
 4033 1cb2 A046     		mov r8, r4		@SIN_R
 4034 1cb4 A946     		mov r9, r5		@SIN_I
 4035              	
 4036              		@9
 4037 1cb6 03BC     			pop {r0-r1}
 4038 1cb8 0246     		mov r2, r0
 4039 1cba 0B46     		mov r3, r1
 4040              		
 4041 1cbc 5546     		mov r5, r10
 4042 1cbe 2C88     		ldrh r4, [r5]
 4043 1cc0 0235     		adds r5, r5, # 2
 4044 1cc2 AA46     		mov r10, r5
 4045 1cc4 6043     		muls r0, r0, r4		@R
 4046 1cc6 6143     		muls r1, r1, r4		@I
 4047 1cc8 8011     		asrs r0, r0, # 6
 4048 1cca 8911     		asrs r1, r1, # 6
 4049 1ccc 3618     		adds r6, r6, r0	       @COS_R
 4050 1cce 7F18     		adds r7, r7, r1	       @COS_I
 4051              	
 4052 1cd0 7546     	        mov r5, r14
 4053 1cd2 2C88     	        ldrh r4, [r5]
 4054 1cd4 0235     	        adds r5, r5, # 2
 4055 1cd6 AE46     	        mov r14, r5
 4056 1cd8 6243     	        muls r2, r2, r4         @R
 4057 1cda 6343     	        muls r3, r3, r4         @I
 4058 1cdc 9211     		asrs r2, r2, # 6
 4059 1cde 9B11     		asrs r3, r3, # 6
 4060 1ce0 4446     		mov r4, r8
 4061 1ce2 4D46     		mov r5, r9
 4062 1ce4 A418     		adds r4, r4, r2        
 4063 1ce6 ED18     		adds r5, r5, r3
 4064 1ce8 A046     		mov r8, r4		@SIN_R
 4065 1cea A946     		mov r9, r5		@SIN_I
 4066              	
 4067              	@yjm8
 4068              			@0
 4069 1cec 03BC     		pop {r0-r1}
 4070 1cee 0246     		mov r2, r0
 4071 1cf0 0B46     		mov r3, r1
 4072              		
 4073 1cf2 5546     		mov r5, r10
 4074 1cf4 2C88     		ldrh r4, [r5]
 4075 1cf6 0235     		adds r5, r5, # 2
 4076 1cf8 AA46     		mov r10, r5
 4077 1cfa 6043     		muls r0, r0, r4		@R
 4078 1cfc 6143     		muls r1, r1, r4		@I
 4079 1cfe 8011     		asrs r0, r0, # 6
 4080 1d00 8911     		asrs r1, r1, # 6
 4081 1d02 3618     		adds r6, r6, r0	       @COS_R
 4082 1d04 7F18     		adds r7, r7, r1	       @COS_I
ARM GAS  1.s 			page 73


 4083              	
 4084 1d06 7546     	        mov r5, r14
 4085 1d08 2C88     	        ldrh r4, [r5]
 4086 1d0a 0235     	        adds r5, r5, # 2
 4087 1d0c AE46     	        mov r14, r5
 4088 1d0e 6243     	        muls r2, r2, r4         @R
 4089 1d10 6343     	        muls r3, r3, r4         @I
 4090 1d12 9211     		asrs r2, r2, # 6
 4091 1d14 9B11     		asrs r3, r3, # 6
 4092 1d16 4446     		mov r4, r8
 4093 1d18 4D46     		mov r5, r9
 4094 1d1a A418     		adds r4, r4, r2        
 4095 1d1c ED18     		adds r5, r5, r3
 4096 1d1e A046     		mov r8, r4		@SIN_R
 4097 1d20 A946     		mov r9, r5		@SIN_I
 4098              	
 4099              		@1
 4100 1d22 03BC     		pop {r0-r1}
 4101 1d24 0246     		mov r2, r0
 4102 1d26 0B46     		mov r3, r1
 4103              		
 4104 1d28 5546     		mov r5, r10
 4105 1d2a 2C88     		ldrh r4, [r5]
 4106 1d2c 0235     		adds r5, r5, # 2
 4107 1d2e AA46     		mov r10, r5
 4108 1d30 6043     		muls r0, r0, r4		@R
 4109 1d32 6143     		muls r1, r1, r4		@I
 4110 1d34 8011     		asrs r0, r0, # 6
 4111 1d36 8911     		asrs r1, r1, # 6
 4112 1d38 3618     		adds r6, r6, r0	       @COS_R
 4113 1d3a 7F18     		adds r7, r7, r1	       @COS_I
 4114              	
 4115 1d3c 7546     	        mov r5, r14
 4116 1d3e 2C88     	        ldrh r4, [r5]
 4117 1d40 0235     	        adds r5, r5, # 2
 4118 1d42 AE46     	        mov r14, r5
 4119 1d44 6243     	        muls r2, r2, r4         @R
 4120 1d46 6343     	        muls r3, r3, r4         @I
 4121 1d48 9211     		asrs r2, r2, # 6
 4122 1d4a 9B11     		asrs r3, r3, # 6
 4123 1d4c 4446     		mov r4, r8
 4124 1d4e 4D46     		mov r5, r9
 4125 1d50 A418     		adds r4, r4, r2        
 4126 1d52 ED18     		adds r5, r5, r3
 4127 1d54 A046     		mov r8, r4		@SIN_R
 4128 1d56 A946     		mov r9, r5		@SIN_I
 4129              	
 4130              		@2
 4131 1d58 03BC     		pop {r0-r1}
 4132 1d5a 0246     		mov r2, r0
 4133 1d5c 0B46     		mov r3, r1
 4134              		
 4135 1d5e 5546     		mov r5, r10
 4136 1d60 2C88     		ldrh r4, [r5]
 4137 1d62 0235     		adds r5, r5, # 2
 4138 1d64 AA46     		mov r10, r5
 4139 1d66 6043     		muls r0, r0, r4		@R
ARM GAS  1.s 			page 74


 4140 1d68 6143     		muls r1, r1, r4		@I
 4141 1d6a 8011     		asrs r0, r0, # 6
 4142 1d6c 8911     		asrs r1, r1, # 6
 4143 1d6e 3618     		adds r6, r6, r0	       @COS_R
 4144 1d70 7F18     		adds r7, r7, r1	       @COS_I
 4145              	
 4146 1d72 7546     	        mov r5, r14
 4147 1d74 2C88     	        ldrh r4, [r5]
 4148 1d76 0235     	        adds r5, r5, # 2
 4149 1d78 AE46     	        mov r14, r5
 4150 1d7a 6243     	        muls r2, r2, r4         @R
 4151 1d7c 6343     	        muls r3, r3, r4         @I
 4152 1d7e 9211     		asrs r2, r2, # 6
 4153 1d80 9B11     		asrs r3, r3, # 6
 4154 1d82 4446     		mov r4, r8
 4155 1d84 4D46     		mov r5, r9
 4156 1d86 A418     		adds r4, r4, r2        
 4157 1d88 ED18     		adds r5, r5, r3
 4158 1d8a A046     		mov r8, r4		@SIN_R
 4159 1d8c A946     		mov r9, r5		@SIN_I
 4160              		
 4161              		@3
 4162 1d8e 03BC     		pop {r0-r1}
 4163 1d90 0246     		mov r2, r0
 4164 1d92 0B46     		mov r3, r1
 4165              		
 4166 1d94 5546     		mov r5, r10
 4167 1d96 2C88     		ldrh r4, [r5]
 4168 1d98 0235     		adds r5, r5, # 2
 4169 1d9a AA46     		mov r10, r5
 4170 1d9c 6043     		muls r0, r0, r4		@R
 4171 1d9e 6143     		muls r1, r1, r4		@I
 4172 1da0 8011     		asrs r0, r0, # 6
 4173 1da2 8911     		asrs r1, r1, # 6
 4174 1da4 3618     		adds r6, r6, r0	       @COS_R
 4175 1da6 7F18     		adds r7, r7, r1	       @COS_I
 4176              	
 4177 1da8 7546     	        mov r5, r14
 4178 1daa 2C88     	        ldrh r4, [r5]
 4179 1dac 0235     	        adds r5, r5, # 2
 4180 1dae AE46     	        mov r14, r5
 4181 1db0 6243     	        muls r2, r2, r4         @R
 4182 1db2 6343     	        muls r3, r3, r4         @I
 4183 1db4 9211     		asrs r2, r2, # 6
 4184 1db6 9B11     		asrs r3, r3, # 6
 4185 1db8 4446     		mov r4, r8
 4186 1dba 4D46     		mov r5, r9
 4187 1dbc A418     		adds r4, r4, r2        
 4188 1dbe ED18     		adds r5, r5, r3
 4189 1dc0 A046     		mov r8, r4		@SIN_R
 4190 1dc2 A946     		mov r9, r5		@SIN_I
 4191              	
 4192              		@4
 4193 1dc4 03BC     		pop {r0-r1}
 4194 1dc6 0246     		mov r2, r0
 4195 1dc8 0B46     		mov r3, r1
 4196              		
ARM GAS  1.s 			page 75


 4197 1dca 5546     		mov r5, r10
 4198 1dcc 2C88     		ldrh r4, [r5]
 4199 1dce 0235     		adds r5, r5, # 2
 4200 1dd0 AA46     		mov r10, r5
 4201 1dd2 6043     		muls r0, r0, r4		@R
 4202 1dd4 6143     		muls r1, r1, r4		@I
 4203 1dd6 8011     		asrs r0, r0, # 6
 4204 1dd8 8911     		asrs r1, r1, # 6
 4205 1dda 3618     		adds r6, r6, r0	       @COS_R
 4206 1ddc 7F18     		adds r7, r7, r1	       @COS_I
 4207              	
 4208 1dde 7546     	        mov r5, r14
 4209 1de0 2C88     	        ldrh r4, [r5]
 4210 1de2 0235     	        adds r5, r5, # 2
 4211 1de4 AE46     	        mov r14, r5
 4212 1de6 6243     	        muls r2, r2, r4         @R
 4213 1de8 6343     	        muls r3, r3, r4         @I
 4214 1dea 9211     		asrs r2, r2, # 6
 4215 1dec 9B11     		asrs r3, r3, # 6
 4216 1dee 4446     		mov r4, r8
 4217 1df0 4D46     		mov r5, r9
 4218 1df2 A418     		adds r4, r4, r2        
 4219 1df4 ED18     		adds r5, r5, r3
 4220 1df6 A046     		mov r8, r4		@SIN_R
 4221 1df8 A946     		mov r9, r5		@SIN_I
 4222              	
 4223              		@5
 4224 1dfa 03BC     			pop {r0-r1}
 4225 1dfc 0246     		mov r2, r0
 4226 1dfe 0B46     		mov r3, r1
 4227              		
 4228 1e00 5546     		mov r5, r10
 4229 1e02 2C88     		ldrh r4, [r5]
 4230 1e04 0235     		adds r5, r5, # 2
 4231 1e06 AA46     		mov r10, r5
 4232 1e08 6043     		muls r0, r0, r4		@R
 4233 1e0a 6143     		muls r1, r1, r4		@I
 4234 1e0c 8011     		asrs r0, r0, # 6
 4235 1e0e 8911     		asrs r1, r1, # 6
 4236 1e10 3618     		adds r6, r6, r0	       @COS_R
 4237 1e12 7F18     		adds r7, r7, r1	       @COS_I
 4238              	
 4239 1e14 7546     	        mov r5, r14
 4240 1e16 2C88     	        ldrh r4, [r5]
 4241 1e18 0235     	        adds r5, r5, # 2
 4242 1e1a AE46     	        mov r14, r5
 4243 1e1c 6243     	        muls r2, r2, r4         @R
 4244 1e1e 6343     	        muls r3, r3, r4         @I
 4245 1e20 9211     		asrs r2, r2, # 6
 4246 1e22 9B11     		asrs r3, r3, # 6
 4247 1e24 4446     		mov r4, r8
 4248 1e26 4D46     		mov r5, r9
 4249 1e28 A418     		adds r4, r4, r2        
 4250 1e2a ED18     		adds r5, r5, r3
 4251 1e2c A046     		mov r8, r4		@SIN_R
 4252 1e2e A946     		mov r9, r5		@SIN_I
 4253              		
ARM GAS  1.s 			page 76


 4254              		@6
 4255 1e30 03BC     			pop {r0-r1}
 4256 1e32 0246     		mov r2, r0
 4257 1e34 0B46     		mov r3, r1
 4258              		
 4259 1e36 5546     		mov r5, r10
 4260 1e38 2C88     		ldrh r4, [r5]
 4261 1e3a 0235     		adds r5, r5, # 2
 4262 1e3c AA46     		mov r10, r5
 4263 1e3e 6043     		muls r0, r0, r4		@R
 4264 1e40 6143     		muls r1, r1, r4		@I
 4265 1e42 8011     		asrs r0, r0, # 6
 4266 1e44 8911     		asrs r1, r1, # 6
 4267 1e46 3618     		adds r6, r6, r0	       @COS_R
 4268 1e48 7F18     		adds r7, r7, r1	       @COS_I
 4269              	
 4270 1e4a 7546     	        mov r5, r14
 4271 1e4c 2C88     	        ldrh r4, [r5]
 4272 1e4e 0235     	        adds r5, r5, # 2
 4273 1e50 AE46     	        mov r14, r5
 4274 1e52 6243     	        muls r2, r2, r4         @R
 4275 1e54 6343     	        muls r3, r3, r4         @I
 4276 1e56 9211     		asrs r2, r2, # 6
 4277 1e58 9B11     		asrs r3, r3, # 6
 4278 1e5a 4446     		mov r4, r8
 4279 1e5c 4D46     		mov r5, r9
 4280 1e5e A418     		adds r4, r4, r2        
 4281 1e60 ED18     		adds r5, r5, r3
 4282 1e62 A046     		mov r8, r4		@SIN_R
 4283 1e64 A946     		mov r9, r5		@SIN_I
 4284              	
 4285              		@7
 4286 1e66 03BC     			pop {r0-r1}
 4287 1e68 0246     		mov r2, r0
 4288 1e6a 0B46     		mov r3, r1
 4289              		
 4290 1e6c 5546     		mov r5, r10
 4291 1e6e 2C88     		ldrh r4, [r5]
 4292 1e70 0235     		adds r5, r5, # 2
 4293 1e72 AA46     		mov r10, r5
 4294 1e74 6043     		muls r0, r0, r4		@R
 4295 1e76 6143     		muls r1, r1, r4		@I
 4296 1e78 8011     		asrs r0, r0, # 6
 4297 1e7a 8911     		asrs r1, r1, # 6
 4298 1e7c 3618     		adds r6, r6, r0	       @COS_R
 4299 1e7e 7F18     		adds r7, r7, r1	       @COS_I
 4300              	
 4301 1e80 7546     	        mov r5, r14
 4302 1e82 2C88     	        ldrh r4, [r5]
 4303 1e84 0235     	        adds r5, r5, # 2
 4304 1e86 AE46     	        mov r14, r5
 4305 1e88 6243     	        muls r2, r2, r4         @R
 4306 1e8a 6343     	        muls r3, r3, r4         @I
 4307 1e8c 9211     		asrs r2, r2, # 6
 4308 1e8e 9B11     		asrs r3, r3, # 6
 4309 1e90 4446     		mov r4, r8
 4310 1e92 4D46     		mov r5, r9
ARM GAS  1.s 			page 77


 4311 1e94 A418     		adds r4, r4, r2        
 4312 1e96 ED18     		adds r5, r5, r3
 4313 1e98 A046     		mov r8, r4		@SIN_R
 4314 1e9a A946     		mov r9, r5		@SIN_I
 4315              	
 4316              		@8
 4317 1e9c 03BC     			pop {r0-r1}
 4318 1e9e 0246     		mov r2, r0
 4319 1ea0 0B46     		mov r3, r1
 4320              		
 4321 1ea2 5546     		mov r5, r10
 4322 1ea4 2C88     		ldrh r4, [r5]
 4323 1ea6 0235     		adds r5, r5, # 2
 4324 1ea8 AA46     		mov r10, r5
 4325 1eaa 6043     		muls r0, r0, r4		@R
 4326 1eac 6143     		muls r1, r1, r4		@I
 4327 1eae 8011     		asrs r0, r0, # 6
 4328 1eb0 8911     		asrs r1, r1, # 6
 4329 1eb2 3618     		adds r6, r6, r0	       @COS_R
 4330 1eb4 7F18     		adds r7, r7, r1	       @COS_I
 4331              	
 4332 1eb6 7546     	        mov r5, r14
 4333 1eb8 2C88     	        ldrh r4, [r5]
 4334 1eba 0235     	        adds r5, r5, # 2
 4335 1ebc AE46     	        mov r14, r5
 4336 1ebe 6243     	        muls r2, r2, r4         @R
 4337 1ec0 6343     	        muls r3, r3, r4         @I
 4338 1ec2 9211     		asrs r2, r2, # 6
 4339 1ec4 9B11     		asrs r3, r3, # 6
 4340 1ec6 4446     		mov r4, r8
 4341 1ec8 4D46     		mov r5, r9
 4342 1eca A418     		adds r4, r4, r2        
 4343 1ecc ED18     		adds r5, r5, r3
 4344 1ece A046     		mov r8, r4		@SIN_R
 4345 1ed0 A946     		mov r9, r5		@SIN_I
 4346              	
 4347              		@9
 4348 1ed2 03BC     			pop {r0-r1}
 4349 1ed4 0246     		mov r2, r0
 4350 1ed6 0B46     		mov r3, r1
 4351              		
 4352 1ed8 5546     		mov r5, r10
 4353 1eda 2C88     		ldrh r4, [r5]
 4354 1edc 0235     		adds r5, r5, # 2
 4355 1ede AA46     		mov r10, r5
 4356 1ee0 6043     		muls r0, r0, r4		@R
 4357 1ee2 6143     		muls r1, r1, r4		@I
 4358 1ee4 8011     		asrs r0, r0, # 6
 4359 1ee6 8911     		asrs r1, r1, # 6
 4360 1ee8 3618     		adds r6, r6, r0	       @COS_R
 4361 1eea 7F18     		adds r7, r7, r1	       @COS_I
 4362              	
 4363 1eec 7546     	        mov r5, r14
 4364 1eee 2C88     	        ldrh r4, [r5]
 4365 1ef0 0235     	        adds r5, r5, # 2
 4366 1ef2 AE46     	        mov r14, r5
 4367 1ef4 6243     	        muls r2, r2, r4         @R
ARM GAS  1.s 			page 78


 4368 1ef6 6343     	        muls r3, r3, r4         @I
 4369 1ef8 9211     		asrs r2, r2, # 6
 4370 1efa 9B11     		asrs r3, r3, # 6
 4371 1efc 4446     		mov r4, r8
 4372 1efe 4D46     		mov r5, r9
 4373 1f00 A418     		adds r4, r4, r2        
 4374 1f02 ED18     		adds r5, r5, r3
 4375 1f04 A046     		mov r8, r4		@SIN_R
 4376 1f06 A946     		mov r9, r5		@SIN_I
 4377              	
 4378              	@yjm9
 4379              			@0
 4380 1f08 03BC     		pop {r0-r1}
 4381 1f0a 0246     		mov r2, r0
 4382 1f0c 0B46     		mov r3, r1
 4383              		
 4384 1f0e 5546     		mov r5, r10
 4385 1f10 2C88     		ldrh r4, [r5]
 4386 1f12 0235     		adds r5, r5, # 2
 4387 1f14 AA46     		mov r10, r5
 4388 1f16 6043     		muls r0, r0, r4		@R
 4389 1f18 6143     		muls r1, r1, r4		@I
 4390 1f1a 8011     		asrs r0, r0, # 6
 4391 1f1c 8911     		asrs r1, r1, # 6
 4392 1f1e 3618     		adds r6, r6, r0	       @COS_R
 4393 1f20 7F18     		adds r7, r7, r1	       @COS_I
 4394              	
 4395 1f22 7546     	        mov r5, r14
 4396 1f24 2C88     	        ldrh r4, [r5]
 4397 1f26 0235     	        adds r5, r5, # 2
 4398 1f28 AE46     	        mov r14, r5
 4399 1f2a 6243     	        muls r2, r2, r4         @R
 4400 1f2c 6343     	        muls r3, r3, r4         @I
 4401 1f2e 9211     		asrs r2, r2, # 6
 4402 1f30 9B11     		asrs r3, r3, # 6
 4403 1f32 4446     		mov r4, r8
 4404 1f34 4D46     		mov r5, r9
 4405 1f36 A418     		adds r4, r4, r2        
 4406 1f38 ED18     		adds r5, r5, r3
 4407 1f3a A046     		mov r8, r4		@SIN_R
 4408 1f3c A946     		mov r9, r5		@SIN_I
 4409              	
 4410              		@1
 4411 1f3e 03BC     		pop {r0-r1}
 4412 1f40 0246     		mov r2, r0
 4413 1f42 0B46     		mov r3, r1
 4414              		
 4415 1f44 5546     		mov r5, r10
 4416 1f46 2C88     		ldrh r4, [r5]
 4417 1f48 0235     		adds r5, r5, # 2
 4418 1f4a AA46     		mov r10, r5
 4419 1f4c 6043     		muls r0, r0, r4		@R
 4420 1f4e 6143     		muls r1, r1, r4		@I
 4421 1f50 8011     		asrs r0, r0, # 6
 4422 1f52 8911     		asrs r1, r1, # 6
 4423 1f54 3618     		adds r6, r6, r0	       @COS_R
 4424 1f56 7F18     		adds r7, r7, r1	       @COS_I
ARM GAS  1.s 			page 79


 4425              	
 4426 1f58 7546     	        mov r5, r14
 4427 1f5a 2C88     	        ldrh r4, [r5]
 4428 1f5c 0235     	        adds r5, r5, # 2
 4429 1f5e AE46     	        mov r14, r5
 4430 1f60 6243     	        muls r2, r2, r4         @R
 4431 1f62 6343     	        muls r3, r3, r4         @I
 4432 1f64 9211     		asrs r2, r2, # 6
 4433 1f66 9B11     		asrs r3, r3, # 6
 4434 1f68 4446     		mov r4, r8
 4435 1f6a 4D46     		mov r5, r9
 4436 1f6c A418     		adds r4, r4, r2        
 4437 1f6e ED18     		adds r5, r5, r3
 4438 1f70 A046     		mov r8, r4		@SIN_R
 4439 1f72 A946     		mov r9, r5		@SIN_I
 4440              	
 4441              		@2
 4442 1f74 03BC     		pop {r0-r1}
 4443 1f76 0246     		mov r2, r0
 4444 1f78 0B46     		mov r3, r1
 4445              		
 4446 1f7a 5546     		mov r5, r10
 4447 1f7c 2C88     		ldrh r4, [r5]
 4448 1f7e 0235     		adds r5, r5, # 2
 4449 1f80 AA46     		mov r10, r5
 4450 1f82 6043     		muls r0, r0, r4		@R
 4451 1f84 6143     		muls r1, r1, r4		@I
 4452 1f86 8011     		asrs r0, r0, # 6
 4453 1f88 8911     		asrs r1, r1, # 6
 4454 1f8a 3618     		adds r6, r6, r0	       @COS_R
 4455 1f8c 7F18     		adds r7, r7, r1	       @COS_I
 4456              	
 4457 1f8e 7546     	        mov r5, r14
 4458 1f90 2C88     	        ldrh r4, [r5]
 4459 1f92 0235     	        adds r5, r5, # 2
 4460 1f94 AE46     	        mov r14, r5
 4461 1f96 6243     	        muls r2, r2, r4         @R
 4462 1f98 6343     	        muls r3, r3, r4         @I
 4463 1f9a 9211     		asrs r2, r2, # 6
 4464 1f9c 9B11     		asrs r3, r3, # 6
 4465 1f9e 4446     		mov r4, r8
 4466 1fa0 4D46     		mov r5, r9
 4467 1fa2 A418     		adds r4, r4, r2        
 4468 1fa4 ED18     		adds r5, r5, r3
 4469 1fa6 A046     		mov r8, r4		@SIN_R
 4470 1fa8 A946     		mov r9, r5		@SIN_I
 4471              		
 4472              		@3
 4473 1faa 03BC     		pop {r0-r1}
 4474 1fac 0246     		mov r2, r0
 4475 1fae 0B46     		mov r3, r1
 4476              		
 4477 1fb0 5546     		mov r5, r10
 4478 1fb2 2C88     		ldrh r4, [r5]
 4479 1fb4 0235     		adds r5, r5, # 2
 4480 1fb6 AA46     		mov r10, r5
 4481 1fb8 6043     		muls r0, r0, r4		@R
ARM GAS  1.s 			page 80


 4482 1fba 6143     		muls r1, r1, r4		@I
 4483 1fbc 8011     		asrs r0, r0, # 6
 4484 1fbe 8911     		asrs r1, r1, # 6
 4485 1fc0 3618     		adds r6, r6, r0	       @COS_R
 4486 1fc2 7F18     		adds r7, r7, r1	       @COS_I
 4487              	
 4488 1fc4 7546     	        mov r5, r14
 4489 1fc6 2C88     	        ldrh r4, [r5]
 4490 1fc8 0235     	        adds r5, r5, # 2
 4491 1fca AE46     	        mov r14, r5
 4492 1fcc 6243     	        muls r2, r2, r4         @R
 4493 1fce 6343     	        muls r3, r3, r4         @I
 4494 1fd0 9211     		asrs r2, r2, # 6
 4495 1fd2 9B11     		asrs r3, r3, # 6
 4496 1fd4 4446     		mov r4, r8
 4497 1fd6 4D46     		mov r5, r9
 4498 1fd8 A418     		adds r4, r4, r2        
 4499 1fda ED18     		adds r5, r5, r3
 4500 1fdc A046     		mov r8, r4		@SIN_R
 4501 1fde A946     		mov r9, r5		@SIN_I
 4502              	
 4503              		@4
 4504 1fe0 03BC     		pop {r0-r1}
 4505 1fe2 0246     		mov r2, r0
 4506 1fe4 0B46     		mov r3, r1
 4507              		
 4508 1fe6 5546     		mov r5, r10
 4509 1fe8 2C88     		ldrh r4, [r5]
 4510 1fea 0235     		adds r5, r5, # 2
 4511 1fec AA46     		mov r10, r5
 4512 1fee 6043     		muls r0, r0, r4		@R
 4513 1ff0 6143     		muls r1, r1, r4		@I
 4514 1ff2 8011     		asrs r0, r0, # 6
 4515 1ff4 8911     		asrs r1, r1, # 6
 4516 1ff6 3618     		adds r6, r6, r0	       @COS_R
 4517 1ff8 7F18     		adds r7, r7, r1	       @COS_I
 4518              	
 4519 1ffa 7546     	        mov r5, r14
 4520 1ffc 2C88     	        ldrh r4, [r5]
 4521 1ffe 0235     	        adds r5, r5, # 2
 4522 2000 AE46     	        mov r14, r5
 4523 2002 6243     	        muls r2, r2, r4         @R
 4524 2004 6343     	        muls r3, r3, r4         @I
 4525 2006 9211     		asrs r2, r2, # 6
 4526 2008 9B11     		asrs r3, r3, # 6
 4527 200a 4446     		mov r4, r8
 4528 200c 4D46     		mov r5, r9
 4529 200e A418     		adds r4, r4, r2        
 4530 2010 ED18     		adds r5, r5, r3
 4531 2012 A046     		mov r8, r4		@SIN_R
 4532 2014 A946     		mov r9, r5		@SIN_I
 4533              	
 4534              		@5
 4535 2016 03BC     			pop {r0-r1}
 4536 2018 0246     		mov r2, r0
 4537 201a 0B46     		mov r3, r1
 4538              		
ARM GAS  1.s 			page 81


 4539 201c 5546     		mov r5, r10
 4540 201e 2C88     		ldrh r4, [r5]
 4541 2020 0235     		adds r5, r5, # 2
 4542 2022 AA46     		mov r10, r5
 4543 2024 6043     		muls r0, r0, r4		@R
 4544 2026 6143     		muls r1, r1, r4		@I
 4545 2028 8011     		asrs r0, r0, # 6
 4546 202a 8911     		asrs r1, r1, # 6
 4547 202c 3618     		adds r6, r6, r0	       @COS_R
 4548 202e 7F18     		adds r7, r7, r1	       @COS_I
 4549              	
 4550 2030 7546     	        mov r5, r14
 4551 2032 2C88     	        ldrh r4, [r5]
 4552 2034 0235     	        adds r5, r5, # 2
 4553 2036 AE46     	        mov r14, r5
 4554 2038 6243     	        muls r2, r2, r4         @R
 4555 203a 6343     	        muls r3, r3, r4         @I
 4556 203c 9211     		asrs r2, r2, # 6
 4557 203e 9B11     		asrs r3, r3, # 6
 4558 2040 4446     		mov r4, r8
 4559 2042 4D46     		mov r5, r9
 4560 2044 A418     		adds r4, r4, r2        
 4561 2046 ED18     		adds r5, r5, r3
 4562 2048 A046     		mov r8, r4		@SIN_R
 4563 204a A946     		mov r9, r5		@SIN_I
 4564              		
 4565              		@6
 4566 204c 03BC     			pop {r0-r1}
 4567 204e 0246     		mov r2, r0
 4568 2050 0B46     		mov r3, r1
 4569              		
 4570 2052 5546     		mov r5, r10
 4571 2054 2C88     		ldrh r4, [r5]
 4572 2056 0235     		adds r5, r5, # 2
 4573 2058 AA46     		mov r10, r5
 4574 205a 6043     		muls r0, r0, r4		@R
 4575 205c 6143     		muls r1, r1, r4		@I
 4576 205e 8011     		asrs r0, r0, # 6
 4577 2060 8911     		asrs r1, r1, # 6
 4578 2062 3618     		adds r6, r6, r0	       @COS_R
 4579 2064 7F18     		adds r7, r7, r1	       @COS_I
 4580              	
 4581 2066 7546     	        mov r5, r14
 4582 2068 2C88     	        ldrh r4, [r5]
 4583 206a 0235     	        adds r5, r5, # 2
 4584 206c AE46     	        mov r14, r5
 4585 206e 6243     	        muls r2, r2, r4         @R
 4586 2070 6343     	        muls r3, r3, r4         @I
 4587 2072 9211     		asrs r2, r2, # 6
 4588 2074 9B11     		asrs r3, r3, # 6
 4589 2076 4446     		mov r4, r8
 4590 2078 4D46     		mov r5, r9
 4591 207a A418     		adds r4, r4, r2        
 4592 207c ED18     		adds r5, r5, r3
 4593 207e A046     		mov r8, r4		@SIN_R
 4594 2080 A946     		mov r9, r5		@SIN_I
 4595              	
ARM GAS  1.s 			page 82


 4596              		@7
 4597 2082 03BC     			pop {r0-r1}
 4598 2084 0246     		mov r2, r0
 4599 2086 0B46     		mov r3, r1
 4600              		
 4601 2088 5546     		mov r5, r10
 4602 208a 2C88     		ldrh r4, [r5]
 4603 208c 0235     		adds r5, r5, # 2
 4604 208e AA46     		mov r10, r5
 4605 2090 6043     		muls r0, r0, r4		@R
 4606 2092 6143     		muls r1, r1, r4		@I
 4607 2094 8011     		asrs r0, r0, # 6
 4608 2096 8911     		asrs r1, r1, # 6
 4609 2098 3618     		adds r6, r6, r0	       @COS_R
 4610 209a 7F18     		adds r7, r7, r1	       @COS_I
 4611              	
 4612 209c 7546     	        mov r5, r14
 4613 209e 2C88     	        ldrh r4, [r5]
 4614 20a0 0235     	        adds r5, r5, # 2
 4615 20a2 AE46     	        mov r14, r5
 4616 20a4 6243     	        muls r2, r2, r4         @R
 4617 20a6 6343     	        muls r3, r3, r4         @I
 4618 20a8 9211     		asrs r2, r2, # 6
 4619 20aa 9B11     		asrs r3, r3, # 6
 4620 20ac 4446     		mov r4, r8
 4621 20ae 4D46     		mov r5, r9
 4622 20b0 A418     		adds r4, r4, r2        
 4623 20b2 ED18     		adds r5, r5, r3
 4624 20b4 A046     		mov r8, r4		@SIN_R
 4625 20b6 A946     		mov r9, r5		@SIN_I
 4626              	
 4627              		@8
 4628 20b8 03BC     			pop {r0-r1}
 4629 20ba 0246     		mov r2, r0
 4630 20bc 0B46     		mov r3, r1
 4631              		
 4632 20be 5546     		mov r5, r10
 4633 20c0 2C88     		ldrh r4, [r5]
 4634 20c2 0235     		adds r5, r5, # 2
 4635 20c4 AA46     		mov r10, r5
 4636 20c6 6043     		muls r0, r0, r4		@R
 4637 20c8 6143     		muls r1, r1, r4		@I
 4638 20ca 8011     		asrs r0, r0, # 6
 4639 20cc 8911     		asrs r1, r1, # 6
 4640 20ce 3618     		adds r6, r6, r0	       @COS_R
 4641 20d0 7F18     		adds r7, r7, r1	       @COS_I
 4642              	
 4643 20d2 7546     	        mov r5, r14
 4644 20d4 2C88     	        ldrh r4, [r5]
 4645 20d6 0235     	        adds r5, r5, # 2
 4646 20d8 AE46     	        mov r14, r5
 4647 20da 6243     	        muls r2, r2, r4         @R
 4648 20dc 6343     	        muls r3, r3, r4         @I
 4649 20de 9211     		asrs r2, r2, # 6
 4650 20e0 9B11     		asrs r3, r3, # 6
 4651 20e2 4446     		mov r4, r8
 4652 20e4 4D46     		mov r5, r9
ARM GAS  1.s 			page 83


 4653 20e6 A418     		adds r4, r4, r2        
 4654 20e8 ED18     		adds r5, r5, r3
 4655 20ea A046     		mov r8, r4		@SIN_R
 4656 20ec A946     		mov r9, r5		@SIN_I
 4657              	
 4658              		@9
 4659 20ee 03BC     			pop {r0-r1}
 4660 20f0 0246     		mov r2, r0
 4661 20f2 0B46     		mov r3, r1
 4662              		
 4663 20f4 5546     		mov r5, r10
 4664 20f6 2C88     		ldrh r4, [r5]
 4665 20f8 0235     		adds r5, r5, # 2
 4666 20fa AA46     		mov r10, r5
 4667 20fc 6043     		muls r0, r0, r4		@R
 4668 20fe 6143     		muls r1, r1, r4		@I
 4669 2100 8011     		asrs r0, r0, # 6
 4670 2102 8911     		asrs r1, r1, # 6
 4671 2104 3618     		adds r6, r6, r0	       @COS_R
 4672 2106 7F18     		adds r7, r7, r1	       @COS_I
 4673              	
 4674 2108 7546     	        mov r5, r14
 4675 210a 2C88     	        ldrh r4, [r5]
 4676 210c 0235     	        adds r5, r5, # 2
 4677 210e AE46     	        mov r14, r5
 4678 2110 6243     	        muls r2, r2, r4         @R
 4679 2112 6343     	        muls r3, r3, r4         @I
 4680 2114 9211     		asrs r2, r2, # 6
 4681 2116 9B11     		asrs r3, r3, # 6
 4682 2118 4446     		mov r4, r8
 4683 211a 4D46     		mov r5, r9
 4684 211c A418     		adds r4, r4, r2        
 4685 211e ED18     		adds r5, r5, r3
 4686 2120 A046     		mov r8, r4		@SIN_R
 4687 2122 A946     		mov r9, r5		@SIN_I
 4688              	
 4689              	
 4690              	
 4691              	
 4692              	
 4693              		
 4694              	
 4695              	
 4696              	
 4697              	
 4698              	
 4699              	
 4700              	
 4701              	
 4702              		
 4703              	
 4704              	
 4705 2124 0A48     		ldr r0, = 0x200001c8
 4706 2126 8245     		cmp r10, r0
 4707 2128 02D0     		beq __dft_fanhuile
 4708 212a 0A48     		ldr r0, = __dft_xunhuan
 4709 212c 0130     		adds r0, r0, # 1
ARM GAS  1.s 			page 84


 4710 212e 8746     		mov pc, r0
 4711              	__dft_fanhuile:
 4712 2130 3046     		mov r0, r6	@cos_r
 4713 2132 3946     		mov r1, r7	@cos_i
 4714 2134 4246     		mov r2, r8	@sin_r
 4715 2136 4B46     		mov r3, r9	@sin_i
 4716 2138 4012     		asrs r0, r0, # 9	@dfdf
 4717 213a 4912     		asrs r1, r1, # 9
 4718 213c 5212     		asrs r2, r2, # 9
 4719 213e 5B12     		asrs r3, r3, # 9
 4720 2140 E546     		mov sp, r12
 4721 2142 F0BC     		pop {r4-r7}
 4722 2144 A046     		mov r8, r4
 4723 2146 A946     		mov r9, r5
 4724 2148 B246     		mov r10, r6
 4725 214a BC46     		mov r12, r7
 4726 214c F0BD     		pop {r4-r7,pc}
 4727 214e 0000C801 		.ltorg
 4727      00200C0C 
 4727      0000
 4728              	
 4729              	
 4730              	
 4731              	
 4732              	
 4733              	
 4734              	__lv_bo_qi:
 4735              		@地址顺序：指针，累加值，缓冲区
 4736              		@入口R0=缓冲区，R1=数据, r2,=指针
 4737              		@出口R0
 4738 2158 F8B5     		push {r3-r7,lr}
 4739 215a 0B4C     		ldr r4, = lvbo_changdu
 4740 215c 0B4F     		ldr r7, = lvbo_youyi
 4741 215e 2468     		ldr r4, [r4]
 4742 2160 3F68     		ldr r7, [r7]
 4743 2162 1568     		ldr r5, [r2]
 4744 2164 2B46     		mov r3, r5
 4745 2166 AB00     		lsls r3, r5, # 2
 4746 2168 C658     		ldr r6, [r0, r3]
 4747 216a C150     		str r1, [r0, r3]
 4748 216c 0135     		adds r5, r5, # 1
 4749 216e 1560     		str r5, [r2]
 4750 2170 A542     		cmp r5, r4
 4751 2172 01D1     		bne __huanchong_leijia
 4752 2174 0025     		movs r5, # 0
 4753 2176 1560     		str r5, [r2]
 4754              	__huanchong_leijia:
 4755 2178 0438     		subs r0, r0, # 4
 4756 217a 0568     		ldr r5, [r0]
 4757 217c 4919     		adds r1, r1, r5
 4758 217e 891B     		subs r1, r1, r6
 4759 2180 0160     		str r1, [r0]
 4760 2182 3941     		asrs r1, r1, r7	 @# 12 @12 @  7	@128
 4761 2184 0846     		mov r0, r1
 4762 2186 F8BD     		pop {r3-r7,pc}
 4763 2188 D41F0020 		.ltorg
 4763      D81F0020 
ARM GAS  1.s 			page 85


 4764              	
 4765              	
 4766              	
 4767              	
 4768              	
 4769              	
 4770              	
 4771              	
 4772              		
 4773              	
 4774              		
 4775              		
 4776              	_nmi:
 4777              	_Hard_Fault:
 4778              	_svc_handler:
 4779              	_pendsv_handler:
 4780              	aaa:
 4781 2190 7047     		bx lr
 4782              		
 4783              	_systick_zhongduan:
 4784 2192 7FB5     		push {r0-r6,lr}
 4785              	
 4786 2194 3348     		ldr r0, = 0x40020000
 4787 2196 3449     		ldr r1, = 0x10064	@ 0x103e8
 4788 2198 4162     		str r1, [r0, # 0x24]    @传输数量
 4789 219a 3449     		ldr r1, = dianyabiao
 4790 219c C162     		str r1, [r0, # 0x2c]    @目的地
 4791 219e 6921     		movs r1, # 0x69
 4792 21a0 0162     		str r1, [r0, # 0x20]    @模式设置和开DMA
 4793              	
 4794 21a2 3149     	        ldr r1, = 0x10064       @ 0x103e8
 4795 21a4 4164     	        str r1, [r0, # 0x44]    @传输数量
 4796 21a6 3249     		ldr r1, = dianyabiao1
 4797 21a8 C164     		str r1, [r0, # 0x4c]    @目的地
 4798 21aa 6921     		movs r1, # 0x69
 4799 21ac 0164     	        str r1, [r0, # 0x40]    @模式设置和开DMA
 4800              	
 4801              		
 4802 21ae FEF714FD 		bl __dft
 4803 21b2 4010     		asrs r0, r0, # 1
 4804 21b4 4910     		asrs r1, r1, # 1
 4805 21b6 5210     		asrs r2, r2, # 1
 4806 21b8 5B10     		asrs r3, r3, # 1
 4807 21ba 2E4C     		ldr r4, = cos_r
 4808 21bc 2060     		str r0, [r4]
 4809 21be 6160     		str r1, [r4, # 0x04]
 4810 21c0 A260     		str r2, [r4, # 0x08]
 4811 21c2 E360     		str r3, [r4, # 0x0c]
 4812 21c4 0546     		mov r5, r0
 4813 21c6 0E46     		mov r6, r1
 4814              	
 4815              	
 4816 21c8 2B48     		ldr r0, = sin_jiaodu_r
 4817 21ca 2C49     		ldr r1, = sin_jiaodu_i
 4818 21cc 0068     		ldr r0, [r0]
 4819 21ce 0968     		ldr r1, [r1]
 4820 21d0 FEF7B0FA 		bl __xiangwei_xuanzhuan
ARM GAS  1.s 			page 86


 4821 21d4 2A4A     		ldr r2, = sin
 4822 21d6 1060     		str r0, [r2]
 4823 21d8 0446     		mov r4, r0
 4824 21da 5160     		str r1, [r2, # 0x04]
 4825              	
 4826 21dc 2948     		ldr r0, = cos_jiaodu_r
 4827 21de 2A49     		ldr r1, = cos_jiaodu_i
 4828 21e0 0068     		ldr r0, [r0]
 4829 21e2 0968     		ldr r1, [r1]
 4830 21e4 2A46     		mov r2, r5
 4831 21e6 3346     		mov r3, r6
 4832 21e8 FEF7A4FA 		bl __xiangwei_xuanzhuan
 4833 21ec 274A     		ldr r2, = cos
 4834 21ee 1060     		str r0, [r2]
 4835 21f0 5160     		str r1, [r2, # 0x04]
 4836              	
 4837              	
 4838              	
 4839              		
 4840              	
 4841 21f2 0246     		mov r2, r0
 4842 21f4 2346     		mov r3, r4
 4843 21f6 2648     		ldr r0, = xuanzhuan_jiaodu_r
 4844 21f8 2649     		ldr r1, = xuanzhuan_jiaodu_i
 4845 21fa 0068     		ldr r0, [r0]
 4846 21fc 0968     		ldr r1, [r1]
 4847 21fe FEF799FA 		bl __xiangwei_xuanzhuan
 4848 2202 254A     		ldr r2, = jiaodu_r
 4849 2204 254B     		ldr r3, = jiaodu_i
 4850 2206 1060     		str r0, [r2]
 4851 2208 1960     		str r1, [r3]
 4852              	
 4853              	
 4854              	
 4855              	
 4856 220a 0246     		mov r2, r0
 4857 220c 0B46     		mov r3, r1
 4858 220e 2448     	       ldr r0, = zhuansu_jiaodu_r
 4859 2210 2449     	       ldr r1, = zhuansu_jiaodu_i
 4860 2212 0068     	        ldr r0, [r0]
 4861 2214 0968     		ldr r1, [r1]
 4862 2216 FEF78DFA 	        bl __xiangwei_xuanzhuan
 4863              	
 4864              		
 4865 221a FEF7ECFA 		bl __atan2_ji_suan
 4866 221e 2249     		ldr r1, = xuanbian_jiaodu
 4867 2220 224A     		ldr r2, = 36000
 4868 2222 C013     		asrs r0, r0, # 15
 4869 2224 00D5     		bpl __baocun_jiaodu
 4870 2226 8018     		adds r0, r0, r2
 4871              	__baocun_jiaodu:	
 4872 2228 0860     		str r0, [r1]
 4873              	
 4874              	
 4875              	
 4876 222a 214E     		ldr r6, = fangxiang
 4877 222c 214B     		ldr r3, = jiao_sudu
ARM GAS  1.s 			page 87


 4878 222e 2249     		ldr r1, = shangci_jiaodu
 4879 2230 0A68     		ldr r2, [r1]
 4880              		
 4881 2232 121A     		subs r2, r2, r0
 4882 2234 01D5     		bpl __baocun_jiao_sudu
 4883 2236 1D4C     		ldr r4, = 36000
 4884 2238 A218     		adds r2, r4, r2
 4885              	__baocun_jiao_sudu:
 4886 223a 204D     		ldr r5, = 18000
 4887 223c AA42     		cmp r2, r5
 4888 223e 02D3     		bcc __baocun_jiao_su_du
 4889 2240 A21A     		subs r2, r4, r2
 4890 2242 D243     		mvns r2, r2
 4891 2244 0132     		adds r2, r2, # 1
 4892              	__baocun_jiao_su_du:	
 4893 2246 1A60     		str r2, [r3]
 4894 2248 0860     		str r0, [r1]
 4895              	
 4896              		
 4897              	@	mov r1, r2
 4898              	@	bl __xie_spi2
 4899              		
 4900 224a 1D4B     		ldr r3, =100
 4901 224c 1D49     		ldr r1, = 0x48000400
 4902 224e 1E4A     		ldr r2, = 0x200
 4903 2250 9842     		cmp r0, r3
 4904 2252 01D3     		bcc __zheng_shi_deng_liang
 4905 2254 8A65     		str r2, [r1, # 0x58]
 4906 2256 00E0     		b __systick_fanhui
 4907              	__zheng_shi_deng_liang:
 4908 2258 CA65     		str r2, [r1, # 0x5c]
 4909              	__systick_fanhui:
 4910              	
 4911              		
 4912 225a 1C48     		ldr r0, = 0xe0000d04
 4913 225c 1C49     		ldr r1, = 0x02000000
 4914 225e 0160     		str r1, [r0]                 @ 清除SYSTICK中断
 4915 2260 7FBD     		pop {r0-r6,pc}
 4916              	
 4917              	
 4918              	
 4919 2262 0000     		.section .data
 4920              	        .equ flash_cos_jiaodu_r,              0xf000
 4921              	        .equ flash_cos_jiaodu_i,              0xf004
 4922              	        .equ flash_sin_jiaodu_r,              0xf008
 4923              	        .equ flash_sin_jiaodu_i,              0xf00c
 4924              	        .equ flash_xuanzhuan_jiaodu_r,        0xf010
 4925              	        .equ flashxuanzhuan_jiaodu_i,         0xf014
 4926              	
 4927              	
 4928              		
 4929              		.equ zhanding,			0x200000fc
 4930              		.equ dianyabiao,		0x20000100
 4931              		.equ dianyabiao1,		0x200001d0
 4932              		.equ lvboqizhizhen,             0x200010b0
 4933              		.equ lvboqihuanchong,           0x200010b8
 4934              		.equ lvboqizhizhen1,            0x20001800
ARM GAS  1.s 			page 88


 4935              		.equ lvboqihuanchong1,          0x20001808
 4936              	        .equ lvboqizhizhen2,            0x200010b0
 4937              	        .equ lvboqihuanchong2,          0x200010b8
 4938              	        .equ lvboqizhizhen3,            0x20001800
 4939              	        .equ lvboqihuanchong3,          0x20001808
 4940              	
 4941              	
 4942              	
 4943              		.equ fangxiang,			0x20001f3c
 4944              		.equ zhuansu_jiaodu_r,		0x20001f40
 4945              		.equ zhuansu_jiaodu_i,		0x20001f44
 4946              		.equ xiang_yi,			0x20001f48
 4947              		.equ jiao_sudu,			0x20001f4c
 4948              		.equ shangci_jiaodu,		0x20001f50
 4949              		.equ jiaodu_r,			0x20001f54
 4950              		.equ jiaodu_i,			0x20001f58
 4951              		.equ cos_jiaodu_r,		0x20001f5c
 4952              		.equ cos_jiaodu_i,		0x20001f60
 4953              		.equ sin_jiaodu_r,		0x20001f64
 4954              		.equ sin_jiaodu_i,		0x20001f68
 4955              		.equ xuanzhuan_jiaodu_r,	0x20001f6c
 4956              		.equ xuanzhuan_jiaodu_i,	0x20001f70
 4957              		.equ cos,			0x20001f74
 4958              		.equ sin,			0x20001f7c
 4959              		.equ xuanzhuan_kaiguan,		0x20001f84
 4960              		.equ xuanbian_jiaodu,		0x20001f88
 4961              		.equ cos_fudu,			0x20001f8c
 4962              		.equ sin_fudu,			0x20001f90
 4963              		.equ cos_r,			0x20001f94	
 4964              		.equ cos_i,			0x20001f98
 4965              		.equ sin_r,			0x20001f9c
 4966              		.equ sin_i,			0x20001fa0
 4967              	
 4968              		.equ z_r,			0x20001fb8
 4969              		.equ z_i,			0x20001fbc
 4970              		.equ z_jiao_du,			0x20001fc0
 4971              		.equ shangbi_r,			0x20001fc4
 4972              		.equ shangbi_i,			0x20001fc8
 4973              		.equ shangbi_rr,		0x20001fcc
 4974              		.equ shangbi_ii,		0x20001fd0
 4975              		.equ lvbo_changdu,		0x20001fd4
 4976              		.equ lvbo_youyi,		0x20001fd8
 4977              		.equ cossin,			0x20001fdc 
 4978              		.equ asciibiao,			0x20001fe0
 4979              	
 4980              	
 4981              	chuchang_cos_jiaodu_r:
 4982 0000 00800000 		.int 32768
 4983              	chuchang_cos_jiaodu_i:
 4984 0004 00000000 		.int 0
 4985              	chuchang_sin_jiaodu_r:
 4986 0008 00800000 		.int 32768
 4987              	chuchang_sin_jiaodu_i:
 4988 000c 00000000 		.int 0
 4989              	chuchang_jiaodu_r:
 4990 0010 00800000 		.int 32768
 4991              	chuchang_jiaodu_i:
ARM GAS  1.s 			page 89


 4992 0014 00000000 		.int 0
 4993              	
 4994              		
 4995              	yjmwxwx:
 4996 0018 796A6D77 		.ascii "yjmwxwx 2024 02 05"
 4996      78777820 
 4996      32303234 
 4996      20303220 
 4996      3035
 4997              	kong:
 4998 002a 20202020 		.int 0x20202020
 4999              	fu:
 5000 002e 2121     		.ascii "!!"
 5001              	_fu:
 5002 0030 2D       		.ascii "-"
 5003              	
 5004              	
 5005 0031 00000000 		.align 4
 5005      00000000 
 5005      00000000 
 5005      000000
 5006              	an_jian_biao:
 5007 0040 19020000 		.word __anjian0	+1
 5008 0044 1B020000 		.word __anjian1	+1
 5009 0048 1D020000 		.word __anjian2	+1
 5010 004c 7D020000 		.word __anjian3	+1
 5011              	
 5012              	cordic_yong_atan_biao:				@弧度
 5013 0050 87640000 		.int 0x00006487,0x00003B58,0x00001F5B,0x00000FEA,0x000007FD,0x000003FF,0x000001FF,0x000000FF,0x000
 5013      583B0000 
 5013      5B1F0000 
 5013      EA0F0000 
 5013      FD070000 
 5014              	cordic_yong_cos_sin:
 5015 0090 00000000 		.int 0x0000,0x4000,0x2D41,0x2D41,0x3B20,0x187D,0x3EC5,0x0C7C,0x3FB1,0x0645,0x3FEC,0x0323,0x3FFB,0x
 5015      00400000 
 5015      412D0000 
 5015      412D0000 
 5015      203B0000 
 5016              	
 5017              	
 5018              		
 5019              		.align 4
 5020              	cos_sin_biao_20k:
 5021 0110 00800000 		.int 0x8000,0x0000,0x7EFD,0xFFFFEFF6,0x7BFA,0xFFFFE02B,0x7702,0xFFFFD0E2,0x702A,0xFFFFC256,0x678D,
 5021      00000000 
 5021      FD7E0000 
 5021      F6EFFFFF 
 5021      FA7B0000 
 5022              	
 5023              		.align 4
 5024              	da_a_labo_hack:			 @16*24
 5025 2050 00000080 		.byte 0x00, 0x00, 0x00, 0x80, 0xFF, 0x01, 0xF0, 0xFF, 0x0F, 0xF8, 0xFF, 0x1F, 0x7C, 0x00, 0x3E, 0x
 5025      FF01F0FF 
 5025      0FF8FF1F 
 5025      7C003E1E 
 5025      00780E00 
ARM GAS  1.s 			page 90


 5026 2080 00000000 		.byte 0x00, 0x00, 0x00, 0x00, 0x00, 0x00, 0x00, 0x00, 0x00, 0x70, 0x00, 0x70, 0x70, 0x00, 0x70, 0x
 5026      00000000 
 5026      00700070 
 5026      70007070 
 5026      00707800 
 5027 20b0 00000000 		.byte 0x00, 0x00, 0x00, 0x00, 0x00, 0x78, 0x1C, 0x00, 0x7C, 0x1C, 0x00, 0x7E, 0x0E, 0x00, 0x77, 0x
 5027      00781C00 
 5027      7C1C007E 
 5027      0E00770E 
 5027      00770E80 
 5028 20e0 00000000 		.byte 0x00, 0x00, 0x00, 0x00, 0x00, 0x38, 0x1C, 0x00, 0x38, 0x1C, 0x00, 0x70, 0x0E, 0x00, 0x70, 0x
 5028      00381C00 
 5028      381C0070 
 5028      0E00700E 
 5028      00700E1C 
 5029 2110 00E00100 		.byte 0x00, 0xE0, 0x01, 0x00, 0xF0, 0x01, 0x00, 0xFC, 0x01, 0x00, 0xFE, 0x01, 0x00, 0xDF, 0x01, 0x
 5029      F00100FC 
 5029      0100FE01 
 5029      00DF0180 
 5029      CF01E0C3 
 5030 2140 00000000 		.byte 0x00, 0x00, 0x00, 0x00, 0x00, 0x00, 0x00, 0x00, 0x38, 0xFE, 0x1F, 0x38, 0xFE, 0x0F, 0x70, 0x
 5030      00000000 
 5030      38FE1F38 
 5030      FE0F70FE 
 5030      0F700E0E 
 5031 2170 00000000 		.byte 0x00, 0x00, 0x00, 0x00, 0xFE, 0x03, 0xC0, 0xFF, 0x0F, 0xF0, 0xFF, 0x1F, 0xF8, 0x1C, 0x3E, 0x
 5031      FE03C0FF 
 5031      0FF0FF1F 
 5031      F81C3E3C 
 5031      0C781C0E 
 5032 21a0 0000000E 		.byte 0x00, 0x00, 0x00, 0x0E, 0x00, 0x00, 0x0E, 0x00, 0x00, 0x0E, 0x00, 0x40, 0x0E, 0x00, 0x70, 0x
 5032      00000E00 
 5032      000E0040 
 5032      0E00700E 
 5032      007C0E00 
 5033 21d0 00000000 		.byte 0x00, 0x00, 0x00, 0x00, 0xC0, 0x07, 0xF0, 0xE1, 0x1F, 0xF8, 0xF3, 0x3F, 0xFC, 0x3F, 0x3C, 0x
 5033      C007F0E1 
 5033      1FF8F33F 
 5033      FC3F3C1E 
 5033      1F780E0E 
 5034 2200 000000E0 		.byte 0x00, 0x00, 0x00, 0xE0, 0x07, 0x00, 0xF0, 0x1F, 0x00, 0xF8, 0x3F, 0x78, 0x3C, 0x3C, 0x70, 0x
 5034      0700F01F 
 5034      00F83F78 
 5034      3C3C701E 
 5034      78700E70 
 5035              		.align 4
 5036              	ascii_biao:				@6*8
 5037 2230 00000000 		.byte 0x00, 0x00, 0x00, 0x00, 0x00, 0x00 @
 5037      0000
 5038              		@	.byte 0x00, 0x00, 0x00, 0x4F, 0x00, 0x00 @ !	
 5039 2236 3C3C3C3C 		.byte 0x3c, 0x3c, 0x3c, 0x3c, 0x3c, 0x3c @ !		@上面是对的
 5039      3C3C
 5040 223c 00000700 		.byte 0x00, 0x00, 0x07, 0x00, 0x07, 0x00 @ "
 5040      0700
 5041 2242 00147F14 		.byte 0x00, 0x14, 0x7F, 0x14, 0x7F, 0x14 @ #
 5041      7F14
 5042 2248 00242A7F 		.byte 0x00, 0x24, 0x2A, 0x7F, 0x2A, 0x12 @ $
ARM GAS  1.s 			page 91


 5042      2A12
 5043 224e 00231308 		.byte 0x00, 0x23, 0x13, 0x08, 0x64, 0x62 @ %
 5043      6462
 5044 2254 00364955 		.byte 0x00, 0x36, 0x49, 0x55, 0x22, 0x50 @ &
 5044      2250
 5045 225a 00000503 		.byte 0x00, 0x00, 0x05, 0x03, 0x00, 0x00 @ '
 5045      0000
 5046 2260 00001C22 		.byte 0x00, 0x00, 0x1C, 0x22, 0x41, 0x00 @ (
 5046      4100
 5047 2266 00004122 		.byte 0x00, 0x00, 0x41, 0x22, 0x1C, 0x00 @ )
 5047      1C00
 5048 226c 0014083E 		.byte 0x00, 0x14, 0x08, 0x3E, 0x08, 0x14 @ *
 5048      0814
 5049 2272 0008083E 		.byte 0x00, 0x08, 0x08, 0x3E, 0x08, 0x08 @ +
 5049      0808
 5050 2278 00005030 		.byte 0x00, 0x00, 0x50, 0x30, 0x00, 0x00 @ ,
 5050      0000
 5051 227e 00080808 		.byte 0x00, 0x08, 0x08, 0x08, 0x08, 0x08 @ -
 5051      0808
 5052 2284 00006060 		.byte 0x00, 0x00, 0x60, 0x60, 0x00, 0x00 @ .
 5052      0000
 5053 228a 00201008 		.byte 0x00, 0x20, 0x10, 0x08, 0x04, 0x02 @ /
 5053      0402
 5054 2290 003E5149 		.byte 0x00, 0x3E, 0x51, 0x49, 0x45, 0x3E @ 0
 5054      453E
 5055 2296 0000427F 		.byte 0x00, 0x00, 0x42, 0x7F, 0x40, 0x00 @ 1
 5055      4000
 5056 229c 00426151 		.byte 0x00, 0x42, 0x61, 0x51, 0x49, 0x46 @ 2
 5056      4946
 5057 22a2 00214145 		.byte 0x00, 0x21, 0x41, 0x45, 0x4B, 0x31 @ 3
 5057      4B31
 5058 22a8 00181412 		.byte 0x00, 0x18, 0x14, 0x12, 0x7F, 0x10 @ 4
 5058      7F10
 5059 22ae 00274545 		.byte 0x00, 0x27, 0x45, 0x45, 0x45, 0x39 @ 5
 5059      4539
 5060 22b4 003C4A49 		.byte 0x00, 0x3C, 0x4A, 0x49, 0x49, 0x30 @ 6
 5060      4930
 5061 22ba 00010179 		.byte 0x00, 0x01, 0x01, 0x79, 0x05, 0x03 @ 7
 5061      0503
 5062 22c0 00364949 		.byte 0x00, 0x36, 0x49, 0x49, 0x49, 0x36 @ 8
 5062      4936
 5063 22c6 00064949 		.byte 0x00, 0x06, 0x49, 0x49, 0x29, 0x1E @ 9
 5063      291E
 5064 22cc 00003636 		.byte 0x00, 0x00, 0x36, 0x36, 0x00, 0x00 @ :
 5064      0000
 5065 22d2 00005636 		.byte 0x00, 0x00, 0x56, 0x36, 0x00, 0x00 @ ;
 5065      0000
 5066 22d8 00081422 		.byte 0x00, 0x08, 0x14, 0x22, 0x41, 0x00 @ <
 5066      4100
 5067 22de 00141414 		.byte 0x00, 0x14, 0x14, 0x14, 0x14, 0x14 @ =
 5067      1414
 5068 22e4 00004122 		.byte 0x00, 0x00, 0x41, 0x22, 0x14, 0x08 @ >
 5068      1408
 5069 22ea 02015109 		.byte 0x02, 0x01, 0x51, 0x09, 0x06, 0x00 @ ?
 5069      0600
 5070 22f0 00324979 		.byte 0x00, 0x32, 0x49, 0x79, 0x41, 0x3E @ @
 5070      413E
ARM GAS  1.s 			page 92


 5071 22f6 007E1111 		.byte 0x00, 0x7E, 0x11, 0x11, 0x11, 0x7E @ A
 5071      117E
 5072 22fc 00417F49 		.byte 0x00, 0x41, 0x7F, 0x49, 0x49, 0x36 @ B
 5072      4936
 5073 2302 003E4141 		.byte 0x00, 0x3E, 0x41, 0x41, 0x41, 0x22 @ C
 5073      4122
 5074 2308 00417F41 		.byte 0x00, 0x41, 0x7F, 0x41, 0x41, 0x3E @ D
 5074      413E
 5075 230e 007F4949 		.byte 0x00, 0x7F, 0x49, 0x49, 0x49, 0x49 @ E
 5075      4949
 5076 2314 007F0909 		.byte 0x00, 0x7F, 0x09, 0x09, 0x09, 0x09 @ F
 5076      0909
 5077 231a 003E4141 		.byte 0x00, 0x3E, 0x41, 0x41, 0x51, 0x72 @ G
 5077      5172
 5078 2320 007F0808 		.byte 0x00, 0x7F, 0x08, 0x08, 0x08, 0x7F @ H
 5078      087F
 5079 2326 0000417F 		.byte 0x00, 0x00, 0x41, 0x7F, 0x41, 0x00 @ I
 5079      4100
 5080 232c 00204041 		.byte 0x00, 0x20, 0x40, 0x41, 0x3F, 0x01 @ J
 5080      3F01
 5081 2332 007F0814 		.byte 0x00, 0x7F, 0x08, 0x14, 0x22, 0x41 @ K
 5081      2241
 5082 2338 007F4040 		.byte 0x00, 0x7F, 0x40, 0x40, 0x40, 0x40 @ L
 5082      4040
 5083 233e 007F020C 		.byte 0x00, 0x7F, 0x02, 0x0C, 0x02, 0x7F @ M
 5083      027F
 5084 2344 817F0608 		.byte 0x81, 0x7F, 0x06, 0x08, 0x30, 0x7F @ N
 5084      307F
 5085 234a 003E4141 		.byte 0x00, 0x3E, 0x41, 0x41, 0x41, 0x3E @ O
 5085      413E
 5086 2350 007F0909 		.byte 0x00, 0x7F, 0x09, 0x09, 0x09, 0x06 @ P
 5086      0906
 5087 2356 003E4151 		.byte 0x00, 0x3E, 0x41, 0x51, 0x21, 0x5E @ Q
 5087      215E
 5088 235c 007F0919 		.byte 0x00, 0x7F, 0x09, 0x19, 0x29, 0x46 @ R
 5088      2946
 5089 2362 00264949 		.byte 0x00, 0x26, 0x49, 0x49, 0x49, 0x32 @ S
 5089      4932
 5090 2368 0001017F 		.byte 0x00, 0x01, 0x01, 0x7F, 0x01, 0x01 @ T
 5090      0101
 5091 236e 003F4040 		.byte 0x00, 0x3F, 0x40, 0x40, 0x40, 0x3F @ U
 5091      403F
 5092 2374 001F2040 		.byte 0x00, 0x1F, 0x20, 0x40, 0x20, 0x1F @ V
 5092      201F
 5093 237a 007F2018 		.byte 0x00, 0x7F, 0x20, 0x18, 0x20, 0x7F @ W
 5093      207F
 5094 2380 00631408 		.byte 0x00, 0x63, 0x14, 0x08, 0x14, 0x63 @ X
 5094      1463
 5095 2386 00070870 		.byte 0x00, 0x07, 0x08, 0x70, 0x08, 0x07 @ Y
 5095      0807
 5096 238c 00615149 		.byte 0x00, 0x61, 0x51, 0x49, 0x45, 0x43 @ Z
 5096      4543
 5097 2392 00007F41 		.byte 0x00, 0x00, 0x7F, 0x41, 0x41, 0x00 @ [
 5097      4100
 5098 2398 00020408 		.byte 0x00, 0x02, 0x04, 0x08, 0x10, 0x20 @ BackSlash
 5098      1020
 5099 239e 00004141 		.byte 0x00, 0x00, 0x41, 0x41, 0x7F, 0x00 @ ]
ARM GAS  1.s 			page 93


 5099      7F00
 5100 23a4 00040201 		.byte 0x00, 0x04, 0x02, 0x01, 0x02, 0x04 @ ^
 5100      0204
 5101 23aa 00404040 		.byte 0x00, 0x40, 0x40, 0x40, 0x40, 0x40 @ _
 5101      4040
 5102 23b0 00010204 		.byte 0x00, 0x01, 0x02, 0x04, 0x00, 0x00 @ `
 5102      0000
 5103 23b6 00205454 		.byte 0x00, 0x20, 0x54, 0x54, 0x54, 0x78 @ a
 5103      5478
 5104 23bc 007F4844 		.byte 0x00, 0x7F, 0x48, 0x44, 0x44, 0x38 @ b
 5104      4438
 5105 23c2 00384444 		.byte 0x00, 0x38, 0x44, 0x44, 0x44, 0x28 @ c
 5105      4428
 5106 23c8 00384444 		.byte 0x00, 0x38, 0x44, 0x44, 0x48, 0x7F @ d
 5106      487F
 5107 23ce 00385454 		.byte 0x00, 0x38, 0x54, 0x54, 0x54, 0x18 @ e
 5107      5418
 5108 23d4 0000087E 		.byte 0x00, 0x00, 0x08, 0x7E, 0x09, 0x02 @ f
 5108      0902
 5109 23da 000C5252 		.byte 0x00, 0x0C, 0x52, 0x52, 0x4C, 0x3E @ g
 5109      4C3E
 5110 23e0 007F0804 		.byte 0x00, 0x7F, 0x08, 0x04, 0x04, 0x78 @ h
 5110      0478
 5111 23e6 0000447D 		.byte 0x00, 0x00, 0x44, 0x7D, 0x40, 0x00 @ i
 5111      4000
 5112 23ec 00204044 		.byte 0x00, 0x20, 0x40, 0x44, 0x3D, 0x00 @ j
 5112      3D00
 5113 23f2 00007F10 		.byte 0x00, 0x00, 0x7F, 0x10, 0x28, 0x44 @ k
 5113      2844
 5114 23f8 0000417F 		.byte 0x00, 0x00, 0x41, 0x7F, 0x40, 0x00 @ l
 5114      4000
 5115 23fe 00780478 		.byte 0x00, 0x78, 0x04, 0x78, 0x04, 0x78 @ m
 5115      0478
 5116 2404 007C0804 		.byte 0x00, 0x7C, 0x08, 0x04, 0x04, 0x78 @ n
 5116      0478
 5117 240a 00387C7C 		.byte 0x00, 0x38, 0x7C, 0x7C, 0x7C, 0x38 @ o
 5117      7C38
 5118 2410 007E0C12 		.byte 0x00, 0x7E, 0x0C, 0x12, 0x12, 0x0C @ p
 5118      120C
 5119 2416 000C1212 		.byte 0x00, 0x0C, 0x12, 0x12, 0x0C, 0x7E @ q
 5119      0C7E
 5120 241c 007C0804 		.byte 0x00, 0x7C, 0x08, 0x04, 0x04, 0x08 @ r
 5120      0408
 5121 2422 00585454 		.byte 0x00, 0x58, 0x54, 0x54, 0x54, 0x64 @ s
 5121      5464
 5122 2428 00043F44 		.byte 0x00, 0x04, 0x3F, 0x44, 0x40, 0x20 @ t
 5122      4020
 5123 242e 003C4040 		.byte 0x00, 0x3C, 0x40, 0x40, 0x3C, 0x40 @ u
 5123      3C40
 5124 2434 001C2040 		.byte 0x00, 0x1C, 0x20, 0x40, 0x20, 0x1C @ v
 5124      201C
 5125 243a 003C4030 		.byte 0x00, 0x3C, 0x40, 0x30, 0x40, 0x3C @ w
 5125      403C
 5126 2440 00442810 		.byte 0x00, 0x44, 0x28, 0x10, 0x28, 0x44 @ x
 5126      2844
 5127 2446 001CA0A0 		.byte 0x00, 0x1C, 0xA0, 0xA0, 0x90, 0x7C @ y
 5127      907C
ARM GAS  1.s 			page 94


 5128 244c 00446454 		.byte 0x00, 0x44, 0x64, 0x54, 0x4C, 0x44 @ z
 5128      4C44
 5129 2452 00000836 		.byte 0x00, 0x00, 0x08, 0x36, 0x41, 0x00 @ {
 5129      4100
 5130 2458 00000077 		.byte 0x00, 0x00, 0x00, 0x77, 0x00, 0x00 @ |
 5130      0000
 5131 245e 00004136 		.byte 0x00, 0x00, 0x41, 0x36, 0x08, 0x00 @ }
 5131      0800
 5132 2464 00020102 		.byte 0x00, 0x02, 0x01, 0x02, 0x04, 0x02 @ ~
 5132      0402
 5133 246a 00000000 		.byte 0x00, 0x00, 0x00, 0x00, 0x00, 0x00 @
 5133      0000
 5134              	
 5135              		.align 4
 5136              	
 5137              	danweibiao:			 @15*24
 5138 2470 000000FE 		.byte 0x00, 0x00, 0x00, 0xFE, 0xFF, 0x7F, 0xFE, 0xFF, 0x7F, 0xFE, 0xFF, 0x7F, 0x00, 0xC0, 0x00, 0x
 5138      FF7FFEFF 
 5138      7FFEFF7F 
 5138      00C00000 
 5138      80010080 
 5139 249d 007F70E0 		.byte 0x00, 0x7F, 0x70, 0xE0, 0xFF, 0x73, 0xF0, 0xFF, 0x77, 0xF8, 0x00, 0x7F, 0x38, 0x00, 0x7C, 0x
 5139      FF73F0FF 
 5139      77F8007F 
 5139      38007C3C 
 5139      00701C00 
 5140 24ca 000000FE 		.byte 0x00, 0x00, 0x00, 0xFE, 0xFF, 0x7F, 0xFE, 0xFF, 0x7F, 0xFE, 0xFF, 0x7F, 0x0E, 0x1C, 0x00, 0x
 5140      FF7FFEFF 
 5140      7FFEFF7F 
 5140      0E1C000E 
 5140      1C000E1C 
 5141 24f7 00F87F00 		.byte 0x00, 0xF8, 0x7F, 0x00, 0xFC, 0x7F, 0x00, 0x1E, 0x00, 0x00, 0x0E, 0x00, 0x00, 0x0C, 0x00, 0x
 5141      FC7F001E 
 5141      00000E00 
 5141      000C0000 
 5141      1C0000F8 
 5142 2524 000000FC 		.byte 0x00, 0x00, 0x00, 0xFC, 0xFF, 0x0F, 0xFC, 0xFF, 0x0F, 0x3C, 0x00, 0x00, 0xF0, 0x01, 0x00, 0x
 5142      FF0FFCFF 
 5142      0F3C0000 
 5142      F0010080 
 5142      0F00003C 
 5143 2551 00000080 		.byte 0x00, 0x00, 0x00, 0x80, 0xFF, 0x7F, 0x80, 0xFF, 0x7F, 0x80, 0xFF, 0x7F, 0x00, 0x07, 0x00, 0x
 5143      FF7F80FF 
 5143      7F80FF7F 
 5143      00070080 
 5143      0300C001 
 5144 257e 000000FE 		.byte 0x00, 0x00, 0x00, 0xFE, 0xFF, 0x7F, 0xFE, 0xFF, 0x7F, 0xFE, 0xFF, 0x7F, 0x1C, 0xE0, 0x00, 0x
 5144      FF7FFEFF 
 5144      7FFEFF7F 
 5144      1CE0000E 
 5144      C0000680 
 5145 25ab 000000FE 		.byte 0x00, 0x00, 0x00, 0xFE, 0xFF, 0x7F, 0xFE, 0xFF, 0x7F, 0xFE, 0xFF, 0x7F, 0x00, 0x1C, 0x00, 0x
 5145      FF7FFEFF 
 5145      7FFEFF7F 
 5145      001C0000 
 5145      1C00001C 
 5146 25d8 000000FC 		.byte 0x00, 0x00, 0x00, 0xFC, 0xFF, 0x7F, 0xFC, 0xFF, 0x7F, 0xFC, 0xFF, 0x7F, 0x00, 0x7C, 0x00, 0x
ARM GAS  1.s 			page 95


 5146      FF7FFCFF 
 5146      7FFCFF7F 
 5146      007C0000 
 5146      FE0000EF 
 5147 2605 00000000 		.byte 0x00, 0x00, 0x00, 0x00, 0x00, 0x00, 0x00, 0x00, 0x00, 0x00, 0x00, 0x00, 0x00, 0x00, 0x00, 0x
 5147      00000000 
 5147      00000000 
 5147      00000000 
 5147      00000000 
 5148              		
ARM GAS  1.s 			page 96


DEFINED SYMBOLS
                 1.s:8      .text:00000000 vectors
                            *ABS*:200000fc zhanding
                 1.s:57     .text:000000c0 kaishi
                 1.s:4776   .text:00002190 _nmi
                 1.s:4777   .text:00002190 _Hard_Fault
                 1.s:4778   .text:00002190 _svc_handler
                 1.s:4779   .text:00002190 _pendsv_handler
                 1.s:4783   .text:00002192 _systick_zhongduan
                 1.s:4780   .text:00002190 aaa
                 1.s:58     .text:000000c0 __wai_she_shi_zhong
                            .text:00000000 $d
                 1.s:59     .text:000000c0 $t
                 1.s:84     .text:000000d4 shizhong
                 1.s:88     .text:000000da deng_hse
                 1.s:96     .text:000000e8 deng_pll
                 1.s:106    .text:000000f6 _neicunqingling
                 1.s:110    .text:000000fc _neicunqinglingxunhuan
                 1.s:115    .text:00000104 __pa_chu_shi_hua
                 1.s:132    .text:00000112 __pb_chu_shi_hua
                 1.s:150    .text:00000128 __pc_chu_shi_hua
                 1.s:157    .text:00000130 __spi1_chu_shi_hua
                 1.s:163    .text:00000136 __spi2_chu_shi_hua
                 1.s:1056   .text:00000874 __lcd_chushihua
                 1.s:1216   .text:00000974 __lcd_qingping
                 1.s:4995   .data:00000018 yjmwxwx
                 1.s:1287   .text:000009fe __xie_ascii
                 1.s:189    .text:00000154 __xian_shi
                 1.s:454    .text:00000400 __xian_shi_jiao_du
                 1.s:197    .text:0000015e tingting
                 1.s:207    .text:00000170 __zheng_shi_deng_liang1
                 1.s:223    .text:00000174 __GTIM3_chu_shi_hua
                 1.s:239    .text:0000018e __adc_chu_shi_hua
                 1.s:245    .text:00000194 __deng_chu_shi_hua
                 1.s:268    .text:000001b2 __DMA_chu_shi_hua
                            *ABS*:20000100 dianyabiao
                            *ABS*:200001d0 dianyabiao1
                            *ABS*:20001fd4 lvbo_changdu
                            *ABS*:20001fd8 lvbo_youyi
                            *ABS*:20001fdc cossin
                 1.s:5020   .data:00000110 cos_sin_biao_20k
                 1.s:311    .text:000001ee __chuchuang_chushihua
                 1.s:319    .text:000001fc __flash_jiaozhun_shuju
                 1.s:4981   .data:00000000 chuchang_cos_jiaodu_r
                 1.s:321    .text:000001fe __du_jiaozhun_biao_dao_nei_cun
                            *ABS*:0000f000 flash_cos_jiaodu_r
                            *ABS*:20001f5c cos_jiaodu_r
                 1.s:338    .text:00000218 __anjian0
                 1.s:414    .text:00000296 ting
                 1.s:341    .text:0000021a __anjian1
                 1.s:343    .text:0000021c __anjian2
                 1.s:405    .text:0000028a __an_jian
                 1.s:350    .text:0000022c __anjian_2
                 1.s:548    .text:0000046a __xie_flash
                            *ABS*:20001f94 cos_r
                            *ABS*:20001f98 cos_i
                 1.s:988    .text:000007f6 __atan2_ji_suan
ARM GAS  1.s 			page 97


                 1.s:882    .text:0000074c __jisuan_cos_sin
                            *ABS*:20001f60 cos_jiaodu_i
                            *ABS*:20001f9c sin_r
                            *ABS*:20001fa0 sin_i
                            *ABS*:20001f64 sin_jiaodu_r
                            *ABS*:20001f68 sin_jiaodu_i
                            *ABS*:20001f74 cos
                            *ABS*:20001f7c sin
                            *ABS*:20001f6c xuanzhuan_jiaodu_r
                            *ABS*:20001f70 xuanzhuan_jiaodu_i
                 1.s:394    .text:0000027c __anjian3
                 1.s:397    .text:0000027e __ren_wu_diao_du
                 1.s:5006   .data:00000040 an_jian_biao
                 1.s:490    .text:0000043a __xiang_yi
                            *ABS*:20001f4c jiao_sudu
                            *ABS*:20001f48 xiang_yi
                            *ABS*:20001fe0 asciibiao
                 1.s:1468   .text:00000b36 _zhuanascii
                 1.s:1384   .text:00000a9a __xie_lcd_ascii
                 1.s:451    .text:000002c0 $d
                 1.s:456    .text:00000400 $t
                 1.s:467    .text:00000416 __xianshi_zr
                 1.s:459    .text:00000406 __z_r_shi_fu
                 1.s:4999   .data:0000002e fu
                 1.s:472    .text:00000420 __xianshi_z_r
                 1.s:4997   .data:0000002a kong
                 1.s:533    .text:0000045c __tiao_guo_xiang_wei_bu_chang
                 1.s:502    .text:00000450 __tiaoguo_jingtai_panduan
                 1.s:536    .text:00000460 __bao_cun_zhuansu_jiaodu_xuanzhuan_yinzi
                            *ABS*:20001f40 zhuansu_jiaodu_r
                            *ABS*:20001f44 zhuansu_jiaodu_i
                 1.s:587    .text:000004ae __flash_mang
                 1.s:567    .text:0000048e __xie_flash_xun_huan
                 1.s:597    .text:000004ba __ji_suan_fu_du
                 1.s:607    .text:000004c4 _shibubushifushu
                 1.s:612    .text:000004cc _xububushifushu
                 1.s:617    .text:000004d4 _panduanxubushibushi0
                 1.s:621    .text:000004da _jisuanfudu1
                 1.s:634    .text:000004f0 _alpha_min_beta_max
                 1.s:626    .text:000004e2 _alpha_max_beta_min
                 1.s:646    .text:000004fe __xianshi_fudu
                 1.s:656    .text:00000510 __fudu_shi_fu
                 1.s:650    .text:00000504 __fudu_bushi_fu
                 1.s:663    .text:0000051e __xianshi_z_fudu
                 1.s:5001   .data:00000030 _fu
                 1.s:1498   .text:00000b66 __zhuanascii
                 1.s:674    .text:00000536 $d
                 1.s:674    .text:00000538 $d
                 1.s:677    .text:00000594 __xianshi_cos_sin_fudu
                 1.s:678    .text:00000594 $t
                            *ABS*:20001f8c cos_fudu
                            *ABS*:20001f90 sin_fudu
                 1.s:714    .text:000005c8 __xianshi_shangxia_bi
                 1.s:728    .text:000005e2 __shangbi_r_shi_fu
                 1.s:722    .text:000005d6 __shangbi_r_bushi_fu
                 1.s:735    .text:000005f0 __xianshi_shangbi_r
                 1.s:754    .text:00000616 __shangbi_i_shi_fu
ARM GAS  1.s 			page 98


                 1.s:748    .text:0000060a __shangbi_i_bushi_fu
                 1.s:761    .text:00000624 __xianshi_shangbi_i
                 1.s:784    .text:00000652 __xiabi_r_shi_fu
                 1.s:778    .text:00000646 __xiabi_r_bushi_fu
                 1.s:791    .text:00000660 __xianshi_xiabi_r
                 1.s:810    .text:00000686 __xiabi_i_shi_fu
                 1.s:804    .text:0000067a __xiabi_i_bushi_fu
                 1.s:817    .text:00000694 __xianshi_xiabi_i
                 1.s:830    .text:000006ac __xianshi_jiaodu
                            *ABS*:20001fc0 z_jiao_du
                 1.s:842    .text:000006c2 __z_jiaodu_shi_fu
                 1.s:836    .text:000006b6 __z_jiaodu_bushi_fu
                 1.s:849    .text:000006d0 __xianshi_z_jiaodu
                 1.s:860    .text:000006e8 $d
                 1.s:864    .text:00000734 __xiangwei_xuanzhuan
                 1.s:868    .text:00000734 $t
                 1.s:892    .text:0000075a __xiaoyu_180
                 1.s:894    .text:0000075c __js_cos_sin
                 1.s:903    .text:0000076c __jisuan_jiaodu_bushi0
                 1.s:905    .text:0000076e __jiance_chao90
                 1.s:912    .text:0000077a __xiaoyu_90
                 1.s:914    .text:0000077c __suan_cossin
                 1.s:1529   .text:00000bb4 _chufa
                 1.s:927    .text:00000794 __suan_cos_sin1
                 1.s:942    .text:000007ae __cordic_cos_sin
                 1.s:933    .text:000007a0 __cos_sin_fanhui
                 1.s:940    .text:000007ac __cossin_fh
                 1.s:956    .text:000007be cordicxunhuan
                 1.s:5012   .data:00000050 cordic_yong_atan_biao
                 1.s:5014   .data:00000090 cordic_yong_cos_sin
                 1.s:999    .text:00000806 __cordic_atan2_xun_huan
                 1.s:1000   .text:00000806 __du_cos_sin
                 1.s:1020   .text:0000082a __ni_shi_zhen_zhuan
                 1.s:1013   .text:0000081e __shun_shi_zhen_zhuan
                 1.s:1026   .text:00000834 __xuan_zhuan_wan
                 1.s:1045   .text:00000856 $d
                 1.s:1045   .text:00000858 $d
                 1.s:1057   .text:00000874 $t
                 1.s:1097   .text:000008d0 __lcd_yanshi
                 1.s:1102   .text:000008d6 __xie_spi1
                 1.s:1107   .text:000008da __deng_huan_chong_kong
                 1.s:1112   .text:000008e2 __deng_huan_chong_kong1
                 1.s:1116   .text:000008e8 __busy_zong_xian_mang
                 1.s:1127   .text:000008f2 __xie_spi2
                 1.s:1133   .text:000008fa __deng_huan_chong_kong2
                 1.s:1138   .text:00000902 __deng_huan_chong_kong3
                 1.s:1142   .text:00000908 __busy_zong_xian_mang1
                 1.s:1147   .text:0000090e __deng_huan_chong_kong4
                 1.s:1152   .text:00000916 __deng_huan_chong_kong5
                 1.s:1156   .text:0000091c __busy_zong_xian_mang2
                 1.s:1172   .text:0000092a __xie_lcd_ye
                 1.s:1178   .text:00000932 __ye_jia
                 1.s:1192   .text:00000946 __xie_ye_dizhi
                 1.s:1207   .text:00000966 __heng_sao
                 1.s:1221   .text:0000097c __ye_jia1
                 1.s:1231   .text:00000990 __xie_ye_dizhi1
                 1.s:1247   .text:000009b6 __heng_sao1
ARM GAS  1.s 			page 99


                 1.s:1255   .text:000009c2 __xie_lcd_weizhi
                 1.s:1300   .text:00000a10 __xie_lcd_dizhi2
                 1.s:1303   .text:00000a16 __du_ascii2
                 1.s:5036   .data:00002230 ascii_biao
                 1.s:1309   .text:00000a20 __du_ziku_chushihua2
                 1.s:1311   .text:00000a22 __du_ziku1
                 1.s:1318   .text:00000a30 __duwan_ziku1
                 1.s:1326   .text:00000a3c __xie_alabo
                 1.s:1345   .text:00000a58 __xie_lcd_dizhi1
                 1.s:1348   .text:00000a5e __du_ascii1
                 1.s:1354   .text:00000a68 __du_ziku_chushihua1
                 1.s:1356   .text:00000a6a __du_ziku
                 1.s:1363   .text:00000a78 __duwan_ziku
                 1.s:1402   .text:00000ab4 __xie_lcd_dizhi
                 1.s:1405   .text:00000aba __du_ascii
                 1.s:1441   .text:00000af8 __xie_ascii_xiaoshudian
                 1.s:5024   .data:00002050 da_a_labo_hack
                 1.s:1414   .text:00000ac8 __du_ziku_16_chushihua
                 1.s:1416   .text:00000aca __du_ziku_16
                 1.s:1423   .text:00000ad8 __duwan_16
                 1.s:1457   .text:00000b1c __xie_ru_xiaoshudian
                 1.s:1475   .text:00000b40 _xunhuanqiuma
                 1.s:1494   .text:00000b62 _qiumafanhui
                 1.s:1489   .text:00000b5a _meidaoxiaoshudian
                 1.s:1505   .text:00000b70 __xunhuanqiuma
                 1.s:1524   .text:00000b94 __qiumafanhui
                 1.s:1519   .text:00000b8c __meidaoxiaoshudian
                 1.s:1527   .text:00000b98 $d
                 1.s:1531   .text:00000bb4 $t
                 1.s:1551   .text:00000bd8 _chufafanhui
                 1.s:1541   .text:00000bc8 _chufaxunhuan
                 1.s:1548   .text:00000bd4 _chufaweishubudao0
                 1.s:1558   .text:00000bda __dft
                 1.s:1579   .text:00000c0c __dft_xunhuan
                 1.s:1578   .text:00000c00 $d
                 1.s:1581   .text:00000c0c $t
                 1.s:4711   .text:00002130 __dft_fanhuile
                 1.s:4727   .text:0000214e $d
                 1.s:4727   .text:00002150 $d
                 1.s:4734   .text:00002158 __lv_bo_qi
                 1.s:4738   .text:00002158 $t
                 1.s:4754   .text:00002178 __huanchong_leijia
                 1.s:4763   .text:00002188 $d
                 1.s:4781   .text:00002190 $t
                            *ABS*:20001f54 jiaodu_r
                            *ABS*:20001f58 jiaodu_i
                            *ABS*:20001f88 xuanbian_jiaodu
                 1.s:4871   .text:00002228 __baocun_jiaodu
                            *ABS*:20001f3c fangxiang
                            *ABS*:20001f50 shangci_jiaodu
                 1.s:4885   .text:0000223a __baocun_jiao_sudu
                 1.s:4892   .text:00002246 __baocun_jiao_su_du
                 1.s:4907   .text:00002258 __zheng_shi_deng_liang
                 1.s:4909   .text:0000225a __systick_fanhui
                 1.s:4921   *ABS*:0000f004 flash_cos_jiaodu_i
                 1.s:4922   *ABS*:0000f008 flash_sin_jiaodu_r
                 1.s:4923   *ABS*:0000f00c flash_sin_jiaodu_i
ARM GAS  1.s 			page 100


                 1.s:4924   *ABS*:0000f010 flash_xuanzhuan_jiaodu_r
                 1.s:4925   *ABS*:0000f014 flashxuanzhuan_jiaodu_i
                 1.s:4932   *ABS*:200010b0 lvboqizhizhen
                 1.s:4933   *ABS*:200010b8 lvboqihuanchong
                 1.s:4934   *ABS*:20001800 lvboqizhizhen1
                 1.s:4935   *ABS*:20001808 lvboqihuanchong1
                 1.s:4936   *ABS*:200010b0 lvboqizhizhen2
                 1.s:4937   *ABS*:200010b8 lvboqihuanchong2
                 1.s:4938   *ABS*:20001800 lvboqizhizhen3
                 1.s:4939   *ABS*:20001808 lvboqihuanchong3
                 1.s:4959   *ABS*:20001f84 xuanzhuan_kaiguan
                 1.s:4968   *ABS*:20001fb8 z_r
                 1.s:4969   *ABS*:20001fbc z_i
                 1.s:4971   *ABS*:20001fc4 shangbi_r
                 1.s:4972   *ABS*:20001fc8 shangbi_i
                 1.s:4973   *ABS*:20001fcc shangbi_rr
                 1.s:4974   *ABS*:20001fd0 shangbi_ii
                 1.s:4983   .data:00000004 chuchang_cos_jiaodu_i
                 1.s:4985   .data:00000008 chuchang_sin_jiaodu_r
                 1.s:4987   .data:0000000c chuchang_sin_jiaodu_i
                 1.s:4989   .data:00000010 chuchang_jiaodu_r
                 1.s:4991   .data:00000014 chuchang_jiaodu_i
                 1.s:5005   .data:00000031 $d
                 1.s:5137   .data:00002470 danweibiao
                 1.s:4919   .text:00002262 $d
                 1.s:5148   .text:00002264 $d

NO UNDEFINED SYMBOLS
